L251 LINKER/LOCATER V4.66.93.0                                                          04/15/2024  21:19:48  PAGE 1


L251 LINKER/LOCATER V4.66.93.0, INVOKED BY:
C:\KEIL_V5\C251\BIN\L251.EXE .\Out_File\board.obj, .\Out_File\common.obj, .\Out_File\zf_adc.obj, .\Out_File\zf_delay.obj
>> , .\Out_File\zf_eeprom.obj, .\Out_File\zf_exti.obj, .\Out_File\zf_gpio.obj, .\Out_File\zf_nvic.obj, .\Out_File\zf_pwm
>> .obj, .\Out_File\zf_spi.obj, .\Out_File\zf_tim.obj, .\Out_File\zf_uart.obj, .\Out_File\zf_fifo.obj, .\Out_File\zf_iic
>> .obj, .\Out_File\SEEKFREE_18TFT.obj, .\Out_File\SEEKFREE_BLUETOOTH_CH9141.obj, Libraries\seekfree_peripheral\SEEKFREE
>> _CONFIG.LIB, .\Out_File\SEEKFREE_DL1A.obj, .\Out_File\SEEKFREE_DL1B.obj, .\Out_File\SEEKFREE_FONT.obj, .\Out_File\SEE
>> KFREE_ICM20602.obj, .\Out_File\SEEKFREE_IMU660RA.obj, .\Out_File\SEEKFREE_IMU963RA.obj, .\Out_File\SEEKFREE_IPS114_SP
>> I.obj, .\Out_File\SEEKFREE_MPU6050.obj, .\Out_File\SEEKFREE_OLED.obj, .\Out_File\SEEKFREE_PRINTF.obj, .\Out_File\SEEK
>> FREE_TSL1401.obj, .\Out_File\SEEKFREE_VIRSCO.obj, .\Out_File\SEEKFREE_WIRELESS.obj, .\Out_File\SEEKFREE_WIRELESS_CH57
>> 3.obj, .\Out_File\main.obj, .\Out_File\qmc5883.obj, .\Out_File\uart.obj, .\Out_File\isr.obj, .\Out_File\key.obj, .\Ou
>> t_File\host_comm.obj, .\Out_File\laser_ranging.obj, .\Out_File\motor_driver_boards.obj, .\Out_File\seekfree_assistant
>> .obj, .\Out_File\seekfree_assistant_inface.obj TO .\Out_File\SEEKFREE PRINT (.\Out_File\SEEKFREE.map) CASE DISABLEWAR
>> NING (15, 16, 57) REMOVEUNUSED CLASSES (EDATA (0X0-0XFFF), HDATA (0X0-0XFFF))


CPU MODE:     251 SOURCE MODE
INTR FRAME:   2 BYTES SAVED ON INTERRUPT
MEMORY MODEL: XSMALL WITH FLOATING POINT ARITHMETIC


INPUT MODULES INCLUDED:
  .\Out_File\board.obj (board)
         COMMENT TYPE 0: C251 V5.60.0
  .\Out_File\common.obj (common)
         COMMENT TYPE 0: C251 V5.60.0
  .\Out_File\zf_adc.obj (zf_adc)
         COMMENT TYPE 0: C251 V5.60.0
  .\Out_File\zf_delay.obj (zf_delay)
         COMMENT TYPE 0: C251 V5.60.0
  .\Out_File\zf_eeprom.obj (zf_eeprom)
         COMMENT TYPE 0: C251 V5.60.0
  .\Out_File\zf_exti.obj (zf_exti)
         COMMENT TYPE 0: C251 V5.60.0
  .\Out_File\zf_gpio.obj (zf_gpio)
         COMMENT TYPE 0: C251 V5.60.0
  .\Out_File\zf_nvic.obj (zf_nvic)
         COMMENT TYPE 0: C251 V5.60.0
  .\Out_File\zf_pwm.obj (zf_pwm)
         COMMENT TYPE 0: C251 V5.60.0
  .\Out_File\zf_spi.obj (zf_spi)
         COMMENT TYPE 0: C251 V5.60.0
  .\Out_File\zf_tim.obj (zf_tim)
         COMMENT TYPE 0: C251 V5.60.0
  .\Out_File\zf_uart.obj (zf_uart)
         COMMENT TYPE 0: C251 V5.60.0
  .\Out_File\zf_fifo.obj (zf_fifo)
         COMMENT TYPE 0: C251 V5.60.0
  .\Out_File\zf_iic.obj (zf_iic)
         COMMENT TYPE 0: C251 V5.60.0
  .\Out_File\SEEKFREE_18TFT.obj (SEEKFREE_18TFT)
         COMMENT TYPE 0: C251 V5.60.0
  .\Out_File\SEEKFREE_BLUETOOTH_CH9141.obj (SEEKFREE_BLUETOOTH_CH9141)
         COMMENT TYPE 0: C251 V5.60.0
  .\Out_File\SEEKFREE_DL1A.obj (SEEKFREE_DL1A)
         COMMENT TYPE 0: C251 V5.60.0
  .\Out_File\SEEKFREE_DL1B.obj (SEEKFREE_DL1B)
         COMMENT TYPE 0: C251 V5.60.0
  .\Out_File\SEEKFREE_FONT.obj (SEEKFREE_FONT)
         COMMENT TYPE 0: C251 V5.60.0
  .\Out_File\SEEKFREE_ICM20602.obj (SEEKFREE_ICM20602)
         COMMENT TYPE 0: C251 V5.60.0
  .\Out_File\SEEKFREE_IMU660RA.obj (SEEKFREE_IMU660RA)
         COMMENT TYPE 0: C251 V5.60.0
  .\Out_File\SEEKFREE_IMU963RA.obj (SEEKFREE_IMU963RA)
         COMMENT TYPE 0: C251 V5.60.0
  .\Out_File\SEEKFREE_IPS114_SPI.obj (SEEKFREE_IPS114_SPI)
L251 LINKER/LOCATER V4.66.93.0                                                        04/15/2024  21:19:48  PAGE 2


         COMMENT TYPE 0: C251 V5.60.0
  .\Out_File\SEEKFREE_MPU6050.obj (SEEKFREE_MPU6050)
         COMMENT TYPE 0: C251 V5.60.0
  .\Out_File\SEEKFREE_OLED.obj (SEEKFREE_OLED)
         COMMENT TYPE 0: C251 V5.60.0
  .\Out_File\SEEKFREE_PRINTF.obj (SEEKFREE_PRINTF)
         COMMENT TYPE 0: C251 V5.60.0
  .\Out_File\SEEKFREE_TSL1401.obj (SEEKFREE_TSL1401)
         COMMENT TYPE 0: C251 V5.60.0
  .\Out_File\SEEKFREE_VIRSCO.obj (SEEKFREE_VIRSCO)
         COMMENT TYPE 0: C251 V5.60.0
  .\Out_File\SEEKFREE_WIRELESS.obj (SEEKFREE_WIRELESS)
         COMMENT TYPE 0: C251 V5.60.0
  .\Out_File\SEEKFREE_WIRELESS_CH573.obj (SEEKFREE_WIRELESS_CH573)
         COMMENT TYPE 0: C251 V5.60.0
  .\Out_File\main.obj (main)
         COMMENT TYPE 0: C251 V5.60.0
  .\Out_File\qmc5883.obj (qmc5883)
         COMMENT TYPE 0: C251 V5.60.0
  .\Out_File\uart.obj (uart)
         COMMENT TYPE 0: C251 V5.60.0
  .\Out_File\isr.obj (isr)
         COMMENT TYPE 0: C251 V5.60.0
  .\Out_File\key.obj (key)
         COMMENT TYPE 0: C251 V5.60.0
  .\Out_File\host_comm.obj (host_comm)
         COMMENT TYPE 0: C251 V5.60.0
  .\Out_File\laser_ranging.obj (laser_ranging)
         COMMENT TYPE 0: C251 V5.60.0
  .\Out_File\motor_driver_boards.obj (motor_driver_boards)
         COMMENT TYPE 0: C251 V5.60.0
  .\Out_File\seekfree_assistant.obj (seekfree_assistant)
         COMMENT TYPE 0: C251 V5.60.0
  .\Out_File\seekfree_assistant_inface.obj (seekfree_assistant_inface)
         COMMENT TYPE 0: C251 V5.60.0
  Libraries\seekfree_peripheral\SEEKFREE_CONFIG.LIB (SEEKFREE_CONFIG)
         COMMENT TYPE 0: C251 V5.60.0
  C:\KEIL_V5\C251\LIB\C2SFPXS.LIB (?C?FPADD)
         COMMENT TYPE 0: A251 V4.69.6.0
  C:\KEIL_V5\C251\LIB\C2SFPXS.LIB (?C?FPMUL)
         COMMENT TYPE 0: A251 V4.69.6.0
  C:\KEIL_V5\C251\LIB\C2SFPXS.LIB (?C?FPDIV)
         COMMENT TYPE 0: A251 V4.69.6.0
  C:\KEIL_V5\C251\LIB\C2SFPXS.LIB (?C?FPCMP)
         COMMENT TYPE 0: A251 V4.69.6.0
  C:\KEIL_V5\C251\LIB\C2SFPXS.LIB (?C?FCAST)
         COMMENT TYPE 0: A251 V4.69.6.0
  C:\KEIL_V5\C251\LIB\C2SFPXS.LIB (?C?CASTF)
         COMMENT TYPE 0: A251 V4.69.6.0
  C:\KEIL_V5\C251\LIB\C2SFPXS.LIB (PRINTF)
         COMMENT TYPE 0: A251 V4.69.6.0
  C:\KEIL_V5\C251\LIB\C2SFPXS.LIB (ATOF?_)
         COMMENT TYPE 0: A251 V4.69.6.0
  C:\KEIL_V5\C251\LIB\C2SFPXS.LIB (?C?FPGETOPN)
         COMMENT TYPE 0: A251 V4.69.6.0
  C:\KEIL_V5\C251\LIB\C2SFPXS.LIB (?C?ATOF)
         COMMENT TYPE 0: A251 V4.69.6.0
  C:\KEIL_V5\C251\LIB\C2SFPXS.LIB (?C?PRNFMT)
         COMMENT TYPE 0: A251 V4.69.6.0
  C:\KEIL_V5\C251\LIB\C2SFPXS.LIB (?C?FPNEG)
         COMMENT TYPE 0: A251 V4.69.6.0
  C:\KEIL_V5\C251\LIB\C2SFPXS.LIB (?C?FTNPWR)
         COMMENT TYPE 0: A251 V4.69.6.0
  C:\KEIL_V5\C251\LIB\C2SFPXS.LIB (?C?FPCONVERT)
         COMMENT TYPE 0: A251 V4.69.6.0
L251 LINKER/LOCATER V4.66.93.0                                                        04/15/2024  21:19:48  PAGE 3


  C:\KEIL_V5\C251\LIB\C2SXS.LIB (?C_START)
         COMMENT TYPE 0: A251 V4.69.6.0
  C:\KEIL_V5\C251\LIB\C2SXS.LIB (?C?INITEDATA)
         COMMENT TYPE 0: A251 V4.69.6.0
  C:\KEIL_V5\C251\LIB\C2SXS.LIB (?C?INITHDATA)
         COMMENT TYPE 0: A251 V4.69.6.0
  C:\KEIL_V5\C251\LIB\C2SXS.LIB (?C?SIDIV)
         COMMENT TYPE 0: A251 V4.69.6.0
  C:\KEIL_V5\C251\LIB\C2SXS.LIB (?C?LMUL)
         COMMENT TYPE 0: A251 V4.69.6.0
  C:\KEIL_V5\C251\LIB\C2SXS.LIB (?C?LIMUL)
         COMMENT TYPE 0: A251 V4.69.6.0
  C:\KEIL_V5\C251\LIB\C2SXS.LIB (?C?ULDIV)
         COMMENT TYPE 0: A251 V4.69.6.0
  C:\KEIL_V5\C251\LIB\C2SXS.LIB (?C?SLDIV)
         COMMENT TYPE 0: A251 V4.69.6.0
  C:\KEIL_V5\C251\LIB\C2SXS.LIB (ISSPACE)
         COMMENT TYPE 0: C251 V5.58.7
  C:\KEIL_V5\C251\LIB\C2SXS.LIB (memcpy)
         COMMENT TYPE 0: C251 V5.58.7
  C:\KEIL_V5\C251\LIB\C2SXS.LIB (memset)
         COMMENT TYPE 0: C251 V5.58.7
  C:\KEIL_V5\C251\LIB\C2SXS.LIB (?C?INITEDATA_END)
         COMMENT TYPE 0: A251 V4.69.6.0
  C:\KEIL_V5\C251\LIB\C2SXS.LIB (?C?INITHDATA_END)
         COMMENT TYPE 0: A251 V4.69.6.0


ACTIVE MEMORY CLASSES OF MODULE:  .\Out_File\SEEKFREE (board)

BASE        START       END         USED      MEMORY CLASS
==========================================================
000000H     000000H     000FFFH     000B6CH   EDATA
000000H     000000H     000FFFH               HDATA
FF0000H     FF0000H     FFFFFFH     007BC9H   CODE
000000H     FF0000H     FFFFFFH     000484H   HCONST
010000H     010000H     01FFFFH     0006DDH   XDATA
000020H.0   000020H.0   00002FH.7   000001H.5 BIT
FF0000H     FF0000H     FFFFFFH     000004H   CONST
000000H     000000H     00007FH     000008H   DATA


MEMORY MAP OF MODULE:  .\Out_File\SEEKFREE (board)


START     STOP      LENGTH    ALIGN  RELOC    MEMORY CLASS   SEGMENT NAME
=========================================================================
000000H   000007H   000008H   ---    AT..     DATA           "REG BANK 0"
000008H   00001FH   000018H   BYTE   UNIT     EDATA          ?ED?FIFO_READ_BUFFER?ZF_FIFO
000020H.0 000021H.3 000001H.4 BIT    UNIT     BIT            ?BI?UART
000021H.4 000021H.4 000000H.1 BIT    UNIT     BIT            ?BI?KEY
000021H.5 000021H   000000H.3 ---    ---      **GAP**
000022H   000131H   000110H   BYTE   UNIT     EDATA          ?ED?QMC5883
000132H   000208H   0000D7H   BYTE   UNIT     EDATA          ?ED?LASER_RANGING
000209H   000295H   00008DH   BYTE   UNIT     EDATA          ?ED?SEEKFREE_ASSISTANT_DATA_ANALYSIS?SEEKFREE_ASSISTANT
000296H   00030DH   000078H   BYTE   UNIT     EDATA          ?ED?UART
00030EH   00036CH   00005FH   BYTE   UNIT     EDATA          ?ED?ZF_SPRINTF?SEEKFREE_PRINTF
00036DH   0003C6H   00005AH   BYTE   UNIT     EDATA          ?ED?SEEKFREE_ASSISTANT
0003C7H   0003F6H   000030H   BYTE   UNIT     EDATA          ?ED?OLED_PRINTF_FLOAT?SEEKFREE_OLED
0003F7H   000426H   000030H   BYTE   UNIT     EDATA          ?ED?OLED_PRINTF_FLOAT_SPI?SEEKFREE_OLED
000427H   000452H   00002CH   BYTE   UNIT     EDATA          ?ED?OLED_PRINTF_INT32?SEEKFREE_OLED
000453H   00047EH   00002CH   BYTE   UNIT     EDATA          ?ED?OLED_PRINTF_INT32_SPI?SEEKFREE_OLED
00047FH   0004A8H   00002AH   BYTE   UNIT     EDATA          ?ED?SEEKFREE_ASSISTANT_OSCILLOSCOPE_SEND?SEEKFREE_ASSISTAN
                                                             -T
0004A9H   0004C7H   00001FH   BYTE   UNIT     EDATA          ?ED?DL1A_SET_MEASUREMENT_TIMING_BUDGET?SEEKFREE_DL1A
L251 LINKER/LOCATER V4.66.93.0                                                        04/15/2024  21:19:48  PAGE 4


0004C8H   0004E6H   00001FH   BYTE   UNIT     EDATA          ?ED?SEEKFREE_ASSISTANT_CAMERA_BOUNDARY_CONFIG?SEEKFREE_ASS
                                                             -ISTANT
0004E7H   000501H   00001BH   BYTE   UNIT     EDATA          ?ED?DL1A_GET_MEASUREMENT_TIMING_BUDGET?SEEKFREE_DL1A
000502H   000519H   000018H   BYTE   UNIT     EDATA          ?ED?FIFO_READ_TAIL_BUFFER?ZF_FIFO
00051AH   00052FH   000016H   BYTE   UNIT     EDATA          ?ED?ATOF?QMC5883
000530H   000543H   000014H   BYTE   UNIT     EDATA          ?ED?PWM_INIT?ZF_PWM
000544H   000557H   000014H   BYTE   UNIT     EDATA          ?ED?PWM_FREQ?ZF_PWM
000558H   00056BH   000014H   BYTE   UNIT     EDATA          ?ED?NUMBER_CONVERSION_ASCII?SEEKFREE_PRINTF
00056CH   00057DH   000012H   BYTE   UNIT     EDATA          ?ED?FIFO_WRITE_BUFFER?ZF_FIFO
00057EH   00058FH   000012H   BYTE   UNIT     EDATA          ?ED?SEEKFREE_IMU963RA
000590H   00059FH   000010H   BYTE   UNIT     EDATA          ?ED?FIFO_INIT?ZF_FIFO
0005A0H   0005AFH   000010H   BYTE   UNIT     EDATA          ?ED?DL1B_IIC_TRANSFER_8BIT_ARRAY?SEEKFREE_DL1B
0005B0H   0005BFH   000010H   BYTE   UNIT     EDATA          ?ED?OLED_DIS_BMP?SEEKFREE_OLED
0005C0H   0005CFH   000010H   BYTE   UNIT     EDATA          ?ED?OLED_DIS_BMP_SPI?SEEKFREE_OLED
0005D0H   0005DEH   00000FH   BYTE   UNIT     EDATA          ?ED?SEEKFREE_ASSISTANT_CAMERA_DATA_SEND?SEEKFREE_ASSISTANT
0005DFH   0005ECH   00000EH   BYTE   UNIT     EDATA          ?ED?PWM_DUTY?ZF_PWM
0005EDH   0005FAH   00000EH   BYTE   UNIT     EDATA          ?ED?UART_INIT?ZF_UART
0005FBH   000608H   00000EH   BYTE   UNIT     EDATA          ?ED?OLED_PRINT_CHINESE?SEEKFREE_OLED
000609H   000616H   00000EH   BYTE   UNIT     EDATA          ?ED?OLED_PRINT_CHINESE_SPI?SEEKFREE_OLED
000617H   000624H   00000EH   BYTE   UNIT     EDATA          ?ED?DATA_CONVERSION?SEEKFREE_VIRSCO
000625H   000631H   00000DH   BYTE   UNIT     EDATA          ?ED?SPI_INIT?ZF_SPI
000632H   00063EH   00000DH   BYTE   UNIT     EDATA          ?ED?PRINTF_REVERSE_ORDER?SEEKFREE_PRINTF
00063FH   00064AH   00000CH   BYTE   UNIT     EDATA          ?ED?FIFO_READ_ELEMENT?ZF_FIFO
00064BH   000656H   00000CH   BYTE   UNIT     EDATA          ?ED?LCD_SHOWFLOAT_SIMSPI?SEEKFREE_18TFT
000657H   000662H   00000CH   BYTE   UNIT     EDATA          ?ED?LCD_SHOWFLOAT?SEEKFREE_18TFT
000663H   00066EH   00000CH   BYTE   UNIT     EDATA          ?ED?SHOWIMAGE?SEEKFREE_18TFT
00066FH   00067AH   00000CH   BYTE   UNIT     EDATA          ?ED?SEEKFREE_ICM20602
00067BH   000686H   00000CH   BYTE   UNIT     EDATA          ?ED?SEEKFREE_IMU660RA
000687H   000692H   00000CH   BYTE   UNIT     EDATA          ?ED?IPS114_SHOWFLOAT_SIMSPI?SEEKFREE_IPS114_SPI
000693H   00069EH   00000CH   BYTE   UNIT     EDATA          ?ED?IPS114_SHOWFLOAT?SEEKFREE_IPS114_SPI
00069FH   0006AAH   00000CH   BYTE   UNIT     EDATA          ?ED?SEEKFREE_MPU6050
0006ABH   0006B5H   00000BH   BYTE   UNIT     EDATA          ?ED?OLED_UINT16?SEEKFREE_OLED
0006B6H   0006C0H   00000BH   BYTE   UNIT     EDATA          ?ED?OLED_INT16?SEEKFREE_OLED
0006C1H   0006CBH   00000BH   BYTE   UNIT     EDATA          ?ED?OLED_UINT16_SPI?SEEKFREE_OLED
0006CCH   0006D6H   00000BH   BYTE   UNIT     EDATA          ?ED?OLED_INT16_SPI?SEEKFREE_OLED
0006D7H   0006E0H   00000AH   BYTE   UNIT     EDATA          ?ED?IAP_READ_BYTES?ZF_EEPROM
0006E1H   0006EAH   00000AH   BYTE   UNIT     EDATA          ?ED?IAP_WRITE_BYTES?ZF_EEPROM
0006EBH   0006F4H   00000AH   BYTE   UNIT     EDATA          ?ED?UART_PUTBUFF?ZF_UART
0006F5H   0006FEH   00000AH   BYTE   UNIT     EDATA          ?ED?FIFO_WRITE_ELEMENT?ZF_FIFO
0006FFH   000708H   00000AH   BYTE   UNIT     EDATA          ?ED?DL1A_SIMIIC_READ_REGS?SEEKFREE_DL1A
000709H   000712H   00000AH   BYTE   UNIT     EDATA          ?ED?DL1A_SIMIIC_READ_REGS_1?SEEKFREE_DL1A
000713H   00071CH   00000AH   BYTE   UNIT     EDATA          ?ED?DL1A_GET_SPAD_INFO?SEEKFREE_DL1A
00071DH   000726H   00000AH   BYTE   UNIT     EDATA          ?ED?SEEKFREE_VIRSCO
000727H   000730H   00000AH   BYTE   UNIT     EDATA          ?ED?ATOI?QMC5883
000731H   00073AH   00000AH   BYTE   UNIT     EDATA          ?ED?SEEKFREE_ASSISTANT_CAMERA_INFORMATION_CONFIG?SEEKFREE_
                                                             -ASSISTANT
00073BH   000743H   000009H   BYTE   UNIT     EDATA          ?ED?LCD_SHOWINT32_SIMSPI?SEEKFREE_18TFT
000744H   00074CH   000009H   BYTE   UNIT     EDATA          ?ED?LCD_SHOWINT32?SEEKFREE_18TFT
00074DH   000755H   000009H   BYTE   UNIT     EDATA          ?ED?DL1A_SIMIIC_WRITE_DATS?SEEKFREE_DL1A
000756H   00075EH   000009H   BYTE   UNIT     EDATA          ?ED?ICM20602_SIMSPI_R_REG_BYTES?SEEKFREE_ICM20602
00075FH   000767H   000009H   BYTE   UNIT     EDATA          ?ED?ICM20602_READ_REGISTERS?SEEKFREE_ICM20602
000768H   000770H   000009H   BYTE   UNIT     EDATA          ?ED?IMU660RA_SIMSPI_W_REG_BYTES?SEEKFREE_IMU660RA
000771H   000779H   000009H   BYTE   UNIT     EDATA          ?ED?IMU660RA_SIMSPI_R_REG_BYTES?SEEKFREE_IMU660RA
00077AH   000782H   000009H   BYTE   UNIT     EDATA          ?ED?IMU660RA_WRITE_REGISTERS?SEEKFREE_IMU660RA
000783H   00078BH   000009H   BYTE   UNIT     EDATA          ?ED?IMU660RA_READ_REGISTERS?SEEKFREE_IMU660RA
00078CH   000794H   000009H   BYTE   UNIT     EDATA          ?ED?IMU963RA_SIMSPI_R_REG_BYTES?SEEKFREE_IMU963RA
000795H   00079DH   000009H   BYTE   UNIT     EDATA          ?ED?IMU963RA_READ_ACC_GYRO_REGISTERS?SEEKFREE_IMU963RA
00079EH   0007A6H   000009H   BYTE   UNIT     EDATA          ?ED?IPS114_SHOWINT32_SIMSPI?SEEKFREE_IPS114_SPI
0007A7H   0007AFH   000009H   BYTE   UNIT     EDATA          ?ED?IPS114_SHOWINT32?SEEKFREE_IPS114_SPI
0007B0H   0007B8H   000009H   BYTE   UNIT     EDATA          ?ED?CRC_CHECK?SEEKFREE_VIRSCO
0007B9H   0007C1H   000009H   BYTE   UNIT     EDATA          ?ED?QMC5883_DATA_PARSE?QMC5883
0007C2H   0007CAH   000009H   BYTE   UNIT     EDATA          ?ED?SEEKFREE_ASSISTANT_SUM?SEEKFREE_ASSISTANT
0007CBH   0007D2H   000008H   BYTE   UNIT     EDATA          ?ED?FIFO_HEAD_OFFSET?ZF_FIFO
0007D3H   0007DAH   000008H   BYTE   UNIT     EDATA          ?ED?FIFO_END_OFFSET?ZF_FIFO
0007DBH   0007E2H   000008H   BYTE   UNIT     EDATA          ?ED?LCD_SET_REGION_SIMSPI?SEEKFREE_18TFT
L251 LINKER/LOCATER V4.66.93.0                                                        04/15/2024  21:19:48  PAGE 5


0007E3H   0007EAH   000008H   BYTE   UNIT     EDATA          ?ED?LCD_SHOWSTR_SIMSPI?SEEKFREE_18TFT
0007EBH   0007F2H   000008H   BYTE   UNIT     EDATA          ?ED?LCD_SET_REGION?SEEKFREE_18TFT
0007F3H   0007FAH   000008H   BYTE   UNIT     EDATA          ?ED?LCD_SHOWSTR?SEEKFREE_18TFT
0007FBH   000802H   000008H   BYTE   UNIT     EDATA          ?ED?BLUETOOTH_CH9141_SEND_BUFF?SEEKFREE_BLUETOOTH_CH9141
000803H   00080AH   000008H   BYTE   UNIT     EDATA          ?ED?BLUETOOTH_CH9141_READ_BUFF?SEEKFREE_BLUETOOTH_CH9141
00080BH   000812H   000008H   BYTE   UNIT     EDATA          ?ED?DL1A_GET_SEQUENCE_STEP_TIMEOUTS?SEEKFREE_DL1A
000813H   00081AH   000008H   BYTE   UNIT     EDATA          ?ED?IPS114_SET_REGION_SIMSPI?SEEKFREE_IPS114_SPI
00081BH   000822H   000008H   BYTE   UNIT     EDATA          ?ED?IPS114_SHOWSTR_SIMSPI?SEEKFREE_IPS114_SPI
000823H   00082AH   000008H   BYTE   UNIT     EDATA          ?ED?IPS114_SET_REGION?SEEKFREE_IPS114_SPI
00082BH   000832H   000008H   BYTE   UNIT     EDATA          ?ED?IPS114_SHOWSTR?SEEKFREE_IPS114_SPI
000833H   00083AH   000008H   BYTE   UNIT     EDATA          ?ED?OLED_P6X8STR?SEEKFREE_OLED
00083BH   000842H   000008H   BYTE   UNIT     EDATA          ?ED?OLED_P8X16STR?SEEKFREE_OLED
000843H   00084AH   000008H   BYTE   UNIT     EDATA          ?ED?OLED_P6X8STR_SPI?SEEKFREE_OLED
00084BH   000852H   000008H   BYTE   UNIT     EDATA          ?ED?OLED_P8X16STR_SPI?SEEKFREE_OLED
000853H   00085AH   000008H   BYTE   UNIT     EDATA          ?ED?WIRELESS_UART_SEND_BUFF?SEEKFREE_WIRELESS
00085BH   000862H   000008H   BYTE   UNIT     EDATA          ?ED?WIRELESS_UART_READ_BUFF?SEEKFREE_WIRELESS
000863H   00086AH   000008H   BYTE   UNIT     EDATA          ?ED?WIRELESS_CH573_READ_BUFF?SEEKFREE_WIRELESS_CH573
00086BH   000871H   000007H   BYTE   UNIT     EDATA          ?ED?IIC_READ_REG_BYTES?ZF_IIC
000872H   000878H   000007H   BYTE   UNIT     EDATA          ?ED?MPU6050_SIMIIC_READ_REGS?SEEKFREE_MPU6050
000879H   00087FH   000007H   BYTE   UNIT     EDATA          ?ED?CCD_SEND_DATA?SEEKFREE_TSL1401
000880H   000886H   000007H   BYTE   UNIT     EDATA          ?ED?UART_SENDCMD?UART
000887H   00088DH   000007H   BYTE   UNIT     EDATA          ?ED?SEEKFREE_ASSISTANT_CAMERA_DOT_SEND?SEEKFREE_ASSISTANT
00088EH   000893H   000006H   BYTE   UNIT     EDATA          ?ED?ADC_ONCE?ZF_ADC
000894H   000899H   000006H   BYTE   UNIT     EDATA          ?ED?DELAY_US?ZF_DELAY
00089AH   00089FH   000006H   BYTE   UNIT     EDATA          ?ED?PIT_TIMER_MS?ZF_TIM
0008A0H   0008A5H   000006H   BYTE   UNIT     EDATA          ?ED?UART_PUTSTR?ZF_UART
0008A6H   0008ABH   000006H   BYTE   UNIT     EDATA          ?ED?FIFO_CLEAR?ZF_FIFO
0008ACH   0008B1H   000006H   BYTE   UNIT     EDATA          ?ED?IIC_INIT?ZF_IIC
0008B2H   0008B7H   000006H   BYTE   UNIT     EDATA          ?ED?IIC_READ_REG?ZF_IIC
0008B8H   0008BDH   000006H   BYTE   UNIT     EDATA          ?ED?LCD_DRAWPOINT_SIMSPI?SEEKFREE_18TFT
0008BEH   0008C3H   000006H   BYTE   UNIT     EDATA          ?ED?LCD_SHOWCHAR_SIMSPI?SEEKFREE_18TFT
0008C4H   0008C9H   000006H   BYTE   UNIT     EDATA          ?ED?LCD_SHOWINT16_SIMSPI?SEEKFREE_18TFT
0008CAH   0008CFH   000006H   BYTE   UNIT     EDATA          ?ED?LCD_SHOWUINT16_SIMSPI?SEEKFREE_18TFT
0008D0H   0008D5H   000006H   BYTE   UNIT     EDATA          ?ED?LCD_DRAWPOINT?SEEKFREE_18TFT
0008D6H   0008DBH   000006H   BYTE   UNIT     EDATA          ?ED?LCD_SHOWCHAR?SEEKFREE_18TFT
0008DCH   0008E1H   000006H   BYTE   UNIT     EDATA          ?ED?LCD_SHOWINT16?SEEKFREE_18TFT
0008E2H   0008E7H   000006H   BYTE   UNIT     EDATA          ?ED?LCD_SHOWUINT16?SEEKFREE_18TFT
0008E8H   0008EDH   000006H   BYTE   UNIT     EDATA          ?ED?ICM20602_ACC_TRANSITION?SEEKFREE_ICM20602
0008EEH   0008F3H   000006H   BYTE   UNIT     EDATA          ?ED?ICM20602_GYRO_TRANSITION?SEEKFREE_ICM20602
0008F4H   0008F9H   000006H   BYTE   UNIT     EDATA          ?ED?IMU660RA_ACC_TRANSITION?SEEKFREE_IMU660RA
0008FAH   0008FFH   000006H   BYTE   UNIT     EDATA          ?ED?IMU660RA_GYRO_TRANSITION?SEEKFREE_IMU660RA
000900H   000905H   000006H   BYTE   UNIT     EDATA          ?ED?IMU963RA_ACC_TRANSITION?SEEKFREE_IMU963RA
000906H   00090BH   000006H   BYTE   UNIT     EDATA          ?ED?IMU963RA_GYRO_TRANSITION?SEEKFREE_IMU963RA
00090CH   000911H   000006H   BYTE   UNIT     EDATA          ?ED?IMU963RA_MAG_TRANSITION?SEEKFREE_IMU963RA
000912H   000917H   000006H   BYTE   UNIT     EDATA          ?ED?IPS114_DRAWPOINT_SIMSPI?SEEKFREE_IPS114_SPI
000918H   00091DH   000006H   BYTE   UNIT     EDATA          ?ED?IPS114_SHOWCHAR_SIMSPI?SEEKFREE_IPS114_SPI
00091EH   000923H   000006H   BYTE   UNIT     EDATA          ?ED?IPS114_SHOWINT16_SIMSPI?SEEKFREE_IPS114_SPI
000924H   000929H   000006H   BYTE   UNIT     EDATA          ?ED?IPS114_SHOWUINT16_SIMSPI?SEEKFREE_IPS114_SPI
00092AH   00092FH   000006H   BYTE   UNIT     EDATA          ?ED?IPS114_DRAWPOINT?SEEKFREE_IPS114_SPI
000930H   000935H   000006H   BYTE   UNIT     EDATA          ?ED?IPS114_SHOWCHAR?SEEKFREE_IPS114_SPI
000936H   00093BH   000006H   BYTE   UNIT     EDATA          ?ED?IPS114_SHOWINT16?SEEKFREE_IPS114_SPI
00093CH   000941H   000006H   BYTE   UNIT     EDATA          ?ED?IPS114_SHOWUINT16?SEEKFREE_IPS114_SPI
000942H   000947H   000006H   BYTE   UNIT     EDATA          ?ED?OLED_HEXASCII?SEEKFREE_OLED
000948H   00094DH   000006H   BYTE   UNIT     EDATA          ?ED?OLED_HEXASCII_SPI?SEEKFREE_OLED
00094EH   000953H   000006H   BYTE   UNIT     EDATA          ?ED?WIRELESS_CH573_SEND_BUFF?SEEKFREE_WIRELESS_CH573
000954H   000958H   000005H   BYTE   UNIT     EDATA          ?ED?ZF_UART
000959H   00095DH   000005H   BYTE   UNIT     EDATA          ?ED?LCD_SHOWINT8_SIMSPI?SEEKFREE_18TFT
00095EH   000962H   000005H   BYTE   UNIT     EDATA          ?ED?LCD_SHOWUINT8_SIMSPI?SEEKFREE_18TFT
000963H   000967H   000005H   BYTE   UNIT     EDATA          ?ED?LCD_SHOWINT8?SEEKFREE_18TFT
000968H   00096CH   000005H   BYTE   UNIT     EDATA          ?ED?LCD_SHOWUINT8?SEEKFREE_18TFT
00096DH   000971H   000005H   BYTE   UNIT     EDATA          ?ED?DL1A_TIMEOUT_MICROSECONDS_TO_MCLKS?SEEKFREE_DL1A
000972H   000976H   000005H   BYTE   UNIT     EDATA          ?ED?ICM20602_SIMSPI_R_REG_BYTE?SEEKFREE_ICM20602
000977H   00097BH   000005H   BYTE   UNIT     EDATA          ?ED?IMU963RA_SIMSPI_R_REG_BYTE?SEEKFREE_IMU963RA
00097CH   000980H   000005H   BYTE   UNIT     EDATA          ?ED?IPS114_SHOWINT8_SIMSPI?SEEKFREE_IPS114_SPI
000981H   000985H   000005H   BYTE   UNIT     EDATA          ?ED?IPS114_SHOWUINT8_SIMSPI?SEEKFREE_IPS114_SPI
L251 LINKER/LOCATER V4.66.93.0                                                        04/15/2024  21:19:48  PAGE 6


000986H   00098AH   000005H   BYTE   UNIT     EDATA          ?ED?IPS114_SHOWINT8?SEEKFREE_IPS114_SPI
00098BH   00098FH   000005H   BYTE   UNIT     EDATA          ?ED?IPS114_SHOWUINT8?SEEKFREE_IPS114_SPI
000990H   000994H   000005H   BYTE   UNIT     EDATA          ?ED?UART_SENDSTRING?UART
000995H   000999H   000005H   BYTE   UNIT     EDATA          ?ED?LASER_RANGING?LASER_RANGING
00099AH   00099DH   000004H   BYTE   UNIT     EDATA          ?ED?BOARD
00099EH   0009A1H   000004H   BYTE   UNIT     EDATA          ?ED?ADC_INIT?ZF_ADC
0009A2H   0009A5H   000004H   BYTE   UNIT     EDATA          ?ED?ZF_DELAY
0009A6H   0009A9H   000004H   BYTE   UNIT     EDATA          ?ED?DELAY_MS?ZF_DELAY
0009AAH   0009ADH   000004H   BYTE   UNIT     EDATA          ?ED?IAP_ERASE_PAGE?ZF_EEPROM
0009AEH   0009B1H   000004H   BYTE   UNIT     EDATA          ?ED?EXIT_INIT?ZF_EXTI
0009B2H   0009B5H   000004H   BYTE   UNIT     EDATA          ?ED?GPIO_PULL_SET?ZF_GPIO
0009B6H   0009B9H   000004H   BYTE   UNIT     EDATA          ?ED?GPIO_MODE?ZF_GPIO
0009BAH   0009BDH   000004H   BYTE   UNIT     EDATA          ?ED?CTIMER_COUNT_READ?ZF_TIM
0009BEH   0009C1H   000004H   BYTE   UNIT     EDATA          ?ED?FIFO_USED?ZF_FIFO
0009C2H   0009C5H   000004H   BYTE   UNIT     EDATA          ?ED?DL1A_GET_SEQUENCE_STEP_ENABLES?SEEKFREE_DL1A
0009C6H   0009C9H   000004H   BYTE   UNIT     EDATA          ?ED?DL1A_SET_SIGNAL_RATE_LIMIT?SEEKFREE_DL1A
0009CAH   0009CDH   000004H   BYTE   UNIT     EDATA          ?ED?SEEKFREE_DL1B
0009CEH   0009D1H   000004H   BYTE   UNIT     EDATA          ?ED?IPS114_CLEAR_SIMSPI?SEEKFREE_IPS114_SPI
0009D2H   0009D5H   000004H   BYTE   UNIT     EDATA          ?ED?IPS114_CLEAR?SEEKFREE_IPS114_SPI
0009D6H   0009D9H   000004H   BYTE   UNIT     EDATA          ?ED?KEY
0009DAH   0009DDH   000004H   BYTE   UNIT     EDATA          ?ED?SEEKFREE_ASSISTANT_INFACE
0009DEH   0009E0H   000003H   BYTE   UNIT     EDATA          ?ED?NVIC_SETPRIORITY?ZF_NVIC
0009E1H   0009E3H   000003H   BYTE   UNIT     EDATA          ?ED?UART_PUTCHAR?ZF_UART
0009E4H   0009E6H   000003H   BYTE   UNIT     EDATA          ?ED?IIC_DELAY_US?ZF_IIC
0009E7H   0009E9H   000003H   BYTE   UNIT     EDATA          ?ED?WAIT?ZF_IIC
0009EAH   0009ECH   000003H   BYTE   UNIT     EDATA          ?ED?IIC_WRITE_REG?ZF_IIC
0009EDH   0009EFH   000003H   BYTE   UNIT     EDATA          ?ED?LCD_CLEAR_SIMSPI?SEEKFREE_18TFT
0009F0H   0009F2H   000003H   BYTE   UNIT     EDATA          ?ED?LCD_CLEAR?SEEKFREE_18TFT
0009F3H   0009F5H   000003H   BYTE   UNIT     EDATA          ?ED?SEEKFREE_DL1A
0009F6H   0009F8H   000003H   BYTE   UNIT     EDATA          ?ED?DL1A_SIMIIC_WRITE_REG?SEEKFREE_DL1A
0009F9H   0009FBH   000003H   BYTE   UNIT     EDATA          ?ED?DL1A_TIMEOUT_MCLKS_TO_MICROSECONDS?SEEKFREE_DL1A
0009FCH   0009FEH   000003H   BYTE   UNIT     EDATA          ?ED?DL1A_PERFORM_SINGLE_REF_CALIBRATION?SEEKFREE_DL1A
0009FFH   000A01H   000003H   BYTE   UNIT     EDATA          ?ED?IMU963RA_WRITE_MAG_REGISTER?SEEKFREE_IMU963RA
000A02H   000A04H   000003H   BYTE   UNIT     EDATA          ?ED?MPU6050_SIMIIC_WRITE_REG?SEEKFREE_MPU6050
000A05H   000A07H   000003H   BYTE   UNIT     EDATA          ?ED?OLED_PUTPIXEL?SEEKFREE_OLED
000A08H   000A0AH   000003H   BYTE   UNIT     EDATA          ?ED?OLED_PUTPIXEL_SPI?SEEKFREE_OLED
000A0BH   000A0DH   000003H   BYTE   UNIT     EDATA          ?ED?LASER_RANGING_IRQHANDLER?LASER_RANGING
000A0EH   000A0FH   000002H   BYTE   UNIT     EDATA          ?ED?COMMON
000A10H   000A11H   000002H   BYTE   UNIT     EDATA          ?ED?PWM_SET_GPIO?ZF_PWM
000A12H   000A13H   000002H   BYTE   UNIT     EDATA          ?ED?SPI_CHANGE_PIN?ZF_SPI
000A14H   000A15H   000002H   BYTE   UNIT     EDATA          ?ED?CTIMER_COUNT_INIT?ZF_TIM
000A16H   000A17H   000002H   BYTE   UNIT     EDATA          ?ED?CTIMER_COUNT_CLEAN?ZF_TIM
000A18H   000A19H   000002H   BYTE   UNIT     EDATA          ?ED?SEND_DATA?ZF_IIC
000A1AH   000A1BH   000002H   BYTE   UNIT     EDATA          ?ED?IIC_CHANGE_PIN?ZF_IIC
000A1CH   000A1DH   000002H   BYTE   UNIT     EDATA          ?ED?LCD_WRITEDATA_16BIT_SIMSPI?SEEKFREE_18TFT
000A1EH   000A1FH   000002H   BYTE   UNIT     EDATA          ?ED?LCD_WRITEDATA_16BIT?SEEKFREE_18TFT
000A20H   000A21H   000002H   BYTE   UNIT     EDATA          ?ED?DL1A_SIMIIC_READ_REG?SEEKFREE_DL1A
000A22H   000A23H   000002H   BYTE   UNIT     EDATA          ?ED?DL1A_DECODE_TIMEOUT?SEEKFREE_DL1A
000A24H   000A25H   000002H   BYTE   UNIT     EDATA          ?ED?DL1A_ENCODE_TIMEOUT?SEEKFREE_DL1A
000A26H   000A27H   000002H   BYTE   UNIT     EDATA          ?ED?DL1A_GET_VCSEL_PULSE_PERIOD?SEEKFREE_DL1A
000A28H   000A29H   000002H   BYTE   UNIT     EDATA          ?ED?DL1B_GET_DISTANCE?SEEKFREE_DL1B
000A2AH   000A2BH   000002H   BYTE   UNIT     EDATA          ?ED?ICM20602_SIMSPI_W_REG_BYTE?SEEKFREE_ICM20602
000A2CH   000A2DH   000002H   BYTE   UNIT     EDATA          ?ED?ICM20602_WRITE_REGISTER?SEEKFREE_ICM20602
000A2EH   000A2FH   000002H   BYTE   UNIT     EDATA          ?ED?IMU660RA_SIMSPI_W_REG_BYTE?SEEKFREE_IMU660RA
000A30H   000A31H   000002H   BYTE   UNIT     EDATA          ?ED?IMU660RA_WRITE_REGISTER?SEEKFREE_IMU660RA
000A32H   000A33H   000002H   BYTE   UNIT     EDATA          ?ED?IMU963RA_SIMSPI_W_REG_BYTE?SEEKFREE_IMU963RA
000A34H   000A35H   000002H   BYTE   UNIT     EDATA          ?ED?IMU963RA_WRITE_ACC_GYRO_REGISTER?SEEKFREE_IMU963RA
000A36H   000A37H   000002H   BYTE   UNIT     EDATA          ?ED?IMU963RA_READ_MAG_REGISTER?SEEKFREE_IMU963RA
000A38H   000A39H   000002H   BYTE   UNIT     EDATA          ?ED?IMU963RA_CONNECT_MAG?SEEKFREE_IMU963RA
000A3AH   000A3BH   000002H   BYTE   UNIT     EDATA          ?ED?IPS114_WRITEDATAI_16BIT_SIMSPI?SEEKFREE_IPS114_SPI
000A3CH   000A3DH   000002H   BYTE   UNIT     EDATA          ?ED?IPS114_WRITEDATA_16BIT?SEEKFREE_IPS114_SPI
000A3EH   000A3FH   000002H   BYTE   UNIT     EDATA          ?ED?MPU6050_SIMIIC_READ_REG?SEEKFREE_MPU6050
000A40H   000A41H   000002H   BYTE   UNIT     EDATA          ?ED?OLED_SET_POS?SEEKFREE_OLED
000A42H   000A43H   000002H   BYTE   UNIT     EDATA          ?ED?OLED_FILL?SEEKFREE_OLED
000A44H   000A45H   000002H   BYTE   UNIT     EDATA          ?ED?OLED_CLRPIXEL?SEEKFREE_OLED
L251 LINKER/LOCATER V4.66.93.0                                                        04/15/2024  21:19:48  PAGE 7


000A46H   000A47H   000002H   BYTE   UNIT     EDATA          ?ED?OLED_SET_POS_SPI?SEEKFREE_OLED
000A48H   000A49H   000002H   BYTE   UNIT     EDATA          ?ED?OLED_FILL_SPI?SEEKFREE_OLED
000A4AH   000A4BH   000002H   BYTE   UNIT     EDATA          ?ED?OLED_CLRPIXEL_SPI?SEEKFREE_OLED
000A4CH   000A4CH   000001H   BYTE   UNIT     EDATA          ?ED?PUTCHAR?BOARD
000A4DH   000A4DH   000001H   BYTE   UNIT     EDATA          ?ED?IAP_SET_TPS?ZF_EEPROM
000A4EH   000A4EH   000001H   BYTE   UNIT     EDATA          ?ED?SPI_MOSI?ZF_SPI
000A4FH   000A4FH   000001H   BYTE   UNIT     EDATA          ?ED?SPI_CHANGE_MODE?ZF_SPI
000A50H   000A50H   000001H   BYTE   UNIT     EDATA          ?ED?START?ZF_IIC
000A51H   000A51H   000001H   BYTE   UNIT     EDATA          ?ED?RECV_ACK?ZF_IIC
000A52H   000A52H   000001H   BYTE   UNIT     EDATA          ?ED?SEND_ACK?ZF_IIC
000A53H   000A53H   000001H   BYTE   UNIT     EDATA          ?ED?STOP?ZF_IIC
000A54H   000A54H   000001H   BYTE   UNIT     EDATA          ?ED?LCD_WRITEINDEX_SIMSPI?SEEKFREE_18TFT
000A55H   000A55H   000001H   BYTE   UNIT     EDATA          ?ED?LCD_WRITEDATA_SIMSPI?SEEKFREE_18TFT
000A56H   000A56H   000001H   BYTE   UNIT     EDATA          ?ED?LCD_WRITEINDEX?SEEKFREE_18TFT
000A57H   000A57H   000001H   BYTE   UNIT     EDATA          ?ED?LCD_WRITEDATA?SEEKFREE_18TFT
000A58H   000A58H   000001H   BYTE   UNIT     EDATA          ?ED?DL1A_SIMIIC_SENDACK?SEEKFREE_DL1A
000A59H   000A59H   000001H   BYTE   UNIT     EDATA          ?ED?DL1A_SEND_CH?SEEKFREE_DL1A
000A5AH   000A5AH   000001H   BYTE   UNIT     EDATA          ?ED?DL1A_READ_CH?SEEKFREE_DL1A
000A5BH   000A5BH   000001H   BYTE   UNIT     EDATA          ?ED?DL1B_SIMIIC_SENDACK?SEEKFREE_DL1B
000A5CH   000A5CH   000001H   BYTE   UNIT     EDATA          ?ED?DL1B_SEND_CH?SEEKFREE_DL1B
000A5DH   000A5DH   000001H   BYTE   UNIT     EDATA          ?ED?DL1B_READ_CH?SEEKFREE_DL1B
000A5EH   000A5EH   000001H   BYTE   UNIT     EDATA          ?ED?ICM20602_SIMSPI_WR_BYTE?SEEKFREE_ICM20602
000A5FH   000A5FH   000001H   BYTE   UNIT     EDATA          ?ED?ICM20602_READ_REGISTER?SEEKFREE_ICM20602
000A60H   000A60H   000001H   BYTE   UNIT     EDATA          ?ED?ICM20602_SELF_CHECK?SEEKFREE_ICM20602
000A61H   000A61H   000001H   BYTE   UNIT     EDATA          ?ED?ICM20602_INIT?SEEKFREE_ICM20602
000A62H   000A62H   000001H   BYTE   UNIT     EDATA          ?ED?IMU660RA_SIMSPI_WR_BYTE?SEEKFREE_IMU660RA
000A63H   000A63H   000001H   BYTE   UNIT     EDATA          ?ED?IMU660RA_READ_REGISTER?SEEKFREE_IMU660RA
000A64H   000A64H   000001H   BYTE   UNIT     EDATA          ?ED?IMU660RA_SELF_CHECK?SEEKFREE_IMU660RA
000A65H   000A65H   000001H   BYTE   UNIT     EDATA          ?ED?IMU963RA_SIMSPI_WR_BYTE?SEEKFREE_IMU963RA
000A66H   000A66H   000001H   BYTE   UNIT     EDATA          ?ED?IMU963RA_READ_ACC_GYRO_REGISTER?SEEKFREE_IMU963RA
000A67H   000A67H   000001H   BYTE   UNIT     EDATA          ?ED?IPS114_WRITEINDEX_SIMSPI?SEEKFREE_IPS114_SPI
000A68H   000A68H   000001H   BYTE   UNIT     EDATA          ?ED?IPS114_WRITEDATA_SIMSPI?SEEKFREE_IPS114_SPI
000A69H   000A69H   000001H   BYTE   UNIT     EDATA          ?ED?IPS114_WRITEINDEX?SEEKFREE_IPS114_SPI
000A6AH   000A6AH   000001H   BYTE   UNIT     EDATA          ?ED?IPS114_WRITEDATA?SEEKFREE_IPS114_SPI
000A6BH   000A6BH   000001H   BYTE   UNIT     EDATA          ?ED?MPU6050_SIMIIC_SENDACK?SEEKFREE_MPU6050
000A6CH   000A6CH   000001H   BYTE   UNIT     EDATA          ?ED?MPU6050_SEND_CH?SEEKFREE_MPU6050
000A6DH   000A6DH   000001H   BYTE   UNIT     EDATA          ?ED?MPU6050_READ_CH?SEEKFREE_MPU6050
000A6EH   000A6EH   000001H   BYTE   UNIT     EDATA          ?ED?OLED_WRDAT?SEEKFREE_OLED
000A6FH   000A6FH   000001H   BYTE   UNIT     EDATA          ?ED?OLED_WRCMD?SEEKFREE_OLED
000A70H   000A70H   000001H   BYTE   UNIT     EDATA          ?ED?OLED_WRDAT_SPI?SEEKFREE_OLED
000A71H   000A71H   000001H   BYTE   UNIT     EDATA          ?ED?OLED_WRCMD_SPI?SEEKFREE_OLED
000A72H   000A72H   000001H   BYTE   UNIT     EDATA          ?ED?CCD_COLLECT?SEEKFREE_TSL1401
000A73H   000A73H   000001H   BYTE   UNIT     EDATA          ?ED?UART_INITIALIZE?UART
000A74H   000A74H   000001H   BYTE   UNIT     EDATA          ?ED?UART_RUNNING?UART
000A75H   000A75H   000001H   BYTE   UNIT     EDATA          ?ED?LASER_RANGING_GET_UART_VALUE?LASER_RANGING
000A76H   000B75H   000100H   BYTE   UNIT     EDATA          ?STACK
000B76H   00FFFFH   00F48AH   ---    ---      **GAP**
010000H   010200H   000201H   BYTE   INSEG    XDATA          ?XD?SEEKFREE_TSL1401
010201H   0102E3H   0000E3H   BYTE   INSEG    XDATA          ?XD?SEEKFREE_ASSISTANT
0102E4H   01036FH   00008CH   BYTE   UNIT     XDATA          ?XD?DL1B_INIT?SEEKFREE_DL1B
010370H   0103C7H   000058H   BYTE   INSEG    XDATA          ?XD?SEEKFREE_BLUETOOTH_CH9141
0103C8H   01041FH   000058H   BYTE   INSEG    XDATA          ?XD?SEEKFREE_WIRELESS
010420H   010477H   000058H   BYTE   INSEG    XDATA          ?XD?SEEKFREE_WIRELESS_CH573
010478H   01049BH   000024H   BYTE   UNIT     XDATA          ?XD?LCD_SHOWFLOAT_SIMSPI?SEEKFREE_18TFT
01049CH   0104BFH   000024H   BYTE   UNIT     XDATA          ?XD?LCD_SHOWFLOAT?SEEKFREE_18TFT
0104C0H   0104E3H   000024H   BYTE   UNIT     XDATA          ?XD?IPS114_SHOWFLOAT_SIMSPI?SEEKFREE_IPS114_SPI
0104E4H   010507H   000024H   BYTE   UNIT     XDATA          ?XD?IPS114_SHOWFLOAT?SEEKFREE_IPS114_SPI
010508H   01052AH   000023H   BYTE   UNIT     XDATA          ?XD?LCD_SHOWINT32_SIMSPI?SEEKFREE_18TFT
01052BH   01054DH   000023H   BYTE   UNIT     XDATA          ?XD?LCD_SHOWINT32?SEEKFREE_18TFT
01054EH   010570H   000023H   BYTE   UNIT     XDATA          ?XD?IPS114_SHOWINT32_SIMSPI?SEEKFREE_IPS114_SPI
010571H   010593H   000023H   BYTE   UNIT     XDATA          ?XD?IPS114_SHOWINT32?SEEKFREE_IPS114_SPI
010594H   0105A8H   000015H   BYTE   UNIT     XDATA          ?XD?DL1A_INIT?SEEKFREE_DL1A
0105A9H   0105B8H   000010H   BYTE   UNIT     XDATA          ?XD?DL1A_SET_MEASUREMENT_TIMING_BUDGET?SEEKFREE_DL1A
0105B9H   0105C0H   000008H   BYTE   UNIT     XDATA          ?XD?DL1A_ENCODE_TIMEOUT?SEEKFREE_DL1A
0105C1H   0105C7H   000007H   BYTE   UNIT     XDATA          ?XD?IMU660RA_GET_ACC?SEEKFREE_IMU660RA
L251 LINKER/LOCATER V4.66.93.0                                                        04/15/2024  21:19:48  PAGE 8


0105C8H   0105CEH   000007H   BYTE   UNIT     XDATA          ?XD?IMU660RA_GET_GYRO?SEEKFREE_IMU660RA
0105CFH   0105D5H   000007H   BYTE   UNIT     XDATA          ?XD?IMU963RA_GET_MAG?SEEKFREE_IMU963RA
0105D6H   0105DBH   000006H   BYTE   UNIT     XDATA          ?XD?LCD_SHOWINT16_SIMSPI?SEEKFREE_18TFT
0105DCH   0105E1H   000006H   BYTE   UNIT     XDATA          ?XD?LCD_SHOWUINT16_SIMSPI?SEEKFREE_18TFT
0105E2H   0105E7H   000006H   BYTE   UNIT     XDATA          ?XD?LCD_SHOWINT16?SEEKFREE_18TFT
0105E8H   0105EDH   000006H   BYTE   UNIT     XDATA          ?XD?LCD_SHOWUINT16?SEEKFREE_18TFT
0105EEH   0105F3H   000006H   BYTE   UNIT     XDATA          ?XD?ICM20602_GET_ACC?SEEKFREE_ICM20602
0105F4H   0105F9H   000006H   BYTE   UNIT     XDATA          ?XD?ICM20602_GET_GYRO?SEEKFREE_ICM20602
0105FAH   0105FFH   000006H   BYTE   UNIT     XDATA          ?XD?IMU963RA_GET_ACC?SEEKFREE_IMU963RA
010600H   010605H   000006H   BYTE   UNIT     XDATA          ?XD?IMU963RA_GET_GYRO?SEEKFREE_IMU963RA
010606H   01060BH   000006H   BYTE   UNIT     XDATA          ?XD?IPS114_SHOWINT16_SIMSPI?SEEKFREE_IPS114_SPI
01060CH   010611H   000006H   BYTE   UNIT     XDATA          ?XD?IPS114_SHOWUINT16_SIMSPI?SEEKFREE_IPS114_SPI
010612H   010617H   000006H   BYTE   UNIT     XDATA          ?XD?IPS114_SHOWINT16?SEEKFREE_IPS114_SPI
010618H   01061DH   000006H   BYTE   UNIT     XDATA          ?XD?IPS114_SHOWUINT16?SEEKFREE_IPS114_SPI
01061EH   010623H   000006H   BYTE   UNIT     XDATA          ?XD?MPU6050_GET_ACCDATA?SEEKFREE_MPU6050
010624H   010629H   000006H   BYTE   UNIT     XDATA          ?XD?MPU6050_GET_GYRO?SEEKFREE_MPU6050
01062AH   01062EH   000005H   BYTE   UNIT     XDATA          ?XD?DL1A_SET_SIGNAL_RATE_LIMIT?SEEKFREE_DL1A
01062FH   010632H   000004H   BYTE   UNIT     XDATA          ?XD?LCD_SHOWINT8_SIMSPI?SEEKFREE_18TFT
010633H   010636H   000004H   BYTE   UNIT     XDATA          ?XD?LCD_SHOWUINT8_SIMSPI?SEEKFREE_18TFT
010637H   01063AH   000004H   BYTE   UNIT     XDATA          ?XD?LCD_SHOWINT8?SEEKFREE_18TFT
01063BH   01063EH   000004H   BYTE   UNIT     XDATA          ?XD?LCD_SHOWUINT8?SEEKFREE_18TFT
01063FH   010642H   000004H   BYTE   UNIT     XDATA          ?XD?BLUETOOTH_CH9141_READ_BUFF?SEEKFREE_BLUETOOTH_CH9141
010643H   010646H   000004H   BYTE   UNIT     XDATA          ?XD?DL1A_TIMEOUT_MCLKS_TO_MICROSECONDS?SEEKFREE_DL1A
010647H   01064AH   000004H   BYTE   UNIT     XDATA          ?XD?DL1A_TIMEOUT_MICROSECONDS_TO_MCLKS?SEEKFREE_DL1A
01064BH   01064EH   000004H   BYTE   UNIT     XDATA          ?XD?DL1A_GET_SEQUENCE_STEP_TIMEOUTS?SEEKFREE_DL1A
01064FH   010652H   000004H   BYTE   UNIT     XDATA          ?XD?DL1A_GET_MEASUREMENT_TIMING_BUDGET?SEEKFREE_DL1A
010653H   010656H   000004H   BYTE   UNIT     XDATA          ?XD?ICM20602_SIMSPI_R_REG_BYTES?SEEKFREE_ICM20602
010657H   01065AH   000004H   BYTE   UNIT     XDATA          ?XD?IMU963RA_ACC_GYRO_SELF_CHECK?SEEKFREE_IMU963RA
01065BH   01065EH   000004H   BYTE   UNIT     XDATA          ?XD?IMU963RA_MAG_SELF_CHECK?SEEKFREE_IMU963RA
01065FH   010662H   000004H   BYTE   UNIT     XDATA          ?XD?IPS114_SHOWINT8_SIMSPI?SEEKFREE_IPS114_SPI
010663H   010666H   000004H   BYTE   UNIT     XDATA          ?XD?IPS114_SHOWUINT8_SIMSPI?SEEKFREE_IPS114_SPI
010667H   01066AH   000004H   BYTE   UNIT     XDATA          ?XD?IPS114_SHOWINT8?SEEKFREE_IPS114_SPI
01066BH   01066EH   000004H   BYTE   UNIT     XDATA          ?XD?IPS114_SHOWUINT8?SEEKFREE_IPS114_SPI
01066FH   010672H   000004H   BYTE   UNIT     XDATA          ?XD?WIRELESS_UART_READ_BUFF?SEEKFREE_WIRELESS
010673H   010676H   000004H   BYTE   UNIT     XDATA          ?XD?WIRELESS_CH573_READ_BUFF?SEEKFREE_WIRELESS_CH573
010677H   010679H   000003H   BYTE   UNIT     XDATA          ?XD?DL1A_GET_DISTANCE?SEEKFREE_DL1A
01067AH   01067CH   000003H   BYTE   UNIT     XDATA          ?XD?DL1B_GET_DISTANCE?SEEKFREE_DL1B
01067DH   01067FH   000003H   BYTE   UNIT     XDATA          ?XD?ICM20602_SELF_CHECK?SEEKFREE_ICM20602
010680H   010682H   000003H   BYTE   UNIT     XDATA          ?XD?ICM20602_INIT?SEEKFREE_ICM20602
010683H   010685H   000003H   BYTE   UNIT     XDATA          ?XD?IMU660RA_SELF_CHECK?SEEKFREE_IMU660RA
010686H   010688H   000003H   BYTE   UNIT     XDATA          ?XD?IMU963RA_WRITE_MAG_REGISTER?SEEKFREE_IMU963RA
010689H   01068AH   000002H   BYTE   UNIT     XDATA          ?XD?LCD_SHOWCHAR_SIMSPI?SEEKFREE_18TFT
01068BH   01068CH   000002H   BYTE   UNIT     XDATA          ?XD?LCD_SHOWSTR_SIMSPI?SEEKFREE_18TFT
01068DH   01068EH   000002H   BYTE   UNIT     XDATA          ?XD?LCD_WRITEDATA_16BIT?SEEKFREE_18TFT
01068FH   010690H   000002H   BYTE   UNIT     XDATA          ?XD?LCD_SHOWCHAR?SEEKFREE_18TFT
010691H   010692H   000002H   BYTE   UNIT     XDATA          ?XD?LCD_SHOWSTR?SEEKFREE_18TFT
010693H   010694H   000002H   BYTE   UNIT     XDATA          ?XD?BLUETOOTH_CH9141_SEND_BUFF?SEEKFREE_BLUETOOTH_CH9141
010695H   010696H   000002H   BYTE   UNIT     XDATA          ?XD?DL1A_SIMIIC_DELAY?SEEKFREE_DL1A
010697H   010698H   000002H   BYTE   UNIT     XDATA          ?XD?DL1A_READ_CH?SEEKFREE_DL1A
010699H   01069AH   000002H   BYTE   UNIT     XDATA          ?XD?DL1A_GET_SPAD_INFO?SEEKFREE_DL1A
01069BH   01069CH   000002H   BYTE   UNIT     XDATA          ?XD?DL1A_PERFORM_SINGLE_REF_CALIBRATION?SEEKFREE_DL1A
01069DH   01069EH   000002H   BYTE   UNIT     XDATA          ?XD?DL1B_SIMIIC_DELAY?SEEKFREE_DL1B
01069FH   0106A0H   000002H   BYTE   UNIT     XDATA          ?XD?DL1B_READ_CH?SEEKFREE_DL1B
0106A1H   0106A2H   000002H   BYTE   UNIT     XDATA          ?XD?IMU660RA_READ_REGISTER?SEEKFREE_IMU660RA
0106A3H   0106A4H   000002H   BYTE   UNIT     XDATA          ?XD?IMU963RA_READ_MAG_REGISTER?SEEKFREE_IMU963RA
0106A5H   0106A6H   000002H   BYTE   UNIT     XDATA          ?XD?IPS114_CLEAR_SIMSPI?SEEKFREE_IPS114_SPI
0106A7H   0106A8H   000002H   BYTE   UNIT     XDATA          ?XD?IPS114_SHOWCHAR_SIMSPI?SEEKFREE_IPS114_SPI
0106A9H   0106AAH   000002H   BYTE   UNIT     XDATA          ?XD?IPS114_SHOWSTR_SIMSPI?SEEKFREE_IPS114_SPI
0106ABH   0106ACH   000002H   BYTE   UNIT     XDATA          ?XD?IPS114_WRITEDATA_16BIT?SEEKFREE_IPS114_SPI
0106ADH   0106AEH   000002H   BYTE   UNIT     XDATA          ?XD?IPS114_CLEAR?SEEKFREE_IPS114_SPI
0106AFH   0106B0H   000002H   BYTE   UNIT     XDATA          ?XD?IPS114_SHOWCHAR?SEEKFREE_IPS114_SPI
0106B1H   0106B2H   000002H   BYTE   UNIT     XDATA          ?XD?IPS114_SHOWSTR?SEEKFREE_IPS114_SPI
0106B3H   0106B4H   000002H   BYTE   UNIT     XDATA          ?XD?MPU6050_SIMIIC_DELAY?SEEKFREE_MPU6050
0106B5H   0106B6H   000002H   BYTE   UNIT     XDATA          ?XD?MPU6050_READ_CH?SEEKFREE_MPU6050
0106B7H   0106B8H   000002H   BYTE   UNIT     XDATA          ?XD?OLED_HEXASCII?SEEKFREE_OLED
L251 LINKER/LOCATER V4.66.93.0                                                        04/15/2024  21:19:48  PAGE 9


0106B9H   0106BAH   000002H   BYTE   UNIT     XDATA          ?XD?OLED_DIS_BMP?SEEKFREE_OLED
0106BBH   0106BCH   000002H   BYTE   UNIT     XDATA          ?XD?OLED_HEXASCII_SPI?SEEKFREE_OLED
0106BDH   0106BEH   000002H   BYTE   UNIT     XDATA          ?XD?OLED_DIS_BMP_SPI?SEEKFREE_OLED
0106BFH   0106BFH   000001H   BYTE   UNIT     XDATA          ?XD?LCD_WRITEINDEX_SIMSPI?SEEKFREE_18TFT
0106C0H   0106C0H   000001H   BYTE   UNIT     XDATA          ?XD?LCD_WRITEDATA_SIMSPI?SEEKFREE_18TFT
0106C1H   0106C1H   000001H   BYTE   UNIT     XDATA          ?XD?LCD_WRITEDATA_16BIT_SIMSPI?SEEKFREE_18TFT
0106C2H   0106C2H   000001H   BYTE   UNIT     XDATA          ?XD?LCD_CLEAR_SIMSPI?SEEKFREE_18TFT
0106C3H   0106C3H   000001H   BYTE   UNIT     XDATA          ?XD?LCD_CLEAR?SEEKFREE_18TFT
0106C4H   0106C4H   000001H   BYTE   UNIT     XDATA          ?XD?DL1A_SEND_CH?SEEKFREE_DL1A
0106C5H   0106C5H   000001H   BYTE   UNIT     XDATA          ?XD?DL1A_SIMIIC_READ_REG?SEEKFREE_DL1A
0106C6H   0106C6H   000001H   BYTE   UNIT     XDATA          ?XD?DL1A_GET_SEQUENCE_STEP_ENABLES?SEEKFREE_DL1A
0106C7H   0106C7H   000001H   BYTE   UNIT     XDATA          ?XD?DL1A_GET_VCSEL_PULSE_PERIOD?SEEKFREE_DL1A
0106C8H   0106C8H   000001H   BYTE   UNIT     XDATA          ?XD?DL1B_SEND_CH?SEEKFREE_DL1B
0106C9H   0106C9H   000001H   BYTE   UNIT     XDATA          ?XD?ICM20602_SIMSPI_WR_BYTE?SEEKFREE_ICM20602
0106CAH   0106CAH   000001H   BYTE   UNIT     XDATA          ?XD?ICM20602_READ_REGISTER?SEEKFREE_ICM20602
0106CBH   0106CBH   000001H   BYTE   UNIT     XDATA          ?XD?IMU660RA_SIMSPI_WR_BYTE?SEEKFREE_IMU660RA
0106CCH   0106CCH   000001H   BYTE   UNIT     XDATA          ?XD?IMU660RA_INIT?SEEKFREE_IMU660RA
0106CDH   0106CDH   000001H   BYTE   UNIT     XDATA          ?XD?IMU963RA_SIMSPI_WR_BYTE?SEEKFREE_IMU963RA
0106CEH   0106CEH   000001H   BYTE   UNIT     XDATA          ?XD?IMU963RA_READ_ACC_GYRO_REGISTER?SEEKFREE_IMU963RA
0106CFH   0106CFH   000001H   BYTE   UNIT     XDATA          ?XD?IMU963RA_INIT?SEEKFREE_IMU963RA
0106D0H   0106D0H   000001H   BYTE   UNIT     XDATA          ?XD?IPS114_WRITEINDEX_SIMSPI?SEEKFREE_IPS114_SPI
0106D1H   0106D1H   000001H   BYTE   UNIT     XDATA          ?XD?IPS114_WRITEDATA_SIMSPI?SEEKFREE_IPS114_SPI
0106D2H   0106D2H   000001H   BYTE   UNIT     XDATA          ?XD?IPS114_WRITEDATAI_16BIT_SIMSPI?SEEKFREE_IPS114_SPI
0106D3H   0106D3H   000001H   BYTE   UNIT     XDATA          ?XD?MPU6050_SEND_CH?SEEKFREE_MPU6050
0106D4H   0106D4H   000001H   BYTE   UNIT     XDATA          ?XD?MPU6050_SIMIIC_READ_REG?SEEKFREE_MPU6050
0106D5H   0106D5H   000001H   BYTE   UNIT     XDATA          ?XD?OLED_WRDAT?SEEKFREE_OLED
0106D6H   0106D6H   000001H   BYTE   UNIT     XDATA          ?XD?OLED_WRCMD?SEEKFREE_OLED
0106D7H   0106D7H   000001H   BYTE   UNIT     XDATA          ?XD?OLED_FILL?SEEKFREE_OLED
0106D8H   0106D8H   000001H   BYTE   UNIT     XDATA          ?XD?OLED_P6X8STR?SEEKFREE_OLED
0106D9H   0106D9H   000001H   BYTE   UNIT     XDATA          ?XD?OLED_P8X16STR?SEEKFREE_OLED
0106DAH   0106DAH   000001H   BYTE   UNIT     XDATA          ?XD?OLED_FILL_SPI?SEEKFREE_OLED
0106DBH   0106DBH   000001H   BYTE   UNIT     XDATA          ?XD?OLED_P6X8STR_SPI?SEEKFREE_OLED
0106DCH   0106DCH   000001H   BYTE   UNIT     XDATA          ?XD?OLED_P8X16STR_SPI?SEEKFREE_OLED
0106DDH   FEFFFFH   FDF923H   ---    ---      **GAP**
FF0000H   FF0002H   000003H   ---    OFFS..   CODE           ?CO?start251?4
FF0003H   FF0022H   000020H   BYTE   INSEG    CODE           ?PR?DL1A_SIMIIC_DELAY?SEEKFREE_DL1A
FF0023H   FF0025H   000003H   ---    OFFS..   CODE           ?PR?IV?4
FF0026H   FF003FH   00001AH   BYTE   INSEG    CODE           ?PR?IMU963RA_WRITE_ACC_GYRO_REGISTER?SEEKFREE_IMU963RA
FF0040H   FF0040H   000001H   BYTE   INSEG    CODE           ?PR?KEY1_SHORT_PRESS?KEY
FF0041H   FF0041H   000001H   BYTE   INSEG    CODE           ?PR?KEY2_SHORT_PRESS?KEY
FF0042H   FF0042H   000001H   BYTE   INSEG    CODE           ?PR?KEY3_SHORT_PRESS?KEY
FF0043H   FF0045H   000003H   ---    OFFS..   CODE           ?PR?IV?8
FF0046H   FF0087H   000042H   BYTE   INSEG    CODE           ?PR?DL1A_SIMIIC_WRITE_DATS?SEEKFREE_DL1A
FF0088H   FF008AH   000003H   ---    ---      **GAP**
FF008BH   FF008DH   000003H   ---    OFFS..   CODE           ?PR?IV?17
FF008EH   FF0091H   000004H   BYTE   INSEG    CODE           ?PR?ENABLEGLOBALIRQ?BOARD
FF0092H   FF0092H   000001H   ---    ---      **GAP**
FF0093H   FF0095H   000003H   ---    OFFS..   CODE           ?PR?IV?18
FF0096H   FF211CH   002087H   BYTE   UNIT     CODE           ?CO?SEEKFREE_CONFIG
FF211DH   FF2F24H   000E08H   BYTE   UNIT     CODE           ?CO?SEEKFREE_FONT
FF2F25H   FF39A8H   000A84H   BYTE   UNIT     CODE           ?C?LIB_CODE
FF39A9H   FF42B5H   00090DH   BYTE   INSEG    CODE           ?PR?GPIO_MODE?ZF_GPIO
FF42B6H   FF4916H   000661H   BYTE   INSEG    CODE           ?PR?ZF_SPRINTF?SEEKFREE_PRINTF
FF4917H   FF4CF0H   0003DAH   BYTE   INSEG    CODE           ?PR?PWM_INIT?ZF_PWM
FF4CF1H   FF50A8H   0003B8H   BYTE   INSEG    CODE           ?PR?PWM_SET_GPIO?ZF_PWM
FF50A9H   FF5381H   0002D9H   BYTE   INSEG    CODE           ?PR?QMC5883_DATA_PARSE?QMC5883
FF5382H   FF5633H   0002B2H   BYTE   INSEG    CODE           ?PR?UART_INIT?ZF_UART
FF5634H   FF58CDH   00029AH   BYTE   INSEG    CODE           ?PR?LASER_RANGING_IRQHANDLER?LASER_RANGING
FF58CEH   FF5AD3H   000206H   BYTE   INSEG    CODE           ?PR?SET_CLK?BOARD
FF5AD4H   FF5C7BH   0001A8H   BYTE   INSEG    CODE           ?PR?ATOF?QMC5883
FF5C7CH   FF5E02H   000187H   BYTE   INSEG    CODE           ?PR?DL1A_GET_SEQUENCE_STEP_TIMEOUTS?SEEKFREE_DL1A
FF5E03H   FF5F47H   000145H   BYTE   INSEG    CODE           ?PR?OLED_PRINTF_FLOAT_SPI?SEEKFREE_OLED
FF5F48H   FF605EH   000117H   BYTE   INSEG    CODE           ?PR?NUMBER_CONVERSION_ASCII?SEEKFREE_PRINTF
FF605FH   FF616AH   00010CH   BYTE   INSEG    CODE           ?PR?UART3_ISR?UART
FF616BH   FF6271H   000107H   BYTE   INSEG    CODE           ?PR?UART_SENDCMD?UART
L251 LINKER/LOCATER V4.66.93.0                                                        04/15/2024  21:19:48  PAGE 10


FF6272H   FF6370H   0000FFH   BYTE   INSEG    CODE           ?PR?ATOI?QMC5883
FF6371H   FF6442H   0000D2H   BYTE   INSEG    CODE           ?PR?OLED_P6X8STR_SPI?SEEKFREE_OLED
FF6443H   FF6510H   0000CEH   BYTE   INSEG    CODE           ?PR?SPI_INIT?ZF_SPI
FF6511H   FF65DEH   0000CEH   BYTE   INSEG    CODE           ?PR?OLED_PRINTF_INT32_SPI?SEEKFREE_OLED
FF65DFH   FF66A3H   0000C5H   BYTE   INSEG    CODE           ?PR?OLED_INIT_SPI?SEEKFREE_OLED
FF66A4H   FF674EH   0000ABH   BYTE   INSEG    CODE           ?PR?DL1A_ENCODE_TIMEOUT?SEEKFREE_DL1A
FF674FH   FF67EAH   00009CH   BYTE   INSEG    CODE           ?PR?DL1A_GET_SEQUENCE_STEP_ENABLES?SEEKFREE_DL1A
FF67EBH   FF6881H   000097H   BYTE   INSEG    CODE           ?PR?BOARD_INIT?BOARD
FF6882H   FF6916H   000095H   BYTE   INSEG    CODE           ?PR?PRINTF_REVERSE_ORDER?SEEKFREE_PRINTF
FF6917H   FF6998H   000082H   BYTE   INSEG    CODE           ?PR?DL1A_GET_VCSEL_PULSE_PERIOD?SEEKFREE_DL1A
FF6999H   FF6A12H   00007AH   BYTE   INSEG    CODE           ?PR?MAIN?MAIN
FF6A13H   FF6A87H   000075H   BYTE   INSEG    CODE           ?PR?UART_PUTCHAR?ZF_UART
FF6A88H   FF6A9AH   000013H   BYTE   UNIT     CODE           ?C_C51STARTUP
FF6A9BH   FF6A9CH   000002H   BYTE   UNIT     CODE           ?C_C51STARTUP?1
FF6A9DH   FF6AF6H   00005AH   BYTE   UNIT     CODE           ?C_C51STARTUP?2
FF6AF7H   FF6AF9H   000003H   BYTE   UNIT     CODE           ?C_C51STARTUP?3
FF6AFAH   FF6B69H   000070H   BYTE   INSEG    CODE           ?PR?FIFO_HEAD_OFFSET?ZF_FIFO
FF6B6AH   FF6BD8H   00006FH   BYTE   INSEG    CODE           ?PR?IMU963RA_READ_MAG_REGISTER?SEEKFREE_IMU963RA
FF6BD9H   FF6C46H   00006EH   BYTE   INSEG    CODE           ?PR?UART2_ISR?UART
FF6C47H   FF6CB1H   00006BH   BYTE   INSEG    CODE           ?PR?UART1_ISR?UART
FF6CB2H   FF6D19H   000068H   BYTE   INSEG    CODE           ?PR?DL1A_SIMIIC_READ_REGS?SEEKFREE_DL1A
FF6D1AH   FF6D7EH   000065H   BYTE   INSEG    CODE           ?PR?DL1A_TIMEOUT_MCLKS_TO_MICROSECONDS?SEEKFREE_DL1A
FF6D7FH   FF6DE3H   000065H   BYTE   INSEG    CODE           ?PR?DL1A_READ_CH?SEEKFREE_DL1A
FF6DE4H   FF6E48H   000065H   BYTE   INSEG    CODE           ?PR?DL1B_READ_CH?SEEKFREE_DL1B
FF6E49H   FF6EACH   000064H   BYTE   INSEG    CODE           ?PR?LCD_SET_REGION_SIMSPI?SEEKFREE_18TFT
FF6EADH   FF6F10H   000064H   BYTE   INSEG    CODE           ?PR?LCD_SET_REGION?SEEKFREE_18TFT
FF6F11H   FF6F73H   000063H   BYTE   INSEG    CODE           ?PR?DL1A_TIMEOUT_MICROSECONDS_TO_MCLKS?SEEKFREE_DL1A
FF6F74H   FF6FD2H   00005FH   BYTE   INSEG    CODE           ?PR?OLED_FILL_SPI?SEEKFREE_OLED
FF6FD3H   FF702BH   000059H   BYTE   INSEG    CODE           ?PR?ICM20602_SIMSPI_WR_BYTE?SEEKFREE_ICM20602
FF702CH   FF7084H   000059H   BYTE   INSEG    CODE           ?PR?IMU660RA_SIMSPI_WR_BYTE?SEEKFREE_IMU660RA
FF7085H   FF70DDH   000059H   BYTE   INSEG    CODE           ?PR?IMU963RA_SIMSPI_WR_BYTE?SEEKFREE_IMU963RA
FF70DEH   FF7134H   000057H   BYTE   INSEG    CODE           ?PR?WAIT?ZF_IIC
FF7135H   FF718BH   000057H   BYTE   INSEG    CODE           ?PR?ICM20602_SIMSPI_R_REG_BYTES?SEEKFREE_ICM20602
FF718CH   FF71DFH   000054H   BYTE   INSEG    CODE           ?PR?LCD_WRITEDATA_16BIT_SIMSPI?SEEKFREE_18TFT
FF71E0H   FF7233H   000054H   BYTE   INSEG    CODE           ?PR?IPS114_WRITEDATAI_16BIT_SIMSPI?SEEKFREE_IPS114_SPI
FF7234H   FF7286H   000053H   BYTE   INSEG    CODE           ?PR?KEY2_CHECK?KEY
FF7287H   FF72D9H   000053H   BYTE   INSEG    CODE           ?PR?KEY3_CHECK?KEY
FF72DAH   FF732CH   000053H   BYTE   INSEG    CODE           ?PR?KEY4_CHECK?KEY
FF732DH   FF737DH   000051H   BYTE   INSEG    CODE           ?PR?KEY4_SHORT_PRESS?KEY
FF737EH   FF73CEH   000051H   BYTE   INSEG    CODE           ?PR?KEY1_CHECK?KEY
FF73CFH   FF741BH   00004DH   BYTE   INSEG    CODE           ?PR?MOTOR_DRIVERS_PWM_INIT?MAIN
FF741CH   FF7466H   00004BH   BYTE   INSEG    CODE           ?PR?LCD_WRITEINDEX_SIMSPI?SEEKFREE_18TFT
FF7467H   FF74B1H   00004BH   BYTE   INSEG    CODE           ?PR?LCD_WRITEDATA_SIMSPI?SEEKFREE_18TFT
FF74B2H   FF74FCH   00004BH   BYTE   INSEG    CODE           ?PR?IMU660RA_SIMSPI_R_REG_BYTES?SEEKFREE_IMU660RA
FF74FDH   FF7547H   00004BH   BYTE   INSEG    CODE           ?PR?IPS114_WRITEINDEX_SIMSPI?SEEKFREE_IPS114_SPI
FF7548H   FF7592H   00004BH   BYTE   INSEG    CODE           ?PR?OLED_WRCMD?SEEKFREE_OLED
FF7593H   FF75DDH   00004BH   BYTE   INSEG    CODE           ?PR?OLED_WRDAT?SEEKFREE_OLED
FF75DEH   FF7626H   000049H   BYTE   INSEG    CODE           ?PR?UART4_ISR?UART
FF7627H   FF766EH   000048H   BYTE   INSEG    CODE           ?PR?DL1A_SEND_CH?SEEKFREE_DL1A
FF766FH   FF76B6H   000048H   BYTE   INSEG    CODE           ?PR?DL1B_SEND_CH?SEEKFREE_DL1B
FF76B7H   FF76F7H   000041H   BYTE   INSEG    CODE           ?PR?DELAY_INIT?ZF_DELAY
FF76F8H   FF772DH   000036H   BYTE   INSEG    CODE           ?PR?OLED_SET_POS_SPI?SEEKFREE_OLED
FF772EH   FF7762H   000035H   BYTE   INSEG    CODE           ?PR?DELAY_MS?ZF_DELAY
FF7763H   FF7797H   000035H   BYTE   INSEG    CODE           ?PR?IIC_DELAY_US?ZF_IIC
FF7798H   FF77CCH   000035H   BYTE   INSEG    CODE           ?PR?OLED_SET_POS?SEEKFREE_OLED
FF77CDH   FF77F9H   00002DH   BYTE   INSEG    CODE           ?PR?IMU963RA_SIMSPI_R_REG_BYTE?SEEKFREE_IMU963RA
FF77FAH   FF7825H   00002CH   BYTE   INSEG    CODE           ?PR?LCD_WRITEDATA_16BIT?SEEKFREE_18TFT
FF7826H   FF7851H   00002CH   BYTE   INSEG    CODE           ?PR?IPS114_WRITEDATA_16BIT?SEEKFREE_IPS114_SPI
FF7852H   FF787BH   00002AH   BYTE   INSEG    CODE           ?PR?DL1A_DECODE_TIMEOUT?SEEKFREE_DL1A
FF787CH   FF78A3H   000028H   BYTE   INSEG    CODE           ?PR?DL1A_SIMIIC_SENDACK?SEEKFREE_DL1A
FF78A4H   FF78CBH   000028H   BYTE   INSEG    CODE           ?PR?DL1B_SIMIIC_SENDACK?SEEKFREE_DL1B
FF78CCH   FF78F3H   000028H   BYTE   INSEG    CODE           ?PR?MPU6050_SIMIIC_SENDACK?SEEKFREE_MPU6050
FF78F4H   FF791AH   000027H   BYTE   INSEG    CODE           ?PR?ICM20602_SIMSPI_R_REG_BYTE?SEEKFREE_ICM20602
FF791BH   FF7941H   000027H   BYTE   INSEG    CODE           ?PR?IMU963RA_READ_ACC_GYRO_REGISTER?SEEKFREE_IMU963RA
FF7942H   FF7967H   000026H   BYTE   INSEG    CODE           ?PR?IMU660RA_READ_REGISTER?SEEKFREE_IMU660RA
L251 LINKER/LOCATER V4.66.93.0                                                        04/15/2024  21:19:48  PAGE 11


FF7968H   FF798CH   000025H   BYTE   INSEG    CODE           ?PR?MEMCPY?_?MEMCPY
FF798DH   FF79AFH   000023H   BYTE   INSEG    CODE           ?PR?LASER_RANGING?LASER_RANGING
FF79B0H   FF79D1H   000022H   BYTE   INSEG    CODE           ?PR?ICM20602_READ_REGISTER?SEEKFREE_ICM20602
FF79D2H   FF79F2H   000021H   BYTE   INSEG    CODE           ?PR?DL1A_SCCB_WAITACK?SEEKFREE_DL1A
FF79F3H   FF7A13H   000021H   BYTE   INSEG    CODE           ?PR?DL1B_SCCB_WAITACK?SEEKFREE_DL1B
FF7A14H   FF7A34H   000021H   BYTE   INSEG    CODE           ?PR?IMU963RA_SIMSPI_W_REG_BYTE?SEEKFREE_IMU963RA
FF7A35H   FF7A54H   000020H   BYTE   INSEG    CODE           ?PR?DL1B_SIMIIC_DELAY?SEEKFREE_DL1B
FF7A55H   FF7A74H   000020H   BYTE   INSEG    CODE           ?PR?MPU6050_SIMIIC_DELAY?SEEKFREE_MPU6050
FF7A75H   FF7A94H   000020H   BYTE   INSEG    CODE           ?PR?QMC5883_INIT?MAIN
FF7A95H   FF7AB2H   00001EH   BYTE   INSEG    CODE           ?PR?LASER_RANGING_GET_UART_VALUE?LASER_RANGING
FF7AB3H   FF7AC9H   000017H   BYTE   INSEG    CODE           ?PR?GPIO_INIT?MAIN
FF7ACAH   FF7ADFH   000016H   BYTE   INSEG    CODE           ?PR?DL1A_SIMIIC_STOP?SEEKFREE_DL1A
FF7AE0H   FF7AF5H   000016H   BYTE   INSEG    CODE           ?PR?MPU6050_SIMIIC_STOP?SEEKFREE_MPU6050
FF7AF6H   FF7B0AH   000015H   BYTE   INSEG    CODE           ?PR?LCD_WRITEINDEX?SEEKFREE_18TFT
FF7B0BH   FF7B1FH   000015H   BYTE   INSEG    CODE           ?PR?LCD_WRITEDATA?SEEKFREE_18TFT
FF7B20H   FF7B34H   000015H   BYTE   INSEG    CODE           ?PR?IPS114_WRITEINDEX?SEEKFREE_IPS114_SPI
FF7B35H   FF7B49H   000015H   BYTE   INSEG    CODE           ?PR?OLED_WRCMD_SPI?SEEKFREE_OLED
FF7B4AH   FF7B5EH   000015H   BYTE   INSEG    CODE           ?PR?OLED_WRDAT_SPI?SEEKFREE_OLED
FF7B5FH   FF7B72H   000014H   BYTE   INSEG    CODE           ?PR?ISSPACE?_?ISSPACE
FF7B73H   FF7B85H   000013H   BYTE   INSEG    CODE           ?PR?DL1A_SIMIIC_START?SEEKFREE_DL1A
FF7B86H   FF7B98H   000013H   BYTE   INSEG    CODE           ?PR?MPU6050_SIMIIC_START?SEEKFREE_MPU6050
FF7B99H   FF7BAAH   000012H   BYTE   INSEG    CODE           ?PR?PUTCHAR?BOARD
FF7BABH   FF7BBCH   000012H   BYTE   INSEG    CODE           ?PR?SPI_MOSI?ZF_SPI
FF7BBDH   FF7BCCH   000010H   BYTE   INSEG    CODE           ?PR?KEYS_UI_INIT?KEY
FF7BCDH   FF7BD0H   000004H   BYTE   UNIT     CONST          ?CO?PRINTF
FF7BD1H   FF7E5FH   00028FH   BYTE   UNIT     HCONST         ?C_INITEDATA
FF7E60H   FF7EB7H   000058H   BYTE   UNIT     HCONST         ?HC?ZF_PWM
FF7EB8H   FF7F02H   00004BH   BYTE   UNIT     HCONST         ?HC?SEEKFREE_IMU963RA
FF7F03H   FF7F45H   000043H   BYTE   UNIT     HCONST         ?HC?MAIN
FF7F46H   FF7F7AH   000035H   BYTE   UNIT     HCONST         ?HC?KEY
FF7F7BH   FF7FAEH   000034H   BYTE   UNIT     HCONST         ?HC?SEEKFREE_IMU660RA
FF7FAFH   FF7FE2H   000034H   BYTE   UNIT     HCONST         ?C_INITHDATA
FF7FE3H   FF8015H   000033H   BYTE   UNIT     HCONST         ?HC?SEEKFREE_ICM20602
FF8016H   FF802BH   000016H   BYTE   UNIT     HCONST         ?HC?SEEKFREE_MPU6050
FF802CH   FF803EH   000013H   BYTE   UNIT     HCONST         ?HC?SEEKFREE_DL1A
FF803FH   FF8048H   00000AH   BYTE   UNIT     HCONST         ?HC?SEEKFREE_OLED
FF8049H   FF804EH   000006H   BYTE   UNIT     HCONST         ?HC?SEEKFREE_18TFT
FF804FH   FF8054H   000006H   BYTE   UNIT     HCONST         ?HC?SEEKFREE_IPS114_SPI

* * * * * * * * *   R E M O V E D     S E G M E N T S   * * * * * * * *
   *DEL*:           000004H   BYTE   INSEG    CODE           ?PR?DISABLEGLOBALIRQ?BOARD
   *DEL*:           000056H   BYTE   INSEG    CODE           ?PR?ADC_ONCE?ZF_ADC
   *DEL*:           0000B5H   BYTE   INSEG    CODE           ?PR?ADC_INIT?ZF_ADC
   *DEL*:           000033H   BYTE   INSEG    CODE           ?PR?DELAY_US?ZF_DELAY
   *DEL*:           00001AH   BYTE   INSEG    CODE           ?PR?IAP_SET_TPS?ZF_EEPROM
   *DEL*:           000015H   BYTE   INSEG    CODE           ?PR?EEPROM_TRIG?ZF_EEPROM
   *DEL*:           000029H   BYTE   INSEG    CODE           ?PR?IAP_ERASE_PAGE?ZF_EEPROM
   *DEL*:           000004H   BYTE   INSEG    CODE           ?PR?IAP_IDLE?ZF_EEPROM
   *DEL*:           000062H   BYTE   INSEG    CODE           ?PR?IAP_READ_BYTES?ZF_EEPROM
   *DEL*:           000008H   BYTE   INSEG    CODE           ?PR?IAP_INIT?ZF_EEPROM
   *DEL*:           00005EH   BYTE   INSEG    CODE           ?PR?IAP_WRITE_BYTES?ZF_EEPROM
   *DEL*:           000012H   BYTE   INSEG    CODE           ?PR?IAP_GET_CMD_STATE?ZF_EEPROM
   *DEL*:           000066H   BYTE   INSEG    CODE           ?PR?EXIT_INIT?ZF_EXTI
   *DEL*:           000095H   BYTE   INSEG    CODE           ?PR?GPIO_PULL_SET?ZF_GPIO
   *DEL*:           0000B9H   BYTE   INSEG    CODE           ?PR?NVIC_SETPRIORITY?ZF_NVIC
   *DEL*:           000118H   BYTE   INSEG    CODE           ?PR?PWM_DUTY?ZF_PWM
   *DEL*:           0001ABH   BYTE   INSEG    CODE           ?PR?PWM_FREQ?ZF_PWM
   *DEL*:           000026H   BYTE   INSEG    CODE           ?PR?SPI_CHANGE_MODE?ZF_SPI
   *DEL*:           0000CCH   BYTE   INSEG    CODE           ?PR?SPI_CHANGE_PIN?ZF_SPI
   *DEL*:           0000B4H   BYTE   INSEG    CODE           ?PR?CTIMER_COUNT_READ?ZF_TIM
   *DEL*:           0000E5H   BYTE   INSEG    CODE           ?PR?PIT_TIMER_MS?ZF_TIM
   *DEL*:           000054H   BYTE   INSEG    CODE           ?PR?CTIMER_COUNT_INIT?ZF_TIM
   *DEL*:           00005DH   BYTE   INSEG    CODE           ?PR?CTIMER_COUNT_CLEAN?ZF_TIM
   *DEL*:           000033H   BYTE   INSEG    CODE           ?PR?UART_PUTBUFF?ZF_UART
   *DEL*:           00002BH   BYTE   INSEG    CODE           ?PR?UART_PUTSTR?ZF_UART
L251 LINKER/LOCATER V4.66.93.0                                                        04/15/2024  21:19:48  PAGE 12


   *DEL*:           0003ACH   BYTE   INSEG    CODE           ?PR?FIFO_READ_BUFFER?ZF_FIFO
   *DEL*:           00013BH   BYTE   INSEG    CODE           ?PR?FIFO_WRITE_ELEMENT?ZF_FIFO
   *DEL*:           000434H   BYTE   INSEG    CODE           ?PR?FIFO_READ_TAIL_BUFFER?ZF_FIFO
   *DEL*:           0000EAH   BYTE   INSEG    CODE           ?PR?FIFO_CLEAR?ZF_FIFO
   *DEL*:           000392H   BYTE   INSEG    CODE           ?PR?FIFO_WRITE_BUFFER?ZF_FIFO
   *DEL*:           000070H   BYTE   INSEG    CODE           ?PR?FIFO_END_OFFSET?ZF_FIFO
   *DEL*:           000025H   BYTE   INSEG    CODE           ?PR?FIFO_USED?ZF_FIFO
   *DEL*:           000083H   BYTE   INSEG    CODE           ?PR?FIFO_INIT?ZF_FIFO
   *DEL*:           00018BH   BYTE   INSEG    CODE           ?PR?FIFO_READ_ELEMENT?ZF_FIFO
   *DEL*:           000028H   BYTE   INSEG    CODE           ?PR?SEND_DATA?ZF_IIC
   *DEL*:           000037H   BYTE   INSEG    CODE           ?PR?IIC_CHANGE_PIN?ZF_IIC
   *DEL*:           00001CH   BYTE   INSEG    CODE           ?PR?RECV_DATA?ZF_IIC
   *DEL*:           000015H   BYTE   INSEG    CODE           ?PR?START?ZF_IIC
   *DEL*:           000021H   BYTE   INSEG    CODE           ?PR?SEND_ACK?ZF_IIC
   *DEL*:           000015H   BYTE   INSEG    CODE           ?PR?RECV_ACK?ZF_IIC
   *DEL*:           000015H   BYTE   INSEG    CODE           ?PR?STOP?ZF_IIC
   *DEL*:           00001EH   BYTE   INSEG    CODE           ?PR?SEND_NAK?ZF_IIC
   *DEL*:           00007AH   BYTE   INSEG    CODE           ?PR?IIC_INIT?ZF_IIC
   *DEL*:           000099H   BYTE   INSEG    CODE           ?PR?IIC_READ_REG?ZF_IIC
   *DEL*:           0000D4H   BYTE   INSEG    CODE           ?PR?IIC_READ_REG_BYTES?ZF_IIC
   *DEL*:           00007CH   BYTE   INSEG    CODE           ?PR?IIC_WRITE_REG?ZF_IIC
   *DEL*:           0000D1H   BYTE   INSEG    CODE           ?PR?LCD_SHOWUINT16?SEEKFREE_18TFT
   *DEL*:           0000E5H   BYTE   INSEG    CODE           ?PR?LCD_SHOWINT32_SIMSPI?SEEKFREE_18TFT
   *DEL*:           00011FH   BYTE   INSEG    CODE           ?PR?LCD_SHOWINT16_SIMSPI?SEEKFREE_18TFT
   *DEL*:           0000E5H   BYTE   INSEG    CODE           ?PR?LCD_SHOWINT32?SEEKFREE_18TFT
   *DEL*:           00011FH   BYTE   INSEG    CODE           ?PR?LCD_SHOWINT16?SEEKFREE_18TFT
   *DEL*:           000057H   BYTE   INSEG    CODE           ?PR?LCD_CLEAR_SIMSPI?SEEKFREE_18TFT
   *DEL*:           000057H   BYTE   INSEG    CODE           ?PR?LCD_CLEAR?SEEKFREE_18TFT
   *DEL*:           00006AH   BYTE   INSEG    CODE           ?PR?LCD_SHOWSTR_SIMSPI?SEEKFREE_18TFT
   *DEL*:           00006AH   BYTE   INSEG    CODE           ?PR?LCD_SHOWSTR?SEEKFREE_18TFT
   *DEL*:           0001FDH   BYTE   INSEG    CODE           ?PR?LCD_INIT_SIMSPI?SEEKFREE_18TFT
   *DEL*:           0000ECH   BYTE   INSEG    CODE           ?PR?SHOWIMAGE?SEEKFREE_18TFT
   *DEL*:           0001F3H   BYTE   INSEG    CODE           ?PR?LCD_INIT?SEEKFREE_18TFT
   *DEL*:           0000ADH   BYTE   INSEG    CODE           ?PR?LCD_SHOWUINT8_SIMSPI?SEEKFREE_18TFT
   *DEL*:           0000ADH   BYTE   INSEG    CODE           ?PR?LCD_SHOWUINT8?SEEKFREE_18TFT
   *DEL*:           0000F1H   BYTE   INSEG    CODE           ?PR?LCD_SHOWINT8_SIMSPI?SEEKFREE_18TFT
   *DEL*:           0000F1H   BYTE   INSEG    CODE           ?PR?LCD_SHOWINT8?SEEKFREE_18TFT
   *DEL*:           000169H   BYTE   INSEG    CODE           ?PR?LCD_SHOWFLOAT_SIMSPI?SEEKFREE_18TFT
   *DEL*:           000023H   BYTE   INSEG    CODE           ?PR?LCD_DRAWPOINT_SIMSPI?SEEKFREE_18TFT
   *DEL*:           000169H   BYTE   INSEG    CODE           ?PR?LCD_SHOWFLOAT?SEEKFREE_18TFT
   *DEL*:           000023H   BYTE   INSEG    CODE           ?PR?LCD_DRAWPOINT?SEEKFREE_18TFT
   *DEL*:           0000BCH   BYTE   INSEG    CODE           ?PR?LCD_SHOWCHAR_SIMSPI?SEEKFREE_18TFT
   *DEL*:           0000BCH   BYTE   INSEG    CODE           ?PR?LCD_SHOWCHAR?SEEKFREE_18TFT
   *DEL*:           0000D1H   BYTE   INSEG    CODE           ?PR?LCD_SHOWUINT16_SIMSPI?SEEKFREE_18TFT
   *DEL*:           000022H   BYTE   INSEG    CODE           ?PR?BLUETOOTH_CH9141_UART_CALLBACK?SEEKFREE_BLUETOOTH_CH91
                                                             -41
   *DEL*:           000042H   BYTE   INSEG    CODE           ?PR?BLUETOOTH_CH9141_READ_BUFF?SEEKFREE_BLUETOOTH_CH9141
   *DEL*:           0000E0H   BYTE   INSEG    CODE           ?PR?BLUETOOTH_CH9141_SEND_BUFF?SEEKFREE_BLUETOOTH_CH9141
   *DEL*:           00004AH   BYTE   INSEG    CODE           ?PR?BLUETOOTH_CH9141_INIT?SEEKFREE_BLUETOOTH_CH9141
   *DEL*:           00004AH   BYTE   INSEG    CODE           ?PR?DL1A_SET_SIGNAL_RATE_LIMIT?SEEKFREE_DL1A
   *DEL*:           0001ACH   BYTE   INSEG    CODE           ?PR?DL1A_GET_SPAD_INFO?SEEKFREE_DL1A
   *DEL*:           000076H   BYTE   INSEG    CODE           ?PR?DL1A_GET_DISTANCE?SEEKFREE_DL1A
   *DEL*:           0000B5H   BYTE   INSEG    CODE           ?PR?DL1A_PERFORM_SINGLE_REF_CALIBRATION?SEEKFREE_DL1A
   *DEL*:           0000EFH   BYTE   INSEG    CODE           ?PR?DL1A_GET_MEASUREMENT_TIMING_BUDGET?SEEKFREE_DL1A
   *DEL*:           00003BH   BYTE   INSEG    CODE           ?PR?DL1A_SIMIIC_READ_REG?SEEKFREE_DL1A
   *DEL*:           000068H   BYTE   INSEG    CODE           ?PR?DL1A_SIMIIC_READ_REGS_1?SEEKFREE_DL1A
   *DEL*:           0001ACH   BYTE   INSEG    CODE           ?PR?DL1A_SET_MEASUREMENT_TIMING_BUDGET?SEEKFREE_DL1A
   *DEL*:           00002AH   BYTE   INSEG    CODE           ?PR?DL1A_SIMIIC_WRITE_REG?SEEKFREE_DL1A
   *DEL*:           0006F9H   BYTE   INSEG    CODE           ?PR?DL1A_INIT?SEEKFREE_DL1A
   *DEL*:           000079H   BYTE   INSEG    CODE           ?PR?DL1B_IIC_TRANSFER_8BIT_ARRAY?SEEKFREE_DL1B
   *DEL*:           000156H   BYTE   INSEG    CODE           ?PR?DL1B_GET_DISTANCE?SEEKFREE_DL1B
   *DEL*:           000013H   BYTE   INSEG    CODE           ?PR?DL1B_SIMIIC_START?SEEKFREE_DL1B
   *DEL*:           000016H   BYTE   INSEG    CODE           ?PR?DL1B_SIMIIC_STOP?SEEKFREE_DL1B
   *DEL*:           000133H   BYTE   INSEG    CODE           ?PR?DL1B_INIT?SEEKFREE_DL1B
   *DEL*:           00008DH   BYTE   INSEG    CODE           ?PR?ICM20602_GYRO_TRANSITION?SEEKFREE_ICM20602
L251 LINKER/LOCATER V4.66.93.0                                                        04/15/2024  21:19:48  PAGE 13


   *DEL*:           00001AH   BYTE   INSEG    CODE           ?PR?ICM20602_WRITE_REGISTER?SEEKFREE_ICM20602
   *DEL*:           000051H   BYTE   INSEG    CODE           ?PR?ICM20602_SELF_CHECK?SEEKFREE_ICM20602
   *DEL*:           00001BH   BYTE   INSEG    CODE           ?PR?ICM20602_SIMSPI_W_REG_BYTE?SEEKFREE_ICM20602
   *DEL*:           0000C5H   BYTE   INSEG    CODE           ?PR?ICM20602_INIT?SEEKFREE_ICM20602
   *DEL*:           000054H   BYTE   INSEG    CODE           ?PR?ICM20602_GET_ACC?SEEKFREE_ICM20602
   *DEL*:           000089H   BYTE   INSEG    CODE           ?PR?ICM20602_ACC_TRANSITION?SEEKFREE_ICM20602
   *DEL*:           000026H   BYTE   INSEG    CODE           ?PR?ICM20602_READ_REGISTERS?SEEKFREE_ICM20602
   *DEL*:           000054H   BYTE   INSEG    CODE           ?PR?ICM20602_GET_GYRO?SEEKFREE_ICM20602
   *DEL*:           000054H   BYTE   INSEG    CODE           ?PR?IMU660RA_GET_GYRO?SEEKFREE_IMU660RA
   *DEL*:           000022H   BYTE   INSEG    CODE           ?PR?IMU660RA_WRITE_REGISTERS?SEEKFREE_IMU660RA
   *DEL*:           0000A8H   BYTE   INSEG    CODE           ?PR?IMU660RA_GYRO_TRANSITION?SEEKFREE_IMU660RA
   *DEL*:           00001AH   BYTE   INSEG    CODE           ?PR?IMU660RA_WRITE_REGISTER?SEEKFREE_IMU660RA
   *DEL*:           00004EH   BYTE   INSEG    CODE           ?PR?IMU660RA_SELF_CHECK?SEEKFREE_IMU660RA
   *DEL*:           00003EH   BYTE   INSEG    CODE           ?PR?IMU660RA_SIMSPI_W_REG_BYTES?SEEKFREE_IMU660RA
   *DEL*:           00001BH   BYTE   INSEG    CODE           ?PR?IMU660RA_SIMSPI_W_REG_BYTE?SEEKFREE_IMU660RA
   *DEL*:           0000AEH   BYTE   INSEG    CODE           ?PR?IMU660RA_INIT?SEEKFREE_IMU660RA
   *DEL*:           000054H   BYTE   INSEG    CODE           ?PR?IMU660RA_GET_ACC?SEEKFREE_IMU660RA
   *DEL*:           00007CH   BYTE   INSEG    CODE           ?PR?IMU660RA_ACC_TRANSITION?SEEKFREE_IMU660RA
   *DEL*:           000026H   BYTE   INSEG    CODE           ?PR?IMU660RA_READ_REGISTERS?SEEKFREE_IMU660RA
   *DEL*:           00008DH   BYTE   INSEG    CODE           ?PR?IMU963RA_ACC_TRANSITION?SEEKFREE_IMU963RA
   *DEL*:           000054H   BYTE   INSEG    CODE           ?PR?IMU963RA_GET_GYRO?SEEKFREE_IMU963RA
   *DEL*:           000051H   BYTE   INSEG    CODE           ?PR?IMU963RA_MAG_TRANSITION?SEEKFREE_IMU963RA
   *DEL*:           0000D2H   BYTE   INSEG    CODE           ?PR?IMU963RA_GYRO_TRANSITION?SEEKFREE_IMU963RA
   *DEL*:           00003AH   BYTE   INSEG    CODE           ?PR?IMU963RA_CONNECT_MAG?SEEKFREE_IMU963RA
   *DEL*:           000026H   BYTE   INSEG    CODE           ?PR?IMU963RA_READ_ACC_GYRO_REGISTERS?SEEKFREE_IMU963RA
   *DEL*:           000082H   BYTE   INSEG    CODE           ?PR?IMU963RA_WRITE_MAG_REGISTER?SEEKFREE_IMU963RA
   *DEL*:           00004BH   BYTE   INSEG    CODE           ?PR?IMU963RA_SIMSPI_R_REG_BYTES?SEEKFREE_IMU963RA
   *DEL*:           000054H   BYTE   INSEG    CODE           ?PR?IMU963RA_MAG_SELF_CHECK?SEEKFREE_IMU963RA
   *DEL*:           00011DH   BYTE   INSEG    CODE           ?PR?IMU963RA_INIT?SEEKFREE_IMU963RA
   *DEL*:           000051H   BYTE   INSEG    CODE           ?PR?IMU963RA_ACC_GYRO_SELF_CHECK?SEEKFREE_IMU963RA
   *DEL*:           000054H   BYTE   INSEG    CODE           ?PR?IMU963RA_GET_ACC?SEEKFREE_IMU963RA
   *DEL*:           000073H   BYTE   INSEG    CODE           ?PR?IMU963RA_GET_MAG?SEEKFREE_IMU963RA
   *DEL*:           0000ADH   BYTE   INSEG    CODE           ?PR?IPS114_SHOWUINT8_SIMSPI?SEEKFREE_IPS114_SPI
   *DEL*:           0000A9H   BYTE   INSEG    CODE           ?PR?IPS114_SHOWUINT8?SEEKFREE_IPS114_SPI
   *DEL*:           0000F1H   BYTE   INSEG    CODE           ?PR?IPS114_SHOWINT8_SIMSPI?SEEKFREE_IPS114_SPI
   *DEL*:           0000EDH   BYTE   INSEG    CODE           ?PR?IPS114_SHOWINT8?SEEKFREE_IPS114_SPI
   *DEL*:           000169H   BYTE   INSEG    CODE           ?PR?IPS114_SHOWFLOAT_SIMSPI?SEEKFREE_IPS114_SPI
   *DEL*:           000023H   BYTE   INSEG    CODE           ?PR?IPS114_DRAWPOINT_SIMSPI?SEEKFREE_IPS114_SPI
   *DEL*:           000169H   BYTE   INSEG    CODE           ?PR?IPS114_SHOWFLOAT?SEEKFREE_IPS114_SPI
   *DEL*:           000023H   BYTE   INSEG    CODE           ?PR?IPS114_DRAWPOINT?SEEKFREE_IPS114_SPI
   *DEL*:           0000BCH   BYTE   INSEG    CODE           ?PR?IPS114_SHOWCHAR_SIMSPI?SEEKFREE_IPS114_SPI
   *DEL*:           0000BCH   BYTE   INSEG    CODE           ?PR?IPS114_SHOWCHAR?SEEKFREE_IPS114_SPI
   *DEL*:           0000D1H   BYTE   INSEG    CODE           ?PR?IPS114_SHOWUINT16_SIMSPI?SEEKFREE_IPS114_SPI
   *DEL*:           0000D1H   BYTE   INSEG    CODE           ?PR?IPS114_SHOWUINT16?SEEKFREE_IPS114_SPI
   *DEL*:           0000E5H   BYTE   INSEG    CODE           ?PR?IPS114_SHOWINT32_SIMSPI?SEEKFREE_IPS114_SPI
   *DEL*:           00011FH   BYTE   INSEG    CODE           ?PR?IPS114_SHOWINT16_SIMSPI?SEEKFREE_IPS114_SPI
   *DEL*:           0000E5H   BYTE   INSEG    CODE           ?PR?IPS114_SHOWINT32?SEEKFREE_IPS114_SPI
   *DEL*:           00011BH   BYTE   INSEG    CODE           ?PR?IPS114_SHOWINT16?SEEKFREE_IPS114_SPI
   *DEL*:           000064H   BYTE   INSEG    CODE           ?PR?IPS114_CLEAR_SIMSPI?SEEKFREE_IPS114_SPI
   *DEL*:           000064H   BYTE   INSEG    CODE           ?PR?IPS114_CLEAR?SEEKFREE_IPS114_SPI
   *DEL*:           00006AH   BYTE   INSEG    CODE           ?PR?IPS114_SHOWSTR_SIMSPI?SEEKFREE_IPS114_SPI
   *DEL*:           00006AH   BYTE   INSEG    CODE           ?PR?IPS114_SHOWSTR?SEEKFREE_IPS114_SPI
   *DEL*:           00004BH   BYTE   INSEG    CODE           ?PR?IPS114_WRITEDATA_SIMSPI?SEEKFREE_IPS114_SPI
   *DEL*:           000015H   BYTE   INSEG    CODE           ?PR?IPS114_WRITEDATA?SEEKFREE_IPS114_SPI
   *DEL*:           000054H   BYTE   INSEG    CODE           ?PR?IPS114_SET_REGION_SIMSPI?SEEKFREE_IPS114_SPI
   *DEL*:           000154H   BYTE   INSEG    CODE           ?PR?IPS114_INIT_SIMSPI?SEEKFREE_IPS114_SPI
   *DEL*:           000054H   BYTE   INSEG    CODE           ?PR?IPS114_SET_REGION?SEEKFREE_IPS114_SPI
   *DEL*:           000174H   BYTE   INSEG    CODE           ?PR?IPS114_INIT?SEEKFREE_IPS114_SPI
   *DEL*:           00006CH   BYTE   INSEG    CODE           ?PR?MPU6050_SIMIIC_READ_REGS?SEEKFREE_MPU6050
   *DEL*:           00003BH   BYTE   INSEG    CODE           ?PR?MPU6050_SIMIIC_READ_REG?SEEKFREE_MPU6050
   *DEL*:           00002AH   BYTE   INSEG    CODE           ?PR?MPU6050_SIMIIC_WRITE_REG?SEEKFREE_MPU6050
   *DEL*:           000060H   BYTE   INSEG    CODE           ?PR?MPU6050_INIT?SEEKFREE_MPU6050
   *DEL*:           000033H   BYTE   INSEG    CODE           ?PR?MPU6050_SELF1_CHECK?SEEKFREE_MPU6050
   *DEL*:           000065H   BYTE   INSEG    CODE           ?PR?MPU6050_READ_CH?SEEKFREE_MPU6050
   *DEL*:           000048H   BYTE   INSEG    CODE           ?PR?MPU6050_SEND_CH?SEEKFREE_MPU6050
L251 LINKER/LOCATER V4.66.93.0                                                        04/15/2024  21:19:48  PAGE 14


   *DEL*:           000056H   BYTE   INSEG    CODE           ?PR?MPU6050_GET_GYRO?SEEKFREE_MPU6050
   *DEL*:           000021H   BYTE   INSEG    CODE           ?PR?MPU6050_SCCB_WAITACK?SEEKFREE_MPU6050
   *DEL*:           000056H   BYTE   INSEG    CODE           ?PR?MPU6050_GET_ACCDATA?SEEKFREE_MPU6050
   *DEL*:           000047H   BYTE   INSEG    CODE           ?PR?OLED_PUTPIXEL?SEEKFREE_OLED
   *DEL*:           000074H   BYTE   INSEG    CODE           ?PR?OLED_HEXASCII_SPI?SEEKFREE_OLED
   *DEL*:           000474H   BYTE   INSEG    CODE           ?PR?OLED_DIS_BMP_SPI?SEEKFREE_OLED
   *DEL*:           000145H   BYTE   INSEG    CODE           ?PR?OLED_PRINTF_FLOAT?SEEKFREE_OLED
   *DEL*:           000123H   BYTE   INSEG    CODE           ?PR?OLED_P8X16STR_SPI?SEEKFREE_OLED
   *DEL*:           000041H   BYTE   INSEG    CODE           ?PR?OLED_CLRPIXEL_SPI?SEEKFREE_OLED
   *DEL*:           0000C0H   BYTE   INSEG    CODE           ?PR?OLED_PRINT_CHINESE_SPI?SEEKFREE_OLED
   *DEL*:           00005FH   BYTE   INSEG    CODE           ?PR?OLED_FILL?SEEKFREE_OLED
   *DEL*:           0000CEH   BYTE   INSEG    CODE           ?PR?OLED_PRINTF_INT32?SEEKFREE_OLED
   *DEL*:           000027H   BYTE   INSEG    CODE           ?PR?OLED_UINT16?SEEKFREE_OLED
   *DEL*:           000048H   BYTE   INSEG    CODE           ?PR?OLED_PUTPIXEL_SPI?SEEKFREE_OLED
   *DEL*:           0000D2H   BYTE   INSEG    CODE           ?PR?OLED_P6X8STR?SEEKFREE_OLED
   *DEL*:           000073H   BYTE   INSEG    CODE           ?PR?OLED_INT16?SEEKFREE_OLED
   *DEL*:           0000A8H   BYTE   INSEG    CODE           ?PR?OLED_INIT?SEEKFREE_OLED
   *DEL*:           000074H   BYTE   INSEG    CODE           ?PR?OLED_HEXASCII?SEEKFREE_OLED
   *DEL*:           000027H   BYTE   INSEG    CODE           ?PR?OLED_UINT16_SPI?SEEKFREE_OLED
   *DEL*:           000073H   BYTE   INSEG    CODE           ?PR?OLED_INT16_SPI?SEEKFREE_OLED
   *DEL*:           000481H   BYTE   INSEG    CODE           ?PR?OLED_DIS_BMP?SEEKFREE_OLED
   *DEL*:           000123H   BYTE   INSEG    CODE           ?PR?OLED_P8X16STR?SEEKFREE_OLED
   *DEL*:           000040H   BYTE   INSEG    CODE           ?PR?OLED_CLRPIXEL?SEEKFREE_OLED
   *DEL*:           0000C0H   BYTE   INSEG    CODE           ?PR?OLED_PRINT_CHINESE?SEEKFREE_OLED
   *DEL*:           00008AH   BYTE   INSEG    CODE           ?PR?CCD_SEND_DATA?SEEKFREE_TSL1401
   *DEL*:           000022H   BYTE   INSEG    CODE           ?PR?CCD_INIT?SEEKFREE_TSL1401
   *DEL*:           000088H   BYTE   INSEG    CODE           ?PR?CCD_COLLECT?SEEKFREE_TSL1401
   *DEL*:           00009AH   BYTE   INSEG    CODE           ?PR?CRC_CHECK?SEEKFREE_VIRSCO
   *DEL*:           0000DCH   BYTE   INSEG    CODE           ?PR?DATA_CONVERSION?SEEKFREE_VIRSCO
   *DEL*:           000042H   BYTE   INSEG    CODE           ?PR?WIRELESS_UART_READ_BUFF?SEEKFREE_WIRELESS
   *DEL*:           000075H   BYTE   INSEG    CODE           ?PR?WIRELESS_UART_SEND_BUFF?SEEKFREE_WIRELESS
   *DEL*:           000022H   BYTE   INSEG    CODE           ?PR?WIRELESS_UART_CALLBACK?SEEKFREE_WIRELESS
   *DEL*:           00004CH   BYTE   INSEG    CODE           ?PR?WIRELESS_UART_INIT?SEEKFREE_WIRELESS
   *DEL*:           000042H   BYTE   INSEG    CODE           ?PR?WIRELESS_CH573_READ_BUFF?SEEKFREE_WIRELESS_CH573
   *DEL*:           00007DH   BYTE   INSEG    CODE           ?PR?WIRELESS_CH573_SEND_BUFF?SEEKFREE_WIRELESS_CH573
   *DEL*:           000022H   BYTE   INSEG    CODE           ?PR?WIRELESS_CH573_CALLBACK?SEEKFREE_WIRELESS_CH573
   *DEL*:           00004CH   BYTE   INSEG    CODE           ?PR?WIRELESS_CH573_INIT?SEEKFREE_WIRELESS_CH573
   *DEL*:           000018H   BYTE   INSEG    CODE           ?PR?LSM303_IIC_INIT?MAIN
   *DEL*:           000035H   BYTE   INSEG    CODE           ?PR?LASER_RANGING_UART_INIT?MAIN
   *DEL*:           000121H   BYTE   INSEG    CODE           ?PR?UART_RUNNING?UART
   *DEL*:           00003BH   BYTE   INSEG    CODE           ?PR?UART_INITIALIZE?UART
   *DEL*:           0000BFH   BYTE   INSEG    CODE           ?PR?UART_SENDSTRING?UART
   *DEL*:           000007H   BYTE   INSEG    CODE           ?PR?UART_PORT_INIT?UART
   *DEL*:           000037H   BYTE   INSEG    CODE           ?PR?LASER_RANGING_INIT?LASER_RANGING
   *DEL*:           000007H   BYTE   INSEG    CODE           ?PR?WHEELS_X_BACKWARD?MOTOR_DRIVER_BOARDS
   *DEL*:           000007H   BYTE   INSEG    CODE           ?PR?WHEELS_Y_BACKWARD?MOTOR_DRIVER_BOARDS
   *DEL*:           000007H   BYTE   INSEG    CODE           ?PR?WHEELS_X_STOP?MOTOR_DRIVER_BOARDS
   *DEL*:           000007H   BYTE   INSEG    CODE           ?PR?WHEELS_Y_STOP?MOTOR_DRIVER_BOARDS
   *DEL*:           000007H   BYTE   INSEG    CODE           ?PR?WHEEL_X_REAR_BACKWARD?MOTOR_DRIVER_BOARDS
   *DEL*:           000007H   BYTE   INSEG    CODE           ?PR?WHEEL_X_FRONT_BACKWARD?MOTOR_DRIVER_BOARDS
   *DEL*:           000007H   BYTE   INSEG    CODE           ?PR?WHEEL_Y_REAR_BACKWARD?MOTOR_DRIVER_BOARDS
   *DEL*:           000007H   BYTE   INSEG    CODE           ?PR?WHEEL_Y_FRONT_BACKWARD?MOTOR_DRIVER_BOARDS
   *DEL*:           000007H   BYTE   INSEG    CODE           ?PR?WHEEL_X_REAR_STOP?MOTOR_DRIVER_BOARDS
   *DEL*:           000007H   BYTE   INSEG    CODE           ?PR?WHEEL_X_FRONT_STOP?MOTOR_DRIVER_BOARDS
   *DEL*:           000007H   BYTE   INSEG    CODE           ?PR?WHEEL_Y_REAR_STOP?MOTOR_DRIVER_BOARDS
   *DEL*:           000007H   BYTE   INSEG    CODE           ?PR?WHEEL_Y_FRONT_STOP?MOTOR_DRIVER_BOARDS
   *DEL*:           000007H   BYTE   INSEG    CODE           ?PR?WHEELS_X_FORWARD?MOTOR_DRIVER_BOARDS
   *DEL*:           000007H   BYTE   INSEG    CODE           ?PR?WHEELS_Y_FORWARD?MOTOR_DRIVER_BOARDS
   *DEL*:           000019H   BYTE   INSEG    CODE           ?PR?WHEELS_ALL_STOP?MOTOR_DRIVER_BOARDS
   *DEL*:           000007H   BYTE   INSEG    CODE           ?PR?WHEEL_X_REAR_FORWARD?MOTOR_DRIVER_BOARDS
   *DEL*:           000007H   BYTE   INSEG    CODE           ?PR?WHEEL_X_FRONT_FORWARD?MOTOR_DRIVER_BOARDS
   *DEL*:           000007H   BYTE   INSEG    CODE           ?PR?WHEEL_Y_REAR_FORWARD?MOTOR_DRIVER_BOARDS
   *DEL*:           000007H   BYTE   INSEG    CODE           ?PR?WHEEL_Y_FRONT_FORWARD?MOTOR_DRIVER_BOARDS
   *DEL*:           0003F2H   BYTE   INSEG    CODE           ?PR?SEEKFREE_ASSISTANT_CAMERA_BOUNDARY_CONFIG?SEEKFREE_ASS
                                                             -ISTANT
L251 LINKER/LOCATER V4.66.93.0                                                        04/15/2024  21:19:48  PAGE 15


   *DEL*:           000101H   BYTE   INSEG    CODE           ?PR?SEEKFREE_ASSISTANT_CAMERA_DOT_SEND?SEEKFREE_ASSISTANT
   *DEL*:           000138H   BYTE   INSEG    CODE           ?PR?SEEKFREE_ASSISTANT_OSCILLOSCOPE_SEND?SEEKFREE_ASSISTAN
                                                             -T
   *DEL*:           000022H   BYTE   INSEG    CODE           ?PR?SEEKFREE_ASSISTANT_INIT?SEEKFREE_ASSISTANT
   *DEL*:           00003FH   BYTE   INSEG    CODE           ?PR?SEEKFREE_ASSISTANT_SUM?SEEKFREE_ASSISTANT
   *DEL*:           00003FH   BYTE   INSEG    CODE           ?PR?SEEKFREE_ASSISTANT_CAMERA_INFORMATION_CONFIG?SEEKFREE_
                                                             -ASSISTANT
   *DEL*:           0001B8H   BYTE   INSEG    CODE           ?PR?SEEKFREE_ASSISTANT_DATA_ANALYSIS?SEEKFREE_ASSISTANT
   *DEL*:           000101H   BYTE   INSEG    CODE           ?PR?SEEKFREE_ASSISTANT_CAMERA_DATA_SEND?SEEKFREE_ASSISTANT
   *DEL*:           000034H   BYTE   INSEG    CODE           ?PR?SEEKFREE_ASSISTANT_CAMERA_SEND?SEEKFREE_ASSISTANT
   *DEL*:           000028H   BYTE   UNIT     EDATA          ?ED?PRINTF
   *DEL*:           00001AH   BYTE   INSEG    CODE           ?PR?MEMSET?_?MEMSET



OVERLAY MAP OF MODULE:   .\Out_File\SEEKFREE (board)


FUNCTION/MODULE                                BIT_GROUP   DATA_GROUP 
--> CALLED FUNCTION/MODULE                    START  STOP  START  STOP
======================================================================
uart1_isr/uart                                ----- -----  ----- -----
  +--> laser_ranging_irqhandler/laser_ranging

laser_ranging_irqhandler/laser_ranging        ----- -----  ----- -----
  +--> ATOF?_/ATOF?_
  +--> oled_printf_float_spi/SEEKFREE_OLED

ATOF?_/ATOF?_                                 ----- -----  ----- -----
  +--> isspace?_/ISSPACE
  +--> ?C?FPATOF/?C?ATOF

isspace?_/ISSPACE                             ----- -----  ----- -----

?C?FPATOF/?C?ATOF                             ----- -----  ----- -----

oled_printf_float_spi/SEEKFREE_OLED           ----- -----  ----- -----
  +--> zf_sprintf/SEEKFREE_PRINTF
  +--> oled_p6x8str_spi/SEEKFREE_OLED

zf_sprintf/SEEKFREE_PRINTF                    ----- -----  ----- -----
  +--> number_conversion_ascii/SEEKFREE_PRINTF
  +--> printf_reverse_order/SEEKFREE_PRINTF
  +--> memcpy?_/memcpy

number_conversion_ascii/SEEKFREE_PRINTF       ----- -----  ----- -----
  +--> ?C?SLDIV/?C?SLDIV
  +--> ?C?ULIDIV/?C?ULDIV

?C?SLDIV/?C?SLDIV                             ----- -----  ----- -----
  +--> ?C?ULIDIV/?C?ULDIV

?C?ULIDIV/?C?ULDIV                            ----- -----  ----- -----

printf_reverse_order/SEEKFREE_PRINTF          ----- -----  ----- -----

memcpy?_/memcpy                               ----- -----  ----- -----

oled_p6x8str_spi/SEEKFREE_OLED                ----- -----  ----- -----
  +--> oled_set_pos_spi/SEEKFREE_OLED
  +--> oled_wrdat_spi/SEEKFREE_OLED

oled_set_pos_spi/SEEKFREE_OLED                ----- -----  ----- -----
  +--> oled_wrcmd_spi/SEEKFREE_OLED

L251 LINKER/LOCATER V4.66.93.0                                                        04/15/2024  21:19:48  PAGE 16


oled_wrcmd_spi/SEEKFREE_OLED                  ----- -----  ----- -----
  +--> spi_mosi/zf_spi

spi_mosi/zf_spi                               ----- -----  ----- -----

oled_wrdat_spi/SEEKFREE_OLED                  ----- -----  ----- -----
  +--> spi_mosi/zf_spi

*** NEW ROOT ********************************

uart2_isr/uart                                ----- -----  ----- -----
  +--> laser_ranging_irqhandler/laser_ranging

*** NEW ROOT ********************************

uart3_isr/uart                                ----- -----  ----- -----
  +--> memcpy?_/memcpy
  +--> qmc5883_data_parse/qmc5883
  +--> oled_printf_int32_spi/SEEKFREE_OLED
  +--> oled_printf_float_spi/SEEKFREE_OLED

qmc5883_data_parse/qmc5883                    ----- -----  ----- -----
  +--> atoi/qmc5883
  +--> atof/qmc5883

atoi/qmc5883                                  ----- -----  ----- -----

atof/qmc5883                                  ----- -----  ----- -----

oled_printf_int32_spi/SEEKFREE_OLED           ----- -----  ----- -----
  +--> zf_sprintf/SEEKFREE_PRINTF
  +--> oled_p6x8str_spi/SEEKFREE_OLED

*** NEW ROOT ********************************

uart4_isr/uart                                ----- -----  ----- -----

*** NEW ROOT ********************************

?C_C51STARTUP?1                               ----- -----  ----- -----

*** NEW ROOT ********************************

?C_C51STARTUP                                 ----- -----  ----- -----

*** NEW ROOT ********************************

?C_C51STARTUP?3                               ----- -----  ----- -----
  +--> main/main

main/main                                     ----- -----  ----- -----
  +--> board_init/board
  +--> gpio_init/main
  +--> oled_init_spi/SEEKFREE_OLED
  +--> keys_ui_init/key
  +--> oled_p6x8str_spi/SEEKFREE_OLED
  +--> motor_drivers_pwm_init/main
  +--> qmc5883_init/main
  +--> key1_check/key
  +--> key2_check/key
  +--> key3_check/key
  +--> key4_check/key

board_init/board                              ----- -----  ----- -----
  +--> set_clk/board
L251 LINKER/LOCATER V4.66.93.0                                                        04/15/2024  21:19:48  PAGE 17


  +--> delay_init/zf_delay
  +--> uart_init/zf_uart
  +--> EnableGlobalIRQ/board

set_clk/board                                 ----- -----  ----- -----

delay_init/zf_delay                           ----- -----  ----- -----
  +--> ?C?SLDIV/?C?SLDIV

uart_init/zf_uart                             ----- -----  ----- -----
  +--> ?C?ULIDIV/?C?ULDIV

EnableGlobalIRQ/board                         ----- -----  ----- -----

gpio_init/main                                ----- -----  ----- -----
  +--> gpio_mode/zf_gpio

gpio_mode/zf_gpio                             ----- -----  ----- -----

oled_init_spi/SEEKFREE_OLED                   ----- -----  ----- -----
  +--> spi_init/zf_spi
  +--> delay_ms/zf_delay
  +--> oled_wrcmd_spi/SEEKFREE_OLED
  +--> oled_fill_spi/SEEKFREE_OLED
  +--> oled_set_pos_spi/SEEKFREE_OLED

spi_init/zf_spi                               ----- -----  ----- -----
  +--> gpio_mode/zf_gpio

delay_ms/zf_delay                             ----- -----  ----- -----

oled_fill_spi/SEEKFREE_OLED                   ----- -----  ----- -----
  +--> oled_wrcmd_spi/SEEKFREE_OLED
  +--> oled_wrdat_spi/SEEKFREE_OLED

keys_ui_init/key                              ----- -----  ----- -----
  +--> oled_p6x8str_spi/SEEKFREE_OLED

motor_drivers_pwm_init/main                   ----- -----  ----- -----
  +--> pwm_init/zf_pwm

pwm_init/zf_pwm                               ----- -----  ----- -----
  +--> pwm_set_gpio/zf_pwm
  +--> ?C?ULIDIV/?C?ULDIV

pwm_set_gpio/zf_pwm                           ----- -----  ----- -----
  +--> gpio_mode/zf_gpio

qmc5883_init/main                             ----- -----  ----- -----
  +--> uart_init/zf_uart

key1_check/key                                ----- -----  ----- -----
  +--> oled_p6x8str_spi/SEEKFREE_OLED
  +--> key1_short_press/key

key1_short_press/key                          ----- -----  ----- -----

key2_check/key                                ----- -----  ----- -----
  +--> oled_p6x8str_spi/SEEKFREE_OLED
  +--> key2_short_press/key

key2_short_press/key                          ----- -----  ----- -----

key3_check/key                                ----- -----  ----- -----
  +--> oled_p6x8str_spi/SEEKFREE_OLED
L251 LINKER/LOCATER V4.66.93.0                                                        04/15/2024  21:19:48  PAGE 18


  +--> key3_short_press/key

key3_short_press/key                          ----- -----  ----- -----

key4_check/key                                ----- -----  ----- -----
  +--> oled_p6x8str_spi/SEEKFREE_OLED
  +--> key4_short_press/key

key4_short_press/key                          ----- -----  ----- -----
  +--> oled_p6x8str_spi/SEEKFREE_OLED
  +--> laser_ranging/laser_ranging

laser_ranging/laser_ranging                   ----- -----  ----- -----
  +--> laser_ranging_get_uart_value/laser_ranging
  +--> uart_sendcmd/uart

laser_ranging_get_uart_value/laser_rangi+     ----- -----  ----- -----
... ng

uart_sendcmd/uart                             ----- -----  ----- -----

*** NEW ROOT ********************************

?C_C51STARTUP?2                               ----- -----  ----- -----



PUBLIC SYMBOLS OF MODULE:  .\Out_File\SEEKFREE (board)


      VALUE       CLASS    TYPE      PUBLIC SYMBOL NAME
      =================================================
      00FF3187H   CODE     NEAR LAB  ?C?CASTF
      000000FFH   NUMBER   ---       ?C?CODESEG
      00FF3154H   CODE     NEAR LAB  ?C?FCASTC
      00FF314FH   CODE     NEAR LAB  ?C?FCASTI
      00FF314AH   CODE     NEAR LAB  ?C?FCASTL
      00FF2F2BH   CODE     ---       ?C?FPADD
      00FF3260H   CODE     NEAR LAB  ?C?FPATOF
      00FF3106H   CODE     ---       ?C?FPCMP
      00FF3104H   CODE     ---       ?C?FPCMP3
      00FF37DBH   CODE     ---       ?C?FPCONVERT
      00FF3083H   CODE     ---       ?C?FPDIV
      00FF320FH   CODE     ---       ?C?FPGETOPN2
      00FF2FE3H   CODE     ---       ?C?FPMUL
      00FF324CH   CODE     ---       ?C?FPNANRESULT
      00FF3758H   CODE     ---       ?C?FPNEG
      00FF3254H   CODE     ---       ?C?FPOVERFLOW
      00FF3228H   CODE     ---       ?C?FPRESULT
      00FF323EH   CODE     ---       ?C?FPRESULT2
      00FF3893H   CODE     ---       ?C?FPROUND
      00FF2F28H   CODE     ---       ?C?FPSUB
      00FF3251H   CODE     ---       ?C?FPUNDERFLOW
      00FF3796H   CODE     ---       ?C?FTNPWR
      00FF6A9DH   CODE     ---       ?C?INITEDATA
      00FF7E5EH   HCONST   WORD      ?C?INITEDATA_END
      00FF6AC6H   CODE     ---       ?C?INITHDATA
      00FF7FE1H   HCONST   WORD      ?C?INITHDATA_END
      00FF3919H   CODE     ---       ?C?LIMUL
      00FF3908H   CODE     ---       ?C?LMUL
      00FF3349H   CODE     ---       ?C?PRNFMT
      00FF38D6H   CODE     ---       ?C?SIDIV
      00FF3975H   CODE     NEAR LAB  ?C?SLDIV
      00FF0000H   CODE     ---       ?C?STARTUP
      00FF3924H   CODE     NEAR LAB  ?C?ULDIV
L251 LINKER/LOCATER V4.66.93.0                                                        04/15/2024  21:19:48  PAGE 19


      00FF3922H   CODE     NEAR LAB  ?C?ULIDIV
      00000001H   NUMBER   ---       ?C?XDATASEG
      00FF0000H   CODE     ---       ?C_STARTUP
      00000617H   EDATA    BYTE      ?data_conversion?BYTE
      000005A0H   EDATA    BYTE      ?dl1b_iic_transfer_8bit_array?BYTE
      00000590H   EDATA    BYTE      ?fifo_init?BYTE
      00000008H   EDATA    BYTE      ?fifo_read_buffer?BYTE
      0000063FH   EDATA    BYTE      ?fifo_read_element?BYTE
      00000502H   EDATA    BYTE      ?fifo_read_tail_buffer?BYTE
      0000056CH   EDATA    BYTE      ?fifo_write_buffer?BYTE
      000006D7H   EDATA    BYTE      ?iap_read_bytes?BYTE
      000006E1H   EDATA    BYTE      ?iap_write_bytes?BYTE
      000008A8H   EDATA    BYTE      ?iic_init?BYTE
      00000693H   EDATA    BYTE      ?ips114_showfloat?BYTE
      00000687H   EDATA    BYTE      ?ips114_showfloat_simspi?BYTE
      00000657H   EDATA    BYTE      ?lcd_showfloat?BYTE
      0000064BH   EDATA    BYTE      ?lcd_showfloat_simspi?BYTE
      00000558H   EDATA    BYTE      ?number_conversion_ascii?BYTE
      000003C7H   EDATA    BYTE      ?oled_printf_float?BYTE
      000003F7H   EDATA    BYTE      ?oled_printf_float_spi?BYTE
*DEL*:00000028H   EDATA    ---       ?printf?BYTE
      00000544H   EDATA    BYTE      ?pwm_freq?BYTE
      00000530H   EDATA    BYTE      ?pwm_init?BYTE
      000004C8H   EDATA    BYTE      ?seekfree_assistant_camera_boundary_config?BYTE
      000005D0H   EDATA    BYTE      ?seekfree_assistant_camera_data_send?BYTE
      00000731H   EDATA    BYTE      ?seekfree_assistant_camera_information_config?BYTE
      00000625H   EDATA    BYTE      ?spi_init?BYTE
      000005EDH   EDATA    BYTE      ?uart_init?BYTE
      000006EBH   EDATA    BYTE      ?uart_putbuff?BYTE
      00000336H   EDATA    BYTE      ?zf_sprintf?BYTE
*SFR* 000000BCH   DATA     BYTE      ADC_CONTR
*DEL*:00000000H   CODE     ---       adc_init
*DEL*:00000000H   CODE     ---       adc_once
*SFR* 000000BDH   DATA     BYTE      ADC_RES
*SFR* 000000BEH   DATA     BYTE      ADC_RESL
*SFR* 000000DEH   DATA     BYTE      ADCCFG
      00FF5AD4H   CODE     ---       atof
      00FF31F0H   CODE     NEAR LAB  atof?_
      00FF6272H   CODE     ---       atoi
*SFR* 000000EFH   DATA     BYTE      AUXINTIF
*SFR* 0000008EH   DATA     BYTE      AUXR
*SFR* 00000097H   DATA     BYTE      AUXR2
*DEL*:00000000H   CODE     ---       bluetooth_ch9141_init
*DEL*:00000000H   CODE     ---       bluetooth_ch9141_read_buff
*DEL*:00000000H   CODE     ---       bluetooth_ch9141_send_buff
*DEL*:00000000H   CODE     ---       bluetooth_ch9141_uart_callback
      00FF67EBH   CODE     ---       board_init
      00000954H   EDATA    ---       busy
*SFR* 000000F1H   DATA     BYTE      CANICR
*DEL*:00000000H   CODE     ---       ccd_collect
      00010001H   XDATA    ---       ccd_data_ch1
      00010101H   XDATA    ---       ccd_data_ch2
*DEL*:00000000H   CODE     ---       ccd_init
*DEL*:00000000H   CODE     ---       ccd_send_data
*SFR* 000000EAH   DATA     BYTE      CKCON
*SFR* 000000E6H   DATA     BYTE      CMPCR1
*SFR* 000000E7H   DATA     BYTE      CMPCR2
*DEL*:00000000H   CODE     ---       CRC_CHECK
*DEL*:00000000H   CODE     ---       ctimer_count_clean
*DEL*:00000000H   CODE     ---       ctimer_count_init
*DEL*:00000000H   CODE     ---       ctimer_count_read
*DEL*:00000000H   CODE     ---       data_conversion
      00FF76B7H   CODE     ---       delay_init
      00FF772EH   CODE     ---       delay_ms
*DEL*:00000000H   CODE     ---       delay_us
L251 LINKER/LOCATER V4.66.93.0                                                        04/15/2024  21:19:48  PAGE 20


*DEL*:00000000H   CODE     ---       DisableGlobalIRQ
      000009F3H   EDATA    WORD      dl1a_distance_mm
      000009F5H   EDATA    BYTE      dl1a_finsh_flag
*DEL*:00000000H   CODE     ---       dl1a_get_distance
*DEL*:00000000H   CODE     ---       dl1a_init
      00FF0096H   CODE     ---       dl1b_default_configuration
      000009CAH   EDATA    WORD      dl1b_distance_mm
      000009CCH   EDATA    BYTE      dl1b_finsh_flag
*DEL*:00000000H   CODE     ---       dl1b_get_distance
*DEL*:00000000H   CODE     ---       dl1b_iic_transfer_8bit_array
*DEL*:00000000H   CODE     ---       dl1b_init
      000009CDH   EDATA    BYTE      dl1b_init_flag
*SFR* 000000A8H.7 DATA     BIT       EA
*SFR* 000000BAH.7 DATA     BIT       EAXFR
*DEL*:00000000H   CODE     ---       eeprom_trig
      00FF008EH   CODE     ---       EnableGlobalIRQ
*SFR* 000000A8H.4 DATA     BIT       ES
*SFR* 000000A8H.1 DATA     BIT       ET0
*SFR* 000000A8H.3 DATA     BIT       ET1
*SFR* 000000A8H.0 DATA     BIT       EX0
*SFR* 000000A8H.2 DATA     BIT       EX1
*DEL*:00000000H   CODE     ---       exit_init
*SFR* 000000D0H.5 DATA     BIT       F0
*DEL*:00000000H   CODE     ---       fifo_clear
*DEL*:00000000H   CODE     ---       fifo_init
*DEL*:00000000H   CODE     ---       fifo_read_buffer
*DEL*:00000000H   CODE     ---       fifo_read_element
*DEL*:00000000H   CODE     ---       fifo_read_tail_buffer
*DEL*:00000000H   CODE     ---       fifo_used
*DEL*:00000000H   CODE     ---       fifo_write_buffer
*DEL*:00000000H   CODE     ---       fifo_write_element
      00FF7AB3H   CODE     ---       gpio_init
      00FF39A9H   CODE     ---       gpio_mode
*DEL*:00000000H   CODE     ---       gpio_pull_set
*SFR* 000000C0H.0 DATA     BIT       gpio_wheel_x_front_clockwise
*SFR* 000000C0H.1 DATA     BIT       gpio_wheel_x_front_counterclockwise
*SFR* 000000C0H.3 DATA     BIT       gpio_wheel_x_rear_clockwise
*SFR* 000000C0H.2 DATA     BIT       gpio_wheel_x_rear_counterclockwise
*SFR* 000000C0H.4 DATA     BIT       gpio_wheel_y_front_clockwise
*SFR* 000000C0H.5 DATA     BIT       gpio_wheel_y_front_counterclockwise
*SFR* 000000C0H.7 DATA     BIT       gpio_wheel_y_rear_clockwise
*SFR* 000000C0H.6 DATA     BIT       gpio_wheel_y_rear_counterclockwise
*SFR* 000000F6H   DATA     BYTE      IAP_ADDRE
*SFR* 000000C3H   DATA     BYTE      IAP_ADDRH
*SFR* 000000C4H   DATA     BYTE      IAP_ADDRL
*SFR* 000000C5H   DATA     BYTE      IAP_CMD
*SFR* 000000C7H   DATA     BYTE      IAP_CONTR
*SFR* 000000C2H   DATA     BYTE      IAP_DATA
*DEL*:00000000H   CODE     ---       iap_erase_page
*DEL*:00000000H   CODE     ---       iap_get_cmd_state
*DEL*:00000000H   CODE     ---       iap_idle
*DEL*:00000000H   CODE     ---       iap_init
*DEL*:00000000H   CODE     ---       iap_read_bytes
*DEL*:00000000H   CODE     ---       iap_set_tps
*SFR* 000000F5H   DATA     BYTE      IAP_TPS
*SFR* 000000C6H   DATA     BYTE      IAP_TRIG
*DEL*:00000000H   CODE     ---       iap_write_bytes
*DEL*:00000000H   CODE     ---       icm20602_acc_transition
      0000066FH   EDATA    INT       icm20602_acc_x
      00000671H   EDATA    INT       icm20602_acc_y
      00000673H   EDATA    INT       icm20602_acc_z
*DEL*:00000000H   CODE     ---       icm20602_get_acc
*DEL*:00000000H   CODE     ---       icm20602_get_gyro
*DEL*:00000000H   CODE     ---       icm20602_gyro_transition
      00000675H   EDATA    INT       icm20602_gyro_x
L251 LINKER/LOCATER V4.66.93.0                                                        04/15/2024  21:19:48  PAGE 21


      00000677H   EDATA    INT       icm20602_gyro_y
      00000679H   EDATA    INT       icm20602_gyro_z
*DEL*:00000000H   CODE     ---       icm20602_init
*SFR* 000000A8H   DATA     BYTE      IE
*SFR* 000000AFH   DATA     BYTE      IE2
*DEL*:00000000H   CODE     ---       iic_change_pin
      00FF7763H   CODE     ---       iic_delay_us
*DEL*:00000000H   CODE     ---       iic_init
*DEL*:00000000H   CODE     ---       iic_read_reg
*DEL*:00000000H   CODE     ---       iic_read_reg_bytes
*DEL*:00000000H   CODE     ---       iic_write_reg
*DEL*:00000000H   CODE     ---       imu660ra_acc_transition
      0000067BH   EDATA    INT       imu660ra_acc_x
      0000067DH   EDATA    INT       imu660ra_acc_y
      0000067FH   EDATA    INT       imu660ra_acc_z
      00FF011DH   CODE     ---       imu660ra_config_file
*DEL*:00000000H   CODE     ---       imu660ra_get_acc
*DEL*:00000000H   CODE     ---       imu660ra_get_gyro
*DEL*:00000000H   CODE     ---       imu660ra_gyro_transition
      00000681H   EDATA    INT       imu660ra_gyro_x
      00000683H   EDATA    INT       imu660ra_gyro_y
      00000685H   EDATA    INT       imu660ra_gyro_z
*DEL*:00000000H   CODE     ---       imu660ra_init
*DEL*:00000000H   CODE     ---       imu963ra_acc_transition
      0000057EH   EDATA    INT       imu963ra_acc_x
      00000580H   EDATA    INT       imu963ra_acc_y
      00000582H   EDATA    INT       imu963ra_acc_z
*DEL*:00000000H   CODE     ---       imu963ra_get_acc
*DEL*:00000000H   CODE     ---       imu963ra_get_gyro
*DEL*:00000000H   CODE     ---       imu963ra_get_mag
*DEL*:00000000H   CODE     ---       imu963ra_gyro_transition
      0000058AH   EDATA    INT       imu963ra_gyro_x
      0000058CH   EDATA    INT       imu963ra_gyro_y
      0000058EH   EDATA    INT       imu963ra_gyro_z
*DEL*:00000000H   CODE     ---       imu963ra_init
*DEL*:00000000H   CODE     ---       imu963ra_mag_transition
      00000584H   EDATA    INT       imu963ra_mag_x
      00000586H   EDATA    INT       imu963ra_mag_y
      00000588H   EDATA    INT       imu963ra_mag_z
*SFR* 0000008FH   DATA     BYTE      INTCLKO
*SFR* 000000B8H   DATA     BYTE      IP
*SFR* 000000B5H   DATA     BYTE      IP2
*SFR* 000000B6H   DATA     BYTE      IP2H
*SFR* 000000DFH   DATA     BYTE      IP3
*SFR* 000000EEH   DATA     BYTE      IP3H
*SFR* 000000B7H   DATA     BYTE      IPH
*DEL*:00000000H   CODE     ---       ips114_clear
*DEL*:00000000H   CODE     ---       ips114_clear_simspi
*DEL*:00000000H   CODE     ---       ips114_drawpoint
*DEL*:00000000H   CODE     ---       ips114_drawpoint_simspi
*DEL*:00000000H   CODE     ---       ips114_init
*DEL*:00000000H   CODE     ---       ips114_init_simspi
*DEL*:00000000H   CODE     ---       ips114_set_region
*DEL*:00000000H   CODE     ---       ips114_set_region_simspi
*DEL*:00000000H   CODE     ---       ips114_showchar
*DEL*:00000000H   CODE     ---       ips114_showchar_simspi
*DEL*:00000000H   CODE     ---       ips114_showfloat
*DEL*:00000000H   CODE     ---       ips114_showfloat_simspi
*DEL*:00000000H   CODE     ---       ips114_showint16
*DEL*:00000000H   CODE     ---       ips114_showint16_simspi
*DEL*:00000000H   CODE     ---       ips114_showint32
*DEL*:00000000H   CODE     ---       ips114_showint32_simspi
*DEL*:00000000H   CODE     ---       ips114_showint8
*DEL*:00000000H   CODE     ---       ips114_showint8_simspi
*DEL*:00000000H   CODE     ---       ips114_showstr
L251 LINKER/LOCATER V4.66.93.0                                                        04/15/2024  21:19:48  PAGE 22


*DEL*:00000000H   CODE     ---       ips114_showstr_simspi
*DEL*:00000000H   CODE     ---       ips114_showuint16
*DEL*:00000000H   CODE     ---       ips114_showuint16_simspi
*DEL*:00000000H   CODE     ---       ips114_showuint8
*DEL*:00000000H   CODE     ---       ips114_showuint8_simspi
*DEL*:00000000H   CODE     ---       ips114_writeData
      00FF7826H   CODE     ---       ips114_writedata_16bit
*DEL*:00000000H   CODE     ---       ips114_writeData_simspi
      00FF71E0H   CODE     ---       ips114_writeDatai_16bit_simspi
      00FF7B20H   CODE     ---       ips114_writeIndex
      00FF74FDH   CODE     ---       ips114_writeIndex_simspi
*SFR* 0000009DH   DATA     BYTE      IRCBAND
*SFR* 0000009FH   DATA     BYTE      IRTRIM
      00FF7B5FH   CODE     ---       ISSPACE?_
*SFR* 00000088H.0 DATA     BIT       IT0
*SFR* 00000088H.2 DATA     BIT       IT1
*SFR* 000000B0H.4 DATA     BIT       key1
      00FF737EH   CODE     ---       key1_check
      00FF0040H   CODE     ---       key1_short_press
      000009D6H   EDATA    BYTE      key1_up_store
*SFR* 000000B0H.5 DATA     BIT       key2
      00FF7234H   CODE     ---       key2_check
      00FF0041H   CODE     ---       key2_short_press
      000009D7H   EDATA    BYTE      key2_up_store
*SFR* 000000B0H.6 DATA     BIT       key3
      00FF7287H   CODE     ---       key3_check
      00FF0042H   CODE     ---       key3_short_press
      000009D8H   EDATA    BYTE      key3_up_store
*SFR* 000000B0H.7 DATA     BIT       key4
      00FF72DAH   CODE     ---       key4_check
      00FF732DH   CODE     ---       key4_short_press
      000009D9H   EDATA    BYTE      key4_up_store
      00FF7BBDH   CODE     ---       keys_ui_init
      00FF798DH   CODE     ---       laser_ranging
      000001BAH   EDATA    ---       laser_ranging_cmd_arr_continous
      000001A6H   EDATA    ---       laser_ranging_cmd_arr_laseroff
      00000204H   EDATA    ---       laser_ranging_cmd_arr_laseron
      00000171H   EDATA    ---       laser_ranging_cmd_arr_readcache
      0000018DH   EDATA    ---       laser_ranging_cmd_arr_setfreq_10hz
      000001C8H   EDATA    ---       laser_ranging_cmd_arr_setfreq_1hz
      00000192H   EDATA    ---       laser_ranging_cmd_arr_setfreq_20hz
      000001D2H   EDATA    ---       laser_ranging_cmd_arr_setfreq_5hz
      00000158H   EDATA    ---       laser_ranging_cmd_arr_setrange_10m
      0000015DH   EDATA    ---       laser_ranging_cmd_arr_setrange_30m
      00000162H   EDATA    ---       laser_ranging_cmd_arr_setrange_50m
      000001B0H   EDATA    ---       laser_ranging_cmd_arr_setrange_5m
      0000016CH   EDATA    ---       laser_ranging_cmd_arr_setrange_80m
      00000197H   EDATA    ---       laser_ranging_cmd_arr_setresolution_0_1mm
      0000017AH   EDATA    ---       laser_ranging_cmd_arr_setresolution_1mm
      00000137H   EDATA    ---       laser_ranging_cmd_arr_shutdown
      00000145H   EDATA    ---       laser_ranging_cmd_arr_single
      00000189H   EDATA    ---       laser_ranging_cmd_arr_single_broadcast
      00FF7A95H   CODE     ---       laser_ranging_get_uart_value
*DEL*:00000000H   CODE     ---       laser_ranging_init
      00FF5634H   CODE     ---       laser_ranging_irqhandler
*DEL*:00000000H   CODE     ---       laser_ranging_uart_init
      00000021H.4 BIT      BIT       LaserRanging_State
*DEL*:00000000H   CODE     ---       lcd_clear
*DEL*:00000000H   CODE     ---       lcd_clear_simspi
*DEL*:00000000H   CODE     ---       lcd_drawpoint
*DEL*:00000000H   CODE     ---       lcd_drawpoint_simspi
*DEL*:00000000H   CODE     ---       lcd_init
*DEL*:00000000H   CODE     ---       lcd_init_simspi
      00FF6EADH   CODE     ---       lcd_set_region
      00FF6E49H   CODE     ---       lcd_set_region_simspi
L251 LINKER/LOCATER V4.66.93.0                                                        04/15/2024  21:19:48  PAGE 23


*DEL*:00000000H   CODE     ---       lcd_showchar
*DEL*:00000000H   CODE     ---       lcd_showchar_simspi
*DEL*:00000000H   CODE     ---       lcd_showfloat
*DEL*:00000000H   CODE     ---       lcd_showfloat_simspi
*DEL*:00000000H   CODE     ---       lcd_showint16
*DEL*:00000000H   CODE     ---       lcd_showint16_simspi
*DEL*:00000000H   CODE     ---       lcd_showint32
*DEL*:00000000H   CODE     ---       lcd_showint32_simspi
*DEL*:00000000H   CODE     ---       lcd_showint8
*DEL*:00000000H   CODE     ---       lcd_showint8_simspi
*DEL*:00000000H   CODE     ---       lcd_showstr
*DEL*:00000000H   CODE     ---       lcd_showstr_simspi
*DEL*:00000000H   CODE     ---       lcd_showuint16
*DEL*:00000000H   CODE     ---       lcd_showuint16_simspi
*DEL*:00000000H   CODE     ---       lcd_showuint8
*DEL*:00000000H   CODE     ---       lcd_showuint8_simspi
      00FF7B0BH   CODE     ---       lcd_writeData
      00FF77FAH   CODE     ---       lcd_writedata_16bit
      00FF718CH   CODE     ---       lcd_writeData_16bit_simspi
      00FF7467H   CODE     ---       lcd_writeData_simspi
      00FF7AF6H   CODE     ---       lcd_writeIndex
      00FF741CH   CODE     ---       lcd_writeIndex_simspi
*SFR* 000000F9H   DATA     BYTE      LINICR
      000001ABH   EDATA    ---       lrcmd_continous
      0000019CH   EDATA    ---       lrcmd_laseroff
      000001C3H   EDATA    ---       lrcmd_laseron
      0000014EH   EDATA    ---       lrcmd_readcache
      00000175H   EDATA    ---       lrcmd_setfreq_10hz
      000001B5H   EDATA    ---       lrcmd_setfreq_1hz
      0000017FH   EDATA    ---       lrcmd_setfreq_20hz
      000001BEH   EDATA    ---       lrcmd_setfreq_5hz
      00000132H   EDATA    ---       lrcmd_setrange_10m
      0000013BH   EDATA    ---       lrcmd_setrange_30m
      00000140H   EDATA    ---       lrcmd_setrange_50m
      000001A1H   EDATA    ---       lrcmd_setrange_5m
      00000149H   EDATA    ---       lrcmd_setrange_80m
      00000184H   EDATA    ---       lrcmd_setresolution_0_1mm
      00000153H   EDATA    ---       lrcmd_setresolution_1mm
      000001CDH   EDATA    ---       lrcmd_shutdown
      000001FFH   EDATA    ---       lrcmd_single
      00000167H   EDATA    ---       lrcmd_single_broadcast
      000001D7H   EDATA    ---       lrdata
*DEL*:00000000H   CODE     ---       lsm303_iic_init
      00FF6999H   CODE     ---       main
      00FF7968H   CODE     ---       memcpy?_
*DEL*:00000000H   CODE     ---       memset?_
      00FF73CFH   CODE     ---       motor_drivers_pwm_init
      0000069FH   EDATA    INT       mpu6050_acc_x
      000006A1H   EDATA    INT       mpu6050_acc_y
      000006A3H   EDATA    INT       mpu6050_acc_z
*DEL*:00000000H   CODE     ---       mpu6050_get_accdata
*DEL*:00000000H   CODE     ---       mpu6050_get_gyro
      000006A5H   EDATA    INT       mpu6050_gyro_x
      000006A7H   EDATA    INT       mpu6050_gyro_y
      000006A9H   EDATA    INT       mpu6050_gyro_z
*DEL*:00000000H   CODE     ---       mpu6050_init
*DEL*:00000000H   CODE     ---       mpu6050_simiic_read_reg
*DEL*:00000000H   CODE     ---       mpu6050_simiic_read_regs
      00FF5F48H   CODE     ---       number_conversion_ascii
*DEL*:00000000H   CODE     ---       NVIC_SetPriority
      00FF2CFDH   CODE     ---       oled_6x8
      00FF211DH   CODE     ---       oled_8x16
*DEL*:00000000H   CODE     ---       oled_clrpixel
*DEL*:00000000H   CODE     ---       oled_clrpixel_spi
*DEL*:00000000H   CODE     ---       oled_dis_bmp
L251 LINKER/LOCATER V4.66.93.0                                                        04/15/2024  21:19:48  PAGE 24


*DEL*:00000000H   CODE     ---       oled_dis_bmp_spi
*DEL*:00000000H   CODE     ---       oled_fill
      00FF6F74H   CODE     ---       oled_fill_spi
*DEL*:00000000H   CODE     ---       oled_hexascii
*DEL*:00000000H   CODE     ---       oled_hexascii_spi
*DEL*:00000000H   CODE     ---       oled_init
      00FF65DFH   CODE     ---       oled_init_spi
*DEL*:00000000H   CODE     ---       oled_int16
*DEL*:00000000H   CODE     ---       oled_int16_spi
*DEL*:00000000H   CODE     ---       oled_p6x8str
      00FF6371H   CODE     ---       oled_p6x8str_spi
*DEL*:00000000H   CODE     ---       oled_p8x16str
*DEL*:00000000H   CODE     ---       oled_p8x16str_spi
*DEL*:00000000H   CODE     ---       oled_print_chinese
*DEL*:00000000H   CODE     ---       oled_print_chinese_spi
*DEL*:00000000H   CODE     ---       oled_printf_float
      00FF5E03H   CODE     ---       oled_printf_float_spi
*DEL*:00000000H   CODE     ---       oled_printf_int32
      00FF6511H   CODE     ---       oled_printf_int32_spi
*DEL*:00000000H   CODE     ---       oled_putpixel
*DEL*:00000000H   CODE     ---       oled_putpixel_spi
      00FF7798H   CODE     ---       oled_set_pos
      00FF76F8H   CODE     ---       oled_set_pos_spi
*DEL*:00000000H   CODE     ---       oled_uint16
*DEL*:00000000H   CODE     ---       oled_uint16_spi
      00FF7548H   CODE     ---       oled_wrcmd
      00FF7B35H   CODE     ---       oled_wrcmd_spi
      00FF7593H   CODE     ---       oled_wrdat
      00FF7B4AH   CODE     ---       oled_wrdat_spi
*SFR* 00000080H   DATA     BYTE      P0
*SFR* 00000080H.7 DATA     BIT       P07
*SFR* 00000094H   DATA     BYTE      P0M0
*SFR* 00000093H   DATA     BYTE      P0M1
*SFR* 00000090H   DATA     BYTE      P1
*SFR* 00000092H   DATA     BYTE      P1M0
*SFR* 00000091H   DATA     BYTE      P1M1
*SFR* 000000A0H   DATA     BYTE      P2
*SFR* 000000A0H.0 DATA     BIT       P20
*SFR* 000000A0H.1 DATA     BIT       P21
*SFR* 000000A0H.2 DATA     BIT       P22
*SFR* 000000A0H.3 DATA     BIT       P23
*SFR* 000000A0H.5 DATA     BIT       P25
*SFR* 000000A0H.7 DATA     BIT       P27
*SFR* 00000096H   DATA     BYTE      P2M0
*SFR* 00000095H   DATA     BYTE      P2M1
*SFR* 000000B0H   DATA     BYTE      P3
*SFR* 000000B0H.6 DATA     BIT       P36
*SFR* 000000B0H.7 DATA     BIT       P37
*SFR* 000000B2H   DATA     BYTE      P3M0
*SFR* 000000B1H   DATA     BYTE      P3M1
*SFR* 000000C0H   DATA     BYTE      P4
*SFR* 000000C0H.0 DATA     BIT       P40
*SFR* 000000C0H.1 DATA     BIT       P41
*SFR* 000000C0H.2 DATA     BIT       P42
*SFR* 000000C0H.3 DATA     BIT       P43
*SFR* 000000C0H.7 DATA     BIT       P47
*SFR* 000000B4H   DATA     BYTE      P4M0
*SFR* 000000B3H   DATA     BYTE      P4M1
*SFR* 000000C8H   DATA     BYTE      P5
*SFR* 000000CAH   DATA     BYTE      P5M0
*SFR* 000000C9H   DATA     BYTE      P5M1
*SFR* 000000E8H   DATA     BYTE      P6
*SFR* 000000E8H.3 DATA     BIT       P63
*SFR* 000000E8H.5 DATA     BIT       P65
*SFR* 000000CCH   DATA     BYTE      P6M0
L251 LINKER/LOCATER V4.66.93.0                                                        04/15/2024  21:19:48  PAGE 25


*SFR* 000000CBH   DATA     BYTE      P6M1
*SFR* 000000F8H   DATA     BYTE      P7
*SFR* 000000E2H   DATA     BYTE      P7M0
*SFR* 000000E1H   DATA     BYTE      P7M1
*SFR* 000000A2H   DATA     BYTE      P_SW1
*SFR* 000000BAH   DATA     BYTE      P_SW2
*SFR* 000000BBH   DATA     BYTE      P_SW3
*SFR* 00000087H   DATA     BYTE      PCON
*DEL*:00000000H   CODE     ---       pit_timer_ms
      00FF31C4H   CODE     NEAR LAB  printf
      00FF6882H   CODE     ---       printf_reverse_order
*SFR* 000000D0H   DATA     BYTE      PSW
      00FF7B99H   CODE     ---       putchar
      00FF7E80H   HCONST   ---       PWM_ARR_ADDR
      00FF7E88H   HCONST   ---       PWM_CCER_ADDR
      00FF7E98H   HCONST   ---       PWM_CCMR_ADDR
      00FF7E60H   HCONST   ---       PWM_CCR_ADDR
*DEL*:00000000H   CODE     ---       pwm_duty
*DEL*:00000000H   CODE     ---       pwm_freq
      00FF4917H   CODE     ---       pwm_init
      00FF4CF1H   CODE     ---       pwm_set_gpio
      000000C0H   EDATA    ---       qmc5883_char_magx
      000000CCH   EDATA    ---       qmc5883_char_magy
      000000D8H   EDATA    ---       qmc5883_char_magz
      000000E6H   EDATA    ---       qmc5883_char_yaw
      000000F0H   EDATA    ---       qmc5883_cmd_buf
      0000005BH   EDATA    ---       qmc5883_data
      00FF50A9H   CODE     ---       qmc5883_data_parse
      00FF7A75H   CODE     ---       qmc5883_init
      000000BEH   EDATA    INT       qmc5883_magx
      000000CAH   EDATA    INT       qmc5883_magy
      000000D6H   EDATA    INT       qmc5883_magz
      000000E2H   EDATA    FLOAT     qmc5883_yaw
      00000125H   EDATA    ---       qmccmd_check_connection
      00000110H   EDATA    ---       qmccmd_clear_mag_offset
      0000009BH   EDATA    ---       qmccmd_disable_filter
      000000A5H   EDATA    ---       qmccmd_get_device_id
      00000040H   EDATA    ---       qmccmd_init_sensor
      000000B7H   EDATA    ---       qmccmd_set_device_id
      00000048H   EDATA    ---       qmccmd_set_filter_value
      00000036H   EDATA    ---       qmccmd_set_measure_rate
      0000011AH   EDATA    ---       qmccmd_set_single_measure_mode
      00000022H   EDATA    ---       qmccmd_set_uart_baudrate_115200
      0000002CH   EDATA    ---       qmccmd_set_uart_baudrate_460800
      000000ADH   EDATA    ---       qmccmd_set_uart_baudrate_9600
      00000128H   EDATA    ---       qmccmd_start_calibration
      00000051H   EDATA    ---       qmccmd_stop_calibration
*DEL*:00000000H   CODE     ---       recv_ack
*DEL*:00000000H   CODE     ---       recv_data
*SFR* 00000098H.0 DATA     BIT       RI
*SFR* 000000FFH   DATA     BYTE      RSTCFG
*SFR* 0000009BH   DATA     BYTE      S2BUF
*SFR* 0000009AH   DATA     BYTE      S2CON
*SFR* 000000ADH   DATA     BYTE      S3BUF
*SFR* 000000ACH   DATA     BYTE      S3CON
*SFR* 000000FEH   DATA     BYTE      S4BUF
*SFR* 000000FDH   DATA     BYTE      S4CON
*SFR* 00000099H   DATA     BYTE      SBUF
*SFR* 00000098H   DATA     BYTE      SCON
*DEL*:00000000H   CODE     ---       seekfree_assistant_camera_boundary_config
*DEL*:00000000H   CODE     ---       seekfree_assistant_camera_data_send
*DEL*:00000000H   CODE     ---       seekfree_assistant_camera_dot_send
*DEL*:00000000H   CODE     ---       seekfree_assistant_camera_information_config
*DEL*:00000000H   CODE     ---       seekfree_assistant_camera_send
*DEL*:00000000H   CODE     ---       seekfree_assistant_data_analysis
L251 LINKER/LOCATER V4.66.93.0                                                        04/15/2024  21:19:48  PAGE 26


*DEL*:00000000H   CODE     ---       seekfree_assistant_init
      00010201H   XDATA    ---       seekfree_assistant_oscilloscope_data
*DEL*:00000000H   CODE     ---       seekfree_assistant_oscilloscope_send
      00010244H   XDATA    ---       seekfree_assistant_parameter
      0001023CH   XDATA    ---       seekfree_assistant_parameter_update_flag
      000009DAH   EDATA    ---       seekfree_assistant_receive
      000009DCH   EDATA    ---       seekfree_assistant_transfer
*DEL*:00000000H   CODE     ---       send_ack
*DEL*:00000000H   CODE     ---       send_data
*DEL*:00000000H   CODE     ---       send_nak
      00FF58CEH   CODE     ---       set_clk
*DEL*:00000000H   CODE     ---       showimage
*SFR* 000000CEH   DATA     BYTE      SPCTL
*SFR* 000000CFH   DATA     BYTE      SPDAT
*DEL*:00000000H   CODE     ---       spi_change_mode
*DEL*:00000000H   CODE     ---       spi_change_pin
      00FF6443H   CODE     ---       spi_init
      00FF7BABH   CODE     ---       spi_mosi
*SFR* 000000CDH   DATA     BYTE      SPSTAT
*DEL*:00000000H   CODE     ---       start
*DEL*:00000000H   CODE     ---       stop
      0000099AH   EDATA    LONG      sys_clk
*SFR* 000000D6H   DATA     BYTE      T2H
*SFR* 000000D7H   DATA     BYTE      T2L
*SFR* 000000D4H   DATA     BYTE      T3H
*SFR* 000000D5H   DATA     BYTE      T3L
*SFR* 000000D2H   DATA     BYTE      T4H
*SFR* 000000D3H   DATA     BYTE      T4L
*SFR* 000000DDH   DATA     BYTE      T4T3M
*SFR* 00000088H   DATA     BYTE      TCON
      00FF270DH   CODE     ---       tft_ascii
*SFR* 0000008CH   DATA     BYTE      TH0
*SFR* 0000008DH   DATA     BYTE      TH1
*SFR* 00000098H.1 DATA     BIT       TI
*SFR* 0000008AH   DATA     BYTE      TL0
*SFR* 0000008BH   DATA     BYTE      TL1
*SFR* 00000089H   DATA     BYTE      TMOD
*SFR* 00000088H.4 DATA     BIT       TR0
*SFR* 00000088H.6 DATA     BIT       TR1
      00010000H   XDATA    BYTE      tsl1401_finish_flag
      00000020H.4 BIT      BIT       uart1_cr
      00FF6C47H   CODE     ---       uart1_isr
      00000020H.0 BIT      BIT       uart1_lf
      00000296H   EDATA    ---       uart1_rx_buffer
      00000306H   EDATA    BYTE      uart1_rx_counter
      00000021H.0 BIT      BIT       uart1_tx_busy
      00000309H   EDATA    BYTE      uart1_tx_counter
      00000020H.5 BIT      BIT       uart2_cr
      00FF6BD9H   CODE     ---       uart2_isr
      00000020H.1 BIT      BIT       uart2_lf
      000002A6H   EDATA    ---       uart2_rx_buffer
      00000307H   EDATA    BYTE      uart2_rx_counter
      00000021H.1 BIT      BIT       uart2_tx_busy
      0000030BH   EDATA    BYTE      uart2_tx_counter
      00000020H.6 BIT      BIT       uart3_cr
      00FF605FH   CODE     ---       uart3_isr
      00000020H.2 BIT      BIT       uart3_lf
      000002B6H   EDATA    ---       uart3_rx_buffer
      00000308H   EDATA    BYTE      uart3_rx_counter
      00000021H.2 BIT      BIT       uart3_tx_busy
      0000030CH   EDATA    BYTE      uart3_tx_counter
      00000020H.7 BIT      BIT       uart4_cr
      00FF75DEH   CODE     ---       uart4_isr
      00000020H.3 BIT      BIT       uart4_lf
      000002F6H   EDATA    ---       uart4_rx_buffer
L251 LINKER/LOCATER V4.66.93.0                                                        04/15/2024  21:19:48  PAGE 27


      0000030AH   EDATA    BYTE      uart4_rx_counter
      00000021H.3 BIT      BIT       uart4_tx_busy
      0000030DH   EDATA    BYTE      uart4_tx_counter
      00FF5382H   CODE     ---       uart_init
*DEL*:00000000H   CODE     ---       uart_initialize
*DEL*:00000000H   CODE     ---       uart_port_init
*DEL*:00000000H   CODE     ---       uart_putbuff
      00FF6A13H   CODE     ---       uart_putchar
*DEL*:00000000H   CODE     ---       uart_putstr
*DEL*:00000000H   CODE     ---       uart_running
      00FF616BH   CODE     ---       uart_sendcmd
*DEL*:00000000H   CODE     ---       uart_sendstring
*SFR* 000000F4H   DATA     BYTE      USBCON
      0000071DH   EDATA    ---       virtual_scope_data
*SFR* 000000A6H   DATA     BYTE      VRTRIM
      00FF70DEH   CODE     ---       wait
*SFR* 000000C1H   DATA     BYTE      WDT_CONTR
*DEL*:00000000H   CODE     ---       wheel_x_front_backward
*DEL*:00000000H   CODE     ---       wheel_x_front_forward
*DEL*:00000000H   CODE     ---       wheel_x_front_stop
*DEL*:00000000H   CODE     ---       wheel_x_rear_backward
*DEL*:00000000H   CODE     ---       wheel_x_rear_forward
*DEL*:00000000H   CODE     ---       wheel_x_rear_stop
*DEL*:00000000H   CODE     ---       wheel_y_front_backward
*DEL*:00000000H   CODE     ---       wheel_y_front_forward
*DEL*:00000000H   CODE     ---       wheel_y_front_stop
*DEL*:00000000H   CODE     ---       wheel_y_rear_backward
*DEL*:00000000H   CODE     ---       wheel_y_rear_forward
*DEL*:00000000H   CODE     ---       wheel_y_rear_stop
*DEL*:00000000H   CODE     ---       wheels_all_stop
*DEL*:00000000H   CODE     ---       wheels_x_backward
*DEL*:00000000H   CODE     ---       wheels_x_forward
*DEL*:00000000H   CODE     ---       wheels_x_stop
*DEL*:00000000H   CODE     ---       wheels_y_backward
*DEL*:00000000H   CODE     ---       wheels_y_forward
*DEL*:00000000H   CODE     ---       wheels_y_stop
*DEL*:00000000H   CODE     ---       wireless_ch573_callback
*DEL*:00000000H   CODE     ---       wireless_ch573_init
*DEL*:00000000H   CODE     ---       wireless_ch573_read_buff
*DEL*:00000000H   CODE     ---       wireless_ch573_send_buff
      00000A0EH   EDATA    INT       wireless_type
*DEL*:00000000H   CODE     ---       wireless_uart_callback
*DEL*:00000000H   CODE     ---       wireless_uart_init
*DEL*:00000000H   CODE     ---       wireless_uart_read_buff
*DEL*:00000000H   CODE     ---       wireless_uart_send_buff
*SFR* 000000E9H   DATA     BYTE      WTST
      000009A2H   EDATA    WORD      zf_delay_ms
      000009A4H   EDATA    WORD      zf_delay_us
      00FF42B6H   CODE     ---       zf_sprintf



SYMBOL TABLE OF MODULE:  .\Out_File\SEEKFREE (board)

      VALUE       REP       CLASS    TYPE      SYMBOL NAME
      ====================================================
      ---         MODULE    ---      ---       board
      00FF008EH   PUBLIC    CODE     ---       EnableGlobalIRQ
      00FF67EBH   PUBLIC    CODE     ---       board_init
      00FF58CEH   PUBLIC    CODE     ---       set_clk
      00FF7B99H   PUBLIC    CODE     ---       putchar
      0000099AH   PUBLIC    EDATA    LONG      sys_clk
      00000094H   SFRSYM    DATA     BYTE      P0M0
      000000D0H   SFRSYM    DATA     BYTE      PSW
      000000BAH.7 SFRSYM    DATA     BIT       EAXFR
L251 LINKER/LOCATER V4.66.93.0                                                        04/15/2024  21:19:48  PAGE 28


      0000009DH   SFRSYM    DATA     BYTE      IRCBAND
      00000097H   SFRSYM    DATA     BYTE      AUXR2
      000000EAH   SFRSYM    DATA     BYTE      CKCON
      000000EFH   SFRSYM    DATA     BYTE      AUXINTIF
      000000FDH   SFRSYM    DATA     BYTE      S4CON
      000000ACH   SFRSYM    DATA     BYTE      S3CON
      0000009AH   SFRSYM    DATA     BYTE      S2CON
      000000A6H   SFRSYM    DATA     BYTE      VRTRIM
      000000B7H   SFRSYM    DATA     BYTE      IPH
      000000CDH   SFRSYM    DATA     BYTE      SPSTAT
      000000DDH   SFRSYM    DATA     BYTE      T4T3M
      0000009FH   SFRSYM    DATA     BYTE      IRTRIM
      000000C1H   SFRSYM    DATA     BYTE      WDT_CONTR
      000000E9H   SFRSYM    DATA     BYTE      WTST
      000000DFH   SFRSYM    DATA     BYTE      IP3
      000000F4H   SFRSYM    DATA     BYTE      USBCON
      000000B5H   SFRSYM    DATA     BYTE      IP2
      000000FFH   SFRSYM    DATA     BYTE      RSTCFG
      000000F9H   SFRSYM    DATA     BYTE      LINICR
      0000008EH   SFRSYM    DATA     BYTE      AUXR
      000000AFH   SFRSYM    DATA     BYTE      IE2
      00000088H   SFRSYM    DATA     BYTE      TCON
      00000089H   SFRSYM    DATA     BYTE      TMOD
      00000098H   SFRSYM    DATA     BYTE      SCON
      000000F1H   SFRSYM    DATA     BYTE      CANICR
      00000087H   SFRSYM    DATA     BYTE      PCON
      000000BCH   SFRSYM    DATA     BYTE      ADC_CONTR
      000000E7H   SFRSYM    DATA     BYTE      CMPCR2
      000000E6H   SFRSYM    DATA     BYTE      CMPCR1
      000000DEH   SFRSYM    DATA     BYTE      ADCCFG
      000000B8H   SFRSYM    DATA     BYTE      IP
      0000008FH   SFRSYM    DATA     BYTE      INTCLKO
      000000EEH   SFRSYM    DATA     BYTE      IP3H
      000000B6H   SFRSYM    DATA     BYTE      IP2H
      000000A8H   SFRSYM    DATA     BYTE      IE
      000000BBH   SFRSYM    DATA     BYTE      P_SW3
      000000BAH   SFRSYM    DATA     BYTE      P_SW2
      000000A2H   SFRSYM    DATA     BYTE      P_SW1
      000000CEH   SFRSYM    DATA     BYTE      SPCTL
      000000F8H   SFRSYM    DATA     BYTE      P7
      000000A8H.7 SFRSYM    DATA     BIT       EA
      000000E1H   SFRSYM    DATA     BYTE      P7M1
      000000E8H   SFRSYM    DATA     BYTE      P6
      000000C8H   SFRSYM    DATA     BYTE      P5
      000000CBH   SFRSYM    DATA     BYTE      P6M1
      000000E2H   SFRSYM    DATA     BYTE      P7M0
      000000C0H   SFRSYM    DATA     BYTE      P4
      000000C9H   SFRSYM    DATA     BYTE      P5M1
      000000CCH   SFRSYM    DATA     BYTE      P6M0
      000000B0H   SFRSYM    DATA     BYTE      P3
      000000B3H   SFRSYM    DATA     BYTE      P4M1
      000000CAH   SFRSYM    DATA     BYTE      P5M0
      000000A0H   SFRSYM    DATA     BYTE      P2
      000000B1H   SFRSYM    DATA     BYTE      P3M1
      000000B4H   SFRSYM    DATA     BYTE      P4M0
      00000090H   SFRSYM    DATA     BYTE      P1
      00000095H   SFRSYM    DATA     BYTE      P2M1
      000000B2H   SFRSYM    DATA     BYTE      P3M0
      00000080H   SFRSYM    DATA     BYTE      P0
      00000091H   SFRSYM    DATA     BYTE      P1M1
      00000096H   SFRSYM    DATA     BYTE      P2M0
      00000092H   SFRSYM    DATA     BYTE      P1M0
      00000093H   SFRSYM    DATA     BYTE      P0M1

      00FF58CEH   BLOCK     CODE     ---       LVL=0
L251 LINKER/LOCATER V4.66.93.0                                                        04/15/2024  21:19:48  PAGE 29


      00FF58CEH   LINE      CODE     ---       #43
      00FF58CEH   LINE      CODE     ---       #46
      00FF58D1H   LINE      CODE     ---       #48
      00FF58E1H   LINE      CODE     ---       #51
      00FF58EEH   LINE      CODE     ---       #52
      00FF58FBH   LINE      CODE     ---       #53
      00FF5908H   LINE      CODE     ---       #54
      00FF590CH   LINE      CODE     ---       #55
      00FF5918H   LINE      CODE     ---       #56
      00FF591BH   LINE      CODE     ---       #57
      00FF592BH   LINE      CODE     ---       #60
      00FF5938H   LINE      CODE     ---       #61
      00FF5945H   LINE      CODE     ---       #62
      00FF5952H   LINE      CODE     ---       #63
      00FF5956H   LINE      CODE     ---       #64
      00FF5962H   LINE      CODE     ---       #65
      00FF5965H   LINE      CODE     ---       #66
      00FF5975H   LINE      CODE     ---       #69
      00FF5982H   LINE      CODE     ---       #70
      00FF598FH   LINE      CODE     ---       #71
      00FF599CH   LINE      CODE     ---       #72
      00FF59A0H   LINE      CODE     ---       #73
      00FF59ACH   LINE      CODE     ---       #74
      00FF59AFH   LINE      CODE     ---       #75
      00FF59BFH   LINE      CODE     ---       #79
      00FF59CCH   LINE      CODE     ---       #80
      00FF59D9H   LINE      CODE     ---       #81
      00FF59E6H   LINE      CODE     ---       #82
      00FF59EAH   LINE      CODE     ---       #83
      00FF59F6H   LINE      CODE     ---       #84
      00FF59F9H   LINE      CODE     ---       #85
      00FF5A09H   LINE      CODE     ---       #88
      00FF5A16H   LINE      CODE     ---       #89
      00FF5A23H   LINE      CODE     ---       #90
      00FF5A30H   LINE      CODE     ---       #91
      00FF5A34H   LINE      CODE     ---       #92
      00FF5A40H   LINE      CODE     ---       #93
      00FF5A43H   LINE      CODE     ---       #94
      00FF5A53H   LINE      CODE     ---       #97
      00FF5A60H   LINE      CODE     ---       #98
      00FF5A6DH   LINE      CODE     ---       #99
      00FF5A7AH   LINE      CODE     ---       #100
      00FF5A7EH   LINE      CODE     ---       #101
      00FF5A8AH   LINE      CODE     ---       #102
      00FF5A8CH   LINE      CODE     ---       #105
      00FF5A98H   LINE      CODE     ---       #107
      00FF5AA5H   LINE      CODE     ---       #108
      00FF5AB2H   LINE      CODE     ---       #109
      00FF5ABFH   LINE      CODE     ---       #110
      00FF5AC3H   LINE      CODE     ---       #111
      00FF5ACFH   LINE      CODE     ---       #112
      00FF5ACFH   LINE      CODE     ---       #114
      00FF5AD3H   LINE      CODE     ---       #115
      ---         BLOCKEND  ---      ---       LVL=0

      00FF67EBH   BLOCK     CODE     ---       LVL=0
      00FF67EBH   LINE      CODE     ---       #121
      00FF67EBH   LINE      CODE     ---       #123
      00FF67EFH   LINE      CODE     ---       #124
      00FF67F2H   LINE      CODE     ---       #125
      00FF67F5H   LINE      CODE     ---       #126
      00FF67F8H   LINE      CODE     ---       #127
      00FF67FCH   LINE      CODE     ---       #137
      00FF6803H   LINE      CODE     ---       #143
      00FF6806H   LINE      CODE     ---       #145
L251 LINKER/LOCATER V4.66.93.0                                                        04/15/2024  21:19:48  PAGE 30


      00FF6809H   LINE      CODE     ---       #146
      00FF680CH   LINE      CODE     ---       #147
      00FF6818H   LINE      CODE     ---       #149
      00FF681BH   LINE      CODE     ---       #150
      00FF681EH   LINE      CODE     ---       #151
      00FF6821H   LINE      CODE     ---       #152
      00FF6824H   LINE      CODE     ---       #153
      00FF6827H   LINE      CODE     ---       #154
      00FF682AH   LINE      CODE     ---       #155
      00FF682DH   LINE      CODE     ---       #156
      00FF6830H   LINE      CODE     ---       #157
      00FF6833H   LINE      CODE     ---       #158
      00FF6836H   LINE      CODE     ---       #159
      00FF6839H   LINE      CODE     ---       #160
      00FF683CH   LINE      CODE     ---       #161
      00FF683FH   LINE      CODE     ---       #162
      00FF6842H   LINE      CODE     ---       #163
      00FF6845H   LINE      CODE     ---       #164
      00FF6848H   LINE      CODE     ---       #166
      00FF684BH   LINE      CODE     ---       #167
      00FF684EH   LINE      CODE     ---       #168
      00FF6851H   LINE      CODE     ---       #169
      00FF6854H   LINE      CODE     ---       #170
      00FF6857H   LINE      CODE     ---       #171
      00FF685AH   LINE      CODE     ---       #172
      00FF685DH   LINE      CODE     ---       #173
      00FF6860H   LINE      CODE     ---       #174
      00FF6863H   LINE      CODE     ---       #176
      00FF687EH   LINE      CODE     ---       #177
      00FF6881H   LINE      CODE     ---       #178
      ---         BLOCKEND  ---      ---       LVL=0

      00FF7B99H   BLOCK     CODE     ---       LVL=0
      00000A4CH   SYMBOL    EDATA    CHAR      c
      00FF7B99H   LINE      CODE     ---       #183
      00FF7B9DH   LINE      CODE     ---       #185
      00FF7BA6H   LINE      CODE     ---       #187
      00FF7BAAH   LINE      CODE     ---       #188
      ---         BLOCKEND  ---      ---       LVL=0

      00FF008EH   BLOCK     CODE     ---       LVL=0
      00FF008EH   LINE      CODE     ---       #197
      00FF008EH   LINE      CODE     ---       #199
      00FF0091H   LINE      CODE     ---       #200
      ---         BLOCKEND  ---      ---       LVL=0

      ---         MODULE    ---      ---       common
      00000A0EH   PUBLIC    EDATA    INT       wireless_type
      000000D0H   SFRSYM    DATA     BYTE      PSW
      0000009DH   SFRSYM    DATA     BYTE      IRCBAND
      00000097H   SFRSYM    DATA     BYTE      AUXR2
      000000EFH   SFRSYM    DATA     BYTE      AUXINTIF
      000000FDH   SFRSYM    DATA     BYTE      S4CON
      000000ACH   SFRSYM    DATA     BYTE      S3CON
      0000009AH   SFRSYM    DATA     BYTE      S2CON
      000000B7H   SFRSYM    DATA     BYTE      IPH
      000000CDH   SFRSYM    DATA     BYTE      SPSTAT
      000000DDH   SFRSYM    DATA     BYTE      T4T3M
      000000C1H   SFRSYM    DATA     BYTE      WDT_CONTR
      000000DFH   SFRSYM    DATA     BYTE      IP3
      000000F4H   SFRSYM    DATA     BYTE      USBCON
      000000B5H   SFRSYM    DATA     BYTE      IP2
      000000FFH   SFRSYM    DATA     BYTE      RSTCFG
      000000F9H   SFRSYM    DATA     BYTE      LINICR
      0000008EH   SFRSYM    DATA     BYTE      AUXR
L251 LINKER/LOCATER V4.66.93.0                                                        04/15/2024  21:19:48  PAGE 31


      000000AFH   SFRSYM    DATA     BYTE      IE2
      00000088H   SFRSYM    DATA     BYTE      TCON
      00000098H   SFRSYM    DATA     BYTE      SCON
      000000F1H   SFRSYM    DATA     BYTE      CANICR
      00000087H   SFRSYM    DATA     BYTE      PCON
      000000BCH   SFRSYM    DATA     BYTE      ADC_CONTR
      000000E7H   SFRSYM    DATA     BYTE      CMPCR2
      000000E6H   SFRSYM    DATA     BYTE      CMPCR1
      000000B8H   SFRSYM    DATA     BYTE      IP
      0000008FH   SFRSYM    DATA     BYTE      INTCLKO
      000000EEH   SFRSYM    DATA     BYTE      IP3H
      000000B6H   SFRSYM    DATA     BYTE      IP2H
      000000A8H   SFRSYM    DATA     BYTE      IE
      000000BBH   SFRSYM    DATA     BYTE      P_SW3
      000000BAH   SFRSYM    DATA     BYTE      P_SW2
      000000A2H   SFRSYM    DATA     BYTE      P_SW1
      000000CEH   SFRSYM    DATA     BYTE      SPCTL
      000000F8H   SFRSYM    DATA     BYTE      P7
      000000E8H   SFRSYM    DATA     BYTE      P6
      000000C8H   SFRSYM    DATA     BYTE      P5
      000000C0H   SFRSYM    DATA     BYTE      P4
      000000B0H   SFRSYM    DATA     BYTE      P3
      000000A0H   SFRSYM    DATA     BYTE      P2
      00000090H   SFRSYM    DATA     BYTE      P1
      00000080H   SFRSYM    DATA     BYTE      P0

      ---         MODULE    ---      ---       zf_adc
      00000094H   SFRSYM    DATA     BYTE      P0M0
      000000D0H   SFRSYM    DATA     BYTE      PSW
      0000009DH   SFRSYM    DATA     BYTE      IRCBAND
      00000097H   SFRSYM    DATA     BYTE      AUXR2
      000000EFH   SFRSYM    DATA     BYTE      AUXINTIF
      000000FDH   SFRSYM    DATA     BYTE      S4CON
      000000ACH   SFRSYM    DATA     BYTE      S3CON
      0000009AH   SFRSYM    DATA     BYTE      S2CON
      000000B7H   SFRSYM    DATA     BYTE      IPH
      000000CDH   SFRSYM    DATA     BYTE      SPSTAT
      000000BEH   SFRSYM    DATA     BYTE      ADC_RESL
      000000DDH   SFRSYM    DATA     BYTE      T4T3M
      000000C1H   SFRSYM    DATA     BYTE      WDT_CONTR
      000000DFH   SFRSYM    DATA     BYTE      IP3
      000000F4H   SFRSYM    DATA     BYTE      USBCON
      000000B5H   SFRSYM    DATA     BYTE      IP2
      000000FFH   SFRSYM    DATA     BYTE      RSTCFG
      000000F9H   SFRSYM    DATA     BYTE      LINICR
      0000008EH   SFRSYM    DATA     BYTE      AUXR
      000000AFH   SFRSYM    DATA     BYTE      IE2
      00000088H   SFRSYM    DATA     BYTE      TCON
      00000098H   SFRSYM    DATA     BYTE      SCON
      000000F1H   SFRSYM    DATA     BYTE      CANICR
      00000087H   SFRSYM    DATA     BYTE      PCON
      000000BCH   SFRSYM    DATA     BYTE      ADC_CONTR
      000000E7H   SFRSYM    DATA     BYTE      CMPCR2
      000000E6H   SFRSYM    DATA     BYTE      CMPCR1
      000000DEH   SFRSYM    DATA     BYTE      ADCCFG
      000000B8H   SFRSYM    DATA     BYTE      IP
      0000008FH   SFRSYM    DATA     BYTE      INTCLKO
      000000EEH   SFRSYM    DATA     BYTE      IP3H
      000000B6H   SFRSYM    DATA     BYTE      IP2H
      000000BDH   SFRSYM    DATA     BYTE      ADC_RES
      000000A8H   SFRSYM    DATA     BYTE      IE
      000000BBH   SFRSYM    DATA     BYTE      P_SW3
      000000BAH   SFRSYM    DATA     BYTE      P_SW2
      000000A2H   SFRSYM    DATA     BYTE      P_SW1
      000000CEH   SFRSYM    DATA     BYTE      SPCTL
L251 LINKER/LOCATER V4.66.93.0                                                        04/15/2024  21:19:48  PAGE 32


      000000F8H   SFRSYM    DATA     BYTE      P7
      000000E8H   SFRSYM    DATA     BYTE      P6
      000000C8H   SFRSYM    DATA     BYTE      P5
      000000C0H   SFRSYM    DATA     BYTE      P4
      000000B0H   SFRSYM    DATA     BYTE      P3
      000000A0H   SFRSYM    DATA     BYTE      P2
      00000090H   SFRSYM    DATA     BYTE      P1
      00000080H   SFRSYM    DATA     BYTE      P0
      00000091H   SFRSYM    DATA     BYTE      P1M1
      00000092H   SFRSYM    DATA     BYTE      P1M0
      00000093H   SFRSYM    DATA     BYTE      P0M1
      0000099EH   SYMBOL    EDATA    INT       adcn
      000009A0H   SYMBOL    EDATA    INT       speed
      0000088EH   SYMBOL    EDATA    INT       adcn
      00000890H   SYMBOL    EDATA    INT       resolution
      00000892H   SYMBOL    EDATA    WORD      adc_value

      ---         MODULE    ---      ---       zf_delay
      00FF76B7H   PUBLIC    CODE     ---       delay_init
      00FF772EH   PUBLIC    CODE     ---       delay_ms
      000009A2H   PUBLIC    EDATA    WORD      zf_delay_ms
      000009A4H   PUBLIC    EDATA    WORD      zf_delay_us
      000000D0H   SFRSYM    DATA     BYTE      PSW
      0000009DH   SFRSYM    DATA     BYTE      IRCBAND
      00000097H   SFRSYM    DATA     BYTE      AUXR2
      000000EFH   SFRSYM    DATA     BYTE      AUXINTIF
      000000FDH   SFRSYM    DATA     BYTE      S4CON
      000000ACH   SFRSYM    DATA     BYTE      S3CON
      0000009AH   SFRSYM    DATA     BYTE      S2CON
      000000B7H   SFRSYM    DATA     BYTE      IPH
      000000CDH   SFRSYM    DATA     BYTE      SPSTAT
      000000DDH   SFRSYM    DATA     BYTE      T4T3M
      000000C1H   SFRSYM    DATA     BYTE      WDT_CONTR
      000000DFH   SFRSYM    DATA     BYTE      IP3
      000000F4H   SFRSYM    DATA     BYTE      USBCON
      000000B5H   SFRSYM    DATA     BYTE      IP2
      000000FFH   SFRSYM    DATA     BYTE      RSTCFG
      000000F9H   SFRSYM    DATA     BYTE      LINICR
      0000008EH   SFRSYM    DATA     BYTE      AUXR
      000000AFH   SFRSYM    DATA     BYTE      IE2
      00000088H   SFRSYM    DATA     BYTE      TCON
      00000098H   SFRSYM    DATA     BYTE      SCON
      000000F1H   SFRSYM    DATA     BYTE      CANICR
      00000087H   SFRSYM    DATA     BYTE      PCON
      000000BCH   SFRSYM    DATA     BYTE      ADC_CONTR
      000000E7H   SFRSYM    DATA     BYTE      CMPCR2
      000000E6H   SFRSYM    DATA     BYTE      CMPCR1
      000000B8H   SFRSYM    DATA     BYTE      IP
      0000008FH   SFRSYM    DATA     BYTE      INTCLKO
      000000EEH   SFRSYM    DATA     BYTE      IP3H
      000000B6H   SFRSYM    DATA     BYTE      IP2H
      000000A8H   SFRSYM    DATA     BYTE      IE
      000000BBH   SFRSYM    DATA     BYTE      P_SW3
      000000BAH   SFRSYM    DATA     BYTE      P_SW2
      000000A2H   SFRSYM    DATA     BYTE      P_SW1
      000000CEH   SFRSYM    DATA     BYTE      SPCTL
      000000F8H   SFRSYM    DATA     BYTE      P7
      000000E8H   SFRSYM    DATA     BYTE      P6
      000000C8H   SFRSYM    DATA     BYTE      P5
      000000C0H   SFRSYM    DATA     BYTE      P4
      000000B0H   SFRSYM    DATA     BYTE      P3
      000000A0H   SFRSYM    DATA     BYTE      P2
      00000090H   SFRSYM    DATA     BYTE      P1
      00000080H   SFRSYM    DATA     BYTE      P0

L251 LINKER/LOCATER V4.66.93.0                                                        04/15/2024  21:19:48  PAGE 33


      00FF76B7H   BLOCK     CODE     ---       LVL=0
      00FF76B7H   LINE      CODE     ---       #34
      00FF76B7H   LINE      CODE     ---       #36
      00FF76C6H   LINE      CODE     ---       #37
      00FF76D9H   LINE      CODE     ---       #38
      00FF76F7H   LINE      CODE     ---       #40
      ---         BLOCKEND  ---      ---       LVL=0

      00FF772EH   BLOCK     CODE     ---       LVL=0
      000009A6H   SYMBOL    EDATA    WORD      ms
      00FF7732H   BLOCK     CODE     NEAR LAB  LVL=1
      000009A8H   SYMBOL    EDATA    WORD      i
      ---         BLOCKEND  ---      ---       LVL=1
      00FF772EH   LINE      CODE     ---       #48
      00FF7732H   LINE      CODE     ---       #49
      00FF7732H   LINE      CODE     ---       #51
      00FF7732H   LINE      CODE     ---       #52
      00FF773AH   LINE      CODE     ---       #54
      00FF774EH   LINE      CODE     ---       #55
      00FF7762H   LINE      CODE     ---       #56
      ---         BLOCKEND  ---      ---       LVL=0
      00000894H   SYMBOL    EDATA    DWORD     us
      00000898H   SYMBOL    EDATA    WORD      i

      ---         MODULE    ---      ---       zf_eeprom
      000006D7H   PUBLIC    EDATA    BYTE      ?iap_read_bytes?BYTE
      000006E1H   PUBLIC    EDATA    BYTE      ?iap_write_bytes?BYTE
      000000D0H   SFRSYM    DATA     BYTE      PSW
      0000009DH   SFRSYM    DATA     BYTE      IRCBAND
      000000D0H.5 SFRSYM    DATA     BIT       F0
      00000097H   SFRSYM    DATA     BYTE      AUXR2
      000000C6H   SFRSYM    DATA     BYTE      IAP_TRIG
      000000EFH   SFRSYM    DATA     BYTE      AUXINTIF
      000000FDH   SFRSYM    DATA     BYTE      S4CON
      000000ACH   SFRSYM    DATA     BYTE      S3CON
      0000009AH   SFRSYM    DATA     BYTE      S2CON
      000000B7H   SFRSYM    DATA     BYTE      IPH
      000000CDH   SFRSYM    DATA     BYTE      SPSTAT
      000000DDH   SFRSYM    DATA     BYTE      T4T3M
      000000C1H   SFRSYM    DATA     BYTE      WDT_CONTR
      000000C2H   SFRSYM    DATA     BYTE      IAP_DATA
      000000DFH   SFRSYM    DATA     BYTE      IP3
      000000F4H   SFRSYM    DATA     BYTE      USBCON
      000000B5H   SFRSYM    DATA     BYTE      IP2
      000000FFH   SFRSYM    DATA     BYTE      RSTCFG
      000000C7H   SFRSYM    DATA     BYTE      IAP_CONTR
      000000F9H   SFRSYM    DATA     BYTE      LINICR
      0000008EH   SFRSYM    DATA     BYTE      AUXR
      000000AFH   SFRSYM    DATA     BYTE      IE2
      00000088H   SFRSYM    DATA     BYTE      TCON
      00000098H   SFRSYM    DATA     BYTE      SCON
      000000F5H   SFRSYM    DATA     BYTE      IAP_TPS
      000000F1H   SFRSYM    DATA     BYTE      CANICR
      00000087H   SFRSYM    DATA     BYTE      PCON
      000000BCH   SFRSYM    DATA     BYTE      ADC_CONTR
      000000E7H   SFRSYM    DATA     BYTE      CMPCR2
      000000E6H   SFRSYM    DATA     BYTE      CMPCR1
      000000C4H   SFRSYM    DATA     BYTE      IAP_ADDRL
      000000C3H   SFRSYM    DATA     BYTE      IAP_ADDRH
      000000F6H   SFRSYM    DATA     BYTE      IAP_ADDRE
      000000B8H   SFRSYM    DATA     BYTE      IP
      0000008FH   SFRSYM    DATA     BYTE      INTCLKO
      000000EEH   SFRSYM    DATA     BYTE      IP3H
      000000B6H   SFRSYM    DATA     BYTE      IP2H
      000000C5H   SFRSYM    DATA     BYTE      IAP_CMD
L251 LINKER/LOCATER V4.66.93.0                                                        04/15/2024  21:19:48  PAGE 34


      000000A8H   SFRSYM    DATA     BYTE      IE
      000000BBH   SFRSYM    DATA     BYTE      P_SW3
      000000BAH   SFRSYM    DATA     BYTE      P_SW2
      000000A2H   SFRSYM    DATA     BYTE      P_SW1
      000000CEH   SFRSYM    DATA     BYTE      SPCTL
      000000F8H   SFRSYM    DATA     BYTE      P7
      000000A8H.7 SFRSYM    DATA     BIT       EA
      000000E8H   SFRSYM    DATA     BYTE      P6
      000000C8H   SFRSYM    DATA     BYTE      P5
      000000C0H   SFRSYM    DATA     BYTE      P4
      000000B0H   SFRSYM    DATA     BYTE      P3
      000000A0H   SFRSYM    DATA     BYTE      P2
      00000090H   SFRSYM    DATA     BYTE      P1
      00000080H   SFRSYM    DATA     BYTE      P0
      00000A4DH   SYMBOL    EDATA    BYTE      write_time
      000006D7H   SYMBOL    EDATA    DWORD     addr
      000006DBH   SYMBOL    EDATA    ---       buf
      000006DFH   SYMBOL    EDATA    WORD      len
      000006E1H   SYMBOL    EDATA    DWORD     addr
      000006E5H   SYMBOL    EDATA    ---       buf
      000006E9H   SYMBOL    EDATA    WORD      len
      000009AAH   SYMBOL    EDATA    DWORD     addr

      ---         MODULE    ---      ---       zf_exti
      000000D0H   SFRSYM    DATA     BYTE      PSW
      0000009DH   SFRSYM    DATA     BYTE      IRCBAND
      00000097H   SFRSYM    DATA     BYTE      AUXR2
      000000EFH   SFRSYM    DATA     BYTE      AUXINTIF
      000000FDH   SFRSYM    DATA     BYTE      S4CON
      000000ACH   SFRSYM    DATA     BYTE      S3CON
      0000009AH   SFRSYM    DATA     BYTE      S2CON
      000000B7H   SFRSYM    DATA     BYTE      IPH
      000000CDH   SFRSYM    DATA     BYTE      SPSTAT
      000000DDH   SFRSYM    DATA     BYTE      T4T3M
      000000C1H   SFRSYM    DATA     BYTE      WDT_CONTR
      00000088H.2 SFRSYM    DATA     BIT       IT1
      000000A8H.2 SFRSYM    DATA     BIT       EX1
      00000088H.0 SFRSYM    DATA     BIT       IT0
      000000A8H.0 SFRSYM    DATA     BIT       EX0
      000000DFH   SFRSYM    DATA     BYTE      IP3
      000000F4H   SFRSYM    DATA     BYTE      USBCON
      000000B5H   SFRSYM    DATA     BYTE      IP2
      000000FFH   SFRSYM    DATA     BYTE      RSTCFG
      000000F9H   SFRSYM    DATA     BYTE      LINICR
      0000008EH   SFRSYM    DATA     BYTE      AUXR
      000000AFH   SFRSYM    DATA     BYTE      IE2
      00000088H   SFRSYM    DATA     BYTE      TCON
      00000098H   SFRSYM    DATA     BYTE      SCON
      000000F1H   SFRSYM    DATA     BYTE      CANICR
      00000087H   SFRSYM    DATA     BYTE      PCON
      000000BCH   SFRSYM    DATA     BYTE      ADC_CONTR
      000000E7H   SFRSYM    DATA     BYTE      CMPCR2
      000000E6H   SFRSYM    DATA     BYTE      CMPCR1
      000000B8H   SFRSYM    DATA     BYTE      IP
      0000008FH   SFRSYM    DATA     BYTE      INTCLKO
      000000EEH   SFRSYM    DATA     BYTE      IP3H
      000000B6H   SFRSYM    DATA     BYTE      IP2H
      000000A8H   SFRSYM    DATA     BYTE      IE
      000000BBH   SFRSYM    DATA     BYTE      P_SW3
      000000BAH   SFRSYM    DATA     BYTE      P_SW2
      000000A2H   SFRSYM    DATA     BYTE      P_SW1
      000000CEH   SFRSYM    DATA     BYTE      SPCTL
      000000F8H   SFRSYM    DATA     BYTE      P7
      000000E8H   SFRSYM    DATA     BYTE      P6
      000000C8H   SFRSYM    DATA     BYTE      P5
L251 LINKER/LOCATER V4.66.93.0                                                        04/15/2024  21:19:48  PAGE 35


      000000C0H   SFRSYM    DATA     BYTE      P4
      000000B0H   SFRSYM    DATA     BYTE      P3
      000000A0H   SFRSYM    DATA     BYTE      P2
      00000090H   SFRSYM    DATA     BYTE      P1
      00000080H   SFRSYM    DATA     BYTE      P0
      000009AEH   SYMBOL    EDATA    INT       int_n
      000009B0H   SYMBOL    EDATA    INT       mode

      ---         MODULE    ---      ---       zf_gpio
      00FF39A9H   PUBLIC    CODE     ---       gpio_mode
      00000094H   SFRSYM    DATA     BYTE      P0M0
      000000D0H   SFRSYM    DATA     BYTE      PSW
      0000009DH   SFRSYM    DATA     BYTE      IRCBAND
      00000097H   SFRSYM    DATA     BYTE      AUXR2
      000000EFH   SFRSYM    DATA     BYTE      AUXINTIF
      000000FDH   SFRSYM    DATA     BYTE      S4CON
      000000ACH   SFRSYM    DATA     BYTE      S3CON
      0000009AH   SFRSYM    DATA     BYTE      S2CON
      000000B7H   SFRSYM    DATA     BYTE      IPH
      000000CDH   SFRSYM    DATA     BYTE      SPSTAT
      000000DDH   SFRSYM    DATA     BYTE      T4T3M
      000000C1H   SFRSYM    DATA     BYTE      WDT_CONTR
      000000DFH   SFRSYM    DATA     BYTE      IP3
      000000F4H   SFRSYM    DATA     BYTE      USBCON
      000000B5H   SFRSYM    DATA     BYTE      IP2
      000000FFH   SFRSYM    DATA     BYTE      RSTCFG
      000000F9H   SFRSYM    DATA     BYTE      LINICR
      0000008EH   SFRSYM    DATA     BYTE      AUXR
      000000AFH   SFRSYM    DATA     BYTE      IE2
      00000088H   SFRSYM    DATA     BYTE      TCON
      00000098H   SFRSYM    DATA     BYTE      SCON
      000000F1H   SFRSYM    DATA     BYTE      CANICR
      00000087H   SFRSYM    DATA     BYTE      PCON
      000000BCH   SFRSYM    DATA     BYTE      ADC_CONTR
      000000E7H   SFRSYM    DATA     BYTE      CMPCR2
      000000E6H   SFRSYM    DATA     BYTE      CMPCR1
      000000B8H   SFRSYM    DATA     BYTE      IP
      0000008FH   SFRSYM    DATA     BYTE      INTCLKO
      000000EEH   SFRSYM    DATA     BYTE      IP3H
      000000B6H   SFRSYM    DATA     BYTE      IP2H
      000000A8H   SFRSYM    DATA     BYTE      IE
      000000BBH   SFRSYM    DATA     BYTE      P_SW3
      000000BAH   SFRSYM    DATA     BYTE      P_SW2
      000000A2H   SFRSYM    DATA     BYTE      P_SW1
      000000CEH   SFRSYM    DATA     BYTE      SPCTL
      000000F8H   SFRSYM    DATA     BYTE      P7
      000000E1H   SFRSYM    DATA     BYTE      P7M1
      000000E8H   SFRSYM    DATA     BYTE      P6
      000000C8H   SFRSYM    DATA     BYTE      P5
      000000CBH   SFRSYM    DATA     BYTE      P6M1
      000000E2H   SFRSYM    DATA     BYTE      P7M0
      000000C0H   SFRSYM    DATA     BYTE      P4
      000000C9H   SFRSYM    DATA     BYTE      P5M1
      000000CCH   SFRSYM    DATA     BYTE      P6M0
      000000B0H   SFRSYM    DATA     BYTE      P3
      000000B3H   SFRSYM    DATA     BYTE      P4M1
      000000CAH   SFRSYM    DATA     BYTE      P5M0
      000000A0H   SFRSYM    DATA     BYTE      P2
      000000B1H   SFRSYM    DATA     BYTE      P3M1
      000000B4H   SFRSYM    DATA     BYTE      P4M0
      00000090H   SFRSYM    DATA     BYTE      P1
      00000095H   SFRSYM    DATA     BYTE      P2M1
      000000B2H   SFRSYM    DATA     BYTE      P3M0
      00000080H   SFRSYM    DATA     BYTE      P0
      00000091H   SFRSYM    DATA     BYTE      P1M1
L251 LINKER/LOCATER V4.66.93.0                                                        04/15/2024  21:19:48  PAGE 36


      00000096H   SFRSYM    DATA     BYTE      P2M0
      00000092H   SFRSYM    DATA     BYTE      P1M0
      00000093H   SFRSYM    DATA     BYTE      P0M1
      000009B2H   SYMBOL    EDATA    INT       pin
      000009B4H   SYMBOL    EDATA    INT       pull

      00FF39A9H   BLOCK     CODE     ---       LVL=0
      000009B6H   SYMBOL    EDATA    INT       pin
      000009B8H   SYMBOL    EDATA    INT       mode
      00FF39A9H   LINE      CODE     ---       #54
      00FF39B1H   LINE      CODE     ---       #56
      00FF39BEH   LINE      CODE     ---       #58
      00FF39CEH   LINE      CODE     ---       #60
      00FF39E9H   LINE      CODE     ---       #61
      00FF3A04H   LINE      CODE     ---       #62
      00FF3A04H   LINE      CODE     ---       #63
      00FF3A16H   LINE      CODE     ---       #65
      00FF3A31H   LINE      CODE     ---       #66
      00FF3A4CH   LINE      CODE     ---       #67
      00FF3A4CH   LINE      CODE     ---       #68
      00FF3A5EH   LINE      CODE     ---       #70
      00FF3A79H   LINE      CODE     ---       #71
      00FF3A94H   LINE      CODE     ---       #72
      00FF3A94H   LINE      CODE     ---       #74
      00FF3AA6H   LINE      CODE     ---       #76
      00FF3AC1H   LINE      CODE     ---       #77
      00FF3ADCH   LINE      CODE     ---       #78
      00FF3ADCH   LINE      CODE     ---       #79
      00FF3AEEH   LINE      CODE     ---       #81
      00FF3B09H   LINE      CODE     ---       #82
      00FF3B24H   LINE      CODE     ---       #83
      00FF3B24H   LINE      CODE     ---       #84
      00FF3B36H   LINE      CODE     ---       #86
      00FF3B51H   LINE      CODE     ---       #87
      00FF3B6CH   LINE      CODE     ---       #88
      00FF3B6CH   LINE      CODE     ---       #89
      00FF3B7EH   LINE      CODE     ---       #91
      00FF3B99H   LINE      CODE     ---       #92
      00FF3BB4H   LINE      CODE     ---       #93
      00FF3BB4H   LINE      CODE     ---       #94
      00FF3BC9H   LINE      CODE     ---       #96
      00FF3BE4H   LINE      CODE     ---       #97
      00FF3BFFH   LINE      CODE     ---       #98
      00FF3C02H   LINE      CODE     ---       #100
      00FF3C11H   LINE      CODE     ---       #102
      00FF3C21H   LINE      CODE     ---       #104
      00FF3C3CH   LINE      CODE     ---       #105
      00FF3C55H   LINE      CODE     ---       #106
      00FF3C55H   LINE      CODE     ---       #107
      00FF3C67H   LINE      CODE     ---       #109
      00FF3C82H   LINE      CODE     ---       #110
      00FF3C9BH   LINE      CODE     ---       #111
      00FF3C9BH   LINE      CODE     ---       #112
      00FF3CADH   LINE      CODE     ---       #114
      00FF3CC8H   LINE      CODE     ---       #115
      00FF3CE1H   LINE      CODE     ---       #116
      00FF3CE1H   LINE      CODE     ---       #118
      00FF3CF3H   LINE      CODE     ---       #120
      00FF3D0EH   LINE      CODE     ---       #121
      00FF3D27H   LINE      CODE     ---       #122
      00FF3D27H   LINE      CODE     ---       #123
      00FF3D39H   LINE      CODE     ---       #125
      00FF3D54H   LINE      CODE     ---       #126
      00FF3D6DH   LINE      CODE     ---       #127
      00FF3D6DH   LINE      CODE     ---       #128
L251 LINKER/LOCATER V4.66.93.0                                                        04/15/2024  21:19:48  PAGE 37


      00FF3D7FH   LINE      CODE     ---       #130
      00FF3D9AH   LINE      CODE     ---       #131
      00FF3DB3H   LINE      CODE     ---       #132
      00FF3DB3H   LINE      CODE     ---       #133
      00FF3DC5H   LINE      CODE     ---       #135
      00FF3DE0H   LINE      CODE     ---       #136
      00FF3DF9H   LINE      CODE     ---       #137
      00FF3DF9H   LINE      CODE     ---       #138
      00FF3E0EH   LINE      CODE     ---       #140
      00FF3E29H   LINE      CODE     ---       #141
      00FF3E42H   LINE      CODE     ---       #142
      00FF3E45H   LINE      CODE     ---       #145
      00FF3E54H   LINE      CODE     ---       #147
      00FF3E64H   LINE      CODE     ---       #149
      00FF3E7DH   LINE      CODE     ---       #150
      00FF3E98H   LINE      CODE     ---       #151
      00FF3E98H   LINE      CODE     ---       #152
      00FF3EAAH   LINE      CODE     ---       #154
      00FF3EC3H   LINE      CODE     ---       #155
      00FF3EDEH   LINE      CODE     ---       #156
      00FF3EDEH   LINE      CODE     ---       #157
      00FF3EF0H   LINE      CODE     ---       #159
      00FF3F09H   LINE      CODE     ---       #160
      00FF3F24H   LINE      CODE     ---       #161
      00FF3F24H   LINE      CODE     ---       #163
      00FF3F36H   LINE      CODE     ---       #165
      00FF3F4FH   LINE      CODE     ---       #166
      00FF3F6AH   LINE      CODE     ---       #167
      00FF3F6AH   LINE      CODE     ---       #168
      00FF3F7CH   LINE      CODE     ---       #170
      00FF3F95H   LINE      CODE     ---       #171
      00FF3FB0H   LINE      CODE     ---       #172
      00FF3FB0H   LINE      CODE     ---       #173
      00FF3FC2H   LINE      CODE     ---       #175
      00FF3FDBH   LINE      CODE     ---       #176
      00FF3FF6H   LINE      CODE     ---       #177
      00FF3FF6H   LINE      CODE     ---       #178
      00FF4008H   LINE      CODE     ---       #180
      00FF4021H   LINE      CODE     ---       #181
      00FF403CH   LINE      CODE     ---       #182
      00FF403CH   LINE      CODE     ---       #183
      00FF4051H   LINE      CODE     ---       #185
      00FF406AH   LINE      CODE     ---       #186
      00FF4085H   LINE      CODE     ---       #187
      00FF4088H   LINE      CODE     ---       #189
      00FF4097H   LINE      CODE     ---       #191
      00FF40A7H   LINE      CODE     ---       #193
      00FF40C0H   LINE      CODE     ---       #194
      00FF40D9H   LINE      CODE     ---       #195
      00FF40D9H   LINE      CODE     ---       #196
      00FF40EBH   LINE      CODE     ---       #198
      00FF4104H   LINE      CODE     ---       #199
      00FF411DH   LINE      CODE     ---       #200
      00FF411DH   LINE      CODE     ---       #201
      00FF412FH   LINE      CODE     ---       #203
      00FF4148H   LINE      CODE     ---       #204
      00FF4161H   LINE      CODE     ---       #205
      00FF4161H   LINE      CODE     ---       #207
      00FF4173H   LINE      CODE     ---       #209
      00FF418CH   LINE      CODE     ---       #210
      00FF41A5H   LINE      CODE     ---       #211
      00FF41A5H   LINE      CODE     ---       #212
      00FF41B7H   LINE      CODE     ---       #214
      00FF41D0H   LINE      CODE     ---       #215
      00FF41E9H   LINE      CODE     ---       #216
L251 LINKER/LOCATER V4.66.93.0                                                        04/15/2024  21:19:48  PAGE 38


      00FF41E9H   LINE      CODE     ---       #217
      00FF41FBH   LINE      CODE     ---       #219
      00FF4214H   LINE      CODE     ---       #220
      00FF422DH   LINE      CODE     ---       #221
      00FF422DH   LINE      CODE     ---       #222
      00FF423FH   LINE      CODE     ---       #224
      00FF4258H   LINE      CODE     ---       #225
      00FF4271H   LINE      CODE     ---       #226
      00FF4271H   LINE      CODE     ---       #227
      00FF4283H   LINE      CODE     ---       #229
      00FF429CH   LINE      CODE     ---       #230
      00FF42B5H   LINE      CODE     ---       #231
      00FF42B5H   LINE      CODE     ---       #233
      ---         BLOCKEND  ---      ---       LVL=0

      ---         MODULE    ---      ---       zf_nvic
      000000D0H   SFRSYM    DATA     BYTE      PSW
      0000009DH   SFRSYM    DATA     BYTE      IRCBAND
      00000097H   SFRSYM    DATA     BYTE      AUXR2
      000000EFH   SFRSYM    DATA     BYTE      AUXINTIF
      000000FDH   SFRSYM    DATA     BYTE      S4CON
      000000ACH   SFRSYM    DATA     BYTE      S3CON
      0000009AH   SFRSYM    DATA     BYTE      S2CON
      000000B7H   SFRSYM    DATA     BYTE      IPH
      000000CDH   SFRSYM    DATA     BYTE      SPSTAT
      000000DDH   SFRSYM    DATA     BYTE      T4T3M
      000000C1H   SFRSYM    DATA     BYTE      WDT_CONTR
      000000DFH   SFRSYM    DATA     BYTE      IP3
      000000F4H   SFRSYM    DATA     BYTE      USBCON
      000000B5H   SFRSYM    DATA     BYTE      IP2
      000000FFH   SFRSYM    DATA     BYTE      RSTCFG
      000000F9H   SFRSYM    DATA     BYTE      LINICR
      0000008EH   SFRSYM    DATA     BYTE      AUXR
      000000AFH   SFRSYM    DATA     BYTE      IE2
      00000088H   SFRSYM    DATA     BYTE      TCON
      00000098H   SFRSYM    DATA     BYTE      SCON
      000000F1H   SFRSYM    DATA     BYTE      CANICR
      00000087H   SFRSYM    DATA     BYTE      PCON
      000000BCH   SFRSYM    DATA     BYTE      ADC_CONTR
      000000E7H   SFRSYM    DATA     BYTE      CMPCR2
      000000E6H   SFRSYM    DATA     BYTE      CMPCR1
      000000B8H   SFRSYM    DATA     BYTE      IP
      0000008FH   SFRSYM    DATA     BYTE      INTCLKO
      000000EEH   SFRSYM    DATA     BYTE      IP3H
      000000B6H   SFRSYM    DATA     BYTE      IP2H
      000000A8H   SFRSYM    DATA     BYTE      IE
      000000BBH   SFRSYM    DATA     BYTE      P_SW3
      000000BAH   SFRSYM    DATA     BYTE      P_SW2
      000000A2H   SFRSYM    DATA     BYTE      P_SW1
      000000CEH   SFRSYM    DATA     BYTE      SPCTL
      000000F8H   SFRSYM    DATA     BYTE      P7
      000000E8H   SFRSYM    DATA     BYTE      P6
      000000C8H   SFRSYM    DATA     BYTE      P5
      000000C0H   SFRSYM    DATA     BYTE      P4
      000000B0H   SFRSYM    DATA     BYTE      P3
      000000A0H   SFRSYM    DATA     BYTE      P2
      00000090H   SFRSYM    DATA     BYTE      P1
      00000080H   SFRSYM    DATA     BYTE      P0
      000009DEH   SYMBOL    EDATA    INT       irqn
      000009E0H   SYMBOL    EDATA    BYTE      priority

      ---         MODULE    ---      ---       zf_pwm
      00FF4CF1H   PUBLIC    CODE     ---       pwm_set_gpio
      00FF4917H   PUBLIC    CODE     ---       pwm_init
      00FF7E60H   PUBLIC    HCONST   ---       PWM_CCR_ADDR
L251 LINKER/LOCATER V4.66.93.0                                                        04/15/2024  21:19:48  PAGE 39


      00FF7E80H   PUBLIC    HCONST   ---       PWM_ARR_ADDR
      00FF7E88H   PUBLIC    HCONST   ---       PWM_CCER_ADDR
      00FF7E98H   PUBLIC    HCONST   ---       PWM_CCMR_ADDR
      00000530H   PUBLIC    EDATA    BYTE      ?pwm_init?BYTE
      00000544H   PUBLIC    EDATA    BYTE      ?pwm_freq?BYTE
      000000D0H   SFRSYM    DATA     BYTE      PSW
      0000009DH   SFRSYM    DATA     BYTE      IRCBAND
      00000097H   SFRSYM    DATA     BYTE      AUXR2
      000000EFH   SFRSYM    DATA     BYTE      AUXINTIF
      000000FDH   SFRSYM    DATA     BYTE      S4CON
      000000ACH   SFRSYM    DATA     BYTE      S3CON
      0000009AH   SFRSYM    DATA     BYTE      S2CON
      000000B7H   SFRSYM    DATA     BYTE      IPH
      000000CDH   SFRSYM    DATA     BYTE      SPSTAT
      000000DDH   SFRSYM    DATA     BYTE      T4T3M
      000000C1H   SFRSYM    DATA     BYTE      WDT_CONTR
      000000DFH   SFRSYM    DATA     BYTE      IP3
      000000F4H   SFRSYM    DATA     BYTE      USBCON
      000000B5H   SFRSYM    DATA     BYTE      IP2
      000000FFH   SFRSYM    DATA     BYTE      RSTCFG
      000000F9H   SFRSYM    DATA     BYTE      LINICR
      0000008EH   SFRSYM    DATA     BYTE      AUXR
      000000AFH   SFRSYM    DATA     BYTE      IE2
      00000088H   SFRSYM    DATA     BYTE      TCON
      00000098H   SFRSYM    DATA     BYTE      SCON
      000000F1H   SFRSYM    DATA     BYTE      CANICR
      00000087H   SFRSYM    DATA     BYTE      PCON
      000000BCH   SFRSYM    DATA     BYTE      ADC_CONTR
      000000E7H   SFRSYM    DATA     BYTE      CMPCR2
      000000E6H   SFRSYM    DATA     BYTE      CMPCR1
      000000B8H   SFRSYM    DATA     BYTE      IP
      0000008FH   SFRSYM    DATA     BYTE      INTCLKO
      000000EEH   SFRSYM    DATA     BYTE      IP3H
      000000B6H   SFRSYM    DATA     BYTE      IP2H
      000000A8H   SFRSYM    DATA     BYTE      IE
      000000BBH   SFRSYM    DATA     BYTE      P_SW3
      000000BAH   SFRSYM    DATA     BYTE      P_SW2
      000000A2H   SFRSYM    DATA     BYTE      P_SW1
      000000CEH   SFRSYM    DATA     BYTE      SPCTL
      000000F8H   SFRSYM    DATA     BYTE      P7
      000000E8H   SFRSYM    DATA     BYTE      P6
      000000C8H   SFRSYM    DATA     BYTE      P5
      000000C0H   SFRSYM    DATA     BYTE      P4
      000000B0H   SFRSYM    DATA     BYTE      P3
      000000A0H   SFRSYM    DATA     BYTE      P2
      00000090H   SFRSYM    DATA     BYTE      P1
      00000080H   SFRSYM    DATA     BYTE      P0

      00FF4CF1H   BLOCK     CODE     ---       LVL=0
      00000A10H   SYMBOL    EDATA    INT       pwmch
      00FF4CF1H   LINE      CODE     ---       #49
      00FF4CF5H   LINE      CODE     ---       #51
      00FF4E6AH   LINE      CODE     ---       #53
      00FF4E6AH   LINE      CODE     ---       #55
      00FF4E75H   LINE      CODE     ---       #56
      00FF4E78H   LINE      CODE     ---       #58
      00FF4E78H   LINE      CODE     ---       #60
      00FF4E83H   LINE      CODE     ---       #61
      00FF4E86H   LINE      CODE     ---       #63
      00FF4E86H   LINE      CODE     ---       #65
      00FF4E91H   LINE      CODE     ---       #66
      00FF4E94H   LINE      CODE     ---       #68
      00FF4E94H   LINE      CODE     ---       #70
      00FF4E9FH   LINE      CODE     ---       #71
      00FF4EA2H   LINE      CODE     ---       #73
L251 LINKER/LOCATER V4.66.93.0                                                        04/15/2024  21:19:48  PAGE 40


      00FF4EA2H   LINE      CODE     ---       #75
      00FF4EADH   LINE      CODE     ---       #76
      00FF4EB0H   LINE      CODE     ---       #78
      00FF4EB0H   LINE      CODE     ---       #80
      00FF4EBBH   LINE      CODE     ---       #81
      00FF4EBEH   LINE      CODE     ---       #84
      00FF4EBEH   LINE      CODE     ---       #86
      00FF4EC9H   LINE      CODE     ---       #87
      00FF4ECCH   LINE      CODE     ---       #89
      00FF4ECCH   LINE      CODE     ---       #91
      00FF4ED7H   LINE      CODE     ---       #92
      00FF4EDAH   LINE      CODE     ---       #94
      00FF4EDAH   LINE      CODE     ---       #96
      00FF4EE5H   LINE      CODE     ---       #97
      00FF4EE8H   LINE      CODE     ---       #99
      00FF4EE8H   LINE      CODE     ---       #101
      00FF4EF3H   LINE      CODE     ---       #102
      00FF4EF6H   LINE      CODE     ---       #104
      00FF4EF6H   LINE      CODE     ---       #106
      00FF4F01H   LINE      CODE     ---       #107
      00FF4F04H   LINE      CODE     ---       #109
      00FF4F04H   LINE      CODE     ---       #111
      00FF4F0FH   LINE      CODE     ---       #112
      00FF4F12H   LINE      CODE     ---       #115
      00FF4F12H   LINE      CODE     ---       #117
      00FF4F1DH   LINE      CODE     ---       #118
      00FF4F20H   LINE      CODE     ---       #120
      00FF4F20H   LINE      CODE     ---       #122
      00FF4F2BH   LINE      CODE     ---       #123
      00FF4F2EH   LINE      CODE     ---       #125
      00FF4F2EH   LINE      CODE     ---       #127
      00FF4F39H   LINE      CODE     ---       #128
      00FF4F3CH   LINE      CODE     ---       #130
      00FF4F3CH   LINE      CODE     ---       #132
      00FF4F47H   LINE      CODE     ---       #133
      00FF4F4AH   LINE      CODE     ---       #135
      00FF4F4AH   LINE      CODE     ---       #137
      00FF4F55H   LINE      CODE     ---       #138
      00FF4F58H   LINE      CODE     ---       #140
      00FF4F58H   LINE      CODE     ---       #142
      00FF4F63H   LINE      CODE     ---       #143
      00FF4F66H   LINE      CODE     ---       #147
      00FF4F66H   LINE      CODE     ---       #149
      00FF4F71H   LINE      CODE     ---       #150
      00FF4F74H   LINE      CODE     ---       #152
      00FF4F74H   LINE      CODE     ---       #154
      00FF4F7FH   LINE      CODE     ---       #155
      00FF4F82H   LINE      CODE     ---       #157
      00FF4F82H   LINE      CODE     ---       #159
      00FF4F8DH   LINE      CODE     ---       #160
      00FF4F90H   LINE      CODE     ---       #162
      00FF4F90H   LINE      CODE     ---       #164
      00FF4F9BH   LINE      CODE     ---       #165
      00FF4F9EH   LINE      CODE     ---       #167
      00FF4F9EH   LINE      CODE     ---       #169
      00FF4FA9H   LINE      CODE     ---       #170
      00FF4FACH   LINE      CODE     ---       #172
      00FF4FACH   LINE      CODE     ---       #174
      00FF4FB7H   LINE      CODE     ---       #175
      00FF4FBAH   LINE      CODE     ---       #177
      00FF4FBAH   LINE      CODE     ---       #179
      00FF4FC5H   LINE      CODE     ---       #180
      00FF4FC8H   LINE      CODE     ---       #182
      00FF4FC8H   LINE      CODE     ---       #184
      00FF4FD3H   LINE      CODE     ---       #185
L251 LINKER/LOCATER V4.66.93.0                                                        04/15/2024  21:19:48  PAGE 41


      00FF4FD6H   LINE      CODE     ---       #189
      00FF4FD6H   LINE      CODE     ---       #191
      00FF4FE1H   LINE      CODE     ---       #192
      00FF4FE4H   LINE      CODE     ---       #194
      00FF4FE4H   LINE      CODE     ---       #196
      00FF4FEFH   LINE      CODE     ---       #197
      00FF4FF2H   LINE      CODE     ---       #199
      00FF4FF2H   LINE      CODE     ---       #201
      00FF4FFBH   LINE      CODE     ---       #202
      00FF4FFEH   LINE      CODE     ---       #204
      00FF4FFEH   LINE      CODE     ---       #206
      00FF5009H   LINE      CODE     ---       #207
      00FF500CH   LINE      CODE     ---       #210
      00FF500CH   LINE      CODE     ---       #212
      00FF5017H   LINE      CODE     ---       #213
      00FF501AH   LINE      CODE     ---       #215
      00FF501AH   LINE      CODE     ---       #217
      00FF5025H   LINE      CODE     ---       #218
      00FF5028H   LINE      CODE     ---       #220
      00FF5028H   LINE      CODE     ---       #222
      00FF5033H   LINE      CODE     ---       #223
      00FF5035H   LINE      CODE     ---       #225
      00FF5035H   LINE      CODE     ---       #227
      00FF5040H   LINE      CODE     ---       #228
      00FF5042H   LINE      CODE     ---       #232
      00FF5042H   LINE      CODE     ---       #234
      00FF504DH   LINE      CODE     ---       #235
      00FF504FH   LINE      CODE     ---       #237
      00FF504FH   LINE      CODE     ---       #239
      00FF505AH   LINE      CODE     ---       #240
      00FF505CH   LINE      CODE     ---       #242
      00FF505CH   LINE      CODE     ---       #244
      00FF5067H   LINE      CODE     ---       #245
      00FF5069H   LINE      CODE     ---       #247
      00FF5069H   LINE      CODE     ---       #249
      00FF5074H   LINE      CODE     ---       #250
      00FF5076H   LINE      CODE     ---       #254
      00FF5076H   LINE      CODE     ---       #256
      00FF5081H   LINE      CODE     ---       #257
      00FF5083H   LINE      CODE     ---       #259
      00FF5083H   LINE      CODE     ---       #261
      00FF508EH   LINE      CODE     ---       #262
      00FF5090H   LINE      CODE     ---       #264
      00FF5090H   LINE      CODE     ---       #266
      00FF509BH   LINE      CODE     ---       #267
      00FF509DH   LINE      CODE     ---       #269
      00FF509DH   LINE      CODE     ---       #271
      00FF50A8H   LINE      CODE     ---       #272
      00FF50A8H   LINE      CODE     ---       #275
      00FF50A8H   LINE      CODE     ---       #277
      ---         BLOCKEND  ---      ---       LVL=0

      00FF4917H   BLOCK     CODE     ---       LVL=0
      00000530H   SYMBOL    EDATA    INT       pwmch
      00000532H   SYMBOL    EDATA    DWORD     freq
      00000536H   SYMBOL    EDATA    DWORD     duty
      00FF491FH   BLOCK     CODE     NEAR LAB  LVL=1
      0000053AH   SYMBOL    EDATA    DWORD     match_temp
      0000053EH   SYMBOL    EDATA    DWORD     period_temp
      00000542H   SYMBOL    EDATA    WORD      freq_div
      ---         BLOCKEND  ---      ---       LVL=1
      00FF4917H   LINE      CODE     ---       #290
      00FF491FH   LINE      CODE     ---       #291
      00FF491FH   LINE      CODE     ---       #295
      00FF4925H   LINE      CODE     ---       #298
L251 LINKER/LOCATER V4.66.93.0                                                        04/15/2024  21:19:48  PAGE 42


      00FF4928H   LINE      CODE     ---       #301
      00FF492FH   LINE      CODE     ---       #305
      00FF4942H   LINE      CODE     ---       #306
      00FF4951H   LINE      CODE     ---       #307
      00FF496CH   LINE      CODE     ---       #309
      00FF4976H   LINE      CODE     ---       #311
      00FF499DH   LINE      CODE     ---       #312
      00FF499FH   LINE      CODE     ---       #315
      00FF49ADH   LINE      CODE     ---       #316
      00FF49ADH   LINE      CODE     ---       #319
      00FF49BCH   LINE      CODE     ---       #322
      00FF49EDH   LINE      CODE     ---       #323
      00FF4A24H   LINE      CODE     ---       #326
      00FF4A76H   LINE      CODE     ---       #329
      00FF4A89H   LINE      CODE     ---       #330
      00FF4A98H   LINE      CODE     ---       #332
      00FF4AA5H   LINE      CODE     ---       #333
      00FF4AB2H   LINE      CODE     ---       #334
      00FF4AB5H   LINE      CODE     ---       #337
      00FF4AF3H   LINE      CODE     ---       #338
      00FF4B26H   LINE      CODE     ---       #341
      00FF4B86H   LINE      CODE     ---       #345
      00FF4B99H   LINE      CODE     ---       #346
      00FF4BA8H   LINE      CODE     ---       #348
      00FF4BB5H   LINE      CODE     ---       #349
      00FF4BC2H   LINE      CODE     ---       #350
      00FF4BC2H   LINE      CODE     ---       #353
      00FF4BF4H   LINE      CODE     ---       #354
      00FF4C2CH   LINE      CODE     ---       #357
      00FF4C5AH   LINE      CODE     ---       #358
      00FF4C8EH   LINE      CODE     ---       #361
      00FF4CBFH   LINE      CODE     ---       #362
      00FF4CF0H   LINE      CODE     ---       #367
      ---         BLOCKEND  ---      ---       LVL=0
      000005DFH   SYMBOL    EDATA    INT       pwmch
      000005E1H   SYMBOL    EDATA    DWORD     duty
      000005E5H   SYMBOL    EDATA    DWORD     match_temp
      000005E9H   SYMBOL    EDATA    DWORD     arr
      00000544H   SYMBOL    EDATA    INT       pwmch
      00000546H   SYMBOL    EDATA    DWORD     freq
      0000054AH   SYMBOL    EDATA    DWORD     duty
      0000054EH   SYMBOL    EDATA    DWORD     match_temp
      00000552H   SYMBOL    EDATA    DWORD     period_temp
      00000556H   SYMBOL    EDATA    WORD      freq_div

      ---         MODULE    ---      ---       zf_spi
      00FF6443H   PUBLIC    CODE     ---       spi_init
      00FF7BABH   PUBLIC    CODE     ---       spi_mosi
      00000625H   PUBLIC    EDATA    BYTE      ?spi_init?BYTE
      000000CFH   SFRSYM    DATA     BYTE      SPDAT
      000000D0H   SFRSYM    DATA     BYTE      PSW
      0000009DH   SFRSYM    DATA     BYTE      IRCBAND
      00000097H   SFRSYM    DATA     BYTE      AUXR2
      000000EFH   SFRSYM    DATA     BYTE      AUXINTIF
      000000FDH   SFRSYM    DATA     BYTE      S4CON
      000000ACH   SFRSYM    DATA     BYTE      S3CON
      0000009AH   SFRSYM    DATA     BYTE      S2CON
      000000B7H   SFRSYM    DATA     BYTE      IPH
      000000CDH   SFRSYM    DATA     BYTE      SPSTAT
      000000DDH   SFRSYM    DATA     BYTE      T4T3M
      000000C1H   SFRSYM    DATA     BYTE      WDT_CONTR
      000000DFH   SFRSYM    DATA     BYTE      IP3
      000000F4H   SFRSYM    DATA     BYTE      USBCON
      000000B5H   SFRSYM    DATA     BYTE      IP2
      000000FFH   SFRSYM    DATA     BYTE      RSTCFG
L251 LINKER/LOCATER V4.66.93.0                                                        04/15/2024  21:19:48  PAGE 43


      000000F9H   SFRSYM    DATA     BYTE      LINICR
      0000008EH   SFRSYM    DATA     BYTE      AUXR
      000000AFH   SFRSYM    DATA     BYTE      IE2
      00000088H   SFRSYM    DATA     BYTE      TCON
      00000098H   SFRSYM    DATA     BYTE      SCON
      000000F1H   SFRSYM    DATA     BYTE      CANICR
      00000087H   SFRSYM    DATA     BYTE      PCON
      000000BCH   SFRSYM    DATA     BYTE      ADC_CONTR
      000000E7H   SFRSYM    DATA     BYTE      CMPCR2
      000000E6H   SFRSYM    DATA     BYTE      CMPCR1
      000000B8H   SFRSYM    DATA     BYTE      IP
      0000008FH   SFRSYM    DATA     BYTE      INTCLKO
      000000EEH   SFRSYM    DATA     BYTE      IP3H
      000000B6H   SFRSYM    DATA     BYTE      IP2H
      000000A8H   SFRSYM    DATA     BYTE      IE
      000000BBH   SFRSYM    DATA     BYTE      P_SW3
      000000BAH   SFRSYM    DATA     BYTE      P_SW2
      000000A2H   SFRSYM    DATA     BYTE      P_SW1
      000000CEH   SFRSYM    DATA     BYTE      SPCTL
      000000F8H   SFRSYM    DATA     BYTE      P7
      000000E8H   SFRSYM    DATA     BYTE      P6
      000000C8H   SFRSYM    DATA     BYTE      P5
      000000C0H   SFRSYM    DATA     BYTE      P4
      000000B0H   SFRSYM    DATA     BYTE      P3
      000000A0H   SFRSYM    DATA     BYTE      P2
      00000090H   SFRSYM    DATA     BYTE      P1
      00000080H   SFRSYM    DATA     BYTE      P0

      00FF6443H   BLOCK     CODE     ---       LVL=0
      00000625H   SYMBOL    EDATA    INT       spi_n
      00000627H   SYMBOL    EDATA    INT       sck_pin
      00000629H   SYMBOL    EDATA    INT       mosi_pin
      0000062BH   SYMBOL    EDATA    INT       miso_pin
      0000062DH   SYMBOL    EDATA    BYTE      mode
      0000062EH   SYMBOL    EDATA    INT       mstr
      00000630H   SYMBOL    EDATA    INT       baud
      00FF6443H   LINE      CODE     ---       #39
      00FF6457H   LINE      CODE     ---       #48
      00FF6463H   LINE      CODE     ---       #50
      00FF6472H   LINE      CODE     ---       #51
      00FF6472H   LINE      CODE     ---       #53
      00FF647EH   LINE      CODE     ---       #55
      00FF648DH   LINE      CODE     ---       #56
      00FF648DH   LINE      CODE     ---       #58
      00FF6499H   LINE      CODE     ---       #60
      00FF64A8H   LINE      CODE     ---       #61
      00FF64A8H   LINE      CODE     ---       #64
      00FF64ABH   LINE      CODE     ---       #65
      00FF64C1H   LINE      CODE     ---       #67
      00FF64C1H   LINE      CODE     ---       #68
      00FF64C5H   LINE      CODE     ---       #69
      00FF64C7H   LINE      CODE     ---       #70
      00FF64C7H   LINE      CODE     ---       #71
      00FF64CAH   LINE      CODE     ---       #72
      00FF64CCH   LINE      CODE     ---       #73
      00FF64CCH   LINE      CODE     ---       #74
      00FF64CFH   LINE      CODE     ---       #75
      00FF64D1H   LINE      CODE     ---       #76
      00FF64D1H   LINE      CODE     ---       #77
      00FF64D4H   LINE      CODE     ---       #78
      00FF64D4H   LINE      CODE     ---       #79
      00FF64D4H   LINE      CODE     ---       #81
      00FF64D7H   LINE      CODE     ---       #82
      00FF64E6H   LINE      CODE     ---       #84
      00FF64E6H   LINE      CODE     ---       #86
L251 LINKER/LOCATER V4.66.93.0                                                        04/15/2024  21:19:48  PAGE 44


      00FF64E8H   LINE      CODE     ---       #87
      00FF64E8H   LINE      CODE     ---       #88
      00FF64EBH   LINE      CODE     ---       #89
      00FF64EDH   LINE      CODE     ---       #90
      00FF64EDH   LINE      CODE     ---       #91
      00FF64F0H   LINE      CODE     ---       #92
      00FF64F2H   LINE      CODE     ---       #93
      00FF64F2H   LINE      CODE     ---       #94
      00FF64F5H   LINE      CODE     ---       #95
      00FF64F5H   LINE      CODE     ---       #96
      00FF64F5H   LINE      CODE     ---       #99
      00FF64FDH   LINE      CODE     ---       #101
      00FF6507H   LINE      CODE     ---       #103
      00FF650AH   LINE      CODE     ---       #104
      00FF650DH   LINE      CODE     ---       #105
      00FF650DH   LINE      CODE     ---       #109
      00FF650DH   LINE      CODE     ---       #110
      00FF6510H   LINE      CODE     ---       #111
      ---         BLOCKEND  ---      ---       LVL=0

      00FF7BABH   BLOCK     CODE     ---       LVL=0
      00000A4EH   SYMBOL    EDATA    BYTE      dat
      00FF7BABH   LINE      CODE     ---       #121
      00FF7BAFH   LINE      CODE     ---       #123
      00FF7BB1H   LINE      CODE     ---       #124
      00FF7BB6H   LINE      CODE     ---       #125
      00FF7BBAH   LINE      CODE     ---       #126
      00FF7BBCH   LINE      CODE     ---       #127
      ---         BLOCKEND  ---      ---       LVL=0
      00000A12H   SYMBOL    EDATA    INT       spi_n
      00000A4FH   SYMBOL    EDATA    BYTE      mode

      ---         MODULE    ---      ---       zf_tim
      000000D0H   SFRSYM    DATA     BYTE      PSW
      0000009DH   SFRSYM    DATA     BYTE      IRCBAND
      00000097H   SFRSYM    DATA     BYTE      AUXR2
      000000EFH   SFRSYM    DATA     BYTE      AUXINTIF
      000000FDH   SFRSYM    DATA     BYTE      S4CON
      000000ACH   SFRSYM    DATA     BYTE      S3CON
      0000009AH   SFRSYM    DATA     BYTE      S2CON
      000000B7H   SFRSYM    DATA     BYTE      IPH
      000000CDH   SFRSYM    DATA     BYTE      SPSTAT
      000000DDH   SFRSYM    DATA     BYTE      T4T3M
      000000C1H   SFRSYM    DATA     BYTE      WDT_CONTR
      00000088H.6 SFRSYM    DATA     BIT       TR1
      00000088H.4 SFRSYM    DATA     BIT       TR0
      000000D3H   SFRSYM    DATA     BYTE      T4L
      000000D5H   SFRSYM    DATA     BYTE      T3L
      000000D7H   SFRSYM    DATA     BYTE      T2L
      0000008BH   SFRSYM    DATA     BYTE      TL1
      0000008AH   SFRSYM    DATA     BYTE      TL0
      000000D2H   SFRSYM    DATA     BYTE      T4H
      000000D4H   SFRSYM    DATA     BYTE      T3H
      000000D6H   SFRSYM    DATA     BYTE      T2H
      0000008DH   SFRSYM    DATA     BYTE      TH1
      0000008CH   SFRSYM    DATA     BYTE      TH0
      000000DFH   SFRSYM    DATA     BYTE      IP3
      000000F4H   SFRSYM    DATA     BYTE      USBCON
      000000B5H   SFRSYM    DATA     BYTE      IP2
      000000FFH   SFRSYM    DATA     BYTE      RSTCFG
      000000A8H.3 SFRSYM    DATA     BIT       ET1
      000000A8H.1 SFRSYM    DATA     BIT       ET0
      000000F9H   SFRSYM    DATA     BYTE      LINICR
      0000008EH   SFRSYM    DATA     BYTE      AUXR
      000000AFH   SFRSYM    DATA     BYTE      IE2
L251 LINKER/LOCATER V4.66.93.0                                                        04/15/2024  21:19:48  PAGE 45


      00000088H   SFRSYM    DATA     BYTE      TCON
      00000089H   SFRSYM    DATA     BYTE      TMOD
      00000098H   SFRSYM    DATA     BYTE      SCON
      000000F1H   SFRSYM    DATA     BYTE      CANICR
      00000087H   SFRSYM    DATA     BYTE      PCON
      000000BCH   SFRSYM    DATA     BYTE      ADC_CONTR
      000000E7H   SFRSYM    DATA     BYTE      CMPCR2
      000000E6H   SFRSYM    DATA     BYTE      CMPCR1
      000000B8H   SFRSYM    DATA     BYTE      IP
      0000008FH   SFRSYM    DATA     BYTE      INTCLKO
      000000EEH   SFRSYM    DATA     BYTE      IP3H
      000000B6H   SFRSYM    DATA     BYTE      IP2H
      000000A8H   SFRSYM    DATA     BYTE      IE
      000000BBH   SFRSYM    DATA     BYTE      P_SW3
      000000BAH   SFRSYM    DATA     BYTE      P_SW2
      000000A2H   SFRSYM    DATA     BYTE      P_SW1
      000000CEH   SFRSYM    DATA     BYTE      SPCTL
      000000F8H   SFRSYM    DATA     BYTE      P7
      000000E8H   SFRSYM    DATA     BYTE      P6
      000000C8H   SFRSYM    DATA     BYTE      P5
      000000C0H   SFRSYM    DATA     BYTE      P4
      000000B0H   SFRSYM    DATA     BYTE      P3
      000000A0H   SFRSYM    DATA     BYTE      P2
      00000090H   SFRSYM    DATA     BYTE      P1
      00000080H   SFRSYM    DATA     BYTE      P0
      00000A14H   SYMBOL    EDATA    INT       tim_n
      000009BAH   SYMBOL    EDATA    INT       tim_n
      000009BCH   SYMBOL    EDATA    WORD      dat
      00000A16H   SYMBOL    EDATA    INT       tim_n
      0000089AH   SYMBOL    EDATA    INT       tim_n
      0000089CH   SYMBOL    EDATA    WORD      time_ms
      0000089EH   SYMBOL    EDATA    WORD      temp

      ---         MODULE    ---      ---       zf_uart
      00FF6A13H   PUBLIC    CODE     ---       uart_putchar
      00FF5382H   PUBLIC    CODE     ---       uart_init
      00000954H   PUBLIC    EDATA    ---       busy
      000005EDH   PUBLIC    EDATA    BYTE      ?uart_init?BYTE
      000006EBH   PUBLIC    EDATA    BYTE      ?uart_putbuff?BYTE
      000000D0H   SFRSYM    DATA     BYTE      PSW
      0000009DH   SFRSYM    DATA     BYTE      IRCBAND
      00000097H   SFRSYM    DATA     BYTE      AUXR2
      000000EFH   SFRSYM    DATA     BYTE      AUXINTIF
      000000FDH   SFRSYM    DATA     BYTE      S4CON
      000000ACH   SFRSYM    DATA     BYTE      S3CON
      0000009AH   SFRSYM    DATA     BYTE      S2CON
      000000FEH   SFRSYM    DATA     BYTE      S4BUF
      000000ADH   SFRSYM    DATA     BYTE      S3BUF
      0000009BH   SFRSYM    DATA     BYTE      S2BUF
      000000B7H   SFRSYM    DATA     BYTE      IPH
      000000CDH   SFRSYM    DATA     BYTE      SPSTAT
      000000DDH   SFRSYM    DATA     BYTE      T4T3M
      000000C1H   SFRSYM    DATA     BYTE      WDT_CONTR
      00000088H.6 SFRSYM    DATA     BIT       TR1
      000000D3H   SFRSYM    DATA     BYTE      T4L
      000000D5H   SFRSYM    DATA     BYTE      T3L
      000000D7H   SFRSYM    DATA     BYTE      T2L
      0000008BH   SFRSYM    DATA     BYTE      TL1
      000000D2H   SFRSYM    DATA     BYTE      T4H
      000000D4H   SFRSYM    DATA     BYTE      T3H
      000000D6H   SFRSYM    DATA     BYTE      T2H
      0000008DH   SFRSYM    DATA     BYTE      TH1
      000000DFH   SFRSYM    DATA     BYTE      IP3
      000000F4H   SFRSYM    DATA     BYTE      USBCON
      000000B5H   SFRSYM    DATA     BYTE      IP2
L251 LINKER/LOCATER V4.66.93.0                                                        04/15/2024  21:19:48  PAGE 46


      000000FFH   SFRSYM    DATA     BYTE      RSTCFG
      000000F9H   SFRSYM    DATA     BYTE      LINICR
      0000008EH   SFRSYM    DATA     BYTE      AUXR
      000000AFH   SFRSYM    DATA     BYTE      IE2
      00000088H   SFRSYM    DATA     BYTE      TCON
      00000089H   SFRSYM    DATA     BYTE      TMOD
      00000098H   SFRSYM    DATA     BYTE      SCON
      000000F1H   SFRSYM    DATA     BYTE      CANICR
      00000087H   SFRSYM    DATA     BYTE      PCON
      00000099H   SFRSYM    DATA     BYTE      SBUF
      000000BCH   SFRSYM    DATA     BYTE      ADC_CONTR
      000000E7H   SFRSYM    DATA     BYTE      CMPCR2
      000000E6H   SFRSYM    DATA     BYTE      CMPCR1
      000000B8H   SFRSYM    DATA     BYTE      IP
      000000A8H.4 SFRSYM    DATA     BIT       ES
      0000008FH   SFRSYM    DATA     BYTE      INTCLKO
      000000EEH   SFRSYM    DATA     BYTE      IP3H
      000000B6H   SFRSYM    DATA     BYTE      IP2H
      000000A8H   SFRSYM    DATA     BYTE      IE
      000000BBH   SFRSYM    DATA     BYTE      P_SW3
      000000BAH   SFRSYM    DATA     BYTE      P_SW2
      000000A2H   SFRSYM    DATA     BYTE      P_SW1
      000000CEH   SFRSYM    DATA     BYTE      SPCTL
      000000F8H   SFRSYM    DATA     BYTE      P7
      000000E8H   SFRSYM    DATA     BYTE      P6
      000000C8H   SFRSYM    DATA     BYTE      P5
      000000C0H   SFRSYM    DATA     BYTE      P4
      000000C9H   SFRSYM    DATA     BYTE      P5M1
      000000B0H   SFRSYM    DATA     BYTE      P3
      000000CAH   SFRSYM    DATA     BYTE      P5M0
      000000A0H   SFRSYM    DATA     BYTE      P2
      00000090H   SFRSYM    DATA     BYTE      P1
      00000080H   SFRSYM    DATA     BYTE      P0

      00FF5382H   BLOCK     CODE     ---       LVL=0
      000005EDH   SYMBOL    EDATA    INT       uart_n
      000005EFH   SYMBOL    EDATA    INT       uart_rx_pin
      000005F1H   SYMBOL    EDATA    INT       uart_tx_pin
      000005F3H   SYMBOL    EDATA    DWORD     baud
      000005F7H   SYMBOL    EDATA    INT       tim_n
      00FF5392H   BLOCK     CODE     NEAR LAB  LVL=1
      000005F9H   SYMBOL    EDATA    WORD      brt
      ---         BLOCKEND  ---      ---       LVL=1
      00FF5382H   LINE      CODE     ---       #42
      00FF5392H   LINE      CODE     ---       #43
      00FF5392H   LINE      CODE     ---       #46
      00FF53B9H   LINE      CODE     ---       #49
      00FF53DBH   LINE      CODE     ---       #51
      00FF53DBH   LINE      CODE     ---       #53
      00FF53E7H   LINE      CODE     ---       #55
      00FF53EAH   LINE      CODE     ---       #56
      00FF53EEH   LINE      CODE     ---       #57
      00FF53F4H   LINE      CODE     ---       #58
      00FF53FEH   LINE      CODE     ---       #59
      00FF5401H   LINE      CODE     ---       #60
      00FF5404H   LINE      CODE     ---       #61
      00FF5409H   LINE      CODE     ---       #62
      00FF540BH   LINE      CODE     ---       #63
      00FF5417H   LINE      CODE     ---       #65
      00FF541AH   LINE      CODE     ---       #66
      00FF5420H   LINE      CODE     ---       #67
      00FF542AH   LINE      CODE     ---       #68
      00FF542DH   LINE      CODE     ---       #69
      00FF542DH   LINE      CODE     ---       #70
      00FF5430H   LINE      CODE     ---       #71
L251 LINKER/LOCATER V4.66.93.0                                                        04/15/2024  21:19:48  PAGE 47


      00FF5446H   LINE      CODE     ---       #73
      00FF544AH   LINE      CODE     ---       #74
      00FF544CH   LINE      CODE     ---       #75
      00FF5464H   LINE      CODE     ---       #77
      00FF5467H   LINE      CODE     ---       #78
      00FF5469H   LINE      CODE     ---       #79
      00FF5481H   LINE      CODE     ---       #81
      00FF5484H   LINE      CODE     ---       #82
      00FF5486H   LINE      CODE     ---       #83
      00FF549EH   LINE      CODE     ---       #85
      00FF54A1H   LINE      CODE     ---       #86
      00FF54A1H   LINE      CODE     ---       #87
      00FF54A6H   LINE      CODE     ---       #88
      00FF54A9H   LINE      CODE     ---       #89
      00FF54ACH   LINE      CODE     ---       #92
      00FF54ACH   LINE      CODE     ---       #94
      00FF54B8H   LINE      CODE     ---       #96
      00FF54BBH   LINE      CODE     ---       #97
      00FF54C1H   LINE      CODE     ---       #98
      00FF54CBH   LINE      CODE     ---       #99
      00FF54CEH   LINE      CODE     ---       #100
      00FF54CEH   LINE      CODE     ---       #102
      00FF54D1H   LINE      CODE     ---       #103
      00FF54E9H   LINE      CODE     ---       #105
      00FF54EDH   LINE      CODE     ---       #106
      00FF54EFH   LINE      CODE     ---       #107
      00FF5507H   LINE      CODE     ---       #109
      00FF550AH   LINE      CODE     ---       #110
      00FF550AH   LINE      CODE     ---       #112
      00FF550DH   LINE      CODE     ---       #113
      00FF5512H   LINE      CODE     ---       #114
      00FF5515H   LINE      CODE     ---       #117
      00FF5515H   LINE      CODE     ---       #119
      00FF5521H   LINE      CODE     ---       #121
      00FF5524H   LINE      CODE     ---       #122
      00FF552AH   LINE      CODE     ---       #123
      00FF5534H   LINE      CODE     ---       #124
      00FF5537H   LINE      CODE     ---       #125
      00FF5539H   LINE      CODE     ---       #126
      00FF5545H   LINE      CODE     ---       #128
      00FF5548H   LINE      CODE     ---       #129
      00FF554EH   LINE      CODE     ---       #130
      00FF5558H   LINE      CODE     ---       #131
      00FF555BH   LINE      CODE     ---       #132
      00FF555BH   LINE      CODE     ---       #134
      00FF555EH   LINE      CODE     ---       #135
      00FF5576H   LINE      CODE     ---       #137
      00FF557AH   LINE      CODE     ---       #138
      00FF557CH   LINE      CODE     ---       #139
      00FF5594H   LINE      CODE     ---       #141
      00FF5597H   LINE      CODE     ---       #142
      00FF5597H   LINE      CODE     ---       #144
      00FF559AH   LINE      CODE     ---       #145
      00FF559FH   LINE      CODE     ---       #146
      00FF55A2H   LINE      CODE     ---       #149
      00FF55A2H   LINE      CODE     ---       #151
      00FF55AEH   LINE      CODE     ---       #153
      00FF55B1H   LINE      CODE     ---       #154
      00FF55B7H   LINE      CODE     ---       #155
      00FF55C1H   LINE      CODE     ---       #156
      00FF55C4H   LINE      CODE     ---       #157
      00FF55C6H   LINE      CODE     ---       #158
      00FF55D2H   LINE      CODE     ---       #160
      00FF55D5H   LINE      CODE     ---       #161
      00FF55DBH   LINE      CODE     ---       #162
L251 LINKER/LOCATER V4.66.93.0                                                        04/15/2024  21:19:48  PAGE 48


      00FF55E5H   LINE      CODE     ---       #163
      00FF55E8H   LINE      CODE     ---       #164
      00FF55E8H   LINE      CODE     ---       #166
      00FF55EBH   LINE      CODE     ---       #167
      00FF5603H   LINE      CODE     ---       #169
      00FF5607H   LINE      CODE     ---       #170
      00FF5609H   LINE      CODE     ---       #171
      00FF5621H   LINE      CODE     ---       #173
      00FF5624H   LINE      CODE     ---       #174
      00FF5628H   LINE      CODE     ---       #175
      00FF562BH   LINE      CODE     ---       #176
      00FF562BH   LINE      CODE     ---       #177
      00FF562EH   LINE      CODE     ---       #178
      00FF5633H   LINE      CODE     ---       #179
      00FF5633H   LINE      CODE     ---       #182
      00FF5633H   LINE      CODE     ---       #184
      ---         BLOCKEND  ---      ---       LVL=0

      00FF6A13H   BLOCK     CODE     ---       LVL=0
      000009E1H   SYMBOL    EDATA    INT       uart_n
      000009E3H   SYMBOL    EDATA    BYTE      dat
      00FF6A13H   LINE      CODE     ---       #193
      00FF6A1BH   LINE      CODE     ---       #195
      00FF6A2DH   LINE      CODE     ---       #197
      00FF6A2DH   LINE      CODE     ---       #198
      00FF6A36H   LINE      CODE     ---       #199
      00FF6A3CH   LINE      CODE     ---       #200
      00FF6A42H   LINE      CODE     ---       #201
      00FF6A44H   LINE      CODE     ---       #202
      00FF6A44H   LINE      CODE     ---       #203
      00FF6A4DH   LINE      CODE     ---       #204
      00FF6A53H   LINE      CODE     ---       #205
      00FF6A59H   LINE      CODE     ---       #206
      00FF6A5BH   LINE      CODE     ---       #207
      00FF6A5BH   LINE      CODE     ---       #208
      00FF6A64H   LINE      CODE     ---       #209
      00FF6A6AH   LINE      CODE     ---       #210
      00FF6A70H   LINE      CODE     ---       #211
      00FF6A72H   LINE      CODE     ---       #212
      00FF6A72H   LINE      CODE     ---       #213
      00FF6A7BH   LINE      CODE     ---       #214
      00FF6A81H   LINE      CODE     ---       #215
      00FF6A87H   LINE      CODE     ---       #216
      00FF6A87H   LINE      CODE     ---       #217
      00FF6A87H   LINE      CODE     ---       #218
      ---         BLOCKEND  ---      ---       LVL=0
      000006EBH   SYMBOL    EDATA    INT       uart_n
      000006EDH   SYMBOL    EDATA    ---       p
      000006F1H   SYMBOL    EDATA    DWORD     len
      000008A0H   SYMBOL    EDATA    INT       uart_n
      000008A2H   SYMBOL    EDATA    ---       str

      ---         MODULE    ---      ---       zf_fifo
      0000056CH   PUBLIC    EDATA    BYTE      ?fifo_write_buffer?BYTE
      0000063FH   PUBLIC    EDATA    BYTE      ?fifo_read_element?BYTE
      00000008H   PUBLIC    EDATA    BYTE      ?fifo_read_buffer?BYTE
      00000502H   PUBLIC    EDATA    BYTE      ?fifo_read_tail_buffer?BYTE
      00000590H   PUBLIC    EDATA    BYTE      ?fifo_init?BYTE
      000000D0H   SFRSYM    DATA     BYTE      PSW
      0000009DH   SFRSYM    DATA     BYTE      IRCBAND
      00000097H   SFRSYM    DATA     BYTE      AUXR2
      000000EFH   SFRSYM    DATA     BYTE      AUXINTIF
      000000FDH   SFRSYM    DATA     BYTE      S4CON
      000000ACH   SFRSYM    DATA     BYTE      S3CON
      0000009AH   SFRSYM    DATA     BYTE      S2CON
L251 LINKER/LOCATER V4.66.93.0                                                        04/15/2024  21:19:48  PAGE 49


      000000B7H   SFRSYM    DATA     BYTE      IPH
      000000CDH   SFRSYM    DATA     BYTE      SPSTAT
      000000DDH   SFRSYM    DATA     BYTE      T4T3M
      000000C1H   SFRSYM    DATA     BYTE      WDT_CONTR
      000000DFH   SFRSYM    DATA     BYTE      IP3
      000000F4H   SFRSYM    DATA     BYTE      USBCON
      000000B5H   SFRSYM    DATA     BYTE      IP2
      000000FFH   SFRSYM    DATA     BYTE      RSTCFG
      000000F9H   SFRSYM    DATA     BYTE      LINICR
      0000008EH   SFRSYM    DATA     BYTE      AUXR
      000000AFH   SFRSYM    DATA     BYTE      IE2
      00000088H   SFRSYM    DATA     BYTE      TCON
      00000098H   SFRSYM    DATA     BYTE      SCON
      000000F1H   SFRSYM    DATA     BYTE      CANICR
      00000087H   SFRSYM    DATA     BYTE      PCON
      000000BCH   SFRSYM    DATA     BYTE      ADC_CONTR
      000000E7H   SFRSYM    DATA     BYTE      CMPCR2
      000000E6H   SFRSYM    DATA     BYTE      CMPCR1
      000000B8H   SFRSYM    DATA     BYTE      IP
      0000008FH   SFRSYM    DATA     BYTE      INTCLKO
      000000EEH   SFRSYM    DATA     BYTE      IP3H
      000000B6H   SFRSYM    DATA     BYTE      IP2H
      000000A8H   SFRSYM    DATA     BYTE      IE
      000000BBH   SFRSYM    DATA     BYTE      P_SW3
      000000BAH   SFRSYM    DATA     BYTE      P_SW2
      000000A2H   SFRSYM    DATA     BYTE      P_SW1
      000000CEH   SFRSYM    DATA     BYTE      SPCTL
      000000F8H   SFRSYM    DATA     BYTE      P7
      000000E8H   SFRSYM    DATA     BYTE      P6
      000000C8H   SFRSYM    DATA     BYTE      P5
      000000C0H   SFRSYM    DATA     BYTE      P4
      000000B0H   SFRSYM    DATA     BYTE      P3
      000000A0H   SFRSYM    DATA     BYTE      P2
      00000090H   SFRSYM    DATA     BYTE      P1
      00000080H   SFRSYM    DATA     BYTE      P0
      00FF6AFAH   SYMBOL    CODE     ---       fifo_head_offset

      00FF6AFAH   BLOCK     CODE     ---       LVL=0
      000007CBH   SYMBOL    EDATA    ---       fifo
      000007CFH   SYMBOL    EDATA    DWORD     offset
      00FF6AFAH   LINE      CODE     ---       #42
      00FF6B02H   LINE      CODE     ---       #44
      00FF6B1EH   LINE      CODE     ---       #46
      00FF6B20H   LINE      CODE     ---       #48
      00FF6B47H   LINE      CODE     ---       #49
      00FF6B69H   LINE      CODE     ---       #50
      ---         BLOCKEND  ---      ---       LVL=0
      000007D3H   SYMBOL    EDATA    ---       fifo
      000007D7H   SYMBOL    EDATA    DWORD     offset
      000008A6H   SYMBOL    EDATA    ---       fifo
      000008AAH   SYMBOL    EDATA    INT       return_state
      000009BEH   SYMBOL    EDATA    ---       fifo
      000006F5H   SYMBOL    EDATA    ---       fifo
      000006F9H   SYMBOL    EDATA    DWORD     dat
      000006FDH   SYMBOL    EDATA    INT       return_state
      0000056CH   SYMBOL    EDATA    ---       fifo
      00000570H   SYMBOL    EDATA    ---       dat
      00000574H   SYMBOL    EDATA    DWORD     length
      00000578H   SYMBOL    EDATA    INT       return_state
      0000057AH   SYMBOL    EDATA    DWORD     temp_length
      0000063FH   SYMBOL    EDATA    ---       fifo
      00000643H   SYMBOL    EDATA    ---       dat
      00000647H   SYMBOL    EDATA    INT       flag
      00000649H   SYMBOL    EDATA    INT       return_state
      00000008H   SYMBOL    EDATA    ---       fifo
L251 LINKER/LOCATER V4.66.93.0                                                        04/15/2024  21:19:48  PAGE 50


      0000000CH   SYMBOL    EDATA    ---       dat
      00000010H   SYMBOL    EDATA    ---       length
      00000014H   SYMBOL    EDATA    INT       flag
      00000016H   SYMBOL    EDATA    INT       return_state
      00000018H   SYMBOL    EDATA    DWORD     temp_length
      0000001CH   SYMBOL    EDATA    DWORD     fifo_data_length
      00000502H   SYMBOL    EDATA    ---       fifo
      00000506H   SYMBOL    EDATA    ---       dat
      0000050AH   SYMBOL    EDATA    ---       length
      0000050EH   SYMBOL    EDATA    INT       flag
      00000510H   SYMBOL    EDATA    INT       return_state
      00000512H   SYMBOL    EDATA    DWORD     temp_length
      00000516H   SYMBOL    EDATA    DWORD     fifo_data_length
      00000590H   SYMBOL    EDATA    ---       fifo
      00000594H   SYMBOL    EDATA    INT       type
      00000596H   SYMBOL    EDATA    ---       buffer_addr
      0000059AH   SYMBOL    EDATA    DWORD     len
      0000059EH   SYMBOL    EDATA    INT       return_state

      ---         MODULE    ---      ---       zf_iic
      00FF70DEH   PUBLIC    CODE     ---       wait
      00FF7763H   PUBLIC    CODE     ---       iic_delay_us
      000008A8H   PUBLIC    EDATA    BYTE      ?iic_init?BYTE
      000000D0H   SFRSYM    DATA     BYTE      PSW
      0000009DH   SFRSYM    DATA     BYTE      IRCBAND
      00000097H   SFRSYM    DATA     BYTE      AUXR2
      000000EFH   SFRSYM    DATA     BYTE      AUXINTIF
      000000FDH   SFRSYM    DATA     BYTE      S4CON
      000000ACH   SFRSYM    DATA     BYTE      S3CON
      0000009AH   SFRSYM    DATA     BYTE      S2CON
      000000B7H   SFRSYM    DATA     BYTE      IPH
      000000CDH   SFRSYM    DATA     BYTE      SPSTAT
      000000DDH   SFRSYM    DATA     BYTE      T4T3M
      000000C1H   SFRSYM    DATA     BYTE      WDT_CONTR
      000000DFH   SFRSYM    DATA     BYTE      IP3
      000000F4H   SFRSYM    DATA     BYTE      USBCON
      000000B5H   SFRSYM    DATA     BYTE      IP2
      000000FFH   SFRSYM    DATA     BYTE      RSTCFG
      000000F9H   SFRSYM    DATA     BYTE      LINICR
      0000008EH   SFRSYM    DATA     BYTE      AUXR
      000000AFH   SFRSYM    DATA     BYTE      IE2
      00000088H   SFRSYM    DATA     BYTE      TCON
      00000098H   SFRSYM    DATA     BYTE      SCON
      000000F1H   SFRSYM    DATA     BYTE      CANICR
      00000087H   SFRSYM    DATA     BYTE      PCON
      000000BCH   SFRSYM    DATA     BYTE      ADC_CONTR
      000000E7H   SFRSYM    DATA     BYTE      CMPCR2
      000000E6H   SFRSYM    DATA     BYTE      CMPCR1
      000000B8H   SFRSYM    DATA     BYTE      IP
      0000008FH   SFRSYM    DATA     BYTE      INTCLKO
      000000EEH   SFRSYM    DATA     BYTE      IP3H
      000000B6H   SFRSYM    DATA     BYTE      IP2H
      000000A8H   SFRSYM    DATA     BYTE      IE
      000000BBH   SFRSYM    DATA     BYTE      P_SW3
      000000BAH   SFRSYM    DATA     BYTE      P_SW2
      000000A2H   SFRSYM    DATA     BYTE      P_SW1
      000000CEH   SFRSYM    DATA     BYTE      SPCTL
      000000F8H   SFRSYM    DATA     BYTE      P7
      000000E8H   SFRSYM    DATA     BYTE      P6
      000000C8H   SFRSYM    DATA     BYTE      P5
      000000C0H   SFRSYM    DATA     BYTE      P4
      000000B0H   SFRSYM    DATA     BYTE      P3
      000000A0H   SFRSYM    DATA     BYTE      P2
      00000090H   SFRSYM    DATA     BYTE      P1
      00000080H   SFRSYM    DATA     BYTE      P0
L251 LINKER/LOCATER V4.66.93.0                                                        04/15/2024  21:19:48  PAGE 51



      00FF7763H   BLOCK     CODE     ---       LVL=0
      000009E4H   SYMBOL    EDATA    WORD      x
      00FF7767H   BLOCK     CODE     NEAR LAB  LVL=1
      000009E6H   SYMBOL    EDATA    BYTE      i
      ---         BLOCKEND  ---      ---       LVL=1
      00FF7763H   LINE      CODE     ---       #30
      00FF7767H   LINE      CODE     ---       #31
      00FF7767H   LINE      CODE     ---       #33
      00FF7769H   LINE      CODE     ---       #35
      00FF776FH   LINE      CODE     ---       #36
      00FF7781H   LINE      CODE     ---       #37
      00FF7797H   LINE      CODE     ---       #38
      ---         BLOCKEND  ---      ---       LVL=0

      00FF70DEH   BLOCK     CODE     ---       LVL=0
      000009E7H   SYMBOL    EDATA    WORD      count
      000009E9H   SYMBOL    EDATA    BYTE      ret
      00FF70DEH   LINE      CODE     ---       #47
      00FF70DEH   LINE      CODE     ---       #48
      00FF70DEH   LINE      CODE     ---       #49
      00FF70E4H   LINE      CODE     ---       #50
      00FF70E9H   LINE      CODE     ---       #51
      00FF70EBH   LINE      CODE     ---       #53
      00FF70F2H   LINE      CODE     ---       #54
      00FF7108H   LINE      CODE     ---       #56
      00FF710EH   LINE      CODE     ---       #57
      00FF7110H   LINE      CODE     ---       #58
      00FF711EH   LINE      CODE     ---       #60
      00FF7130H   LINE      CODE     ---       #61
      00FF7134H   LINE      CODE     ---       #62
      ---         BLOCKEND  ---      ---       LVL=0
      00000A50H   SYMBOL    EDATA    BYTE      ret
      00000A18H   SYMBOL    EDATA    CHAR      dat
      00000A19H   SYMBOL    EDATA    BYTE      ret
      00000A51H   SYMBOL    EDATA    BYTE      ret
      00000A52H   SYMBOL    EDATA    BYTE      ret
      00000A53H   SYMBOL    EDATA    BYTE      ret
      000008ACH   SYMBOL    EDATA    INT       iic_n
      000008AEH   SYMBOL    EDATA    DWORD     wait_time
      000009EAH   SYMBOL    EDATA    BYTE      dev_add
      000009EBH   SYMBOL    EDATA    BYTE      reg
      000009ECH   SYMBOL    EDATA    BYTE      dat
      000008B2H   SYMBOL    EDATA    BYTE      dev_add
      000008B3H   SYMBOL    EDATA    BYTE      reg
      000008B4H   SYMBOL    EDATA    ---       dat
      0000086BH   SYMBOL    EDATA    BYTE      dev_add
      0000086CH   SYMBOL    EDATA    BYTE      reg
      0000086DH   SYMBOL    EDATA    ---       dat
      00000871H   SYMBOL    EDATA    BYTE      num
      00000A1AH   SYMBOL    EDATA    INT       iic_n

      ---         MODULE    ---      ---       SEEKFREE_18TFT
      00FF741CH   PUBLIC    CODE     ---       lcd_writeIndex_simspi
      00FF7467H   PUBLIC    CODE     ---       lcd_writeData_simspi
      00FF7AF6H   PUBLIC    CODE     ---       lcd_writeIndex
      00FF7B0BH   PUBLIC    CODE     ---       lcd_writeData
      00FF718CH   PUBLIC    CODE     ---       lcd_writeData_16bit_simspi
      00FF6E49H   PUBLIC    CODE     ---       lcd_set_region_simspi
      00FF6EADH   PUBLIC    CODE     ---       lcd_set_region
      00FF77FAH   PUBLIC    CODE     ---       lcd_writedata_16bit
      0000064BH   PUBLIC    EDATA    BYTE      ?lcd_showfloat_simspi?BYTE
      00000657H   PUBLIC    EDATA    BYTE      ?lcd_showfloat?BYTE
      000000D0H   SFRSYM    DATA     BYTE      PSW
      0000009DH   SFRSYM    DATA     BYTE      IRCBAND
L251 LINKER/LOCATER V4.66.93.0                                                        04/15/2024  21:19:48  PAGE 52


      00000097H   SFRSYM    DATA     BYTE      AUXR2
      000000EFH   SFRSYM    DATA     BYTE      AUXINTIF
      000000FDH   SFRSYM    DATA     BYTE      S4CON
      000000ACH   SFRSYM    DATA     BYTE      S3CON
      0000009AH   SFRSYM    DATA     BYTE      S2CON
      000000B7H   SFRSYM    DATA     BYTE      IPH
      000000CDH   SFRSYM    DATA     BYTE      SPSTAT
      000000DDH   SFRSYM    DATA     BYTE      T4T3M
      000000C1H   SFRSYM    DATA     BYTE      WDT_CONTR
      000000DFH   SFRSYM    DATA     BYTE      IP3
      000000F4H   SFRSYM    DATA     BYTE      USBCON
      000000B5H   SFRSYM    DATA     BYTE      IP2
      000000FFH   SFRSYM    DATA     BYTE      RSTCFG
      000000F9H   SFRSYM    DATA     BYTE      LINICR
      0000008EH   SFRSYM    DATA     BYTE      AUXR
      000000AFH   SFRSYM    DATA     BYTE      IE2
      000000A0H.5 SFRSYM    DATA     BIT       P25
      00000088H   SFRSYM    DATA     BYTE      TCON
      000000A0H.3 SFRSYM    DATA     BIT       P23
      00000098H   SFRSYM    DATA     BYTE      SCON
      000000A0H.2 SFRSYM    DATA     BIT       P22
      000000A0H.1 SFRSYM    DATA     BIT       P21
      000000A0H.0 SFRSYM    DATA     BIT       P20
      000000F1H   SFRSYM    DATA     BYTE      CANICR
      00000087H   SFRSYM    DATA     BYTE      PCON
      000000BCH   SFRSYM    DATA     BYTE      ADC_CONTR
      000000E7H   SFRSYM    DATA     BYTE      CMPCR2
      000000E6H   SFRSYM    DATA     BYTE      CMPCR1
      000000B8H   SFRSYM    DATA     BYTE      IP
      0000008FH   SFRSYM    DATA     BYTE      INTCLKO
      000000EEH   SFRSYM    DATA     BYTE      IP3H
      000000B6H   SFRSYM    DATA     BYTE      IP2H
      000000A8H   SFRSYM    DATA     BYTE      IE
      000000BBH   SFRSYM    DATA     BYTE      P_SW3
      000000BAH   SFRSYM    DATA     BYTE      P_SW2
      000000A2H   SFRSYM    DATA     BYTE      P_SW1
      000000CEH   SFRSYM    DATA     BYTE      SPCTL
      000000F8H   SFRSYM    DATA     BYTE      P7
      000000E8H   SFRSYM    DATA     BYTE      P6
      000000C8H   SFRSYM    DATA     BYTE      P5
      000000C0H   SFRSYM    DATA     BYTE      P4
      000000B0H   SFRSYM    DATA     BYTE      P3
      000000A0H   SFRSYM    DATA     BYTE      P2
      00000090H   SFRSYM    DATA     BYTE      P1
      00000080H   SFRSYM    DATA     BYTE      P0

      00FF741CH   BLOCK     CODE     ---       LVL=0
      00000A54H   SYMBOL    EDATA    BYTE      dat
      00FF7420H   BLOCK     CODE     NEAR LAB  LVL=1
      000106BFH   SYMBOL    XDATA    BYTE      i
      ---         BLOCKEND  ---      ---       LVL=1
      00FF741CH   LINE      CODE     ---       #60
      00FF7420H   LINE      CODE     ---       #61
      00FF7420H   LINE      CODE     ---       #62
      00FF7426H   LINE      CODE     ---       #64
      00FF7429H   LINE      CODE     ---       #65
      00FF742CH   LINE      CODE     ---       #66
      00FF742FH   LINE      CODE     ---       #68
      00FF7431H   LINE      CODE     ---       #70
      00FF743DH   LINE      CODE     ---       #71
      00FF7440H   LINE      CODE     ---       #72
      00FF7443H   LINE      CODE     ---       #74
      00FF7446H   LINE      CODE     ---       #75
      00FF7450H   LINE      CODE     ---       #76
      00FF7463H   LINE      CODE     ---       #77
L251 LINKER/LOCATER V4.66.93.0                                                        04/15/2024  21:19:48  PAGE 53


      00FF7466H   LINE      CODE     ---       #78
      ---         BLOCKEND  ---      ---       LVL=0

      00FF7467H   BLOCK     CODE     ---       LVL=0
      00000A55H   SYMBOL    EDATA    BYTE      dat
      00FF746BH   BLOCK     CODE     NEAR LAB  LVL=1
      000106C0H   SYMBOL    XDATA    BYTE      i
      ---         BLOCKEND  ---      ---       LVL=1
      00FF7467H   LINE      CODE     ---       #87
      00FF746BH   LINE      CODE     ---       #88
      00FF746BH   LINE      CODE     ---       #89
      00FF7471H   LINE      CODE     ---       #91
      00FF7474H   LINE      CODE     ---       #92
      00FF7477H   LINE      CODE     ---       #93
      00FF747AH   LINE      CODE     ---       #94
      00FF747CH   LINE      CODE     ---       #96
      00FF7488H   LINE      CODE     ---       #97
      00FF748BH   LINE      CODE     ---       #98
      00FF748EH   LINE      CODE     ---       #100
      00FF7491H   LINE      CODE     ---       #101
      00FF749BH   LINE      CODE     ---       #102
      00FF74AEH   LINE      CODE     ---       #103
      00FF74B1H   LINE      CODE     ---       #104
      ---         BLOCKEND  ---      ---       LVL=0

      00FF718CH   BLOCK     CODE     ---       LVL=0
      00000A1CH   SYMBOL    EDATA    WORD      dat
      00FF7190H   BLOCK     CODE     NEAR LAB  LVL=1
      000106C1H   SYMBOL    XDATA    BYTE      i
      ---         BLOCKEND  ---      ---       LVL=1
      00FF718CH   LINE      CODE     ---       #113
      00FF7190H   LINE      CODE     ---       #114
      00FF7190H   LINE      CODE     ---       #115
      00FF7196H   LINE      CODE     ---       #117
      00FF7199H   LINE      CODE     ---       #118
      00FF719CH   LINE      CODE     ---       #119
      00FF719FH   LINE      CODE     ---       #121
      00FF71A1H   LINE      CODE     ---       #123
      00FF71B6H   LINE      CODE     ---       #124
      00FF71B9H   LINE      CODE     ---       #125
      00FF71BCH   LINE      CODE     ---       #127
      00FF71BFH   LINE      CODE     ---       #128
      00FF71C9H   LINE      CODE     ---       #129
      00FF71DCH   LINE      CODE     ---       #131
      00FF71DFH   LINE      CODE     ---       #133
      ---         BLOCKEND  ---      ---       LVL=0

      00FF6E49H   BLOCK     CODE     ---       LVL=0
      000007DBH   SYMBOL    EDATA    WORD      x_start
      000007DDH   SYMBOL    EDATA    WORD      y_start
      000007DFH   SYMBOL    EDATA    WORD      x_end
      000007E1H   SYMBOL    EDATA    WORD      y_end
      00FF6E49H   LINE      CODE     ---       #145
      00FF6E59H   LINE      CODE     ---       #163
      00FF6E5EH   LINE      CODE     ---       #164
      00FF6E62H   LINE      CODE     ---       #165
      00FF6E6FH   LINE      CODE     ---       #166
      00FF6E73H   LINE      CODE     ---       #167
      00FF6E80H   LINE      CODE     ---       #169
      00FF6E85H   LINE      CODE     ---       #170
      00FF6E89H   LINE      CODE     ---       #171
      00FF6E96H   LINE      CODE     ---       #172
      00FF6E9AH   LINE      CODE     ---       #173
      00FF6EA7H   LINE      CODE     ---       #177
      00FF6EACH   LINE      CODE     ---       #178
L251 LINKER/LOCATER V4.66.93.0                                                        04/15/2024  21:19:48  PAGE 54


      ---         BLOCKEND  ---      ---       LVL=0
      000009EDH   SYMBOL    EDATA    INT       color
      000106C2H   SYMBOL    XDATA    BYTE      i
      000009EFH   SYMBOL    EDATA    BYTE      j
      000008B8H   SYMBOL    EDATA    WORD      x
      000008BAH   SYMBOL    EDATA    WORD      y
      000008BCH   SYMBOL    EDATA    WORD      color
      000008BEH   SYMBOL    EDATA    WORD      x
      000008C0H   SYMBOL    EDATA    WORD      y
      000008C2H   SYMBOL    EDATA    CHAR      dat
      00010689H   SYMBOL    XDATA    BYTE      i
      000008C3H   SYMBOL    EDATA    BYTE      j
      0001068AH   SYMBOL    XDATA    BYTE      temp
      000007E3H   SYMBOL    EDATA    WORD      x
      000007E5H   SYMBOL    EDATA    WORD      y
      000007E7H   SYMBOL    EDATA    ---       dat
      0001068BH   SYMBOL    XDATA    WORD      j
      00000959H   SYMBOL    EDATA    WORD      x
      0000095BH   SYMBOL    EDATA    WORD      y
      0000095DH   SYMBOL    EDATA    CHAR      dat
      0001062FH   SYMBOL    XDATA    ---       a
      00010632H   SYMBOL    XDATA    BYTE      i
      0000095EH   SYMBOL    EDATA    WORD      x
      00000960H   SYMBOL    EDATA    WORD      y
      00000962H   SYMBOL    EDATA    BYTE      dat
      00010633H   SYMBOL    XDATA    ---       a
      00010636H   SYMBOL    XDATA    BYTE      i
      000008C4H   SYMBOL    EDATA    WORD      x
      000008C6H   SYMBOL    EDATA    WORD      y
      000008C8H   SYMBOL    EDATA    INT       dat
      000105D6H   SYMBOL    XDATA    ---       a
      000105DBH   SYMBOL    XDATA    BYTE      i
      000008CAH   SYMBOL    EDATA    WORD      x
      000008CCH   SYMBOL    EDATA    WORD      y
      000008CEH   SYMBOL    EDATA    WORD      dat
      000105DCH   SYMBOL    XDATA    ---       a
      000105E1H   SYMBOL    XDATA    BYTE      i
      0000073BH   SYMBOL    EDATA    WORD      x
      0000073DH   SYMBOL    EDATA    WORD      y
      0000073FH   SYMBOL    EDATA    LONG      dat
      00000743H   SYMBOL    EDATA    BYTE      num
      00010508H   SYMBOL    XDATA    ---       buff
      0001052AH   SYMBOL    XDATA    BYTE      length
      0000064BH   SYMBOL    EDATA    WORD      x
      0000064DH   SYMBOL    EDATA    WORD      y
      0000064FH   SYMBOL    EDATA    FLOAT     dat
      00000653H   SYMBOL    EDATA    BYTE      num
      00000654H   SYMBOL    EDATA    BYTE      pointnum
      00010478H   SYMBOL    XDATA    BYTE      length
      00010479H   SYMBOL    XDATA    ---       buff
      0001049BH   SYMBOL    XDATA    CHAR      start
      00000655H   SYMBOL    EDATA    CHAR      end
      00000656H   SYMBOL    EDATA    CHAR      point

      00FF7AF6H   BLOCK     CODE     ---       LVL=0
      00000A56H   SYMBOL    EDATA    BYTE      dat
      00FF7AF6H   LINE      CODE     ---       #607
      00FF7AFAH   LINE      CODE     ---       #610
      00FF7AFDH   LINE      CODE     ---       #611
      00FF7B00H   LINE      CODE     ---       #612
      00FF7B07H   LINE      CODE     ---       #613
      00FF7B0AH   LINE      CODE     ---       #614
      ---         BLOCKEND  ---      ---       LVL=0

      00FF7B0BH   BLOCK     CODE     ---       LVL=0
L251 LINKER/LOCATER V4.66.93.0                                                        04/15/2024  21:19:48  PAGE 55


      00000A57H   SYMBOL    EDATA    BYTE      dat
      00FF7B0BH   LINE      CODE     ---       #623
      00FF7B0FH   LINE      CODE     ---       #625
      00FF7B12H   LINE      CODE     ---       #626
      00FF7B15H   LINE      CODE     ---       #627
      00FF7B1CH   LINE      CODE     ---       #628
      00FF7B1FH   LINE      CODE     ---       #629
      ---         BLOCKEND  ---      ---       LVL=0

      00FF77FAH   BLOCK     CODE     ---       LVL=0
      00000A1EH   SYMBOL    EDATA    WORD      dat
      00FF77FEH   BLOCK     CODE     NEAR LAB  LVL=1
      0001068DH   SYMBOL    XDATA    ---       dat1
      ---         BLOCKEND  ---      ---       LVL=1
      00FF77FAH   LINE      CODE     ---       #638
      00FF77FEH   LINE      CODE     ---       #639
      00FF77FEH   LINE      CODE     ---       #642
      00FF7806H   LINE      CODE     ---       #643
      00FF780EH   LINE      CODE     ---       #645
      00FF7811H   LINE      CODE     ---       #646
      00FF7814H   LINE      CODE     ---       #647
      00FF781BH   LINE      CODE     ---       #648
      00FF7822H   LINE      CODE     ---       #649
      00FF7825H   LINE      CODE     ---       #651
      ---         BLOCKEND  ---      ---       LVL=0

      00FF6EADH   BLOCK     CODE     ---       LVL=0
      000007EBH   SYMBOL    EDATA    WORD      x_start
      000007EDH   SYMBOL    EDATA    WORD      y_start
      000007EFH   SYMBOL    EDATA    WORD      x_end
      000007F1H   SYMBOL    EDATA    WORD      y_end
      00FF6EADH   LINE      CODE     ---       #663
      00FF6EBDH   LINE      CODE     ---       #681
      00FF6EC2H   LINE      CODE     ---       #682
      00FF6EC6H   LINE      CODE     ---       #683
      00FF6ED3H   LINE      CODE     ---       #684
      00FF6ED7H   LINE      CODE     ---       #685
      00FF6EE4H   LINE      CODE     ---       #687
      00FF6EE9H   LINE      CODE     ---       #688
      00FF6EEDH   LINE      CODE     ---       #689
      00FF6EFAH   LINE      CODE     ---       #690
      00FF6EFEH   LINE      CODE     ---       #691
      00FF6F0BH   LINE      CODE     ---       #695
      00FF6F10H   LINE      CODE     ---       #696
      ---         BLOCKEND  ---      ---       LVL=0
      000009F0H   SYMBOL    EDATA    INT       color
      000106C3H   SYMBOL    XDATA    BYTE      i
      000009F2H   SYMBOL    EDATA    BYTE      j
      000008D0H   SYMBOL    EDATA    WORD      x
      000008D2H   SYMBOL    EDATA    WORD      y
      000008D4H   SYMBOL    EDATA    WORD      color
      000008D6H   SYMBOL    EDATA    WORD      x
      000008D8H   SYMBOL    EDATA    WORD      y
      000008DAH   SYMBOL    EDATA    CHAR      dat
      0001068FH   SYMBOL    XDATA    BYTE      i
      000008DBH   SYMBOL    EDATA    BYTE      j
      00010690H   SYMBOL    XDATA    BYTE      temp
      000007F3H   SYMBOL    EDATA    WORD      x
      000007F5H   SYMBOL    EDATA    WORD      y
      000007F7H   SYMBOL    EDATA    ---       dat
      00010691H   SYMBOL    XDATA    WORD      j
      00000963H   SYMBOL    EDATA    WORD      x
      00000965H   SYMBOL    EDATA    WORD      y
      00000967H   SYMBOL    EDATA    CHAR      dat
      00010637H   SYMBOL    XDATA    ---       a
L251 LINKER/LOCATER V4.66.93.0                                                        04/15/2024  21:19:48  PAGE 56


      0001063AH   SYMBOL    XDATA    BYTE      i
      00000968H   SYMBOL    EDATA    WORD      x
      0000096AH   SYMBOL    EDATA    WORD      y
      0000096CH   SYMBOL    EDATA    BYTE      dat
      0001063BH   SYMBOL    XDATA    ---       a
      0001063EH   SYMBOL    XDATA    BYTE      i
      000008DCH   SYMBOL    EDATA    WORD      x
      000008DEH   SYMBOL    EDATA    WORD      y
      000008E0H   SYMBOL    EDATA    INT       dat
      000105E2H   SYMBOL    XDATA    ---       a
      000105E7H   SYMBOL    XDATA    BYTE      i
      000008E2H   SYMBOL    EDATA    WORD      x
      000008E4H   SYMBOL    EDATA    WORD      y
      000008E6H   SYMBOL    EDATA    WORD      dat
      000105E8H   SYMBOL    XDATA    ---       a
      000105EDH   SYMBOL    XDATA    BYTE      i
      00000744H   SYMBOL    EDATA    WORD      x
      00000746H   SYMBOL    EDATA    WORD      y
      00000748H   SYMBOL    EDATA    LONG      dat
      0000074CH   SYMBOL    EDATA    BYTE      num
      0001052BH   SYMBOL    XDATA    ---       buff
      0001054DH   SYMBOL    XDATA    BYTE      length
      00000657H   SYMBOL    EDATA    WORD      x
      00000659H   SYMBOL    EDATA    WORD      y
      0000065BH   SYMBOL    EDATA    FLOAT     dat
      0000065FH   SYMBOL    EDATA    BYTE      num
      00000660H   SYMBOL    EDATA    BYTE      pointnum
      0001049CH   SYMBOL    XDATA    BYTE      length
      0001049DH   SYMBOL    XDATA    ---       buff
      000104BFH   SYMBOL    XDATA    CHAR      start
      00000661H   SYMBOL    EDATA    CHAR      end
      00000662H   SYMBOL    EDATA    CHAR      point
      00000663H   SYMBOL    EDATA    ---       p
      00000667H   SYMBOL    EDATA    INT       i
      00000669H   SYMBOL    EDATA    INT       j
      0000066BH   SYMBOL    EDATA    INT       k
      0000066DH   SYMBOL    EDATA    BYTE      picH
      0000066EH   SYMBOL    EDATA    BYTE      picL

      ---         MODULE    ---      ---       SEEKFREE_BLUETOOTH_CH9141
      000000D0H   SFRSYM    DATA     BYTE      PSW
      0000009DH   SFRSYM    DATA     BYTE      IRCBAND
      00000097H   SFRSYM    DATA     BYTE      AUXR2
      000000EFH   SFRSYM    DATA     BYTE      AUXINTIF
      000000FDH   SFRSYM    DATA     BYTE      S4CON
      000000ACH   SFRSYM    DATA     BYTE      S3CON
      0000009AH   SFRSYM    DATA     BYTE      S2CON
      000000FEH   SFRSYM    DATA     BYTE      S4BUF
      000000B7H   SFRSYM    DATA     BYTE      IPH
      000000CDH   SFRSYM    DATA     BYTE      SPSTAT
      000000DDH   SFRSYM    DATA     BYTE      T4T3M
      000000C1H   SFRSYM    DATA     BYTE      WDT_CONTR
      000000DFH   SFRSYM    DATA     BYTE      IP3
      000000F4H   SFRSYM    DATA     BYTE      USBCON
      000000B5H   SFRSYM    DATA     BYTE      IP2
      000000FFH   SFRSYM    DATA     BYTE      RSTCFG
      000000F9H   SFRSYM    DATA     BYTE      LINICR
      0000008EH   SFRSYM    DATA     BYTE      AUXR
      000000AFH   SFRSYM    DATA     BYTE      IE2
      00000080H.7 SFRSYM    DATA     BIT       P07
      00000088H   SFRSYM    DATA     BYTE      TCON
      00000098H   SFRSYM    DATA     BYTE      SCON
      000000F1H   SFRSYM    DATA     BYTE      CANICR
      00000087H   SFRSYM    DATA     BYTE      PCON
      000000BCH   SFRSYM    DATA     BYTE      ADC_CONTR
L251 LINKER/LOCATER V4.66.93.0                                                        04/15/2024  21:19:48  PAGE 57


      000000E7H   SFRSYM    DATA     BYTE      CMPCR2
      000000E6H   SFRSYM    DATA     BYTE      CMPCR1
      000000B8H   SFRSYM    DATA     BYTE      IP
      0000008FH   SFRSYM    DATA     BYTE      INTCLKO
      000000EEH   SFRSYM    DATA     BYTE      IP3H
      000000B6H   SFRSYM    DATA     BYTE      IP2H
      000000A8H   SFRSYM    DATA     BYTE      IE
      000000BBH   SFRSYM    DATA     BYTE      P_SW3
      000000BAH   SFRSYM    DATA     BYTE      P_SW2
      000000A2H   SFRSYM    DATA     BYTE      P_SW1
      000000CEH   SFRSYM    DATA     BYTE      SPCTL
      000000F8H   SFRSYM    DATA     BYTE      P7
      000000E8H   SFRSYM    DATA     BYTE      P6
      000000C8H   SFRSYM    DATA     BYTE      P5
      000000C0H   SFRSYM    DATA     BYTE      P4
      000000B0H   SFRSYM    DATA     BYTE      P3
      000000A0H   SFRSYM    DATA     BYTE      P2
      00000090H   SFRSYM    DATA     BYTE      P1
      00000080H   SFRSYM    DATA     BYTE      P0
      00010370H   SYMBOL    XDATA    ---       bluetooth_ch9141_buffer
      000103B0H   SYMBOL    XDATA    BYTE      bluetooth_ch9141_data
      000103B1H   SYMBOL    XDATA    ---       bluetooth_ch9141_fifo
      000007FBH   SYMBOL    EDATA    ---       buff
      000007FFH   SYMBOL    EDATA    DWORD     len
      00010693H   SYMBOL    XDATA    WORD      time_count
      00000803H   SYMBOL    EDATA    ---       buff
      00000807H   SYMBOL    EDATA    DWORD     len
      0001063FH   SYMBOL    XDATA    DWORD     data_len

      ---         MODULE    ---      ---       SEEKFREE_DL1A
      000009F3H   PUBLIC    EDATA    WORD      dl1a_distance_mm
      000009F5H   PUBLIC    EDATA    BYTE      dl1a_finsh_flag
      000000D0H   SFRSYM    DATA     BYTE      PSW
      0000009DH   SFRSYM    DATA     BYTE      IRCBAND
      00000097H   SFRSYM    DATA     BYTE      AUXR2
      000000EFH   SFRSYM    DATA     BYTE      AUXINTIF
      000000FDH   SFRSYM    DATA     BYTE      S4CON
      000000ACH   SFRSYM    DATA     BYTE      S3CON
      0000009AH   SFRSYM    DATA     BYTE      S2CON
      000000B7H   SFRSYM    DATA     BYTE      IPH
      000000CDH   SFRSYM    DATA     BYTE      SPSTAT
      000000DDH   SFRSYM    DATA     BYTE      T4T3M
      000000C1H   SFRSYM    DATA     BYTE      WDT_CONTR
      000000DFH   SFRSYM    DATA     BYTE      IP3
      000000F4H   SFRSYM    DATA     BYTE      USBCON
      000000B5H   SFRSYM    DATA     BYTE      IP2
      000000FFH   SFRSYM    DATA     BYTE      RSTCFG
      000000F9H   SFRSYM    DATA     BYTE      LINICR
      0000008EH   SFRSYM    DATA     BYTE      AUXR
      000000AFH   SFRSYM    DATA     BYTE      IE2
      000000C0H.7 SFRSYM    DATA     BIT       P47
      000000E8H.5 SFRSYM    DATA     BIT       P65
      000000E8H.3 SFRSYM    DATA     BIT       P63
      00000088H   SFRSYM    DATA     BYTE      TCON
      00000098H   SFRSYM    DATA     BYTE      SCON
      000000F1H   SFRSYM    DATA     BYTE      CANICR
      00000087H   SFRSYM    DATA     BYTE      PCON
      000000BCH   SFRSYM    DATA     BYTE      ADC_CONTR
      000000E7H   SFRSYM    DATA     BYTE      CMPCR2
      000000E6H   SFRSYM    DATA     BYTE      CMPCR1
      000000B8H   SFRSYM    DATA     BYTE      IP
      0000008FH   SFRSYM    DATA     BYTE      INTCLKO
      000000EEH   SFRSYM    DATA     BYTE      IP3H
      000000B6H   SFRSYM    DATA     BYTE      IP2H
      000000A8H   SFRSYM    DATA     BYTE      IE
L251 LINKER/LOCATER V4.66.93.0                                                        04/15/2024  21:19:48  PAGE 58


      000000BBH   SFRSYM    DATA     BYTE      P_SW3
      000000BAH   SFRSYM    DATA     BYTE      P_SW2
      000000A2H   SFRSYM    DATA     BYTE      P_SW1
      000000CEH   SFRSYM    DATA     BYTE      SPCTL
      000000F8H   SFRSYM    DATA     BYTE      P7
      000000E8H   SFRSYM    DATA     BYTE      P6
      000000C8H   SFRSYM    DATA     BYTE      P5
      000000C0H   SFRSYM    DATA     BYTE      P4
      000000B0H   SFRSYM    DATA     BYTE      P3
      000000A0H   SFRSYM    DATA     BYTE      P2
      00000090H   SFRSYM    DATA     BYTE      P1
      00000080H   SFRSYM    DATA     BYTE      P0
      00FF787CH   SYMBOL    CODE     ---       dl1a_simiic_sendack
      00FF6F11H   SYMBOL    CODE     ---       dl1a_timeout_microseconds_to_mclks
      00FF6D1AH   SYMBOL    CODE     ---       dl1a_timeout_mclks_to_microseconds
      00FF6D7FH   SYMBOL    CODE     ---       dl1a_read_ch
      00FF7852H   SYMBOL    CODE     ---       dl1a_decode_timeout
      00FF7627H   SYMBOL    CODE     ---       dl1a_send_ch
      00FF66A4H   SYMBOL    CODE     ---       dl1a_encode_timeout
      00FF674FH   SYMBOL    CODE     ---       dl1a_get_sequence_step_enables
      00FF79D2H   SYMBOL    CODE     ---       dl1a_sccb_waitack
      00FF0003H   SYMBOL    CODE     ---       dl1a_simiic_delay
      00FF5C7CH   SYMBOL    CODE     ---       dl1a_get_sequence_step_timeouts
      00FF7B73H   SYMBOL    CODE     ---       dl1a_simiic_start
      00FF6CB2H   SYMBOL    CODE     ---       dl1a_simiic_read_regs
      00FF0046H   SYMBOL    CODE     ---       dl1a_simiic_write_dats
      00FF7ACAH   SYMBOL    CODE     ---       dl1a_simiic_stop
      00FF6917H   SYMBOL    CODE     ---       dl1a_get_vcsel_pulse_period

      00FF0003H   BLOCK     CODE     ---       LVL=0
      00010695H   SYMBOL    XDATA    WORD      j
      00FF0003H   LINE      CODE     ---       #59
      00FF0003H   LINE      CODE     ---       #60
      00FF0003H   LINE      CODE     ---       #61
      00FF000BH   LINE      CODE     ---       #62
      00FF0022H   LINE      CODE     ---       #63
      ---         BLOCKEND  ---      ---       LVL=0

      00FF7B73H   BLOCK     CODE     ---       LVL=0
      00FF7B73H   LINE      CODE     ---       #66
      00FF7B73H   LINE      CODE     ---       #68
      00FF7B76H   LINE      CODE     ---       #69
      00FF7B79H   LINE      CODE     ---       #70
      00FF7B7CH   LINE      CODE     ---       #71
      00FF7B7FH   LINE      CODE     ---       #72
      00FF7B82H   LINE      CODE     ---       #73
      00FF7B85H   LINE      CODE     ---       #74
      ---         BLOCKEND  ---      ---       LVL=0

      00FF7ACAH   BLOCK     CODE     ---       LVL=0
      00FF7ACAH   LINE      CODE     ---       #77
      00FF7ACAH   LINE      CODE     ---       #79
      00FF7ACDH   LINE      CODE     ---       #80
      00FF7AD0H   LINE      CODE     ---       #81
      00FF7AD3H   LINE      CODE     ---       #82
      00FF7AD6H   LINE      CODE     ---       #83
      00FF7AD9H   LINE      CODE     ---       #84
      00FF7ADCH   LINE      CODE     ---       #85
      00FF7ADFH   LINE      CODE     ---       #86
      ---         BLOCKEND  ---      ---       LVL=0

      00FF787CH   BLOCK     CODE     ---       LVL=0
      00000A58H   SYMBOL    EDATA    BYTE      ack_dat
      00FF787CH   LINE      CODE     ---       #90
      00FF7880H   LINE      CODE     ---       #92
L251 LINKER/LOCATER V4.66.93.0                                                        04/15/2024  21:19:48  PAGE 59


      00FF7883H   LINE      CODE     ---       #93
      00FF7886H   LINE      CODE     ---       #94
      00FF7894H   LINE      CODE     ---       #95
      00FF7897H   LINE      CODE     ---       #96
      00FF789AH   LINE      CODE     ---       #97
      00FF789DH   LINE      CODE     ---       #98
      00FF78A0H   LINE      CODE     ---       #99
      00FF78A3H   LINE      CODE     ---       #100
      ---         BLOCKEND  ---      ---       LVL=0

      00FF79D2H   BLOCK     CODE     ---       LVL=0
      00FF79D2H   LINE      CODE     ---       #103
      00FF79D2H   LINE      CODE     ---       #105
      00FF79D5H   LINE      CODE     ---       #106
      00FF79D8H   LINE      CODE     ---       #107
      00FF79DBH   LINE      CODE     ---       #108
      00FF79DEH   LINE      CODE     ---       #109
      00FF79E1H   LINE      CODE     ---       #111
      00FF79E4H   LINE      CODE     ---       #112
      00FF79E8H   LINE      CODE     ---       #113
      00FF79E8H   LINE      CODE     ---       #114
      00FF79EBH   LINE      CODE     ---       #115
      00FF79EEH   LINE      CODE     ---       #116
      00FF79F2H   LINE      CODE     ---       #117
      ---         BLOCKEND  ---      ---       LVL=0

      00FF7627H   BLOCK     CODE     ---       LVL=0
      00000A59H   SYMBOL    EDATA    BYTE      c
      00FF762BH   BLOCK     CODE     NEAR LAB  LVL=1
      000106C4H   SYMBOL    XDATA    BYTE      i
      ---         BLOCKEND  ---      ---       LVL=1
      00FF7627H   LINE      CODE     ---       #123
      00FF762BH   LINE      CODE     ---       #124
      00FF762BH   LINE      CODE     ---       #125
      00FF7631H   LINE      CODE     ---       #126
      00FF7633H   LINE      CODE     ---       #128
      00FF763FH   LINE      CODE     ---       #129
      00FF7642H   LINE      CODE     ---       #130
      00FF764CH   LINE      CODE     ---       #131
      00FF764FH   LINE      CODE     ---       #132
      00FF7652H   LINE      CODE     ---       #133
      00FF7655H   LINE      CODE     ---       #134
      00FF7658H   LINE      CODE     ---       #135
      00FF766BH   LINE      CODE     ---       #136
      00FF766EH   LINE      CODE     ---       #137
      ---         BLOCKEND  ---      ---       LVL=0

      00FF6D7FH   BLOCK     CODE     ---       LVL=0
      00000A5AH   SYMBOL    EDATA    BYTE      ack_x
      00FF6D83H   BLOCK     CODE     NEAR LAB  LVL=1
      00010697H   SYMBOL    XDATA    BYTE      i
      00010698H   SYMBOL    XDATA    BYTE      c
      ---         BLOCKEND  ---      ---       LVL=1
      00FF6D7FH   LINE      CODE     ---       #143
      00FF6D83H   LINE      CODE     ---       #144
      00FF6D83H   LINE      CODE     ---       #147
      00FF6D88H   LINE      CODE     ---       #148
      00FF6D8BH   LINE      CODE     ---       #149
      00FF6D8EH   LINE      CODE     ---       #150
      00FF6D91H   LINE      CODE     ---       #151
      00FF6D98H   LINE      CODE     ---       #153
      00FF6D9BH   LINE      CODE     ---       #154
      00FF6D9EH   LINE      CODE     ---       #155
      00FF6DA1H   LINE      CODE     ---       #156
      00FF6DA4H   LINE      CODE     ---       #157
L251 LINKER/LOCATER V4.66.93.0                                                        04/15/2024  21:19:48  PAGE 60


      00FF6DA7H   LINE      CODE     ---       #158
      00FF6DAEH   LINE      CODE     ---       #159
      00FF6DB1H   LINE      CODE     ---       #161
      00FF6DBBH   LINE      CODE     ---       #162
      00FF6DD2H   LINE      CODE     ---       #164
      00FF6DD5H   LINE      CODE     ---       #165
      00FF6DD8H   LINE      CODE     ---       #166
      00FF6DDFH   LINE      CODE     ---       #167
      00FF6DE3H   LINE      CODE     ---       #168
      ---         BLOCKEND  ---      ---       LVL=0

      00FF0046H   BLOCK     CODE     ---       LVL=0
      0000074DH   SYMBOL    EDATA    BYTE      dev_add
      0000074EH   SYMBOL    EDATA    ---       dat
      00000752H   SYMBOL    EDATA    DWORD     len
      00FF0046H   LINE      CODE     ---       #180
      00FF0052H   LINE      CODE     ---       #182
      00FF0055H   LINE      CODE     ---       #183
      00FF005EH   LINE      CODE     ---       #184
      00FF0060H   LINE      CODE     ---       #186
      00FF0070H   LINE      CODE     ---       #187
      00FF0084H   LINE      CODE     ---       #188
      00FF0087H   LINE      CODE     ---       #189
      ---         BLOCKEND  ---      ---       LVL=0
      000009F6H   SYMBOL    EDATA    BYTE      dev_add
      000009F7H   SYMBOL    EDATA    BYTE      reg
      000009F8H   SYMBOL    EDATA    BYTE      dat
      00000A20H   SYMBOL    EDATA    BYTE      dev_add
      00000A21H   SYMBOL    EDATA    BYTE      reg
      000106C5H   SYMBOL    XDATA    BYTE      dat

      00FF6CB2H   BLOCK     CODE     ---       LVL=0
      000006FFH   SYMBOL    EDATA    BYTE      dev_add
      00000700H   SYMBOL    EDATA    BYTE      reg
      00000701H   SYMBOL    EDATA    ---       dat_add
      00000705H   SYMBOL    EDATA    DWORD     num
      00FF6CB2H   LINE      CODE     ---       #243
      00FF6CBEH   LINE      CODE     ---       #245
      00FF6CC1H   LINE      CODE     ---       #246
      00FF6CCAH   LINE      CODE     ---       #247
      00FF6CD1H   LINE      CODE     ---       #248
      00FF6CD4H   LINE      CODE     ---       #249
      00FF6CE1H   LINE      CODE     ---       #250
      00FF6CE3H   LINE      CODE     ---       #252
      00FF6CEFH   LINE      CODE     ---       #253
      00FF6CF9H   LINE      CODE     ---       #254
      00FF6D0BH   LINE      CODE     ---       #255
      00FF6D16H   LINE      CODE     ---       #256
      00FF6D19H   LINE      CODE     ---       #257
      ---         BLOCKEND  ---      ---       LVL=0
      00000709H   SYMBOL    EDATA    BYTE      dev_add
      0000070AH   SYMBOL    EDATA    BYTE      reg
      0000070BH   SYMBOL    EDATA    ---       dat_add
      0000070FH   SYMBOL    EDATA    DWORD     num
      00000713H   SYMBOL    EDATA    ---       index
      00000717H   SYMBOL    EDATA    ---       type_is_aperture
      00010699H   SYMBOL    XDATA    BYTE      tmp
      0001069AH   SYMBOL    XDATA    BYTE      return_state
      0000071BH   SYMBOL    EDATA    WORD      loop_count

      00FF6D1AH   BLOCK     CODE     ---       LVL=0
      000009F9H   SYMBOL    EDATA    WORD      timeout_period_mclks
      000009FBH   SYMBOL    EDATA    BYTE      vcsel_period_pclks
      00FF6D22H   BLOCK     CODE     NEAR LAB  LVL=1
      00010643H   SYMBOL    XDATA    DWORD     macro_period_ns
L251 LINKER/LOCATER V4.66.93.0                                                        04/15/2024  21:19:48  PAGE 61


      ---         BLOCKEND  ---      ---       LVL=1
      00FF6D1AH   LINE      CODE     ---       #374
      00FF6D22H   LINE      CODE     ---       #375
      00FF6D22H   LINE      CODE     ---       #376
      00FF6D4FH   LINE      CODE     ---       #377
      00FF6D7EH   LINE      CODE     ---       #378
      ---         BLOCKEND  ---      ---       LVL=0

      00FF6F11H   BLOCK     CODE     ---       LVL=0
      0000096DH   SYMBOL    EDATA    DWORD     timeout_period_us
      00000971H   SYMBOL    EDATA    BYTE      vcsel_period_pclks
      00FF6F19H   BLOCK     CODE     NEAR LAB  LVL=1
      00010647H   SYMBOL    XDATA    DWORD     macro_period_ns
      ---         BLOCKEND  ---      ---       LVL=1
      00FF6F11H   LINE      CODE     ---       #388
      00FF6F19H   LINE      CODE     ---       #389
      00FF6F19H   LINE      CODE     ---       #390
      00FF6F46H   LINE      CODE     ---       #391
      00FF6F73H   LINE      CODE     ---       #392
      ---         BLOCKEND  ---      ---       LVL=0

      00FF7852H   BLOCK     CODE     ---       LVL=0
      00000A22H   SYMBOL    EDATA    WORD      reg_val
      00FF7852H   LINE      CODE     ---       #401
      00FF7856H   LINE      CODE     ---       #404
      00FF787BH   LINE      CODE     ---       #406
      ---         BLOCKEND  ---      ---       LVL=0

      00FF66A4H   BLOCK     CODE     ---       LVL=0
      00000A24H   SYMBOL    EDATA    WORD      timeout_mclks
      00FF66A8H   BLOCK     CODE     NEAR LAB  LVL=1
      000105B9H   SYMBOL    XDATA    DWORD     ls_byte
      000105BDH   SYMBOL    XDATA    WORD      ms_byte
      000105BFH   SYMBOL    XDATA    WORD      return_data
      ---         BLOCKEND  ---      ---       LVL=1
      00FF66A4H   LINE      CODE     ---       #415
      00FF66A8H   LINE      CODE     ---       #416
      00FF66A8H   LINE      CODE     ---       #417
      00FF66B4H   LINE      CODE     ---       #418
      00FF66BCH   LINE      CODE     ---       #419
      00FF66C4H   LINE      CODE     ---       #420
      00FF66CEH   LINE      CODE     ---       #423
      00FF66E4H   LINE      CODE     ---       #424
      00FF66E6H   LINE      CODE     ---       #426
      00FF6700H   LINE      CODE     ---       #427
      00FF670FH   LINE      CODE     ---       #428
      00FF6726H   LINE      CODE     ---       #429
      00FF6748H   LINE      CODE     ---       #430
      00FF6748H   LINE      CODE     ---       #431
      00FF674EH   LINE      CODE     ---       #432
      ---         BLOCKEND  ---      ---       LVL=0

      00FF674FH   BLOCK     CODE     ---       LVL=0
      000009C2H   SYMBOL    EDATA    ---       enables
      00FF6753H   BLOCK     CODE     NEAR LAB  LVL=1
      000106C6H   SYMBOL    XDATA    BYTE      sequence_config
      ---         BLOCKEND  ---      ---       LVL=1
      00FF674FH   LINE      CODE     ---       #441
      00FF6753H   LINE      CODE     ---       #442
      00FF6753H   LINE      CODE     ---       #443
      00FF6758H   LINE      CODE     ---       #444
      00FF6770H   LINE      CODE     ---       #445
      00FF6786H   LINE      CODE     ---       #446
      00FF679FH   LINE      CODE     ---       #447
      00FF67B7H   LINE      CODE     ---       #448
L251 LINKER/LOCATER V4.66.93.0                                                        04/15/2024  21:19:48  PAGE 62


      00FF67D2H   LINE      CODE     ---       #449
      00FF67EAH   LINE      CODE     ---       #450
      ---         BLOCKEND  ---      ---       LVL=0

      00FF6917H   BLOCK     CODE     ---       LVL=0
      00000A26H   SYMBOL    EDATA    INT       type
      00FF691BH   BLOCK     CODE     NEAR LAB  LVL=1
      000106C7H   SYMBOL    XDATA    BYTE      data_buffer
      ---         BLOCKEND  ---      ---       LVL=1
      00FF6917H   LINE      CODE     ---       #459
      00FF691BH   LINE      CODE     ---       #460
      00FF691BH   LINE      CODE     ---       #461
      00FF6920H   LINE      CODE     ---       #462
      00FF692AH   LINE      CODE     ---       #464
      00FF6942H   LINE      CODE     ---       #465
      00FF6954H   LINE      CODE     ---       #466
      00FF6956H   LINE      CODE     ---       #467
      00FF6962H   LINE      CODE     ---       #469
      00FF697AH   LINE      CODE     ---       #470
      00FF698CH   LINE      CODE     ---       #471
      00FF698EH   LINE      CODE     ---       #474
      00FF6994H   LINE      CODE     ---       #475
      00FF6994H   LINE      CODE     ---       #476
      00FF6998H   LINE      CODE     ---       #477
      ---         BLOCKEND  ---      ---       LVL=0

      00FF5C7CH   BLOCK     CODE     ---       LVL=0
      0000080BH   SYMBOL    EDATA    ---       enables
      0000080FH   SYMBOL    EDATA    ---       timeouts
      00FF5C84H   BLOCK     CODE     NEAR LAB  LVL=1
      0001064BH   SYMBOL    XDATA    ---       reg_buffer
      0001064DH   SYMBOL    XDATA    WORD      reg16_buffer
      ---         BLOCKEND  ---      ---       LVL=1
      00FF5C7CH   LINE      CODE     ---       #487
      00FF5C84H   LINE      CODE     ---       #488
      00FF5C84H   LINE      CODE     ---       #490
      00FF5C8CH   LINE      CODE     ---       #491
      00FF5C9AH   LINE      CODE     ---       #492
      00FF5CB2H   LINE      CODE     ---       #493
      00FF5CC7H   LINE      CODE     ---       #494
      00FF5CEBH   LINE      CODE     ---       #495
      00FF5D03H   LINE      CODE     ---       #496
      00FF5D1BH   LINE      CODE     ---       #497
      00FF5D31H   LINE      CODE     ---       #498
      00FF5D57H   LINE      CODE     ---       #499
      00FF5D69H   LINE      CODE     ---       #500
      00FF5D81H   LINE      CODE     ---       #501
      00FF5D99H   LINE      CODE     ---       #502
      00FF5DAFH   LINE      CODE     ---       #503
      00FF5DBFH   LINE      CODE     ---       #505
      00FF5DDAH   LINE      CODE     ---       #506
      00FF5DDAH   LINE      CODE     ---       #507
      00FF5E02H   LINE      CODE     ---       #508
      ---         BLOCKEND  ---      ---       LVL=0
      000009FCH   SYMBOL    EDATA    BYTE      vhv_init_byte
      0001069BH   SYMBOL    XDATA    BYTE      return_state
      0001069CH   SYMBOL    XDATA    BYTE      data_buffer
      000009FDH   SYMBOL    EDATA    WORD      loop_count
      000004A9H   SYMBOL    EDATA    DWORD     budget_us
      000105A9H   SYMBOL    XDATA    BYTE      return_state
      000105AAH   SYMBOL    XDATA    ---       data_buffer
      000105ADH   SYMBOL    XDATA    WORD      dat
      000105AFH   SYMBOL    XDATA    DWORD     used_budget_us
      000105B3H   SYMBOL    XDATA    DWORD     final_range_timeout_us
      000105B7H   SYMBOL    XDATA    WORD      final_range_timeout_mclks
L251 LINKER/LOCATER V4.66.93.0                                                        04/15/2024  21:19:48  PAGE 63


      000004ADH   SYMBOL    EDATA    ---       enables
      000004B2H   SYMBOL    EDATA    ---       timeouts
      000004E7H   SYMBOL    EDATA    ---       enables
      000004ECH   SYMBOL    EDATA    ---       timeouts
      0001064FH   SYMBOL    XDATA    DWORD     budget_us
      000009C6H   SYMBOL    EDATA    FLOAT     limit_mcps
      0001062AH   SYMBOL    XDATA    ---       data_buffer
      0001062DH   SYMBOL    XDATA    WORD      limit_mcps_16bit
      00010677H   SYMBOL    XDATA    ---       reg_databuffer
      00010594H   SYMBOL    XDATA    DWORD     measurement_timing_budget_us
      00010598H   SYMBOL    XDATA    BYTE      stop_variable
      00010599H   SYMBOL    XDATA    BYTE      return_state
      0001059AH   SYMBOL    XDATA    BYTE      reg_data_buffer
      0001059BH   SYMBOL    XDATA    ---       ref_spad_map
      000105A1H   SYMBOL    XDATA    ---       data_buffer
      000105A8H   SYMBOL    XDATA    BYTE      i

      ---         MODULE    ---      ---       SEEKFREE_DL1B
      000009CAH   PUBLIC    EDATA    WORD      dl1b_distance_mm
      000009CCH   PUBLIC    EDATA    BYTE      dl1b_finsh_flag
      000009CDH   PUBLIC    EDATA    BYTE      dl1b_init_flag
      000005A0H   PUBLIC    EDATA    BYTE      ?dl1b_iic_transfer_8bit_array?BYTE
      000000D0H   SFRSYM    DATA     BYTE      PSW
      0000009DH   SFRSYM    DATA     BYTE      IRCBAND
      00000097H   SFRSYM    DATA     BYTE      AUXR2
      000000EFH   SFRSYM    DATA     BYTE      AUXINTIF
      000000FDH   SFRSYM    DATA     BYTE      S4CON
      000000ACH   SFRSYM    DATA     BYTE      S3CON
      0000009AH   SFRSYM    DATA     BYTE      S2CON
      000000B7H   SFRSYM    DATA     BYTE      IPH
      000000CDH   SFRSYM    DATA     BYTE      SPSTAT
      000000DDH   SFRSYM    DATA     BYTE      T4T3M
      000000C1H   SFRSYM    DATA     BYTE      WDT_CONTR
      000000DFH   SFRSYM    DATA     BYTE      IP3
      000000F4H   SFRSYM    DATA     BYTE      USBCON
      000000B5H   SFRSYM    DATA     BYTE      IP2
      000000FFH   SFRSYM    DATA     BYTE      RSTCFG
      000000F9H   SFRSYM    DATA     BYTE      LINICR
      0000008EH   SFRSYM    DATA     BYTE      AUXR
      000000AFH   SFRSYM    DATA     BYTE      IE2
      000000C0H.7 SFRSYM    DATA     BIT       P47
      000000E8H.5 SFRSYM    DATA     BIT       P65
      000000E8H.3 SFRSYM    DATA     BIT       P63
      00000088H   SFRSYM    DATA     BYTE      TCON
      00000098H   SFRSYM    DATA     BYTE      SCON
      000000F1H   SFRSYM    DATA     BYTE      CANICR
      00000087H   SFRSYM    DATA     BYTE      PCON
      000000BCH   SFRSYM    DATA     BYTE      ADC_CONTR
      000000E7H   SFRSYM    DATA     BYTE      CMPCR2
      000000E6H   SFRSYM    DATA     BYTE      CMPCR1
      000000B8H   SFRSYM    DATA     BYTE      IP
      0000008FH   SFRSYM    DATA     BYTE      INTCLKO
      000000EEH   SFRSYM    DATA     BYTE      IP3H
      000000B6H   SFRSYM    DATA     BYTE      IP2H
      000000A8H   SFRSYM    DATA     BYTE      IE
      000000BBH   SFRSYM    DATA     BYTE      P_SW3
      000000BAH   SFRSYM    DATA     BYTE      P_SW2
      000000A2H   SFRSYM    DATA     BYTE      P_SW1
      000000CEH   SFRSYM    DATA     BYTE      SPCTL
      000000F8H   SFRSYM    DATA     BYTE      P7
      000000E8H   SFRSYM    DATA     BYTE      P6
      000000C8H   SFRSYM    DATA     BYTE      P5
      000000C0H   SFRSYM    DATA     BYTE      P4
      000000B0H   SFRSYM    DATA     BYTE      P3
      000000A0H   SFRSYM    DATA     BYTE      P2
L251 LINKER/LOCATER V4.66.93.0                                                        04/15/2024  21:19:48  PAGE 64


      00000090H   SFRSYM    DATA     BYTE      P1
      00000080H   SFRSYM    DATA     BYTE      P0
      00FF78A4H   SYMBOL    CODE     ---       dl1b_simiic_sendack
      00FF6DE4H   SYMBOL    CODE     ---       dl1b_read_ch
      00FF766FH   SYMBOL    CODE     ---       dl1b_send_ch
      00FF79F3H   SYMBOL    CODE     ---       dl1b_sccb_waitack
      00FF7A35H   SYMBOL    CODE     ---       dl1b_simiic_delay

      00FF7A35H   BLOCK     CODE     ---       LVL=0
      0001069DH   SYMBOL    XDATA    WORD      j
      00FF7A35H   LINE      CODE     ---       #76
      00FF7A35H   LINE      CODE     ---       #77
      00FF7A35H   LINE      CODE     ---       #78
      00FF7A3DH   LINE      CODE     ---       #79
      00FF7A54H   LINE      CODE     ---       #80
      ---         BLOCKEND  ---      ---       LVL=0

      00FF78A4H   BLOCK     CODE     ---       LVL=0
      00000A5BH   SYMBOL    EDATA    BYTE      ack_dat
      00FF78A4H   LINE      CODE     ---       #107
      00FF78A8H   LINE      CODE     ---       #109
      00FF78ABH   LINE      CODE     ---       #110
      00FF78AEH   LINE      CODE     ---       #111
      00FF78BCH   LINE      CODE     ---       #112
      00FF78BFH   LINE      CODE     ---       #113
      00FF78C2H   LINE      CODE     ---       #114
      00FF78C5H   LINE      CODE     ---       #115
      00FF78C8H   LINE      CODE     ---       #116
      00FF78CBH   LINE      CODE     ---       #117
      ---         BLOCKEND  ---      ---       LVL=0

      00FF79F3H   BLOCK     CODE     ---       LVL=0
      00FF79F3H   LINE      CODE     ---       #120
      00FF79F3H   LINE      CODE     ---       #122
      00FF79F6H   LINE      CODE     ---       #123
      00FF79F9H   LINE      CODE     ---       #124
      00FF79FCH   LINE      CODE     ---       #125
      00FF79FFH   LINE      CODE     ---       #126
      00FF7A02H   LINE      CODE     ---       #128
      00FF7A05H   LINE      CODE     ---       #129
      00FF7A09H   LINE      CODE     ---       #130
      00FF7A09H   LINE      CODE     ---       #131
      00FF7A0CH   LINE      CODE     ---       #132
      00FF7A0FH   LINE      CODE     ---       #133
      00FF7A13H   LINE      CODE     ---       #134
      ---         BLOCKEND  ---      ---       LVL=0

      00FF766FH   BLOCK     CODE     ---       LVL=0
      00000A5CH   SYMBOL    EDATA    BYTE      c
      00FF7673H   BLOCK     CODE     NEAR LAB  LVL=1
      000106C8H   SYMBOL    XDATA    BYTE      i
      ---         BLOCKEND  ---      ---       LVL=1
      00FF766FH   LINE      CODE     ---       #140
      00FF7673H   LINE      CODE     ---       #141
      00FF7673H   LINE      CODE     ---       #142
      00FF7679H   LINE      CODE     ---       #143
      00FF767BH   LINE      CODE     ---       #145
      00FF7687H   LINE      CODE     ---       #146
      00FF768AH   LINE      CODE     ---       #147
      00FF7694H   LINE      CODE     ---       #148
      00FF7697H   LINE      CODE     ---       #149
      00FF769AH   LINE      CODE     ---       #150
      00FF769DH   LINE      CODE     ---       #151
      00FF76A0H   LINE      CODE     ---       #152
      00FF76B3H   LINE      CODE     ---       #153
L251 LINKER/LOCATER V4.66.93.0                                                        04/15/2024  21:19:48  PAGE 65


      00FF76B6H   LINE      CODE     ---       #154
      ---         BLOCKEND  ---      ---       LVL=0

      00FF6DE4H   BLOCK     CODE     ---       LVL=0
      00000A5DH   SYMBOL    EDATA    BYTE      ack_x
      00FF6DE8H   BLOCK     CODE     NEAR LAB  LVL=1
      0001069FH   SYMBOL    XDATA    BYTE      i
      000106A0H   SYMBOL    XDATA    BYTE      c
      ---         BLOCKEND  ---      ---       LVL=1
      00FF6DE4H   LINE      CODE     ---       #160
      00FF6DE8H   LINE      CODE     ---       #161
      00FF6DE8H   LINE      CODE     ---       #164
      00FF6DEDH   LINE      CODE     ---       #165
      00FF6DF0H   LINE      CODE     ---       #166
      00FF6DF3H   LINE      CODE     ---       #167
      00FF6DF6H   LINE      CODE     ---       #168
      00FF6DFDH   LINE      CODE     ---       #170
      00FF6E00H   LINE      CODE     ---       #171
      00FF6E03H   LINE      CODE     ---       #172
      00FF6E06H   LINE      CODE     ---       #173
      00FF6E09H   LINE      CODE     ---       #174
      00FF6E0CH   LINE      CODE     ---       #175
      00FF6E13H   LINE      CODE     ---       #176
      00FF6E16H   LINE      CODE     ---       #178
      00FF6E20H   LINE      CODE     ---       #179
      00FF6E37H   LINE      CODE     ---       #181
      00FF6E3AH   LINE      CODE     ---       #182
      00FF6E3DH   LINE      CODE     ---       #183
      00FF6E44H   LINE      CODE     ---       #184
      00FF6E48H   LINE      CODE     ---       #185
      ---         BLOCKEND  ---      ---       LVL=0
      000005A0H   SYMBOL    EDATA    ---       write_data
      000005A4H   SYMBOL    EDATA    DWORD     write_len
      000005A8H   SYMBOL    EDATA    ---       read_data
      000005ACH   SYMBOL    EDATA    DWORD     read_len
      0001067AH   SYMBOL    XDATA    ---       data_buffer
      00000A28H   SYMBOL    EDATA    INT       dl1b_distance_temp
      000102E4H   SYMBOL    XDATA    BYTE      return_state
      000102E5H   SYMBOL    XDATA    ---       data_buffer
      0001036EH   SYMBOL    XDATA    WORD      time_out_count

      ---         MODULE    ---      ---       SEEKFREE_FONT
      00FF211DH   PUBLIC    CODE     ---       oled_8x16
      00FF270DH   PUBLIC    CODE     ---       tft_ascii
      00FF2CFDH   PUBLIC    CODE     ---       oled_6x8
      000000D0H   SFRSYM    DATA     BYTE      PSW
      0000009DH   SFRSYM    DATA     BYTE      IRCBAND
      00000097H   SFRSYM    DATA     BYTE      AUXR2
      000000EFH   SFRSYM    DATA     BYTE      AUXINTIF
      000000FDH   SFRSYM    DATA     BYTE      S4CON
      000000ACH   SFRSYM    DATA     BYTE      S3CON
      0000009AH   SFRSYM    DATA     BYTE      S2CON
      000000B7H   SFRSYM    DATA     BYTE      IPH
      000000CDH   SFRSYM    DATA     BYTE      SPSTAT
      000000DDH   SFRSYM    DATA     BYTE      T4T3M
      000000C1H   SFRSYM    DATA     BYTE      WDT_CONTR
      000000DFH   SFRSYM    DATA     BYTE      IP3
      000000F4H   SFRSYM    DATA     BYTE      USBCON
      000000B5H   SFRSYM    DATA     BYTE      IP2
      000000FFH   SFRSYM    DATA     BYTE      RSTCFG
      000000F9H   SFRSYM    DATA     BYTE      LINICR
      0000008EH   SFRSYM    DATA     BYTE      AUXR
      000000AFH   SFRSYM    DATA     BYTE      IE2
      00000088H   SFRSYM    DATA     BYTE      TCON
      00000098H   SFRSYM    DATA     BYTE      SCON
L251 LINKER/LOCATER V4.66.93.0                                                        04/15/2024  21:19:48  PAGE 66


      000000F1H   SFRSYM    DATA     BYTE      CANICR
      00000087H   SFRSYM    DATA     BYTE      PCON
      000000BCH   SFRSYM    DATA     BYTE      ADC_CONTR
      000000E7H   SFRSYM    DATA     BYTE      CMPCR2
      000000E6H   SFRSYM    DATA     BYTE      CMPCR1
      000000B8H   SFRSYM    DATA     BYTE      IP
      0000008FH   SFRSYM    DATA     BYTE      INTCLKO
      000000EEH   SFRSYM    DATA     BYTE      IP3H
      000000B6H   SFRSYM    DATA     BYTE      IP2H
      000000A8H   SFRSYM    DATA     BYTE      IE
      000000BBH   SFRSYM    DATA     BYTE      P_SW3
      000000BAH   SFRSYM    DATA     BYTE      P_SW2
      000000A2H   SFRSYM    DATA     BYTE      P_SW1
      000000CEH   SFRSYM    DATA     BYTE      SPCTL
      000000F8H   SFRSYM    DATA     BYTE      P7
      000000E8H   SFRSYM    DATA     BYTE      P6
      000000C8H   SFRSYM    DATA     BYTE      P5
      000000C0H   SFRSYM    DATA     BYTE      P4
      000000B0H   SFRSYM    DATA     BYTE      P3
      000000A0H   SFRSYM    DATA     BYTE      P2
      00000090H   SFRSYM    DATA     BYTE      P1
      00000080H   SFRSYM    DATA     BYTE      P0

      ---         MODULE    ---      ---       SEEKFREE_ICM20602
      0000066FH   PUBLIC    EDATA    INT       icm20602_acc_x
      00000671H   PUBLIC    EDATA    INT       icm20602_acc_y
      00000673H   PUBLIC    EDATA    INT       icm20602_acc_z
      00000675H   PUBLIC    EDATA    INT       icm20602_gyro_x
      00000677H   PUBLIC    EDATA    INT       icm20602_gyro_y
      00000679H   PUBLIC    EDATA    INT       icm20602_gyro_z
      000000D0H   SFRSYM    DATA     BYTE      PSW
      0000009DH   SFRSYM    DATA     BYTE      IRCBAND
      00000097H   SFRSYM    DATA     BYTE      AUXR2
      000000EFH   SFRSYM    DATA     BYTE      AUXINTIF
      000000FDH   SFRSYM    DATA     BYTE      S4CON
      000000ACH   SFRSYM    DATA     BYTE      S3CON
      0000009AH   SFRSYM    DATA     BYTE      S2CON
      000000B7H   SFRSYM    DATA     BYTE      IPH
      000000CDH   SFRSYM    DATA     BYTE      SPSTAT
      000000DDH   SFRSYM    DATA     BYTE      T4T3M
      000000C1H   SFRSYM    DATA     BYTE      WDT_CONTR
      000000DFH   SFRSYM    DATA     BYTE      IP3
      000000F4H   SFRSYM    DATA     BYTE      USBCON
      000000B5H   SFRSYM    DATA     BYTE      IP2
      000000FFH   SFRSYM    DATA     BYTE      RSTCFG
      000000F9H   SFRSYM    DATA     BYTE      LINICR
      0000008EH   SFRSYM    DATA     BYTE      AUXR
      000000AFH   SFRSYM    DATA     BYTE      IE2
      000000C0H.3 SFRSYM    DATA     BIT       P43
      000000C0H.2 SFRSYM    DATA     BIT       P42
      00000088H   SFRSYM    DATA     BYTE      TCON
      000000C0H.1 SFRSYM    DATA     BIT       P41
      00000098H   SFRSYM    DATA     BYTE      SCON
      000000C0H.0 SFRSYM    DATA     BIT       P40
      000000F1H   SFRSYM    DATA     BYTE      CANICR
      00000087H   SFRSYM    DATA     BYTE      PCON
      000000BCH   SFRSYM    DATA     BYTE      ADC_CONTR
      000000E7H   SFRSYM    DATA     BYTE      CMPCR2
      000000E6H   SFRSYM    DATA     BYTE      CMPCR1
      000000B8H   SFRSYM    DATA     BYTE      IP
      0000008FH   SFRSYM    DATA     BYTE      INTCLKO
      000000EEH   SFRSYM    DATA     BYTE      IP3H
      000000B6H   SFRSYM    DATA     BYTE      IP2H
      000000A8H   SFRSYM    DATA     BYTE      IE
      000000BBH   SFRSYM    DATA     BYTE      P_SW3
L251 LINKER/LOCATER V4.66.93.0                                                        04/15/2024  21:19:48  PAGE 67


      000000BAH   SFRSYM    DATA     BYTE      P_SW2
      000000A2H   SFRSYM    DATA     BYTE      P_SW1
      000000CEH   SFRSYM    DATA     BYTE      SPCTL
      000000F8H   SFRSYM    DATA     BYTE      P7
      000000E8H   SFRSYM    DATA     BYTE      P6
      000000C8H   SFRSYM    DATA     BYTE      P5
      000000C0H   SFRSYM    DATA     BYTE      P4
      000000B0H   SFRSYM    DATA     BYTE      P3
      000000A0H   SFRSYM    DATA     BYTE      P2
      00000090H   SFRSYM    DATA     BYTE      P1
      00000080H   SFRSYM    DATA     BYTE      P0
      00FF79B0H   SYMBOL    CODE     ---       icm20602_read_register
      00FF6FD3H   SYMBOL    CODE     ---       icm20602_simspi_wr_byte
      00FF7135H   SYMBOL    CODE     ---       icm20602_simspi_r_reg_bytes
      00FF78F4H   SYMBOL    CODE     ---       icm20602_simspi_r_reg_byte

      00FF6FD3H   BLOCK     CODE     ---       LVL=0
      00000A5EH   SYMBOL    EDATA    BYTE      byte
      00FF6FD7H   BLOCK     CODE     NEAR LAB  LVL=1
      000106C9H   SYMBOL    XDATA    BYTE      i
      ---         BLOCKEND  ---      ---       LVL=1
      00FF6FD3H   LINE      CODE     ---       #264
      00FF6FD7H   LINE      CODE     ---       #265
      00FF6FD7H   LINE      CODE     ---       #267
      00FF6FDEH   LINE      CODE     ---       #269
      00FF6FECH   LINE      CODE     ---       #270
      00FF6FF6H   LINE      CODE     ---       #271
      00FF6FF9H   LINE      CODE     ---       #272
      00FF6FFCH   LINE      CODE     ---       #273
      00FF6FFFH   LINE      CODE     ---       #274
      00FF7002H   LINE      CODE     ---       #275
      00FF7010H   LINE      CODE     ---       #276
      00FF7027H   LINE      CODE     ---       #277
      00FF702BH   LINE      CODE     ---       #278
      ---         BLOCKEND  ---      ---       LVL=0
      00000A2AH   SYMBOL    EDATA    BYTE      cmd
      00000A2BH   SYMBOL    EDATA    BYTE      val

      00FF78F4H   BLOCK     CODE     ---       LVL=0
      00000972H   SYMBOL    EDATA    BYTE      cmd
      00000973H   SYMBOL    EDATA    ---       val
      00FF78F4H   LINE      CODE     ---       #322
      00FF78FCH   LINE      CODE     ---       #324
      00FF7908H   LINE      CODE     ---       #325
      00FF790FH   LINE      CODE     ---       #326
      00FF791AH   LINE      CODE     ---       #327
      ---         BLOCKEND  ---      ---       LVL=0

      00FF7135H   BLOCK     CODE     ---       LVL=0
      00000756H   SYMBOL    EDATA    BYTE      cmd
      00000757H   SYMBOL    EDATA    ---       val
      0000075BH   SYMBOL    EDATA    DWORD     num
      00FF7141H   BLOCK     CODE     NEAR LAB  LVL=1
      00010653H   SYMBOL    XDATA    DWORD     i
      ---         BLOCKEND  ---      ---       LVL=1
      00FF7135H   LINE      CODE     ---       #337
      00FF7141H   LINE      CODE     ---       #338
      00FF7141H   LINE      CODE     ---       #339
      00FF714DH   LINE      CODE     ---       #340
      00FF7159H   LINE      CODE     ---       #341
      00FF7160H   LINE      CODE     ---       #342
      00FF7162H   LINE      CODE     ---       #344
      00FF7177H   LINE      CODE     ---       #345
      00FF718BH   LINE      CODE     ---       #346
      ---         BLOCKEND  ---      ---       LVL=0
L251 LINKER/LOCATER V4.66.93.0                                                        04/15/2024  21:19:48  PAGE 68


      00000A2CH   SYMBOL    EDATA    BYTE      reg
      00000A2DH   SYMBOL    EDATA    BYTE      dat

      00FF79B0H   BLOCK     CODE     ---       LVL=0
      00000A5FH   SYMBOL    EDATA    BYTE      reg
      00FF79B4H   BLOCK     CODE     NEAR LAB  LVL=1
      000106CAH   SYMBOL    XDATA    BYTE      dat
      ---         BLOCKEND  ---      ---       LVL=1
      00FF79B0H   LINE      CODE     ---       #386
      00FF79B4H   LINE      CODE     ---       #387
      00FF79B4H   LINE      CODE     ---       #389
      00FF79B7H   LINE      CODE     ---       #390
      00FF79CAH   LINE      CODE     ---       #391
      00FF79CDH   LINE      CODE     ---       #392
      00FF79D1H   LINE      CODE     ---       #393
      ---         BLOCKEND  ---      ---       LVL=0
      0000075FH   SYMBOL    EDATA    BYTE      reg
      00000760H   SYMBOL    EDATA    ---       dat
      00000764H   SYMBOL    EDATA    DWORD     len
      0001067DH   SYMBOL    XDATA    BYTE      dat
      00000A60H   SYMBOL    EDATA    BYTE      return_state
      0001067EH   SYMBOL    XDATA    WORD      timeout_count
      000105EEH   SYMBOL    XDATA    ---       dat
      000105F4H   SYMBOL    XDATA    ---       dat
      000008E8H   SYMBOL    EDATA    INT       acc_value
      000008EAH   SYMBOL    EDATA    FLOAT     acc_data
      000008EEH   SYMBOL    EDATA    INT       gyro_value
      000008F0H   SYMBOL    EDATA    FLOAT     gyro_data
      00010680H   SYMBOL    XDATA    BYTE      val
      00000A61H   SYMBOL    EDATA    BYTE      return_state
      00010681H   SYMBOL    XDATA    WORD      timeout_count

      ---         MODULE    ---      ---       SEEKFREE_IMU660RA
      0000067BH   PUBLIC    EDATA    INT       imu660ra_acc_x
      0000067DH   PUBLIC    EDATA    INT       imu660ra_acc_y
      0000067FH   PUBLIC    EDATA    INT       imu660ra_acc_z
      00000681H   PUBLIC    EDATA    INT       imu660ra_gyro_x
      00000683H   PUBLIC    EDATA    INT       imu660ra_gyro_y
      00000685H   PUBLIC    EDATA    INT       imu660ra_gyro_z
      000000D0H   SFRSYM    DATA     BYTE      PSW
      0000009DH   SFRSYM    DATA     BYTE      IRCBAND
      00000097H   SFRSYM    DATA     BYTE      AUXR2
      000000EFH   SFRSYM    DATA     BYTE      AUXINTIF
      000000FDH   SFRSYM    DATA     BYTE      S4CON
      000000ACH   SFRSYM    DATA     BYTE      S3CON
      0000009AH   SFRSYM    DATA     BYTE      S2CON
      000000B7H   SFRSYM    DATA     BYTE      IPH
      000000CDH   SFRSYM    DATA     BYTE      SPSTAT
      000000DDH   SFRSYM    DATA     BYTE      T4T3M
      000000C1H   SFRSYM    DATA     BYTE      WDT_CONTR
      000000DFH   SFRSYM    DATA     BYTE      IP3
      000000F4H   SFRSYM    DATA     BYTE      USBCON
      000000B5H   SFRSYM    DATA     BYTE      IP2
      000000FFH   SFRSYM    DATA     BYTE      RSTCFG
      000000F9H   SFRSYM    DATA     BYTE      LINICR
      0000008EH   SFRSYM    DATA     BYTE      AUXR
      000000AFH   SFRSYM    DATA     BYTE      IE2
      000000C0H.3 SFRSYM    DATA     BIT       P43
      000000C0H.2 SFRSYM    DATA     BIT       P42
      00000088H   SFRSYM    DATA     BYTE      TCON
      000000C0H.1 SFRSYM    DATA     BIT       P41
      00000098H   SFRSYM    DATA     BYTE      SCON
      000000C0H.0 SFRSYM    DATA     BIT       P40
      000000F1H   SFRSYM    DATA     BYTE      CANICR
      00000087H   SFRSYM    DATA     BYTE      PCON
L251 LINKER/LOCATER V4.66.93.0                                                        04/15/2024  21:19:48  PAGE 69


      000000BCH   SFRSYM    DATA     BYTE      ADC_CONTR
      000000E7H   SFRSYM    DATA     BYTE      CMPCR2
      000000E6H   SFRSYM    DATA     BYTE      CMPCR1
      000000B8H   SFRSYM    DATA     BYTE      IP
      0000008FH   SFRSYM    DATA     BYTE      INTCLKO
      000000EEH   SFRSYM    DATA     BYTE      IP3H
      000000B6H   SFRSYM    DATA     BYTE      IP2H
      000000A8H   SFRSYM    DATA     BYTE      IE
      000000BBH   SFRSYM    DATA     BYTE      P_SW3
      000000BAH   SFRSYM    DATA     BYTE      P_SW2
      000000A2H   SFRSYM    DATA     BYTE      P_SW1
      000000CEH   SFRSYM    DATA     BYTE      SPCTL
      000000F8H   SFRSYM    DATA     BYTE      P7
      000000E8H   SFRSYM    DATA     BYTE      P6
      000000C8H   SFRSYM    DATA     BYTE      P5
      000000C0H   SFRSYM    DATA     BYTE      P4
      000000B0H   SFRSYM    DATA     BYTE      P3
      000000A0H   SFRSYM    DATA     BYTE      P2
      00000090H   SFRSYM    DATA     BYTE      P1
      00000080H   SFRSYM    DATA     BYTE      P0
      00FF7942H   SYMBOL    CODE     ---       imu660ra_read_register
      00FF702CH   SYMBOL    CODE     ---       imu660ra_simspi_wr_byte
      00FF74B2H   SYMBOL    CODE     ---       imu660ra_simspi_r_reg_bytes

      00FF702CH   BLOCK     CODE     ---       LVL=0
      00000A62H   SYMBOL    EDATA    BYTE      byte
      00FF7030H   BLOCK     CODE     NEAR LAB  LVL=1
      000106CBH   SYMBOL    XDATA    BYTE      i
      ---         BLOCKEND  ---      ---       LVL=1
      00FF702CH   LINE      CODE     ---       #294
      00FF7030H   LINE      CODE     ---       #295
      00FF7030H   LINE      CODE     ---       #297
      00FF7037H   LINE      CODE     ---       #299
      00FF7045H   LINE      CODE     ---       #300
      00FF704FH   LINE      CODE     ---       #301
      00FF7052H   LINE      CODE     ---       #302
      00FF7055H   LINE      CODE     ---       #303
      00FF7058H   LINE      CODE     ---       #304
      00FF705BH   LINE      CODE     ---       #305
      00FF7069H   LINE      CODE     ---       #306
      00FF7080H   LINE      CODE     ---       #307
      00FF7084H   LINE      CODE     ---       #308
      ---         BLOCKEND  ---      ---       LVL=0
      00000A2EH   SYMBOL    EDATA    BYTE      cmd
      00000A2FH   SYMBOL    EDATA    BYTE      val
      00000768H   SYMBOL    EDATA    BYTE      cmd
      00000769H   SYMBOL    EDATA    ---       dat_addr
      0000076DH   SYMBOL    EDATA    DWORD     len

      00FF74B2H   BLOCK     CODE     ---       LVL=0
      00000771H   SYMBOL    EDATA    BYTE      cmd
      00000772H   SYMBOL    EDATA    ---       val
      00000776H   SYMBOL    EDATA    DWORD     num
      00FF74B2H   LINE      CODE     ---       #365
      00FF74BEH   LINE      CODE     ---       #367
      00FF74CAH   LINE      CODE     ---       #368
      00FF74D1H   LINE      CODE     ---       #369
      00FF74D3H   LINE      CODE     ---       #371
      00FF74E8H   LINE      CODE     ---       #372
      00FF74FCH   LINE      CODE     ---       #373
      ---         BLOCKEND  ---      ---       LVL=0
      00000A30H   SYMBOL    EDATA    BYTE      reg
      00000A31H   SYMBOL    EDATA    BYTE      dat
      0000077AH   SYMBOL    EDATA    BYTE      reg
      0000077BH   SYMBOL    EDATA    ---       dat
L251 LINKER/LOCATER V4.66.93.0                                                        04/15/2024  21:19:48  PAGE 70


      0000077FH   SYMBOL    EDATA    DWORD     len

      00FF7942H   BLOCK     CODE     ---       LVL=0
      00000A63H   SYMBOL    EDATA    BYTE      reg
      00FF7946H   BLOCK     CODE     NEAR LAB  LVL=1
      000106A1H   SYMBOL    XDATA    ---       dat
      ---         BLOCKEND  ---      ---       LVL=1
      00FF7942H   LINE      CODE     ---       #413
      00FF7946H   LINE      CODE     ---       #414
      00FF7946H   LINE      CODE     ---       #416
      00FF7949H   LINE      CODE     ---       #417
      00FF7960H   LINE      CODE     ---       #418
      00FF7963H   LINE      CODE     ---       #419
      00FF7967H   LINE      CODE     ---       #420
      ---         BLOCKEND  ---      ---       LVL=0
      00000783H   SYMBOL    EDATA    BYTE      reg
      00000784H   SYMBOL    EDATA    ---       dat
      00000788H   SYMBOL    EDATA    DWORD     len
      00010683H   SYMBOL    XDATA    BYTE      dat
      00000A64H   SYMBOL    EDATA    BYTE      return_state
      00010684H   SYMBOL    XDATA    WORD      timeout_count
      000105C1H   SYMBOL    XDATA    ---       dat
      000105C8H   SYMBOL    XDATA    ---       dat
      000008F4H   SYMBOL    EDATA    INT       acc_value
      000008F6H   SYMBOL    EDATA    FLOAT     acc_dat
      000008FAH   SYMBOL    EDATA    INT       gyro_value
      000008FCH   SYMBOL    EDATA    FLOAT     gyro_dat
      000106CCH   SYMBOL    XDATA    BYTE      return_state

      ---         MODULE    ---      ---       SEEKFREE_IMU963RA
      0000057EH   PUBLIC    EDATA    INT       imu963ra_acc_x
      00000580H   PUBLIC    EDATA    INT       imu963ra_acc_y
      00000582H   PUBLIC    EDATA    INT       imu963ra_acc_z
      00000584H   PUBLIC    EDATA    INT       imu963ra_mag_x
      00000586H   PUBLIC    EDATA    INT       imu963ra_mag_y
      00000588H   PUBLIC    EDATA    INT       imu963ra_mag_z
      0000058AH   PUBLIC    EDATA    INT       imu963ra_gyro_x
      0000058CH   PUBLIC    EDATA    INT       imu963ra_gyro_y
      0000058EH   PUBLIC    EDATA    INT       imu963ra_gyro_z
      000000D0H   SFRSYM    DATA     BYTE      PSW
      0000009DH   SFRSYM    DATA     BYTE      IRCBAND
      00000097H   SFRSYM    DATA     BYTE      AUXR2
      000000EFH   SFRSYM    DATA     BYTE      AUXINTIF
      000000FDH   SFRSYM    DATA     BYTE      S4CON
      000000ACH   SFRSYM    DATA     BYTE      S3CON
      0000009AH   SFRSYM    DATA     BYTE      S2CON
      000000B7H   SFRSYM    DATA     BYTE      IPH
      000000CDH   SFRSYM    DATA     BYTE      SPSTAT
      000000DDH   SFRSYM    DATA     BYTE      T4T3M
      000000C1H   SFRSYM    DATA     BYTE      WDT_CONTR
      000000DFH   SFRSYM    DATA     BYTE      IP3
      000000F4H   SFRSYM    DATA     BYTE      USBCON
      000000B5H   SFRSYM    DATA     BYTE      IP2
      000000FFH   SFRSYM    DATA     BYTE      RSTCFG
      000000F9H   SFRSYM    DATA     BYTE      LINICR
      0000008EH   SFRSYM    DATA     BYTE      AUXR
      000000AFH   SFRSYM    DATA     BYTE      IE2
      000000C0H.3 SFRSYM    DATA     BIT       P43
      000000C0H.2 SFRSYM    DATA     BIT       P42
      00000088H   SFRSYM    DATA     BYTE      TCON
      000000C0H.1 SFRSYM    DATA     BIT       P41
      00000098H   SFRSYM    DATA     BYTE      SCON
      000000C0H.0 SFRSYM    DATA     BIT       P40
      000000F1H   SFRSYM    DATA     BYTE      CANICR
      00000087H   SFRSYM    DATA     BYTE      PCON
L251 LINKER/LOCATER V4.66.93.0                                                        04/15/2024  21:19:48  PAGE 71


      000000BCH   SFRSYM    DATA     BYTE      ADC_CONTR
      000000E7H   SFRSYM    DATA     BYTE      CMPCR2
      000000E6H   SFRSYM    DATA     BYTE      CMPCR1
      000000B8H   SFRSYM    DATA     BYTE      IP
      0000008FH   SFRSYM    DATA     BYTE      INTCLKO
      000000EEH   SFRSYM    DATA     BYTE      IP3H
      000000B6H   SFRSYM    DATA     BYTE      IP2H
      000000A8H   SFRSYM    DATA     BYTE      IE
      000000BBH   SFRSYM    DATA     BYTE      P_SW3
      000000BAH   SFRSYM    DATA     BYTE      P_SW2
      000000A2H   SFRSYM    DATA     BYTE      P_SW1
      000000CEH   SFRSYM    DATA     BYTE      SPCTL
      000000F8H   SFRSYM    DATA     BYTE      P7
      000000E8H   SFRSYM    DATA     BYTE      P6
      000000C8H   SFRSYM    DATA     BYTE      P5
      000000C0H   SFRSYM    DATA     BYTE      P4
      000000B0H   SFRSYM    DATA     BYTE      P3
      000000A0H   SFRSYM    DATA     BYTE      P2
      00000090H   SFRSYM    DATA     BYTE      P1
      00000080H   SFRSYM    DATA     BYTE      P0
      00FF7085H   SYMBOL    CODE     ---       imu963ra_simspi_wr_byte
      00FF6B6AH   SYMBOL    CODE     ---       imu963ra_read_mag_register
      00FF791BH   SYMBOL    CODE     ---       imu963ra_read_acc_gyro_register
      00FF77CDH   SYMBOL    CODE     ---       imu963ra_simspi_r_reg_byte
      00FF0026H   SYMBOL    CODE     ---       imu963ra_write_acc_gyro_register
      00FF7A14H   SYMBOL    CODE     ---       imu963ra_simspi_w_reg_byte

      00FF7085H   BLOCK     CODE     ---       LVL=0
      00000A65H   SYMBOL    EDATA    BYTE      byte
      00FF7089H   BLOCK     CODE     NEAR LAB  LVL=1
      000106CDH   SYMBOL    XDATA    BYTE      i
      ---         BLOCKEND  ---      ---       LVL=1
      00FF7085H   LINE      CODE     ---       #331
      00FF7089H   LINE      CODE     ---       #332
      00FF7089H   LINE      CODE     ---       #334
      00FF7090H   LINE      CODE     ---       #336
      00FF709EH   LINE      CODE     ---       #337
      00FF70A8H   LINE      CODE     ---       #338
      00FF70ABH   LINE      CODE     ---       #339
      00FF70AEH   LINE      CODE     ---       #340
      00FF70B1H   LINE      CODE     ---       #341
      00FF70B4H   LINE      CODE     ---       #342
      00FF70C2H   LINE      CODE     ---       #343
      00FF70D9H   LINE      CODE     ---       #344
      00FF70DDH   LINE      CODE     ---       #345
      ---         BLOCKEND  ---      ---       LVL=0

      00FF7A14H   BLOCK     CODE     ---       LVL=0
      00000A32H   SYMBOL    EDATA    BYTE      cmd
      00000A33H   SYMBOL    EDATA    BYTE      val
      00FF7A14H   LINE      CODE     ---       #353
      00FF7A1CH   LINE      CODE     ---       #355
      00FF7A1FH   LINE      CODE     ---       #356
      00FF7A23H   LINE      CODE     ---       #357
      00FF7A2AH   LINE      CODE     ---       #358
      00FF7A31H   LINE      CODE     ---       #359
      00FF7A34H   LINE      CODE     ---       #360
      ---         BLOCKEND  ---      ---       LVL=0

      00FF77CDH   BLOCK     CODE     ---       LVL=0
      00000977H   SYMBOL    EDATA    BYTE      cmd
      00000978H   SYMBOL    EDATA    ---       val
      00FF77CDH   LINE      CODE     ---       #391
      00FF77D5H   LINE      CODE     ---       #393
      00FF77D8H   LINE      CODE     ---       #394
L251 LINKER/LOCATER V4.66.93.0                                                        04/15/2024  21:19:48  PAGE 72


      00FF77E4H   LINE      CODE     ---       #395
      00FF77EBH   LINE      CODE     ---       #396
      00FF77F6H   LINE      CODE     ---       #397
      00FF77F9H   LINE      CODE     ---       #398
      ---         BLOCKEND  ---      ---       LVL=0
      0000078CH   SYMBOL    EDATA    BYTE      cmd
      0000078DH   SYMBOL    EDATA    ---       val
      00000791H   SYMBOL    EDATA    DWORD     num

      00FF0026H   BLOCK     CODE     ---       LVL=0
      00000A34H   SYMBOL    EDATA    BYTE      reg
      00000A35H   SYMBOL    EDATA    BYTE      dat
      00FF0026H   LINE      CODE     ---       #428
      00FF002EH   LINE      CODE     ---       #430
      00FF0031H   LINE      CODE     ---       #431
      00FF003CH   LINE      CODE     ---       #432
      00FF003FH   LINE      CODE     ---       #433
      ---         BLOCKEND  ---      ---       LVL=0

      00FF791BH   BLOCK     CODE     ---       LVL=0
      00000A66H   SYMBOL    EDATA    BYTE      reg
      00FF791FH   BLOCK     CODE     NEAR LAB  LVL=1
      000106CEH   SYMBOL    XDATA    BYTE      dat
      ---         BLOCKEND  ---      ---       LVL=1
      00FF791BH   LINE      CODE     ---       #442
      00FF791FH   LINE      CODE     ---       #443
      00FF791FH   LINE      CODE     ---       #444
      00FF7924H   LINE      CODE     ---       #445
      00FF7927H   LINE      CODE     ---       #446
      00FF793AH   LINE      CODE     ---       #447
      00FF793DH   LINE      CODE     ---       #448
      00FF7941H   LINE      CODE     ---       #449
      ---         BLOCKEND  ---      ---       LVL=0
      00000795H   SYMBOL    EDATA    BYTE      reg
      00000796H   SYMBOL    EDATA    ---       dat
      0000079AH   SYMBOL    EDATA    DWORD     len
      000009FFH   SYMBOL    EDATA    BYTE      addr
      00000A00H   SYMBOL    EDATA    BYTE      reg
      00000A01H   SYMBOL    EDATA    BYTE      dat
      00010686H   SYMBOL    XDATA    BYTE      return_state
      00010687H   SYMBOL    XDATA    WORD      timeout_count

      00FF6B6AH   BLOCK     CODE     ---       LVL=0
      00000A36H   SYMBOL    EDATA    BYTE      addr
      00000A37H   SYMBOL    EDATA    BYTE      reg
      00FF6B72H   BLOCK     CODE     NEAR LAB  LVL=1
      000106A3H   SYMBOL    XDATA    WORD      timeout_count
      ---         BLOCKEND  ---      ---       LVL=1
      00FF6B6AH   LINE      CODE     ---       #508
      00FF6B72H   LINE      CODE     ---       #509
      00FF6B72H   LINE      CODE     ---       #510
      00FF6B7AH   LINE      CODE     ---       #511
      00FF6B84H   LINE      CODE     ---       #512
      00FF6B92H   LINE      CODE     ---       #513
      00FF6B9BH   LINE      CODE     ---       #514
      00FF6BA3H   LINE      CODE     ---       #515
      00FF6BABH   LINE      CODE     ---       #517
      00FF6BADH   LINE      CODE     ---       #519
      00FF6BC4H   LINE      CODE     ---       #521
      00FF6BC4H   LINE      CODE     ---       #522
      00FF6BC4H   LINE      CODE     ---       #523
      00FF6BCBH   LINE      CODE     ---       #524
      00FF6BD3H   LINE      CODE     ---       #525
      00FF6BD8H   LINE      CODE     ---       #526
      ---         BLOCKEND  ---      ---       LVL=0
L251 LINKER/LOCATER V4.66.93.0                                                        04/15/2024  21:19:48  PAGE 73


      00000A38H   SYMBOL    EDATA    BYTE      addr
      00000A39H   SYMBOL    EDATA    BYTE      reg
      00010657H   SYMBOL    XDATA    BYTE      return_state
      00010658H   SYMBOL    XDATA    BYTE      dat
      00010659H   SYMBOL    XDATA    WORD      timeout_count
      0001065BH   SYMBOL    XDATA    BYTE      return_state
      0001065CH   SYMBOL    XDATA    BYTE      dat
      0001065DH   SYMBOL    XDATA    WORD      timeout_count
      000105FAH   SYMBOL    XDATA    ---       dat
      00010600H   SYMBOL    XDATA    ---       dat
      000105CFH   SYMBOL    XDATA    BYTE      temp_status
      000105D0H   SYMBOL    XDATA    ---       dat
      00000900H   SYMBOL    EDATA    INT       acc_value
      00000902H   SYMBOL    EDATA    FLOAT     acc_dat
      00000906H   SYMBOL    EDATA    INT       gyro_value
      00000908H   SYMBOL    EDATA    FLOAT     gyro_dat
      0000090CH   SYMBOL    EDATA    INT       mag_value
      0000090EH   SYMBOL    EDATA    FLOAT     mag_dat
      000106CFH   SYMBOL    XDATA    BYTE      return_state

      ---         MODULE    ---      ---       SEEKFREE_IPS114_SPI
      00FF7826H   PUBLIC    CODE     ---       ips114_writedata_16bit
      00FF71E0H   PUBLIC    CODE     ---       ips114_writeDatai_16bit_simspi
      00FF74FDH   PUBLIC    CODE     ---       ips114_writeIndex_simspi
      00FF7B20H   PUBLIC    CODE     ---       ips114_writeIndex
      00000687H   PUBLIC    EDATA    BYTE      ?ips114_showfloat_simspi?BYTE
      00000693H   PUBLIC    EDATA    BYTE      ?ips114_showfloat?BYTE
      000000D0H   SFRSYM    DATA     BYTE      PSW
      0000009DH   SFRSYM    DATA     BYTE      IRCBAND
      00000097H   SFRSYM    DATA     BYTE      AUXR2
      000000EFH   SFRSYM    DATA     BYTE      AUXINTIF
      000000FDH   SFRSYM    DATA     BYTE      S4CON
      000000ACH   SFRSYM    DATA     BYTE      S3CON
      0000009AH   SFRSYM    DATA     BYTE      S2CON
      000000B7H   SFRSYM    DATA     BYTE      IPH
      000000CDH   SFRSYM    DATA     BYTE      SPSTAT
      000000DDH   SFRSYM    DATA     BYTE      T4T3M
      000000C1H   SFRSYM    DATA     BYTE      WDT_CONTR
      000000DFH   SFRSYM    DATA     BYTE      IP3
      000000F4H   SFRSYM    DATA     BYTE      USBCON
      000000B5H   SFRSYM    DATA     BYTE      IP2
      000000FFH   SFRSYM    DATA     BYTE      RSTCFG
      000000F9H   SFRSYM    DATA     BYTE      LINICR
      0000008EH   SFRSYM    DATA     BYTE      AUXR
      000000AFH   SFRSYM    DATA     BYTE      IE2
      000000A0H.7 SFRSYM    DATA     BIT       P27
      000000A0H.5 SFRSYM    DATA     BIT       P25
      00000088H   SFRSYM    DATA     BYTE      TCON
      000000A0H.3 SFRSYM    DATA     BIT       P23
      00000098H   SFRSYM    DATA     BYTE      SCON
      000000A0H.2 SFRSYM    DATA     BIT       P22
      000000A0H.1 SFRSYM    DATA     BIT       P21
      000000A0H.0 SFRSYM    DATA     BIT       P20
      000000F1H   SFRSYM    DATA     BYTE      CANICR
      00000087H   SFRSYM    DATA     BYTE      PCON
      000000BCH   SFRSYM    DATA     BYTE      ADC_CONTR
      000000E7H   SFRSYM    DATA     BYTE      CMPCR2
      000000E6H   SFRSYM    DATA     BYTE      CMPCR1
      000000B8H   SFRSYM    DATA     BYTE      IP
      0000008FH   SFRSYM    DATA     BYTE      INTCLKO
      000000EEH   SFRSYM    DATA     BYTE      IP3H
      000000B6H   SFRSYM    DATA     BYTE      IP2H
      000000A8H   SFRSYM    DATA     BYTE      IE
      000000BBH   SFRSYM    DATA     BYTE      P_SW3
      000000BAH   SFRSYM    DATA     BYTE      P_SW2
L251 LINKER/LOCATER V4.66.93.0                                                        04/15/2024  21:19:48  PAGE 74


      000000A2H   SFRSYM    DATA     BYTE      P_SW1
      000000CEH   SFRSYM    DATA     BYTE      SPCTL
      000000F8H   SFRSYM    DATA     BYTE      P7
      000000E8H   SFRSYM    DATA     BYTE      P6
      000000C8H   SFRSYM    DATA     BYTE      P5
      000000C0H   SFRSYM    DATA     BYTE      P4
      000000B0H   SFRSYM    DATA     BYTE      P3
      000000A0H   SFRSYM    DATA     BYTE      P2
      00000090H   SFRSYM    DATA     BYTE      P1
      00000080H   SFRSYM    DATA     BYTE      P0

      00FF74FDH   BLOCK     CODE     ---       LVL=0
      00000A67H   SYMBOL    EDATA    BYTE      dat
      00FF7501H   BLOCK     CODE     NEAR LAB  LVL=1
      000106D0H   SYMBOL    XDATA    BYTE      i
      ---         BLOCKEND  ---      ---       LVL=1
      00FF74FDH   LINE      CODE     ---       #61
      00FF7501H   LINE      CODE     ---       #62
      00FF7501H   LINE      CODE     ---       #63
      00FF7507H   LINE      CODE     ---       #64
      00FF750AH   LINE      CODE     ---       #65
      00FF750DH   LINE      CODE     ---       #67
      00FF7510H   LINE      CODE     ---       #69
      00FF7512H   LINE      CODE     ---       #71
      00FF751EH   LINE      CODE     ---       #72
      00FF7521H   LINE      CODE     ---       #73
      00FF7524H   LINE      CODE     ---       #75
      00FF7527H   LINE      CODE     ---       #76
      00FF7531H   LINE      CODE     ---       #77
      00FF7544H   LINE      CODE     ---       #78
      00FF7547H   LINE      CODE     ---       #79
      ---         BLOCKEND  ---      ---       LVL=0
      00000A68H   SYMBOL    EDATA    BYTE      dat
      000106D1H   SYMBOL    XDATA    BYTE      i

      00FF71E0H   BLOCK     CODE     ---       LVL=0
      00000A3AH   SYMBOL    EDATA    WORD      dat
      00FF71E4H   BLOCK     CODE     NEAR LAB  LVL=1
      000106D2H   SYMBOL    XDATA    BYTE      i
      ---         BLOCKEND  ---      ---       LVL=1
      00FF71E0H   LINE      CODE     ---       #115
      00FF71E4H   LINE      CODE     ---       #116
      00FF71E4H   LINE      CODE     ---       #117
      00FF71EAH   LINE      CODE     ---       #118
      00FF71EDH   LINE      CODE     ---       #119
      00FF71F0H   LINE      CODE     ---       #120
      00FF71F3H   LINE      CODE     ---       #121
      00FF71F5H   LINE      CODE     ---       #123
      00FF720AH   LINE      CODE     ---       #124
      00FF720DH   LINE      CODE     ---       #125
      00FF7210H   LINE      CODE     ---       #127
      00FF7213H   LINE      CODE     ---       #128
      00FF721DH   LINE      CODE     ---       #129
      00FF7230H   LINE      CODE     ---       #130
      00FF7233H   LINE      CODE     ---       #131
      ---         BLOCKEND  ---      ---       LVL=0
      00000813H   SYMBOL    EDATA    WORD      x1
      00000815H   SYMBOL    EDATA    WORD      y1
      00000817H   SYMBOL    EDATA    WORD      x2
      00000819H   SYMBOL    EDATA    WORD      y2
      000009CEH   SYMBOL    EDATA    WORD      color
      000106A5H   SYMBOL    XDATA    WORD      i
      000009D0H   SYMBOL    EDATA    WORD      j
      00000912H   SYMBOL    EDATA    WORD      x
      00000914H   SYMBOL    EDATA    WORD      y
L251 LINKER/LOCATER V4.66.93.0                                                        04/15/2024  21:19:48  PAGE 75


      00000916H   SYMBOL    EDATA    WORD      color
      00000918H   SYMBOL    EDATA    WORD      x
      0000091AH   SYMBOL    EDATA    WORD      y
      0000091CH   SYMBOL    EDATA    CHAR      dat
      000106A7H   SYMBOL    XDATA    BYTE      i
      0000091DH   SYMBOL    EDATA    BYTE      j
      000106A8H   SYMBOL    XDATA    BYTE      temp
      0000081BH   SYMBOL    EDATA    WORD      x
      0000081DH   SYMBOL    EDATA    WORD      y
      0000081FH   SYMBOL    EDATA    ---       dat
      000106A9H   SYMBOL    XDATA    WORD      j
      0000097CH   SYMBOL    EDATA    WORD      x
      0000097EH   SYMBOL    EDATA    WORD      y
      00000980H   SYMBOL    EDATA    CHAR      dat
      0001065FH   SYMBOL    XDATA    ---       a
      00010662H   SYMBOL    XDATA    BYTE      i
      00000981H   SYMBOL    EDATA    WORD      x
      00000983H   SYMBOL    EDATA    WORD      y
      00000985H   SYMBOL    EDATA    BYTE      dat
      00010663H   SYMBOL    XDATA    ---       a
      00010666H   SYMBOL    XDATA    BYTE      i
      0000091EH   SYMBOL    EDATA    WORD      x
      00000920H   SYMBOL    EDATA    WORD      y
      00000922H   SYMBOL    EDATA    INT       dat
      00010606H   SYMBOL    XDATA    ---       a
      0001060BH   SYMBOL    XDATA    BYTE      i
      00000924H   SYMBOL    EDATA    WORD      x
      00000926H   SYMBOL    EDATA    WORD      y
      00000928H   SYMBOL    EDATA    WORD      dat
      0001060CH   SYMBOL    XDATA    ---       a
      00010611H   SYMBOL    XDATA    BYTE      i
      0000079EH   SYMBOL    EDATA    WORD      x
      000007A0H   SYMBOL    EDATA    WORD      y
      000007A2H   SYMBOL    EDATA    LONG      dat
      000007A6H   SYMBOL    EDATA    BYTE      num
      0001054EH   SYMBOL    XDATA    ---       buff
      00010570H   SYMBOL    XDATA    BYTE      length
      00000687H   SYMBOL    EDATA    WORD      x
      00000689H   SYMBOL    EDATA    WORD      y
      0000068BH   SYMBOL    EDATA    FLOAT     dat
      0000068FH   SYMBOL    EDATA    BYTE      num
      00000690H   SYMBOL    EDATA    BYTE      pointnum
      000104C0H   SYMBOL    XDATA    BYTE      length
      000104C1H   SYMBOL    XDATA    ---       buff
      000104E3H   SYMBOL    XDATA    CHAR      start
      00000691H   SYMBOL    EDATA    CHAR      end
      00000692H   SYMBOL    EDATA    CHAR      point

      00FF7B20H   BLOCK     CODE     ---       LVL=0
      00000A69H   SYMBOL    EDATA    BYTE      dat
      00FF7B20H   LINE      CODE     ---       #594
      00FF7B24H   LINE      CODE     ---       #596
      00FF7B27H   LINE      CODE     ---       #597
      00FF7B2AH   LINE      CODE     ---       #599
      00FF7B31H   LINE      CODE     ---       #600
      00FF7B34H   LINE      CODE     ---       #601
      ---         BLOCKEND  ---      ---       LVL=0
      00000A6AH   SYMBOL    EDATA    BYTE      dat

      00FF7826H   BLOCK     CODE     ---       LVL=0
      00000A3CH   SYMBOL    EDATA    WORD      dat
      00FF782AH   BLOCK     CODE     NEAR LAB  LVL=1
      000106ABH   SYMBOL    XDATA    ---       dat1
      ---         BLOCKEND  ---      ---       LVL=1
      00FF7826H   LINE      CODE     ---       #626
L251 LINKER/LOCATER V4.66.93.0                                                        04/15/2024  21:19:48  PAGE 76


      00FF782AH   LINE      CODE     ---       #627
      00FF782AH   LINE      CODE     ---       #629
      00FF7832H   LINE      CODE     ---       #630
      00FF783AH   LINE      CODE     ---       #631
      00FF783DH   LINE      CODE     ---       #632
      00FF7840H   LINE      CODE     ---       #633
      00FF7847H   LINE      CODE     ---       #634
      00FF784EH   LINE      CODE     ---       #635
      00FF7851H   LINE      CODE     ---       #636
      ---         BLOCKEND  ---      ---       LVL=0
      00000823H   SYMBOL    EDATA    WORD      x1
      00000825H   SYMBOL    EDATA    WORD      y1
      00000827H   SYMBOL    EDATA    WORD      x2
      00000829H   SYMBOL    EDATA    WORD      y2
      000009D2H   SYMBOL    EDATA    WORD      color
      000106ADH   SYMBOL    XDATA    WORD      i
      000009D4H   SYMBOL    EDATA    WORD      j
      0000092AH   SYMBOL    EDATA    WORD      x
      0000092CH   SYMBOL    EDATA    WORD      y
      0000092EH   SYMBOL    EDATA    WORD      color
      00000930H   SYMBOL    EDATA    WORD      x
      00000932H   SYMBOL    EDATA    WORD      y
      00000934H   SYMBOL    EDATA    CHAR      dat
      000106AFH   SYMBOL    XDATA    BYTE      i
      00000935H   SYMBOL    EDATA    BYTE      j
      000106B0H   SYMBOL    XDATA    BYTE      temp
      0000082BH   SYMBOL    EDATA    WORD      x
      0000082DH   SYMBOL    EDATA    WORD      y
      0000082FH   SYMBOL    EDATA    ---       dat
      000106B1H   SYMBOL    XDATA    WORD      j
      00000986H   SYMBOL    EDATA    WORD      x
      00000988H   SYMBOL    EDATA    WORD      y
      0000098AH   SYMBOL    EDATA    CHAR      dat
      00010667H   SYMBOL    XDATA    ---       a
      0001066AH   SYMBOL    XDATA    BYTE      i
      0000098BH   SYMBOL    EDATA    WORD      x
      0000098DH   SYMBOL    EDATA    WORD      y
      0000098FH   SYMBOL    EDATA    BYTE      dat
      0001066BH   SYMBOL    XDATA    ---       a
      0001066EH   SYMBOL    XDATA    BYTE      i
      00000936H   SYMBOL    EDATA    WORD      x
      00000938H   SYMBOL    EDATA    WORD      y
      0000093AH   SYMBOL    EDATA    INT       dat
      00010612H   SYMBOL    XDATA    ---       a
      00010617H   SYMBOL    XDATA    BYTE      i
      0000093CH   SYMBOL    EDATA    WORD      x
      0000093EH   SYMBOL    EDATA    WORD      y
      00000940H   SYMBOL    EDATA    WORD      dat
      00010618H   SYMBOL    XDATA    ---       a
      0001061DH   SYMBOL    XDATA    BYTE      i
      000007A7H   SYMBOL    EDATA    WORD      x
      000007A9H   SYMBOL    EDATA    WORD      y
      000007ABH   SYMBOL    EDATA    LONG      dat
      000007AFH   SYMBOL    EDATA    BYTE      num
      00010571H   SYMBOL    XDATA    ---       buff
      00010593H   SYMBOL    XDATA    BYTE      length
      00000693H   SYMBOL    EDATA    WORD      x
      00000695H   SYMBOL    EDATA    WORD      y
      00000697H   SYMBOL    EDATA    FLOAT     dat
      0000069BH   SYMBOL    EDATA    BYTE      num
      0000069CH   SYMBOL    EDATA    BYTE      pointnum
      000104E4H   SYMBOL    XDATA    BYTE      length
      000104E5H   SYMBOL    XDATA    ---       buff
      00010507H   SYMBOL    XDATA    CHAR      start
      0000069DH   SYMBOL    EDATA    CHAR      end
L251 LINKER/LOCATER V4.66.93.0                                                        04/15/2024  21:19:48  PAGE 77


      0000069EH   SYMBOL    EDATA    CHAR      point

      ---         MODULE    ---      ---       SEEKFREE_MPU6050
      0000069FH   PUBLIC    EDATA    INT       mpu6050_acc_x
      000006A1H   PUBLIC    EDATA    INT       mpu6050_acc_y
      000006A3H   PUBLIC    EDATA    INT       mpu6050_acc_z
      000006A5H   PUBLIC    EDATA    INT       mpu6050_gyro_x
      000006A7H   PUBLIC    EDATA    INT       mpu6050_gyro_y
      000006A9H   PUBLIC    EDATA    INT       mpu6050_gyro_z
      000000D0H   SFRSYM    DATA     BYTE      PSW
      0000009DH   SFRSYM    DATA     BYTE      IRCBAND
      00000097H   SFRSYM    DATA     BYTE      AUXR2
      000000EFH   SFRSYM    DATA     BYTE      AUXINTIF
      000000FDH   SFRSYM    DATA     BYTE      S4CON
      000000ACH   SFRSYM    DATA     BYTE      S3CON
      0000009AH   SFRSYM    DATA     BYTE      S2CON
      000000B7H   SFRSYM    DATA     BYTE      IPH
      000000CDH   SFRSYM    DATA     BYTE      SPSTAT
      000000DDH   SFRSYM    DATA     BYTE      T4T3M
      000000C1H   SFRSYM    DATA     BYTE      WDT_CONTR
      000000DFH   SFRSYM    DATA     BYTE      IP3
      000000F4H   SFRSYM    DATA     BYTE      USBCON
      000000B5H   SFRSYM    DATA     BYTE      IP2
      000000FFH   SFRSYM    DATA     BYTE      RSTCFG
      000000F9H   SFRSYM    DATA     BYTE      LINICR
      0000008EH   SFRSYM    DATA     BYTE      AUXR
      000000AFH   SFRSYM    DATA     BYTE      IE2
      00000088H   SFRSYM    DATA     BYTE      TCON
      000000C0H.1 SFRSYM    DATA     BIT       P41
      00000098H   SFRSYM    DATA     BYTE      SCON
      000000C0H.0 SFRSYM    DATA     BIT       P40
      000000F1H   SFRSYM    DATA     BYTE      CANICR
      00000087H   SFRSYM    DATA     BYTE      PCON
      000000BCH   SFRSYM    DATA     BYTE      ADC_CONTR
      000000E7H   SFRSYM    DATA     BYTE      CMPCR2
      000000E6H   SFRSYM    DATA     BYTE      CMPCR1
      000000B8H   SFRSYM    DATA     BYTE      IP
      0000008FH   SFRSYM    DATA     BYTE      INTCLKO
      000000EEH   SFRSYM    DATA     BYTE      IP3H
      000000B6H   SFRSYM    DATA     BYTE      IP2H
      000000A8H   SFRSYM    DATA     BYTE      IE
      000000BBH   SFRSYM    DATA     BYTE      P_SW3
      000000BAH   SFRSYM    DATA     BYTE      P_SW2
      000000A2H   SFRSYM    DATA     BYTE      P_SW1
      000000CEH   SFRSYM    DATA     BYTE      SPCTL
      000000F8H   SFRSYM    DATA     BYTE      P7
      000000E8H   SFRSYM    DATA     BYTE      P6
      000000C8H   SFRSYM    DATA     BYTE      P5
      000000C0H   SFRSYM    DATA     BYTE      P4
      000000B0H   SFRSYM    DATA     BYTE      P3
      000000A0H   SFRSYM    DATA     BYTE      P2
      00000090H   SFRSYM    DATA     BYTE      P1
      00000080H   SFRSYM    DATA     BYTE      P0
      00FF7B86H   SYMBOL    CODE     ---       mpu6050_simiic_start
      00FF7AE0H   SYMBOL    CODE     ---       mpu6050_simiic_stop
      00FF78CCH   SYMBOL    CODE     ---       mpu6050_simiic_sendack
      00FF7A55H   SYMBOL    CODE     ---       mpu6050_simiic_delay

      00FF7A55H   BLOCK     CODE     ---       LVL=0
      000106B3H   SYMBOL    XDATA    WORD      j
      00FF7A55H   LINE      CODE     ---       #52
      00FF7A55H   LINE      CODE     ---       #53
      00FF7A55H   LINE      CODE     ---       #54
      00FF7A5DH   LINE      CODE     ---       #55
      00FF7A74H   LINE      CODE     ---       #56
L251 LINKER/LOCATER V4.66.93.0                                                        04/15/2024  21:19:48  PAGE 78


      ---         BLOCKEND  ---      ---       LVL=0

      00FF7B86H   BLOCK     CODE     ---       LVL=0
      00FF7B86H   LINE      CODE     ---       #59
      00FF7B86H   LINE      CODE     ---       #61
      00FF7B89H   LINE      CODE     ---       #62
      00FF7B8CH   LINE      CODE     ---       #63
      00FF7B8FH   LINE      CODE     ---       #64
      00FF7B92H   LINE      CODE     ---       #65
      00FF7B95H   LINE      CODE     ---       #66
      00FF7B98H   LINE      CODE     ---       #67
      ---         BLOCKEND  ---      ---       LVL=0

      00FF7AE0H   BLOCK     CODE     ---       LVL=0
      00FF7AE0H   LINE      CODE     ---       #70
      00FF7AE0H   LINE      CODE     ---       #72
      00FF7AE3H   LINE      CODE     ---       #73
      00FF7AE6H   LINE      CODE     ---       #74
      00FF7AE9H   LINE      CODE     ---       #75
      00FF7AECH   LINE      CODE     ---       #76
      00FF7AEFH   LINE      CODE     ---       #77
      00FF7AF2H   LINE      CODE     ---       #78
      00FF7AF5H   LINE      CODE     ---       #79
      ---         BLOCKEND  ---      ---       LVL=0

      00FF78CCH   BLOCK     CODE     ---       LVL=0
      00000A6BH   SYMBOL    EDATA    BYTE      ack_dat
      00FF78CCH   LINE      CODE     ---       #83
      00FF78D0H   LINE      CODE     ---       #85
      00FF78D3H   LINE      CODE     ---       #86
      00FF78D6H   LINE      CODE     ---       #87
      00FF78E4H   LINE      CODE     ---       #88
      00FF78E7H   LINE      CODE     ---       #89
      00FF78EAH   LINE      CODE     ---       #90
      00FF78EDH   LINE      CODE     ---       #91
      00FF78F0H   LINE      CODE     ---       #92
      00FF78F3H   LINE      CODE     ---       #93
      ---         BLOCKEND  ---      ---       LVL=0
      00000A6CH   SYMBOL    EDATA    BYTE      c
      000106D3H   SYMBOL    XDATA    BYTE      i
      00000A6DH   SYMBOL    EDATA    BYTE      ack_x
      000106B5H   SYMBOL    XDATA    BYTE      i
      000106B6H   SYMBOL    XDATA    BYTE      c
      00000A02H   SYMBOL    EDATA    BYTE      dev_add
      00000A03H   SYMBOL    EDATA    BYTE      reg
      00000A04H   SYMBOL    EDATA    BYTE      dat
      00000A3EH   SYMBOL    EDATA    BYTE      dev_add
      00000A3FH   SYMBOL    EDATA    BYTE      reg
      000106D4H   SYMBOL    XDATA    BYTE      dat
      00000872H   SYMBOL    EDATA    BYTE      dev_add
      00000873H   SYMBOL    EDATA    BYTE      reg
      00000874H   SYMBOL    EDATA    ---       dat_add
      00000878H   SYMBOL    EDATA    BYTE      num
      0001061EH   SYMBOL    XDATA    ---       dat
      00010624H   SYMBOL    XDATA    ---       dat

      ---         MODULE    ---      ---       SEEKFREE_OLED
      00FF7798H   PUBLIC    CODE     ---       oled_set_pos
      00FF7548H   PUBLIC    CODE     ---       oled_wrcmd
      00FF7593H   PUBLIC    CODE     ---       oled_wrdat
      00FF76F8H   PUBLIC    CODE     ---       oled_set_pos_spi
      00FF5E03H   PUBLIC    CODE     ---       oled_printf_float_spi
      00FF7B35H   PUBLIC    CODE     ---       oled_wrcmd_spi
      00FF7B4AH   PUBLIC    CODE     ---       oled_wrdat_spi
      00FF6F74H   PUBLIC    CODE     ---       oled_fill_spi
L251 LINKER/LOCATER V4.66.93.0                                                        04/15/2024  21:19:48  PAGE 79


      00FF6511H   PUBLIC    CODE     ---       oled_printf_int32_spi
      00FF6371H   PUBLIC    CODE     ---       oled_p6x8str_spi
      00FF65DFH   PUBLIC    CODE     ---       oled_init_spi
      000003C7H   PUBLIC    EDATA    BYTE      ?oled_printf_float?BYTE
      000003F7H   PUBLIC    EDATA    BYTE      ?oled_printf_float_spi?BYTE
      000000D0H   SFRSYM    DATA     BYTE      PSW
      0000009DH   SFRSYM    DATA     BYTE      IRCBAND
      00000097H   SFRSYM    DATA     BYTE      AUXR2
      000000EFH   SFRSYM    DATA     BYTE      AUXINTIF
      000000FDH   SFRSYM    DATA     BYTE      S4CON
      000000ACH   SFRSYM    DATA     BYTE      S3CON
      0000009AH   SFRSYM    DATA     BYTE      S2CON
      000000B7H   SFRSYM    DATA     BYTE      IPH
      000000CDH   SFRSYM    DATA     BYTE      SPSTAT
      000000DDH   SFRSYM    DATA     BYTE      T4T3M
      000000C1H   SFRSYM    DATA     BYTE      WDT_CONTR
      000000DFH   SFRSYM    DATA     BYTE      IP3
      000000F4H   SFRSYM    DATA     BYTE      USBCON
      000000B5H   SFRSYM    DATA     BYTE      IP2
      000000FFH   SFRSYM    DATA     BYTE      RSTCFG
      000000F9H   SFRSYM    DATA     BYTE      LINICR
      0000008EH   SFRSYM    DATA     BYTE      AUXR
      000000AFH   SFRSYM    DATA     BYTE      IE2
      000000A0H.5 SFRSYM    DATA     BIT       P25
      00000088H   SFRSYM    DATA     BYTE      TCON
      000000A0H.3 SFRSYM    DATA     BIT       P23
      00000098H   SFRSYM    DATA     BYTE      SCON
      000000A0H.2 SFRSYM    DATA     BIT       P22
      000000A0H.1 SFRSYM    DATA     BIT       P21
      000000A0H.0 SFRSYM    DATA     BIT       P20
      000000F1H   SFRSYM    DATA     BYTE      CANICR
      00000087H   SFRSYM    DATA     BYTE      PCON
      000000BCH   SFRSYM    DATA     BYTE      ADC_CONTR
      000000E7H   SFRSYM    DATA     BYTE      CMPCR2
      000000E6H   SFRSYM    DATA     BYTE      CMPCR1
      000000B8H   SFRSYM    DATA     BYTE      IP
      0000008FH   SFRSYM    DATA     BYTE      INTCLKO
      000000EEH   SFRSYM    DATA     BYTE      IP3H
      000000B6H   SFRSYM    DATA     BYTE      IP2H
      000000A8H   SFRSYM    DATA     BYTE      IE
      000000BBH   SFRSYM    DATA     BYTE      P_SW3
      000000BAH   SFRSYM    DATA     BYTE      P_SW2
      000000A2H   SFRSYM    DATA     BYTE      P_SW1
      000000CEH   SFRSYM    DATA     BYTE      SPCTL
      000000F8H   SFRSYM    DATA     BYTE      P7
      000000E8H   SFRSYM    DATA     BYTE      P6
      000000C8H   SFRSYM    DATA     BYTE      P5
      000000C0H   SFRSYM    DATA     BYTE      P4
      000000B0H   SFRSYM    DATA     BYTE      P3
      000000A0H   SFRSYM    DATA     BYTE      P2
      00000090H   SFRSYM    DATA     BYTE      P1
      00000080H   SFRSYM    DATA     BYTE      P0

      00FF7593H   BLOCK     CODE     ---       LVL=0
      00000A6EH   SYMBOL    EDATA    BYTE      dat
      00FF7597H   BLOCK     CODE     NEAR LAB  LVL=1
      000106D5H   SYMBOL    XDATA    BYTE      i
      ---         BLOCKEND  ---      ---       LVL=1
      00FF7593H   LINE      CODE     ---       #47
      00FF7597H   LINE      CODE     ---       #48
      00FF7597H   LINE      CODE     ---       #49
      00FF759DH   LINE      CODE     ---       #51
      00FF75A0H   LINE      CODE     ---       #52
      00FF75A3H   LINE      CODE     ---       #53
      00FF75A6H   LINE      CODE     ---       #54
L251 LINKER/LOCATER V4.66.93.0                                                        04/15/2024  21:19:48  PAGE 80


      00FF75A8H   LINE      CODE     ---       #56
      00FF75B4H   LINE      CODE     ---       #57
      00FF75B7H   LINE      CODE     ---       #58
      00FF75BAH   LINE      CODE     ---       #60
      00FF75BDH   LINE      CODE     ---       #61
      00FF75C7H   LINE      CODE     ---       #62
      00FF75DAH   LINE      CODE     ---       #63
      00FF75DDH   LINE      CODE     ---       #64
      ---         BLOCKEND  ---      ---       LVL=0

      00FF7548H   BLOCK     CODE     ---       LVL=0
      00000A6FH   SYMBOL    EDATA    BYTE      cmd
      00FF754CH   BLOCK     CODE     NEAR LAB  LVL=1
      000106D6H   SYMBOL    XDATA    BYTE      i
      ---         BLOCKEND  ---      ---       LVL=1
      00FF7548H   LINE      CODE     ---       #98
      00FF754CH   LINE      CODE     ---       #99
      00FF754CH   LINE      CODE     ---       #100
      00FF7552H   LINE      CODE     ---       #102
      00FF7555H   LINE      CODE     ---       #103
      00FF7558H   LINE      CODE     ---       #104
      00FF755BH   LINE      CODE     ---       #106
      00FF755DH   LINE      CODE     ---       #108
      00FF7569H   LINE      CODE     ---       #109
      00FF756CH   LINE      CODE     ---       #110
      00FF756FH   LINE      CODE     ---       #112
      00FF7572H   LINE      CODE     ---       #113
      00FF757CH   LINE      CODE     ---       #114
      00FF758FH   LINE      CODE     ---       #115
      00FF7592H   LINE      CODE     ---       #116
      ---         BLOCKEND  ---      ---       LVL=0
      00000942H   SYMBOL    EDATA    WORD      hex
      00000944H   SYMBOL    EDATA    ---       Print
      000106B7H   SYMBOL    XDATA    BYTE      hexcheck
      000106B8H   SYMBOL    XDATA    BYTE      TEMP

      00FF7798H   BLOCK     CODE     ---       LVL=0
      00000A40H   SYMBOL    EDATA    BYTE      x
      00000A41H   SYMBOL    EDATA    BYTE      y
      00FF7798H   LINE      CODE     ---       #205
      00FF77A0H   LINE      CODE     ---       #207
      00FF77ABH   LINE      CODE     ---       #208
      00FF77C1H   LINE      CODE     ---       #209
      00FF77CCH   LINE      CODE     ---       #210
      ---         BLOCKEND  ---      ---       LVL=0
      00000A42H   SYMBOL    EDATA    BYTE      bmp_data
      000106D7H   SYMBOL    XDATA    BYTE      y
      00000A43H   SYMBOL    EDATA    BYTE      x
      00000A05H   SYMBOL    EDATA    BYTE      x
      00000A06H   SYMBOL    EDATA    BYTE      y
      00000A07H   SYMBOL    EDATA    BYTE      data1
      00000A44H   SYMBOL    EDATA    BYTE      x
      00000A45H   SYMBOL    EDATA    BYTE      y
      00000833H   SYMBOL    EDATA    BYTE      x
      00000834H   SYMBOL    EDATA    BYTE      y
      00000835H   SYMBOL    EDATA    ---       ch
      000106D8H   SYMBOL    XDATA    BYTE      c
      00000839H   SYMBOL    EDATA    BYTE      i
      0000083AH   SYMBOL    EDATA    BYTE      j
      0000083BH   SYMBOL    EDATA    BYTE      x
      0000083CH   SYMBOL    EDATA    BYTE      y
      0000083DH   SYMBOL    EDATA    ---       ch
      000106D9H   SYMBOL    XDATA    BYTE      c
      00000841H   SYMBOL    EDATA    BYTE      i
      00000842H   SYMBOL    EDATA    BYTE      j
L251 LINKER/LOCATER V4.66.93.0                                                        04/15/2024  21:19:48  PAGE 81


      000006ABH   SYMBOL    EDATA    BYTE      x
      000006ACH   SYMBOL    EDATA    BYTE      y
      000006ADH   SYMBOL    EDATA    WORD      num
      000006AFH   SYMBOL    EDATA    ---       ch
      000006B6H   SYMBOL    EDATA    BYTE      x
      000006B7H   SYMBOL    EDATA    BYTE      y
      000006B8H   SYMBOL    EDATA    INT       num
      000006BAH   SYMBOL    EDATA    ---       ch
      00000427H   SYMBOL    EDATA    WORD      x
      00000429H   SYMBOL    EDATA    WORD      y
      0000042BH   SYMBOL    EDATA    LONG      dat
      0000042FH   SYMBOL    EDATA    BYTE      num
      00000430H   SYMBOL    EDATA    ---       buff
      00000452H   SYMBOL    EDATA    BYTE      length
      000003C7H   SYMBOL    EDATA    WORD      x
      000003C9H   SYMBOL    EDATA    WORD      y
      000003CBH   SYMBOL    EDATA    FLOAT     dat
      000003CFH   SYMBOL    EDATA    BYTE      num
      000003D0H   SYMBOL    EDATA    BYTE      pointnum
      000003D1H   SYMBOL    EDATA    BYTE      length
      000003D2H   SYMBOL    EDATA    ---       buff
      000003F4H   SYMBOL    EDATA    CHAR      start
      000003F5H   SYMBOL    EDATA    CHAR      end
      000003F6H   SYMBOL    EDATA    CHAR      point
      000005B0H   SYMBOL    EDATA    WORD      high
      000005B2H   SYMBOL    EDATA    WORD      width
      000005B4H   SYMBOL    EDATA    ---       p
      000005B8H   SYMBOL    EDATA    BYTE      value
      000005B9H   SYMBOL    EDATA    WORD      i
      000106B9H   SYMBOL    XDATA    WORD      j
      000005BBH   SYMBOL    EDATA    WORD      temp
      000005BDH   SYMBOL    EDATA    WORD      temp1
      000005BFH   SYMBOL    EDATA    BYTE      dat
      000005FBH   SYMBOL    EDATA    BYTE      x
      000005FCH   SYMBOL    EDATA    BYTE      y
      000005FDH   SYMBOL    EDATA    BYTE      size
      000005FEH   SYMBOL    EDATA    ---       p
      00000602H   SYMBOL    EDATA    BYTE      len
      00000603H   SYMBOL    EDATA    WORD      i
      00000605H   SYMBOL    EDATA    WORD      j
      00000607H   SYMBOL    EDATA    WORD      k

      00FF7B4AH   BLOCK     CODE     ---       LVL=0
      00000A70H   SYMBOL    EDATA    BYTE      dat
      00FF7B4AH   LINE      CODE     ---       #534
      00FF7B4EH   LINE      CODE     ---       #536
      00FF7B51H   LINE      CODE     ---       #537
      00FF7B54H   LINE      CODE     ---       #538
      00FF7B5BH   LINE      CODE     ---       #539
      00FF7B5EH   LINE      CODE     ---       #542
      ---         BLOCKEND  ---      ---       LVL=0

      00FF7B35H   BLOCK     CODE     ---       LVL=0
      00000A71H   SYMBOL    EDATA    BYTE      cmd
      00FF7B35H   LINE      CODE     ---       #576
      00FF7B39H   LINE      CODE     ---       #578
      00FF7B3CH   LINE      CODE     ---       #579
      00FF7B3FH   LINE      CODE     ---       #580
      00FF7B46H   LINE      CODE     ---       #581
      00FF7B49H   LINE      CODE     ---       #582
      ---         BLOCKEND  ---      ---       LVL=0
      00000948H   SYMBOL    EDATA    WORD      hex
      0000094AH   SYMBOL    EDATA    ---       Print
      000106BBH   SYMBOL    XDATA    BYTE      hexcheck
      000106BCH   SYMBOL    XDATA    BYTE      TEMP
L251 LINKER/LOCATER V4.66.93.0                                                        04/15/2024  21:19:48  PAGE 82



      00FF65DFH   BLOCK     CODE     ---       LVL=0
      00FF65DFH   LINE      CODE     ---       #614
      00FF65DFH   LINE      CODE     ---       #617
      00FF65E2H   LINE      CODE     ---       #619
      00FF6602H   LINE      CODE     ---       #621
      00FF6605H   LINE      CODE     ---       #622
      00FF660CH   LINE      CODE     ---       #623
      00FF660FH   LINE      CODE     ---       #625
      00FF6614H   LINE      CODE     ---       #626
      00FF6618H   LINE      CODE     ---       #627
      00FF661DH   LINE      CODE     ---       #628
      00FF6622H   LINE      CODE     ---       #629
      00FF6627H   LINE      CODE     ---       #630
      00FF662CH   LINE      CODE     ---       #633
      00FF6631H   LINE      CODE     ---       #634
      00FF6636H   LINE      CODE     ---       #640
      00FF663BH   LINE      CODE     ---       #641
      00FF6640H   LINE      CODE     ---       #642
      00FF6645H   LINE      CODE     ---       #643
      00FF664AH   LINE      CODE     ---       #644
      00FF664EH   LINE      CODE     ---       #645
      00FF6653H   LINE      CODE     ---       #646
      00FF6658H   LINE      CODE     ---       #647
      00FF665DH   LINE      CODE     ---       #648
      00FF6662H   LINE      CODE     ---       #649
      00FF6667H   LINE      CODE     ---       #650
      00FF666CH   LINE      CODE     ---       #651
      00FF6671H   LINE      CODE     ---       #652
      00FF6676H   LINE      CODE     ---       #653
      00FF667BH   LINE      CODE     ---       #654
      00FF6680H   LINE      CODE     ---       #655
      00FF6685H   LINE      CODE     ---       #656
      00FF668AH   LINE      CODE     ---       #657
      00FF668FH   LINE      CODE     ---       #658
      00FF6694H   LINE      CODE     ---       #659
      00FF6699H   LINE      CODE     ---       #660
      00FF669DH   LINE      CODE     ---       #661
      00FF66A3H   LINE      CODE     ---       #662
      ---         BLOCKEND  ---      ---       LVL=0

      00FF76F8H   BLOCK     CODE     ---       LVL=0
      00000A46H   SYMBOL    EDATA    BYTE      x
      00000A47H   SYMBOL    EDATA    BYTE      y
      00FF76F8H   LINE      CODE     ---       #672
      00FF7700H   LINE      CODE     ---       #676
      00FF770BH   LINE      CODE     ---       #677
      00FF7722H   LINE      CODE     ---       #678
      00FF772DH   LINE      CODE     ---       #679
      ---         BLOCKEND  ---      ---       LVL=0

      00FF6F74H   BLOCK     CODE     ---       LVL=0
      00000A48H   SYMBOL    EDATA    BYTE      bmp_data
      00FF6F78H   BLOCK     CODE     NEAR LAB  LVL=1
      000106DAH   SYMBOL    XDATA    BYTE      y
      00000A49H   SYMBOL    EDATA    BYTE      x
      ---         BLOCKEND  ---      ---       LVL=1
      00FF6F74H   LINE      CODE     ---       #688
      00FF6F78H   LINE      CODE     ---       #689
      00FF6F78H   LINE      CODE     ---       #692
      00FF6F7FH   LINE      CODE     ---       #694
      00FF6F8CH   LINE      CODE     ---       #695
      00FF6F91H   LINE      CODE     ---       #696
      00FF6F96H   LINE      CODE     ---       #697
      00FF6FBBH   LINE      CODE     ---       #698
L251 LINKER/LOCATER V4.66.93.0                                                        04/15/2024  21:19:48  PAGE 83


      00FF6FD2H   LINE      CODE     ---       #699
      ---         BLOCKEND  ---      ---       LVL=0
      00000A08H   SYMBOL    EDATA    BYTE      x
      00000A09H   SYMBOL    EDATA    BYTE      y
      00000A0AH   SYMBOL    EDATA    BYTE      data1
      00000A4AH   SYMBOL    EDATA    BYTE      x
      00000A4BH   SYMBOL    EDATA    BYTE      y

      00FF6371H   BLOCK     CODE     ---       LVL=0
      00000843H   SYMBOL    EDATA    BYTE      x
      00000844H   SYMBOL    EDATA    BYTE      y
      00000845H   SYMBOL    EDATA    ---       ch
      00FF637DH   BLOCK     CODE     NEAR LAB  LVL=1
      000106DBH   SYMBOL    XDATA    BYTE      c
      00000849H   SYMBOL    EDATA    BYTE      i
      0000084AH   SYMBOL    EDATA    BYTE      j
      ---         BLOCKEND  ---      ---       LVL=1
      00FF6371H   LINE      CODE     ---       #748
      00FF637DH   LINE      CODE     ---       #749
      00FF637DH   LINE      CODE     ---       #750
      00FF638CH   LINE      CODE     ---       #751
      00FF638FH   LINE      CODE     ---       #753
      00FF63AAH   LINE      CODE     ---       #754
      00FF63C6H   LINE      CODE     ---       #755
      00FF63D1H   LINE      CODE     ---       #756
      00FF6412H   LINE      CODE     ---       #757
      00FF641EH   LINE      CODE     ---       #758
      00FF642BH   LINE      CODE     ---       #759
      00FF6442H   LINE      CODE     ---       #760
      ---         BLOCKEND  ---      ---       LVL=0
      0000084BH   SYMBOL    EDATA    BYTE      x
      0000084CH   SYMBOL    EDATA    BYTE      y
      0000084DH   SYMBOL    EDATA    ---       ch
      000106DCH   SYMBOL    XDATA    BYTE      c
      00000851H   SYMBOL    EDATA    BYTE      i
      00000852H   SYMBOL    EDATA    BYTE      j
      000006C1H   SYMBOL    EDATA    BYTE      x
      000006C2H   SYMBOL    EDATA    BYTE      y
      000006C3H   SYMBOL    EDATA    WORD      num
      000006C5H   SYMBOL    EDATA    ---       ch
      000006CCH   SYMBOL    EDATA    BYTE      x
      000006CDH   SYMBOL    EDATA    BYTE      y
      000006CEH   SYMBOL    EDATA    INT       num
      000006D0H   SYMBOL    EDATA    ---       ch

      00FF6511H   BLOCK     CODE     ---       LVL=0
      00000453H   SYMBOL    EDATA    WORD      x
      00000455H   SYMBOL    EDATA    WORD      y
      00000457H   SYMBOL    EDATA    LONG      dat
      0000045BH   SYMBOL    EDATA    BYTE      num
      00FF6521H   BLOCK     CODE     NEAR LAB  LVL=1
      0000045CH   SYMBOL    EDATA    ---       buff
      0000047EH   SYMBOL    EDATA    BYTE      length
      ---         BLOCKEND  ---      ---       LVL=1
      00FF6511H   LINE      CODE     ---       #841
      00FF6521H   LINE      CODE     ---       #842
      00FF6521H   LINE      CODE     ---       #846
      00FF6531H   LINE      CODE     ---       #848
      00FF653EH   LINE      CODE     ---       #849
      00FF6565H   LINE      CODE     ---       #852
      00FF656BH   LINE      CODE     ---       #853
      00FF6586H   LINE      CODE     ---       #854
      00FF6593H   LINE      CODE     ---       #855
      00FF6593H   LINE      CODE     ---       #856
      00FF6595H   LINE      CODE     ---       #858
L251 LINKER/LOCATER V4.66.93.0                                                        04/15/2024  21:19:48  PAGE 84


      00FF65A6H   LINE      CODE     ---       #859
      00FF65B3H   LINE      CODE     ---       #860
      00FF65BFH   LINE      CODE     ---       #861
      00FF65CFH   LINE      CODE     ---       #863
      00FF65DEH   LINE      CODE     ---       #864
      ---         BLOCKEND  ---      ---       LVL=0

      00FF5E03H   BLOCK     CODE     ---       LVL=0
      000003F7H   SYMBOL    EDATA    WORD      x
      000003F9H   SYMBOL    EDATA    WORD      y
      000003FBH   SYMBOL    EDATA    FLOAT     dat
      000003FFH   SYMBOL    EDATA    BYTE      num
      00000400H   SYMBOL    EDATA    BYTE      pointnum
      00FF5E13H   BLOCK     CODE     NEAR LAB  LVL=1
      00000401H   SYMBOL    EDATA    BYTE      length
      00000402H   SYMBOL    EDATA    ---       buff
      00000424H   SYMBOL    EDATA    CHAR      start
      00000425H   SYMBOL    EDATA    CHAR      end
      00000426H   SYMBOL    EDATA    CHAR      point
      ---         BLOCKEND  ---      ---       LVL=1
      00FF5E03H   LINE      CODE     ---       #881
      00FF5E13H   LINE      CODE     ---       #882
      00FF5E13H   LINE      CODE     ---       #887
      00FF5E23H   LINE      CODE     ---       #888
      00FF5E33H   LINE      CODE     ---       #890
      00FF5E5BH   LINE      CODE     ---       #893
      00FF5E76H   LINE      CODE     ---       #894
      00FF5E83H   LINE      CODE     ---       #895
      00FF5E83H   LINE      CODE     ---       #896
      00FF5E93H   LINE      CODE     ---       #897
      00FF5EABH   LINE      CODE     ---       #898
      00FF5EC3H   LINE      CODE     ---       #899
      00FF5EC5H   LINE      CODE     ---       #901
      00FF5ED6H   LINE      CODE     ---       #902
      00FF5EE3H   LINE      CODE     ---       #903
      00FF5EF0H   LINE      CODE     ---       #904
      00FF5EF9H   LINE      CODE     ---       #906
      00FF5F17H   LINE      CODE     ---       #907
      00FF5F28H   LINE      CODE     ---       #909
      00FF5F38H   LINE      CODE     ---       #911
      00FF5F47H   LINE      CODE     ---       #912
      ---         BLOCKEND  ---      ---       LVL=0
      000005C0H   SYMBOL    EDATA    WORD      high
      000005C2H   SYMBOL    EDATA    WORD      width
      000005C4H   SYMBOL    EDATA    ---       p
      000005C8H   SYMBOL    EDATA    BYTE      value
      000106BDH   SYMBOL    XDATA    WORD      i
      000005C9H   SYMBOL    EDATA    WORD      j
      000005CBH   SYMBOL    EDATA    WORD      temp
      000005CDH   SYMBOL    EDATA    WORD      temp1
      000005CFH   SYMBOL    EDATA    BYTE      dat
      00000609H   SYMBOL    EDATA    BYTE      x
      0000060AH   SYMBOL    EDATA    BYTE      y
      0000060BH   SYMBOL    EDATA    BYTE      size
      0000060CH   SYMBOL    EDATA    ---       p
      00000610H   SYMBOL    EDATA    BYTE      len
      00000611H   SYMBOL    EDATA    WORD      i
      00000613H   SYMBOL    EDATA    WORD      j
      00000615H   SYMBOL    EDATA    WORD      k

      ---         MODULE    ---      ---       SEEKFREE_PRINTF
      00FF5F48H   PUBLIC    CODE     ---       number_conversion_ascii
      00FF42B6H   PUBLIC    CODE     ---       zf_sprintf
      00FF6882H   PUBLIC    CODE     ---       printf_reverse_order
      00000558H   PUBLIC    EDATA    BYTE      ?number_conversion_ascii?BYTE
L251 LINKER/LOCATER V4.66.93.0                                                        04/15/2024  21:19:48  PAGE 85


      00000336H   PUBLIC    EDATA    BYTE      ?zf_sprintf?BYTE
      000000D0H   SFRSYM    DATA     BYTE      PSW
      0000009DH   SFRSYM    DATA     BYTE      IRCBAND
      00000097H   SFRSYM    DATA     BYTE      AUXR2
      000000EFH   SFRSYM    DATA     BYTE      AUXINTIF
      000000FDH   SFRSYM    DATA     BYTE      S4CON
      000000ACH   SFRSYM    DATA     BYTE      S3CON
      0000009AH   SFRSYM    DATA     BYTE      S2CON
      000000B7H   SFRSYM    DATA     BYTE      IPH
      000000CDH   SFRSYM    DATA     BYTE      SPSTAT
      000000DDH   SFRSYM    DATA     BYTE      T4T3M
      000000C1H   SFRSYM    DATA     BYTE      WDT_CONTR
      000000DFH   SFRSYM    DATA     BYTE      IP3
      000000F4H   SFRSYM    DATA     BYTE      USBCON
      000000B5H   SFRSYM    DATA     BYTE      IP2
      000000FFH   SFRSYM    DATA     BYTE      RSTCFG
      000000F9H   SFRSYM    DATA     BYTE      LINICR
      0000008EH   SFRSYM    DATA     BYTE      AUXR
      000000AFH   SFRSYM    DATA     BYTE      IE2
      00000088H   SFRSYM    DATA     BYTE      TCON
      00000098H   SFRSYM    DATA     BYTE      SCON
      000000F1H   SFRSYM    DATA     BYTE      CANICR
      00000087H   SFRSYM    DATA     BYTE      PCON
      000000BCH   SFRSYM    DATA     BYTE      ADC_CONTR
      000000E7H   SFRSYM    DATA     BYTE      CMPCR2
      000000E6H   SFRSYM    DATA     BYTE      CMPCR1
      000000B8H   SFRSYM    DATA     BYTE      IP
      0000008FH   SFRSYM    DATA     BYTE      INTCLKO
      000000EEH   SFRSYM    DATA     BYTE      IP3H
      000000B6H   SFRSYM    DATA     BYTE      IP2H
      000000A8H   SFRSYM    DATA     BYTE      IE
      000000BBH   SFRSYM    DATA     BYTE      P_SW3
      000000BAH   SFRSYM    DATA     BYTE      P_SW2
      000000A2H   SFRSYM    DATA     BYTE      P_SW1
      000000CEH   SFRSYM    DATA     BYTE      SPCTL
      000000F8H   SFRSYM    DATA     BYTE      P7
      000000E8H   SFRSYM    DATA     BYTE      P6
      000000C8H   SFRSYM    DATA     BYTE      P5
      000000C0H   SFRSYM    DATA     BYTE      P4
      000000B0H   SFRSYM    DATA     BYTE      P3
      000000A0H   SFRSYM    DATA     BYTE      P2
      00000090H   SFRSYM    DATA     BYTE      P1
      00000080H   SFRSYM    DATA     BYTE      P0

      00FF5F48H   BLOCK     CODE     ---       LVL=0
      00000558H   SYMBOL    EDATA    DWORD     dat
      0000055CH   SYMBOL    EDATA    ---       p
      00000560H   SYMBOL    EDATA    BYTE      neg_type
      00000561H   SYMBOL    EDATA    BYTE      radix
      00FF5F54H   BLOCK     CODE     NEAR LAB  LVL=1
      00000562H   SYMBOL    EDATA    LONG      neg_dat
      00000566H   SYMBOL    EDATA    DWORD     pos_dat
      0000056AH   SYMBOL    EDATA    BYTE      temp_data
      0000056BH   SYMBOL    EDATA    BYTE      valid_num
      ---         BLOCKEND  ---      ---       LVL=1
      00FF5F48H   LINE      CODE     ---       #29
      00FF5F54H   LINE      CODE     ---       #30
      00FF5F54H   LINE      CODE     ---       #33
      00FF5F59H   LINE      CODE     ---       #34
      00FF5F5EH   LINE      CODE     ---       #36
      00FF5F67H   LINE      CODE     ---       #38
      00FF5F6FH   LINE      CODE     ---       #39
      00FF5F87H   LINE      CODE     ---       #40
      00FF5F87H   LINE      CODE     ---       #42
      00FF5FA3H   LINE      CODE     ---       #43
L251 LINKER/LOCATER V4.66.93.0                                                        04/15/2024  21:19:48  PAGE 86


      00FF5FB6H   LINE      CODE     ---       #44
      00FF5FC3H   LINE      CODE     ---       #46
      00FF5FCBH   LINE      CODE     ---       #47
      00FF5FD5H   LINE      CODE     ---       #48
      00FF5FD7H   LINE      CODE     ---       #49
      00FF5FDAH   LINE      CODE     ---       #52
      00FF5FE2H   LINE      CODE     ---       #53
      00FF5FE2H   LINE      CODE     ---       #55
      00FF5FF7H   LINE      CODE     ---       #56
      00FF600FH   LINE      CODE     ---       #57
      00FF601BH   LINE      CODE     ---       #59
      00FF6026H   LINE      CODE     ---       #61
      00FF6039H   LINE      CODE     ---       #62
      00FF6046H   LINE      CODE     ---       #64
      00FF604EH   LINE      CODE     ---       #65
      00FF6058H   LINE      CODE     ---       #66
      00FF605AH   LINE      CODE     ---       #67
      00FF605AH   LINE      CODE     ---       #68
      00FF605EH   LINE      CODE     ---       #69
      ---         BLOCKEND  ---      ---       LVL=0

      00FF6882H   BLOCK     CODE     ---       LVL=0
      00000632H   SYMBOL    EDATA    ---       d_buff
      00000636H   SYMBOL    EDATA    DWORD     len
      00FF688AH   BLOCK     CODE     NEAR LAB  LVL=1
      0000063AH   SYMBOL    EDATA    DWORD     i
      0000063EH   SYMBOL    EDATA    CHAR      temp_data
      ---         BLOCKEND  ---      ---       LVL=1
      00FF6882H   LINE      CODE     ---       #71
      00FF688AH   LINE      CODE     ---       #72
      00FF688AH   LINE      CODE     ---       #75
      00FF6892H   LINE      CODE     ---       #77
      00FF68B1H   LINE      CODE     ---       #78
      00FF68DBH   LINE      CODE     ---       #79
      00FF68EEH   LINE      CODE     ---       #80
      00FF6916H   LINE      CODE     ---       #81
      ---         BLOCKEND  ---      ---       LVL=0

      00FF42B6H   BLOCK     CODE     ---       LVL=0
      00000336H   SYMBOL    EDATA    ---       buff
      0000033AH   SYMBOL    EDATA    ---       format
      00FF42BEH   BLOCK     CODE     NEAR LAB  LVL=1
      0000033EH   SYMBOL    EDATA    DWORD     buff_len
      00000342H   SYMBOL    EDATA    ---       arg
      00FF42D3H   BLOCK     CODE     NEAR LAB  LVL=2
      00000346H   SYMBOL    EDATA    CHAR      ret
      00FF4408H   BLOCK     CODE     NEAR LAB  LVL=3
      00000347H   SYMBOL    EDATA    CHAR      ch
      ---         BLOCKEND  ---      ---       LVL=3
      00FF4447H   BLOCK     CODE     NEAR LAB  LVL=3
      00000347H   SYMBOL    EDATA    ---       vstr
      00000368H   SYMBOL    EDATA    LONG      ival
      0000036CH   SYMBOL    EDATA    BYTE      vlen
      ---         BLOCKEND  ---      ---       LVL=3
      00FF44E8H   BLOCK     CODE     NEAR LAB  LVL=3
      00000347H   SYMBOL    EDATA    ---       vstr
      00000368H   SYMBOL    EDATA    FLOAT     ival
      0000036CH   SYMBOL    EDATA    BYTE      vlen
      ---         BLOCKEND  ---      ---       LVL=3
      00FF4689H   BLOCK     CODE     NEAR LAB  LVL=3
      00000347H   SYMBOL    EDATA    ---       vstr
      00000368H   SYMBOL    EDATA    DWORD     ival
      0000036CH   SYMBOL    EDATA    BYTE      vlen
      ---         BLOCKEND  ---      ---       LVL=3
      00FF4701H   BLOCK     CODE     NEAR LAB  LVL=3
L251 LINKER/LOCATER V4.66.93.0                                                        04/15/2024  21:19:48  PAGE 87


      00000347H   SYMBOL    EDATA    ---       vstr
      00000368H   SYMBOL    EDATA    DWORD     ival
      0000036CH   SYMBOL    EDATA    BYTE      vlen
      ---         BLOCKEND  ---      ---       LVL=3
      00FF4779H   BLOCK     CODE     NEAR LAB  LVL=3
      00000347H   SYMBOL    EDATA    ---       vstr
      00000368H   SYMBOL    EDATA    DWORD     ival
      0000036CH   SYMBOL    EDATA    BYTE      vlen
      ---         BLOCKEND  ---      ---       LVL=3
      00FF47F1H   BLOCK     CODE     NEAR LAB  LVL=3
      00000347H   SYMBOL    EDATA    ---       pc
      ---         BLOCKEND  ---      ---       LVL=3
      00FF484BH   BLOCK     CODE     NEAR LAB  LVL=3
      00000347H   SYMBOL    EDATA    ---       vstr
      00000368H   SYMBOL    EDATA    DWORD     ival
      ---         BLOCKEND  ---      ---       LVL=3
      ---         BLOCKEND  ---      ---       LVL=2
      ---         BLOCKEND  ---      ---       LVL=1
      00FF42B6H   LINE      CODE     ---       #216
      00FF42BEH   LINE      CODE     ---       #217
      00FF42BEH   LINE      CODE     ---       #218
      00FF42C4H   LINE      CODE     ---       #220
      00FF42D0H   LINE      CODE     ---       #222
      00FF42D3H   LINE      CODE     ---       #223
      00FF42D3H   LINE      CODE     ---       #224
      00FF42DEH   LINE      CODE     ---       #225
      00FF42EAH   LINE      CODE     ---       #227
      00FF4405H   LINE      CODE     ---       #229
      00FF4405H   LINE      CODE     ---       #233
      00FF4408H   LINE      CODE     ---       #236
      00FF4408H   LINE      CODE     ---       #237
      00FF4408H   LINE      CODE     ---       #238
      00FF4421H   LINE      CODE     ---       #239
      00FF442CH   LINE      CODE     ---       #240
      00FF4436H   LINE      CODE     ---       #241
      00FF4444H   LINE      CODE     ---       #243
      00FF4447H   LINE      CODE     ---       #246
      00FF4447H   LINE      CODE     ---       #247
      00FF4447H   LINE      CODE     ---       #248
      00FF4447H   LINE      CODE     ---       #250
      00FF4460H   LINE      CODE     ---       #251
      00FF4477H   LINE      CODE     ---       #253
      00FF4481H   LINE      CODE     ---       #255
      00FF4492H   LINE      CODE     ---       #256
      00FF449FH   LINE      CODE     ---       #257
      00FF449FH   LINE      CODE     ---       #258
      00FF44AEH   LINE      CODE     ---       #259
      00FF44C3H   LINE      CODE     ---       #260
      00FF44D3H   LINE      CODE     ---       #261
      00FF44E5H   LINE      CODE     ---       #264
      00FF44E8H   LINE      CODE     ---       #266
      00FF44E8H   LINE      CODE     ---       #267
      00FF44E8H   LINE      CODE     ---       #268
      00FF44E8H   LINE      CODE     ---       #270
      00FF4501H   LINE      CODE     ---       #271
      00FF451BH   LINE      CODE     ---       #273
      00FF4526H   LINE      CODE     ---       #275
      00FF4537H   LINE      CODE     ---       #276
      00FF4544H   LINE      CODE     ---       #277
      00FF4544H   LINE      CODE     ---       #278
      00FF4553H   LINE      CODE     ---       #279
      00FF4568H   LINE      CODE     ---       #280
      00FF4578H   LINE      CODE     ---       #281
      00FF458AH   LINE      CODE     ---       #283
      00FF45AEH   LINE      CODE     ---       #284
L251 LINKER/LOCATER V4.66.93.0                                                        04/15/2024  21:19:48  PAGE 88


      00FF45B2H   LINE      CODE     ---       #286
      00FF45CCH   LINE      CODE     ---       #287
      00FF45CEH   LINE      CODE     ---       #290
      00FF45F2H   LINE      CODE     ---       #291
      00FF45F8H   LINE      CODE     ---       #292
      00FF45F8H   LINE      CODE     ---       #294
      00FF45FAH   LINE      CODE     ---       #296
      00FF460BH   LINE      CODE     ---       #297
      00FF4618H   LINE      CODE     ---       #298
      00FF4622H   LINE      CODE     ---       #300
      00FF4633H   LINE      CODE     ---       #301
      00FF4640H   LINE      CODE     ---       #303
      00FF464FH   LINE      CODE     ---       #304
      00FF4664H   LINE      CODE     ---       #305
      00FF4674H   LINE      CODE     ---       #306
      00FF4686H   LINE      CODE     ---       #308
      00FF4689H   LINE      CODE     ---       #311
      00FF4689H   LINE      CODE     ---       #312
      00FF4689H   LINE      CODE     ---       #314
      00FF46A2H   LINE      CODE     ---       #315
      00FF46B8H   LINE      CODE     ---       #317
      00FF46C7H   LINE      CODE     ---       #318
      00FF46DCH   LINE      CODE     ---       #319
      00FF46ECH   LINE      CODE     ---       #320
      00FF46FEH   LINE      CODE     ---       #321
      00FF4701H   LINE      CODE     ---       #323
      00FF4701H   LINE      CODE     ---       #324
      00FF4701H   LINE      CODE     ---       #326
      00FF471AH   LINE      CODE     ---       #327
      00FF4730H   LINE      CODE     ---       #329
      00FF473FH   LINE      CODE     ---       #330
      00FF4754H   LINE      CODE     ---       #331
      00FF4764H   LINE      CODE     ---       #332
      00FF4776H   LINE      CODE     ---       #334
      00FF4779H   LINE      CODE     ---       #336
      00FF4779H   LINE      CODE     ---       #337
      00FF4779H   LINE      CODE     ---       #338
      00FF4779H   LINE      CODE     ---       #340
      00FF4792H   LINE      CODE     ---       #341
      00FF47A8H   LINE      CODE     ---       #343
      00FF47B7H   LINE      CODE     ---       #344
      00FF47CCH   LINE      CODE     ---       #345
      00FF47DCH   LINE      CODE     ---       #346
      00FF47EEH   LINE      CODE     ---       #347
      00FF47F1H   LINE      CODE     ---       #350
      00FF47F1H   LINE      CODE     ---       #351
      00FF47F1H   LINE      CODE     ---       #352
      00FF480AH   LINE      CODE     ---       #353
      00FF480CH   LINE      CODE     ---       #355
      00FF481AH   LINE      CODE     ---       #356
      00FF4824H   LINE      CODE     ---       #357
      00FF4832H   LINE      CODE     ---       #358
      00FF483CH   LINE      CODE     ---       #359
      00FF4848H   LINE      CODE     ---       #360
      00FF484BH   LINE      CODE     ---       #362
      00FF484BH   LINE      CODE     ---       #363
      00FF484BH   LINE      CODE     ---       #365
      00FF4864H   LINE      CODE     ---       #367
      00FF4876H   LINE      CODE     ---       #369
      00FF4881H   LINE      CODE     ---       #370
      00FF4894H   LINE      CODE     ---       #371
      00FF48A0H   LINE      CODE     ---       #372
      00FF48AEH   LINE      CODE     ---       #374
      00FF48B0H   LINE      CODE     ---       #377
      00FF48B0H   LINE      CODE     ---       #379
L251 LINKER/LOCATER V4.66.93.0                                                        04/15/2024  21:19:48  PAGE 89


      00FF48B9H   LINE      CODE     ---       #380
      00FF48C3H   LINE      CODE     ---       #381
      00FF48D1H   LINE      CODE     ---       #382
      00FF48D3H   LINE      CODE     ---       #384
      00FF48D3H   LINE      CODE     ---       #385
      00FF48D3H   LINE      CODE     ---       #386
      00FF48D3H   LINE      CODE     ---       #389
      00FF48E1H   LINE      CODE     ---       #390
      00FF48EBH   LINE      CODE     ---       #391
      00FF48F9H   LINE      CODE     ---       #392
      00FF48F9H   LINE      CODE     ---       #393
      00FF4903H   LINE      CODE     ---       #394
      00FF4912H   LINE      CODE     ---       #397
      00FF4916H   LINE      CODE     ---       #398
      ---         BLOCKEND  ---      ---       LVL=0

      ---         MODULE    ---      ---       SEEKFREE_TSL1401
      00010000H   PUBLIC    XDATA    BYTE      tsl1401_finish_flag
      00010001H   PUBLIC    XDATA    ---       ccd_data_ch1
      00010101H   PUBLIC    XDATA    ---       ccd_data_ch2
      000000D0H   SFRSYM    DATA     BYTE      PSW
      0000009DH   SFRSYM    DATA     BYTE      IRCBAND
      00000097H   SFRSYM    DATA     BYTE      AUXR2
      000000EFH   SFRSYM    DATA     BYTE      AUXINTIF
      000000FDH   SFRSYM    DATA     BYTE      S4CON
      000000ACH   SFRSYM    DATA     BYTE      S3CON
      0000009AH   SFRSYM    DATA     BYTE      S2CON
      000000B7H   SFRSYM    DATA     BYTE      IPH
      000000CDH   SFRSYM    DATA     BYTE      SPSTAT
      000000DDH   SFRSYM    DATA     BYTE      T4T3M
      000000C1H   SFRSYM    DATA     BYTE      WDT_CONTR
      000000DFH   SFRSYM    DATA     BYTE      IP3
      000000F4H   SFRSYM    DATA     BYTE      USBCON
      000000B5H   SFRSYM    DATA     BYTE      IP2
      000000FFH   SFRSYM    DATA     BYTE      RSTCFG
      000000F9H   SFRSYM    DATA     BYTE      LINICR
      0000008EH   SFRSYM    DATA     BYTE      AUXR
      000000AFH   SFRSYM    DATA     BYTE      IE2
      000000B0H.7 SFRSYM    DATA     BIT       P37
      000000B0H.6 SFRSYM    DATA     BIT       P36
      00000088H   SFRSYM    DATA     BYTE      TCON
      00000098H   SFRSYM    DATA     BYTE      SCON
      000000F1H   SFRSYM    DATA     BYTE      CANICR
      00000087H   SFRSYM    DATA     BYTE      PCON
      000000BCH   SFRSYM    DATA     BYTE      ADC_CONTR
      000000E7H   SFRSYM    DATA     BYTE      CMPCR2
      000000E6H   SFRSYM    DATA     BYTE      CMPCR1
      000000B8H   SFRSYM    DATA     BYTE      IP
      0000008FH   SFRSYM    DATA     BYTE      INTCLKO
      000000EEH   SFRSYM    DATA     BYTE      IP3H
      000000B6H   SFRSYM    DATA     BYTE      IP2H
      000000A8H   SFRSYM    DATA     BYTE      IE
      000000BBH   SFRSYM    DATA     BYTE      P_SW3
      000000BAH   SFRSYM    DATA     BYTE      P_SW2
      000000A2H   SFRSYM    DATA     BYTE      P_SW1
      000000CEH   SFRSYM    DATA     BYTE      SPCTL
      000000F8H   SFRSYM    DATA     BYTE      P7
      000000E8H   SFRSYM    DATA     BYTE      P6
      000000C8H   SFRSYM    DATA     BYTE      P5
      000000C0H   SFRSYM    DATA     BYTE      P4
      000000B0H   SFRSYM    DATA     BYTE      P3
      000000A0H   SFRSYM    DATA     BYTE      P2
      00000090H   SFRSYM    DATA     BYTE      P1
      00000080H   SFRSYM    DATA     BYTE      P0
      00000879H   SYMBOL    EDATA    INT       uart_n
L251 LINKER/LOCATER V4.66.93.0                                                        04/15/2024  21:19:48  PAGE 90


      0000087BH   SYMBOL    EDATA    ---       dat
      0000087FH   SYMBOL    EDATA    BYTE      i
      00000A72H   SYMBOL    EDATA    BYTE      i

      ---         MODULE    ---      ---       SEEKFREE_VIRSCO
      0000071DH   PUBLIC    EDATA    ---       virtual_scope_data
      00000617H   PUBLIC    EDATA    BYTE      ?data_conversion?BYTE
      000000D0H   SFRSYM    DATA     BYTE      PSW
      0000009DH   SFRSYM    DATA     BYTE      IRCBAND
      00000097H   SFRSYM    DATA     BYTE      AUXR2
      000000EFH   SFRSYM    DATA     BYTE      AUXINTIF
      000000FDH   SFRSYM    DATA     BYTE      S4CON
      000000ACH   SFRSYM    DATA     BYTE      S3CON
      0000009AH   SFRSYM    DATA     BYTE      S2CON
      000000B7H   SFRSYM    DATA     BYTE      IPH
      000000CDH   SFRSYM    DATA     BYTE      SPSTAT
      000000DDH   SFRSYM    DATA     BYTE      T4T3M
      000000C1H   SFRSYM    DATA     BYTE      WDT_CONTR
      000000DFH   SFRSYM    DATA     BYTE      IP3
      000000F4H   SFRSYM    DATA     BYTE      USBCON
      000000B5H   SFRSYM    DATA     BYTE      IP2
      000000FFH   SFRSYM    DATA     BYTE      RSTCFG
      000000F9H   SFRSYM    DATA     BYTE      LINICR
      0000008EH   SFRSYM    DATA     BYTE      AUXR
      000000AFH   SFRSYM    DATA     BYTE      IE2
      00000088H   SFRSYM    DATA     BYTE      TCON
      00000098H   SFRSYM    DATA     BYTE      SCON
      000000F1H   SFRSYM    DATA     BYTE      CANICR
      00000087H   SFRSYM    DATA     BYTE      PCON
      000000BCH   SFRSYM    DATA     BYTE      ADC_CONTR
      000000E7H   SFRSYM    DATA     BYTE      CMPCR2
      000000E6H   SFRSYM    DATA     BYTE      CMPCR1
      000000B8H   SFRSYM    DATA     BYTE      IP
      0000008FH   SFRSYM    DATA     BYTE      INTCLKO
      000000EEH   SFRSYM    DATA     BYTE      IP3H
      000000B6H   SFRSYM    DATA     BYTE      IP2H
      000000A8H   SFRSYM    DATA     BYTE      IE
      000000BBH   SFRSYM    DATA     BYTE      P_SW3
      000000BAH   SFRSYM    DATA     BYTE      P_SW2
      000000A2H   SFRSYM    DATA     BYTE      P_SW1
      000000CEH   SFRSYM    DATA     BYTE      SPCTL
      000000F8H   SFRSYM    DATA     BYTE      P7
      000000E8H   SFRSYM    DATA     BYTE      P6
      000000C8H   SFRSYM    DATA     BYTE      P5
      000000C0H   SFRSYM    DATA     BYTE      P4
      000000B0H   SFRSYM    DATA     BYTE      P3
      000000A0H   SFRSYM    DATA     BYTE      P2
      00000090H   SFRSYM    DATA     BYTE      P1
      00000080H   SFRSYM    DATA     BYTE      P0
      000007B0H   SYMBOL    EDATA    ---       Buf
      000007B4H   SYMBOL    EDATA    BYTE      CRC_CNT
      000007B5H   SYMBOL    EDATA    WORD      CRC_Temp
      000007B7H   SYMBOL    EDATA    BYTE      i
      000007B8H   SYMBOL    EDATA    BYTE      j
      00000617H   SYMBOL    EDATA    INT       data1
      00000619H   SYMBOL    EDATA    INT       data2
      0000061BH   SYMBOL    EDATA    INT       data3
      0000061DH   SYMBOL    EDATA    INT       data4
      0000061FH   SYMBOL    EDATA    ---       dat
      00000623H   SYMBOL    EDATA    WORD      CRC16

      ---         MODULE    ---      ---       SEEKFREE_WIRELESS
      000000D0H   SFRSYM    DATA     BYTE      PSW
      0000009DH   SFRSYM    DATA     BYTE      IRCBAND
      00000097H   SFRSYM    DATA     BYTE      AUXR2
L251 LINKER/LOCATER V4.66.93.0                                                        04/15/2024  21:19:48  PAGE 91


      000000EFH   SFRSYM    DATA     BYTE      AUXINTIF
      000000FDH   SFRSYM    DATA     BYTE      S4CON
      000000ACH   SFRSYM    DATA     BYTE      S3CON
      0000009AH   SFRSYM    DATA     BYTE      S2CON
      000000FEH   SFRSYM    DATA     BYTE      S4BUF
      000000B7H   SFRSYM    DATA     BYTE      IPH
      000000CDH   SFRSYM    DATA     BYTE      SPSTAT
      000000DDH   SFRSYM    DATA     BYTE      T4T3M
      000000C1H   SFRSYM    DATA     BYTE      WDT_CONTR
      000000DFH   SFRSYM    DATA     BYTE      IP3
      000000F4H   SFRSYM    DATA     BYTE      USBCON
      000000B5H   SFRSYM    DATA     BYTE      IP2
      000000FFH   SFRSYM    DATA     BYTE      RSTCFG
      000000F9H   SFRSYM    DATA     BYTE      LINICR
      0000008EH   SFRSYM    DATA     BYTE      AUXR
      000000AFH   SFRSYM    DATA     BYTE      IE2
      00000080H.7 SFRSYM    DATA     BIT       P07
      00000088H   SFRSYM    DATA     BYTE      TCON
      00000098H   SFRSYM    DATA     BYTE      SCON
      000000F1H   SFRSYM    DATA     BYTE      CANICR
      00000087H   SFRSYM    DATA     BYTE      PCON
      000000BCH   SFRSYM    DATA     BYTE      ADC_CONTR
      000000E7H   SFRSYM    DATA     BYTE      CMPCR2
      000000E6H   SFRSYM    DATA     BYTE      CMPCR1
      000000B8H   SFRSYM    DATA     BYTE      IP
      0000008FH   SFRSYM    DATA     BYTE      INTCLKO
      000000EEH   SFRSYM    DATA     BYTE      IP3H
      000000B6H   SFRSYM    DATA     BYTE      IP2H
      000000A8H   SFRSYM    DATA     BYTE      IE
      000000BBH   SFRSYM    DATA     BYTE      P_SW3
      000000BAH   SFRSYM    DATA     BYTE      P_SW2
      000000A2H   SFRSYM    DATA     BYTE      P_SW1
      000000CEH   SFRSYM    DATA     BYTE      SPCTL
      000000F8H   SFRSYM    DATA     BYTE      P7
      000000E8H   SFRSYM    DATA     BYTE      P6
      000000C8H   SFRSYM    DATA     BYTE      P5
      000000C0H   SFRSYM    DATA     BYTE      P4
      000000B0H   SFRSYM    DATA     BYTE      P3
      000000A0H   SFRSYM    DATA     BYTE      P2
      00000090H   SFRSYM    DATA     BYTE      P1
      00000080H   SFRSYM    DATA     BYTE      P0
      000103C8H   SYMBOL    XDATA    BYTE      wireless_uart_data
      000103C9H   SYMBOL    XDATA    ---       wireless_uart_fifo
      000103E0H   SYMBOL    XDATA    ---       wireless_uart_buffer
      00000853H   SYMBOL    EDATA    ---       buff
      00000857H   SYMBOL    EDATA    DWORD     len
      0000085BH   SYMBOL    EDATA    ---       buff
      0000085FH   SYMBOL    EDATA    DWORD     len
      0001066FH   SYMBOL    XDATA    DWORD     data_len

      ---         MODULE    ---      ---       SEEKFREE_WIRELESS_CH573
      000000D0H   SFRSYM    DATA     BYTE      PSW
      0000009DH   SFRSYM    DATA     BYTE      IRCBAND
      00000097H   SFRSYM    DATA     BYTE      AUXR2
      000000EFH   SFRSYM    DATA     BYTE      AUXINTIF
      000000FDH   SFRSYM    DATA     BYTE      S4CON
      000000ACH   SFRSYM    DATA     BYTE      S3CON
      0000009AH   SFRSYM    DATA     BYTE      S2CON
      000000FEH   SFRSYM    DATA     BYTE      S4BUF
      000000B7H   SFRSYM    DATA     BYTE      IPH
      000000CDH   SFRSYM    DATA     BYTE      SPSTAT
      000000DDH   SFRSYM    DATA     BYTE      T4T3M
      000000C1H   SFRSYM    DATA     BYTE      WDT_CONTR
      000000DFH   SFRSYM    DATA     BYTE      IP3
      000000F4H   SFRSYM    DATA     BYTE      USBCON
L251 LINKER/LOCATER V4.66.93.0                                                        04/15/2024  21:19:48  PAGE 92


      000000B5H   SFRSYM    DATA     BYTE      IP2
      000000FFH   SFRSYM    DATA     BYTE      RSTCFG
      000000F9H   SFRSYM    DATA     BYTE      LINICR
      0000008EH   SFRSYM    DATA     BYTE      AUXR
      000000AFH   SFRSYM    DATA     BYTE      IE2
      00000080H.7 SFRSYM    DATA     BIT       P07
      00000088H   SFRSYM    DATA     BYTE      TCON
      00000098H   SFRSYM    DATA     BYTE      SCON
      000000F1H   SFRSYM    DATA     BYTE      CANICR
      00000087H   SFRSYM    DATA     BYTE      PCON
      000000BCH   SFRSYM    DATA     BYTE      ADC_CONTR
      000000E7H   SFRSYM    DATA     BYTE      CMPCR2
      000000E6H   SFRSYM    DATA     BYTE      CMPCR1
      000000B8H   SFRSYM    DATA     BYTE      IP
      0000008FH   SFRSYM    DATA     BYTE      INTCLKO
      000000EEH   SFRSYM    DATA     BYTE      IP3H
      000000B6H   SFRSYM    DATA     BYTE      IP2H
      000000A8H   SFRSYM    DATA     BYTE      IE
      000000BBH   SFRSYM    DATA     BYTE      P_SW3
      000000BAH   SFRSYM    DATA     BYTE      P_SW2
      000000A2H   SFRSYM    DATA     BYTE      P_SW1
      000000CEH   SFRSYM    DATA     BYTE      SPCTL
      000000F8H   SFRSYM    DATA     BYTE      P7
      000000E8H   SFRSYM    DATA     BYTE      P6
      000000C8H   SFRSYM    DATA     BYTE      P5
      000000C0H   SFRSYM    DATA     BYTE      P4
      000000B0H   SFRSYM    DATA     BYTE      P3
      000000A0H   SFRSYM    DATA     BYTE      P2
      00000090H   SFRSYM    DATA     BYTE      P1
      00000080H   SFRSYM    DATA     BYTE      P0
      00010420H   SYMBOL    XDATA    ---       wireless_ch573_buffer
      00010460H   SYMBOL    XDATA    BYTE      wireless_ch573_data
      00010461H   SYMBOL    XDATA    ---       wireless_ch573_fifo
      0000094EH   SYMBOL    EDATA    ---       buff
      00000952H   SYMBOL    EDATA    WORD      len
      00000863H   SYMBOL    EDATA    ---       buff
      00000867H   SYMBOL    EDATA    DWORD     len
      00010673H   SYMBOL    XDATA    DWORD     data_len

      ---         MODULE    ---      ---       main
      00FF6999H   PUBLIC    CODE     ---       main
      00FF7A75H   PUBLIC    CODE     ---       qmc5883_init
      00FF7AB3H   PUBLIC    CODE     ---       gpio_init
      00FF73CFH   PUBLIC    CODE     ---       motor_drivers_pwm_init
      000000D0H   SFRSYM    DATA     BYTE      PSW
      0000009DH   SFRSYM    DATA     BYTE      IRCBAND
      00000097H   SFRSYM    DATA     BYTE      AUXR2
      000000EFH   SFRSYM    DATA     BYTE      AUXINTIF
      000000FDH   SFRSYM    DATA     BYTE      S4CON
      000000ACH   SFRSYM    DATA     BYTE      S3CON
      0000009AH   SFRSYM    DATA     BYTE      S2CON
      000000B7H   SFRSYM    DATA     BYTE      IPH
      000000CDH   SFRSYM    DATA     BYTE      SPSTAT
      000000DDH   SFRSYM    DATA     BYTE      T4T3M
      000000C1H   SFRSYM    DATA     BYTE      WDT_CONTR
      000000DFH   SFRSYM    DATA     BYTE      IP3
      000000F4H   SFRSYM    DATA     BYTE      USBCON
      000000B5H   SFRSYM    DATA     BYTE      IP2
      000000FFH   SFRSYM    DATA     BYTE      RSTCFG
      000000F9H   SFRSYM    DATA     BYTE      LINICR
      0000008EH   SFRSYM    DATA     BYTE      AUXR
      000000AFH   SFRSYM    DATA     BYTE      IE2
      00000088H   SFRSYM    DATA     BYTE      TCON
      00000098H   SFRSYM    DATA     BYTE      SCON
      000000F1H   SFRSYM    DATA     BYTE      CANICR
L251 LINKER/LOCATER V4.66.93.0                                                        04/15/2024  21:19:48  PAGE 93


      00000087H   SFRSYM    DATA     BYTE      PCON
      000000BCH   SFRSYM    DATA     BYTE      ADC_CONTR
      000000E7H   SFRSYM    DATA     BYTE      CMPCR2
      000000E6H   SFRSYM    DATA     BYTE      CMPCR1
      000000B8H   SFRSYM    DATA     BYTE      IP
      0000008FH   SFRSYM    DATA     BYTE      INTCLKO
      000000EEH   SFRSYM    DATA     BYTE      IP3H
      000000B6H   SFRSYM    DATA     BYTE      IP2H
      000000A8H   SFRSYM    DATA     BYTE      IE
      000000BBH   SFRSYM    DATA     BYTE      P_SW3
      000000BAH   SFRSYM    DATA     BYTE      P_SW2
      000000A2H   SFRSYM    DATA     BYTE      P_SW1
      000000CEH   SFRSYM    DATA     BYTE      SPCTL
      000000F8H   SFRSYM    DATA     BYTE      P7
      000000E8H   SFRSYM    DATA     BYTE      P6
      000000C8H   SFRSYM    DATA     BYTE      P5
      000000C0H   SFRSYM    DATA     BYTE      P4
      000000B0H   SFRSYM    DATA     BYTE      P3
      000000A0H   SFRSYM    DATA     BYTE      P2
      00000090H   SFRSYM    DATA     BYTE      P1
      00000080H   SFRSYM    DATA     BYTE      P0

      00FF7AB3H   BLOCK     CODE     ---       LVL=0
      00FF7AB3H   LINE      CODE     ---       #10
      00FF7AB3H   LINE      CODE     ---       #12
      00FF7ABEH   LINE      CODE     ---       #13
      00FF7AC9H   LINE      CODE     ---       #14
      ---         BLOCKEND  ---      ---       LVL=0

      00FF73CFH   BLOCK     CODE     ---       LVL=0
      00FF73CFH   LINE      CODE     ---       #16
      00FF73CFH   LINE      CODE     ---       #19
      00FF73E2H   LINE      CODE     ---       #20
      00FF73F5H   LINE      CODE     ---       #21
      00FF7408H   LINE      CODE     ---       #22
      00FF741BH   LINE      CODE     ---       #23
      ---         BLOCKEND  ---      ---       LVL=0

      00FF7A75H   BLOCK     CODE     ---       LVL=0
      00FF7A75H   LINE      CODE     ---       #40
      00FF7A75H   LINE      CODE     ---       #43
      00FF7A94H   LINE      CODE     ---       #44
      ---         BLOCKEND  ---      ---       LVL=0

      00FF6999H   BLOCK     CODE     ---       LVL=0
      00FF6999H   LINE      CODE     ---       #46
      00FF6999H   LINE      CODE     ---       #48
      00FF699CH   LINE      CODE     ---       #49
      00FF699FH   LINE      CODE     ---       #50
      00FF69A2H   LINE      CODE     ---       #51
      00FF69A5H   LINE      CODE     ---       #53
      00FF69B3H   LINE      CODE     ---       #54
      00FF69C2H   LINE      CODE     ---       #55
      00FF69D1H   LINE      CODE     ---       #56
      00FF69E0H   LINE      CODE     ---       #57
      00FF69EFH   LINE      CODE     ---       #58
      00FF69FEH   LINE      CODE     ---       #60
      00FF6A01H   LINE      CODE     ---       #65
      00FF6A04H   LINE      CODE     ---       #69
      00FF6A04H   LINE      CODE     ---       #71
      00FF6A07H   LINE      CODE     ---       #72
      00FF6A0AH   LINE      CODE     ---       #73
      00FF6A0DH   LINE      CODE     ---       #74
      00FF6A10H   LINE      CODE     ---       #75
      00FF6A12H   LINE      CODE     ---       #76
L251 LINKER/LOCATER V4.66.93.0                                                        04/15/2024  21:19:48  PAGE 94


      ---         BLOCKEND  ---      ---       LVL=0

      ---         MODULE    ---      ---       qmc5883
      00FF50A9H   PUBLIC    CODE     ---       qmc5883_data_parse
      00FF5AD4H   PUBLIC    CODE     ---       atof
      00FF6272H   PUBLIC    CODE     ---       atoi
      00000022H   PUBLIC    EDATA    ---       qmccmd_set_uart_baudrate_115200
      0000002CH   PUBLIC    EDATA    ---       qmccmd_set_uart_baudrate_460800
      00000036H   PUBLIC    EDATA    ---       qmccmd_set_measure_rate
      00000040H   PUBLIC    EDATA    ---       qmccmd_init_sensor
      00000048H   PUBLIC    EDATA    ---       qmccmd_set_filter_value
      00000051H   PUBLIC    EDATA    ---       qmccmd_stop_calibration
      0000005BH   PUBLIC    EDATA    ---       qmc5883_data
      0000009BH   PUBLIC    EDATA    ---       qmccmd_disable_filter
      000000A5H   PUBLIC    EDATA    ---       qmccmd_get_device_id
      000000ADH   PUBLIC    EDATA    ---       qmccmd_set_uart_baudrate_9600
      000000B7H   PUBLIC    EDATA    ---       qmccmd_set_device_id
      000000BEH   PUBLIC    EDATA    INT       qmc5883_magx
      000000C0H   PUBLIC    EDATA    ---       qmc5883_char_magx
      000000CAH   PUBLIC    EDATA    INT       qmc5883_magy
      000000CCH   PUBLIC    EDATA    ---       qmc5883_char_magy
      000000D6H   PUBLIC    EDATA    INT       qmc5883_magz
      000000D8H   PUBLIC    EDATA    ---       qmc5883_char_magz
      000000E2H   PUBLIC    EDATA    FLOAT     qmc5883_yaw
      000000E6H   PUBLIC    EDATA    ---       qmc5883_char_yaw
      000000F0H   PUBLIC    EDATA    ---       qmc5883_cmd_buf
      00000110H   PUBLIC    EDATA    ---       qmccmd_clear_mag_offset
      0000011AH   PUBLIC    EDATA    ---       qmccmd_set_single_measure_mode
      00000125H   PUBLIC    EDATA    ---       qmccmd_check_connection
      00000128H   PUBLIC    EDATA    ---       qmccmd_start_calibration
      000000D0H   SFRSYM    DATA     BYTE      PSW
      0000009DH   SFRSYM    DATA     BYTE      IRCBAND
      00000097H   SFRSYM    DATA     BYTE      AUXR2
      000000EFH   SFRSYM    DATA     BYTE      AUXINTIF
      000000FDH   SFRSYM    DATA     BYTE      S4CON
      000000ACH   SFRSYM    DATA     BYTE      S3CON
      0000009AH   SFRSYM    DATA     BYTE      S2CON
      000000B7H   SFRSYM    DATA     BYTE      IPH
      000000CDH   SFRSYM    DATA     BYTE      SPSTAT
      000000DDH   SFRSYM    DATA     BYTE      T4T3M
      000000C1H   SFRSYM    DATA     BYTE      WDT_CONTR
      000000DFH   SFRSYM    DATA     BYTE      IP3
      000000F4H   SFRSYM    DATA     BYTE      USBCON
      000000B5H   SFRSYM    DATA     BYTE      IP2
      000000FFH   SFRSYM    DATA     BYTE      RSTCFG
      000000F9H   SFRSYM    DATA     BYTE      LINICR
      0000008EH   SFRSYM    DATA     BYTE      AUXR
      000000AFH   SFRSYM    DATA     BYTE      IE2
      00000088H   SFRSYM    DATA     BYTE      TCON
      00000098H   SFRSYM    DATA     BYTE      SCON
      000000F1H   SFRSYM    DATA     BYTE      CANICR
      00000087H   SFRSYM    DATA     BYTE      PCON
      000000BCH   SFRSYM    DATA     BYTE      ADC_CONTR
      000000E7H   SFRSYM    DATA     BYTE      CMPCR2
      000000E6H   SFRSYM    DATA     BYTE      CMPCR1
      000000B8H   SFRSYM    DATA     BYTE      IP
      0000008FH   SFRSYM    DATA     BYTE      INTCLKO
      000000EEH   SFRSYM    DATA     BYTE      IP3H
      000000B6H   SFRSYM    DATA     BYTE      IP2H
      000000A8H   SFRSYM    DATA     BYTE      IE
      000000BBH   SFRSYM    DATA     BYTE      P_SW3
      000000BAH   SFRSYM    DATA     BYTE      P_SW2
      000000A2H   SFRSYM    DATA     BYTE      P_SW1
      000000CEH   SFRSYM    DATA     BYTE      SPCTL
      000000F8H   SFRSYM    DATA     BYTE      P7
L251 LINKER/LOCATER V4.66.93.0                                                        04/15/2024  21:19:48  PAGE 95


      000000E8H   SFRSYM    DATA     BYTE      P6
      000000C8H   SFRSYM    DATA     BYTE      P5
      000000C0H   SFRSYM    DATA     BYTE      P4
      000000B0H   SFRSYM    DATA     BYTE      P3
      000000A0H   SFRSYM    DATA     BYTE      P2
      00000090H   SFRSYM    DATA     BYTE      P1
      00000080H   SFRSYM    DATA     BYTE      P0

      00FF6272H   BLOCK     CODE     ---       LVL=0
      00000727H   SYMBOL    EDATA    ---       str
      00FF6276H   BLOCK     CODE     NEAR LAB  LVL=1
      0000072BH   SYMBOL    EDATA    INT       result
      0000072DH   SYMBOL    EDATA    INT       sign
      0000072FH   SYMBOL    EDATA    INT       i
      ---         BLOCKEND  ---      ---       LVL=1
      00FF6272H   LINE      CODE     ---       #55
      00FF6276H   LINE      CODE     ---       #56
      00FF6276H   LINE      CODE     ---       #57
      00FF627CH   LINE      CODE     ---       #58
      00FF6284H   LINE      CODE     ---       #59
      00FF628AH   LINE      CODE     ---       #62
      00FF6296H   LINE      CODE     ---       #64
      00FF629BH   LINE      CODE     ---       #65
      00FF629BH   LINE      CODE     ---       #68
      00FF629DH   LINE      CODE     ---       #70
      00FF62ABH   LINE      CODE     ---       #71
      00FF62BBH   LINE      CODE     ---       #74
      00FF62CBH   LINE      CODE     ---       #76
      00FF62D3H   LINE      CODE     ---       #77
      00FF62E1H   LINE      CODE     ---       #78
      00FF62F3H   LINE      CODE     ---       #80
      00FF6301H   LINE      CODE     ---       #81
      00FF6301H   LINE      CODE     ---       #84
      00FF6303H   LINE      CODE     ---       #86
      00FF6325H   LINE      CODE     ---       #87
      00FF6348H   LINE      CODE     ---       #88
      00FF6348H   LINE      CODE     ---       #89
      00FF6348H   LINE      CODE     ---       #90
      00FF6348H   LINE      CODE     ---       #91
      00FF6356H   LINE      CODE     ---       #92
      00FF6366H   LINE      CODE     ---       #94
      00FF6370H   LINE      CODE     ---       #95
      ---         BLOCKEND  ---      ---       LVL=0

      00FF5AD4H   BLOCK     CODE     ---       LVL=0
      0000051AH   SYMBOL    EDATA    ---       str
      00FF5AD8H   BLOCK     CODE     NEAR LAB  LVL=1
      0000051EH   SYMBOL    EDATA    FLOAT     integerPart
      00000522H   SYMBOL    EDATA    FLOAT     decimalPart
      00000526H   SYMBOL    EDATA    FLOAT     decimalPlace
      0000052AH   SYMBOL    EDATA    INT       sign
      0000052CH   SYMBOL    EDATA    INT       i
      0000052EH   SYMBOL    EDATA    INT       state
      ---         BLOCKEND  ---      ---       LVL=1
      00FF5AD4H   LINE      CODE     ---       #106
      00FF5AD8H   LINE      CODE     ---       #107
      00FF5AD8H   LINE      CODE     ---       #108
      00FF5ADEH   LINE      CODE     ---       #109
      00FF5AE4H   LINE      CODE     ---       #110
      00FF5AEEH   LINE      CODE     ---       #111
      00FF5AF6H   LINE      CODE     ---       #112
      00FF5AFCH   LINE      CODE     ---       #113
      00FF5B02H   LINE      CODE     ---       #115
      00FF5B04H   LINE      CODE     ---       #116
      00FF5B12H   LINE      CODE     ---       #117
L251 LINKER/LOCATER V4.66.93.0                                                        04/15/2024  21:19:48  PAGE 96


      00FF5B22H   LINE      CODE     ---       #119
      00FF5B32H   LINE      CODE     ---       #120
      00FF5B3AH   LINE      CODE     ---       #121
      00FF5B48H   LINE      CODE     ---       #122
      00FF5B5AH   LINE      CODE     ---       #123
      00FF5B68H   LINE      CODE     ---       #124
      00FF5B68H   LINE      CODE     ---       #126
      00FF5B6BH   LINE      CODE     ---       #127
      00FF5B93H   LINE      CODE     ---       #128
      00FF5B9DH   LINE      CODE     ---       #129
      00FF5BCFH   LINE      CODE     ---       #130
      00FF5BD1H   LINE      CODE     ---       #131
      00FF5C03H   LINE      CODE     ---       #132
      00FF5C14H   LINE      CODE     ---       #133
      00FF5C14H   LINE      CODE     ---       #134
      00FF5C30H   LINE      CODE     ---       #135
      00FF5C38H   LINE      CODE     ---       #136
      00FF5C38H   LINE      CODE     ---       #137
      00FF5C38H   LINE      CODE     ---       #138
      00FF5C38H   LINE      CODE     ---       #139
      00FF5C59H   LINE      CODE     ---       #141
      00FF5C7BH   LINE      CODE     ---       #142
      ---         BLOCKEND  ---      ---       LVL=0

      00FF50A9H   BLOCK     CODE     ---       LVL=0
      000007B9H   SYMBOL    EDATA    ---       dat
      00FF50ADH   BLOCK     CODE     NEAR LAB  LVL=1
      000007BDH   SYMBOL    EDATA    INT       i
      000007BFH   SYMBOL    EDATA    INT       j
      000007C1H   SYMBOL    EDATA    CHAR      counter
      ---         BLOCKEND  ---      ---       LVL=1
      00FF50A9H   LINE      CODE     ---       #153
      00FF50ADH   LINE      CODE     ---       #154
      00FF50ADH   LINE      CODE     ---       #155
      00FF50B9H   LINE      CODE     ---       #156
      00FF50BEH   LINE      CODE     ---       #158
      00FF50C7H   LINE      CODE     ---       #160
      00FF50E6H   LINE      CODE     ---       #162
      00FF50F3H   LINE      CODE     ---       #163
      00FF5103H   LINE      CODE     ---       #165
      00FF5113H   LINE      CODE     ---       #167
      00FF5127H   LINE      CODE     ---       #168
      00FF5132H   LINE      CODE     ---       #169
      00FF5134H   LINE      CODE     ---       #170
      00FF5134H   LINE      CODE     ---       #171
      00FF5152H   LINE      CODE     ---       #172
      00FF516CH   LINE      CODE     ---       #173
      00FF516FH   LINE      CODE     ---       #174
      00FF518EH   LINE      CODE     ---       #176
      00FF519BH   LINE      CODE     ---       #177
      00FF51ABH   LINE      CODE     ---       #179
      00FF51BBH   LINE      CODE     ---       #181
      00FF51CFH   LINE      CODE     ---       #182
      00FF51DAH   LINE      CODE     ---       #183
      00FF51DCH   LINE      CODE     ---       #184
      00FF51DCH   LINE      CODE     ---       #185
      00FF51FAH   LINE      CODE     ---       #186
      00FF5214H   LINE      CODE     ---       #187
      00FF5217H   LINE      CODE     ---       #188
      00FF5236H   LINE      CODE     ---       #190
      00FF5243H   LINE      CODE     ---       #191
      00FF5253H   LINE      CODE     ---       #193
      00FF5263H   LINE      CODE     ---       #195
      00FF5277H   LINE      CODE     ---       #196
      00FF5282H   LINE      CODE     ---       #197
L251 LINKER/LOCATER V4.66.93.0                                                        04/15/2024  21:19:48  PAGE 97


      00FF5284H   LINE      CODE     ---       #198
      00FF5284H   LINE      CODE     ---       #199
      00FF52A2H   LINE      CODE     ---       #200
      00FF52BCH   LINE      CODE     ---       #201
      00FF52BFH   LINE      CODE     ---       #202
      00FF52DEH   LINE      CODE     ---       #204
      00FF52EBH   LINE      CODE     ---       #205
      00FF52FBH   LINE      CODE     ---       #207
      00FF530BH   LINE      CODE     ---       #209
      00FF531FH   LINE      CODE     ---       #210
      00FF532AH   LINE      CODE     ---       #211
      00FF532CH   LINE      CODE     ---       #212
      00FF532CH   LINE      CODE     ---       #213
      00FF534AH   LINE      CODE     ---       #214
      00FF5364H   LINE      CODE     ---       #215
      00FF5381H   LINE      CODE     ---       #217
      ---         BLOCKEND  ---      ---       LVL=0

      ---         MODULE    ---      ---       uart
      00FF616BH   PUBLIC    CODE     ---       uart_sendcmd
      00FF6C47H   PUBLIC    CODE     ---       uart1_isr
      00FF6BD9H   PUBLIC    CODE     ---       uart2_isr
      00FF605FH   PUBLIC    CODE     ---       uart3_isr
      00FF75DEH   PUBLIC    CODE     ---       uart4_isr
      00000296H   PUBLIC    EDATA    ---       uart1_rx_buffer
      000002A6H   PUBLIC    EDATA    ---       uart2_rx_buffer
      000002B6H   PUBLIC    EDATA    ---       uart3_rx_buffer
      000002F6H   PUBLIC    EDATA    ---       uart4_rx_buffer
      00000306H   PUBLIC    EDATA    BYTE      uart1_rx_counter
      00000307H   PUBLIC    EDATA    BYTE      uart2_rx_counter
      00000308H   PUBLIC    EDATA    BYTE      uart3_rx_counter
      00000309H   PUBLIC    EDATA    BYTE      uart1_tx_counter
      0000030AH   PUBLIC    EDATA    BYTE      uart4_rx_counter
      0000030BH   PUBLIC    EDATA    BYTE      uart2_tx_counter
      0000030CH   PUBLIC    EDATA    BYTE      uart3_tx_counter
      0000030DH   PUBLIC    EDATA    BYTE      uart4_tx_counter
      00000020H.0 PUBLIC    BIT      BIT       uart1_lf
      00000020H.1 PUBLIC    BIT      BIT       uart2_lf
      00000020H.2 PUBLIC    BIT      BIT       uart3_lf
      00000020H.3 PUBLIC    BIT      BIT       uart4_lf
      00000020H.4 PUBLIC    BIT      BIT       uart1_cr
      00000020H.5 PUBLIC    BIT      BIT       uart2_cr
      00000020H.6 PUBLIC    BIT      BIT       uart3_cr
      00000020H.7 PUBLIC    BIT      BIT       uart4_cr
      00000021H.0 PUBLIC    BIT      BIT       uart1_tx_busy
      00000021H.1 PUBLIC    BIT      BIT       uart2_tx_busy
      00000021H.2 PUBLIC    BIT      BIT       uart3_tx_busy
      00000021H.3 PUBLIC    BIT      BIT       uart4_tx_busy
      000000D0H   SFRSYM    DATA     BYTE      PSW
      0000009DH   SFRSYM    DATA     BYTE      IRCBAND
      00000097H   SFRSYM    DATA     BYTE      AUXR2
      000000EFH   SFRSYM    DATA     BYTE      AUXINTIF
      000000FDH   SFRSYM    DATA     BYTE      S4CON
      000000ACH   SFRSYM    DATA     BYTE      S3CON
      0000009AH   SFRSYM    DATA     BYTE      S2CON
      000000FEH   SFRSYM    DATA     BYTE      S4BUF
      000000ADH   SFRSYM    DATA     BYTE      S3BUF
      0000009BH   SFRSYM    DATA     BYTE      S2BUF
      000000B7H   SFRSYM    DATA     BYTE      IPH
      000000CDH   SFRSYM    DATA     BYTE      SPSTAT
      000000DDH   SFRSYM    DATA     BYTE      T4T3M
      000000C1H   SFRSYM    DATA     BYTE      WDT_CONTR
      000000D7H   SFRSYM    DATA     BYTE      T2L
      000000D6H   SFRSYM    DATA     BYTE      T2H
      000000DFH   SFRSYM    DATA     BYTE      IP3
L251 LINKER/LOCATER V4.66.93.0                                                        04/15/2024  21:19:48  PAGE 98


      000000F4H   SFRSYM    DATA     BYTE      USBCON
      000000B5H   SFRSYM    DATA     BYTE      IP2
      000000FFH   SFRSYM    DATA     BYTE      RSTCFG
      000000F9H   SFRSYM    DATA     BYTE      LINICR
      0000008EH   SFRSYM    DATA     BYTE      AUXR
      000000AFH   SFRSYM    DATA     BYTE      IE2
      00000088H   SFRSYM    DATA     BYTE      TCON
      00000098H   SFRSYM    DATA     BYTE      SCON
      000000F1H   SFRSYM    DATA     BYTE      CANICR
      00000087H   SFRSYM    DATA     BYTE      PCON
      00000099H   SFRSYM    DATA     BYTE      SBUF
      000000BCH   SFRSYM    DATA     BYTE      ADC_CONTR
      000000E7H   SFRSYM    DATA     BYTE      CMPCR2
      000000E6H   SFRSYM    DATA     BYTE      CMPCR1
      00000098H.1 SFRSYM    DATA     BIT       TI
      00000098H.0 SFRSYM    DATA     BIT       RI
      000000B8H   SFRSYM    DATA     BYTE      IP
      000000A8H.4 SFRSYM    DATA     BIT       ES
      0000008FH   SFRSYM    DATA     BYTE      INTCLKO
      000000EEH   SFRSYM    DATA     BYTE      IP3H
      000000B6H   SFRSYM    DATA     BYTE      IP2H
      000000A8H   SFRSYM    DATA     BYTE      IE
      000000BBH   SFRSYM    DATA     BYTE      P_SW3
      000000BAH   SFRSYM    DATA     BYTE      P_SW2
      000000A2H   SFRSYM    DATA     BYTE      P_SW1
      000000CEH   SFRSYM    DATA     BYTE      SPCTL
      000000F8H   SFRSYM    DATA     BYTE      P7
      000000E8H   SFRSYM    DATA     BYTE      P6
      000000C8H   SFRSYM    DATA     BYTE      P5
      000000C0H   SFRSYM    DATA     BYTE      P4
      000000B0H   SFRSYM    DATA     BYTE      P3
      000000A0H   SFRSYM    DATA     BYTE      P2
      00000090H   SFRSYM    DATA     BYTE      P1
      00000080H   SFRSYM    DATA     BYTE      P0
      00000A73H   SYMBOL    EDATA    BYTE      uart_num
      00000990H   SYMBOL    EDATA    BYTE      uart_num
      00000991H   SYMBOL    EDATA    ---       puts

      00FF616BH   BLOCK     CODE     ---       LVL=0
      00000880H   SYMBOL    EDATA    BYTE      uart_num
      00000881H   SYMBOL    EDATA    ---       bytes
      00000885H   SYMBOL    EDATA    BYTE      length
      00FF6177H   BLOCK     CODE     NEAR LAB  LVL=1
      00000886H   SYMBOL    EDATA    BYTE      i
      ---         BLOCKEND  ---      ---       LVL=1
      00FF616BH   LINE      CODE     ---       #91
      00FF6177H   LINE      CODE     ---       #92
      00FF6177H   LINE      CODE     ---       #94
      00FF618EH   LINE      CODE     ---       #96
      00FF618EH   LINE      CODE     ---       #97
      00FF6195H   LINE      CODE     ---       #99
      00FF61A6H   LINE      CODE     ---       #100
      00FF61A9H   LINE      CODE     ---       #101
      00FF61ACH   LINE      CODE     ---       #102
      00FF61C5H   LINE      CODE     ---       #103
      00FF61C8H   LINE      CODE     ---       #104
      00FF61C8H   LINE      CODE     ---       #105
      00FF61CFH   LINE      CODE     ---       #107
      00FF61E0H   LINE      CODE     ---       #108
      00FF61E3H   LINE      CODE     ---       #109
      00FF61E6H   LINE      CODE     ---       #110
      00FF61FFH   LINE      CODE     ---       #111
      00FF6201H   LINE      CODE     ---       #112
      00FF6201H   LINE      CODE     ---       #113
      00FF6208H   LINE      CODE     ---       #115
L251 LINKER/LOCATER V4.66.93.0                                                        04/15/2024  21:19:48  PAGE 99


      00FF6219H   LINE      CODE     ---       #116
      00FF621CH   LINE      CODE     ---       #117
      00FF621FH   LINE      CODE     ---       #118
      00FF6238H   LINE      CODE     ---       #119
      00FF623AH   LINE      CODE     ---       #120
      00FF623AH   LINE      CODE     ---       #121
      00FF6241H   LINE      CODE     ---       #123
      00FF6252H   LINE      CODE     ---       #124
      00FF6255H   LINE      CODE     ---       #125
      00FF6258H   LINE      CODE     ---       #126
      00FF6271H   LINE      CODE     ---       #127
      00FF6271H   LINE      CODE     ---       #128
      00FF6271H   LINE      CODE     ---       #129
      00FF6271H   LINE      CODE     ---       #130
      00FF6271H   LINE      CODE     ---       #131
      ---         BLOCKEND  ---      ---       LVL=0

      00FF6C47H   BLOCK     CODE     ---       LVL=0
      00FF6C47H   LINE      CODE     ---       #133
      00FF6C5DH   LINE      CODE     ---       #135
      00FF6C60H   LINE      CODE     ---       #137
      00FF6C63H   LINE      CODE     ---       #138
      00FF6C66H   LINE      CODE     ---       #139
      00FF6C66H   LINE      CODE     ---       #140
      00FF6C69H   LINE      CODE     ---       #142
      00FF6C6CH   LINE      CODE     ---       #143
      00FF6C87H   LINE      CODE     ---       #144
      00FF6C96H   LINE      CODE     ---       #147
      00FF6C9BH   LINE      CODE     ---       #148
      ---         BLOCKEND  ---      ---       LVL=0

      00FF6BD9H   BLOCK     CODE     ---       LVL=0
      00FF6BD9H   LINE      CODE     ---       #152
      00FF6BEFH   LINE      CODE     ---       #154
      00FF6BF4H   LINE      CODE     ---       #156
      00FF6BF7H   LINE      CODE     ---       #157
      00FF6BFAH   LINE      CODE     ---       #158
      00FF6BFAH   LINE      CODE     ---       #159
      00FF6BFFH   LINE      CODE     ---       #161
      00FF6C02H   LINE      CODE     ---       #162
      00FF6C13H   LINE      CODE     ---       #163
      00FF6C2BH   LINE      CODE     ---       #166
      00FF6C30H   LINE      CODE     ---       #167
      ---         BLOCKEND  ---      ---       LVL=0

      00FF605FH   BLOCK     CODE     ---       LVL=0
      00FF605FH   LINE      CODE     ---       #170
      00FF6075H   LINE      CODE     ---       #172
      00FF607AH   LINE      CODE     ---       #174
      00FF607DH   LINE      CODE     ---       #175
      00FF6080H   LINE      CODE     ---       #176
      00FF6080H   LINE      CODE     ---       #177
      00FF6088H   LINE      CODE     ---       #179
      00FF608BH   LINE      CODE     ---       #180
      00FF609CH   LINE      CODE     ---       #183
      00FF60C7H   LINE      CODE     ---       #186
      00FF60DAH   LINE      CODE     ---       #187
      00FF60DFH   LINE      CODE     ---       #188
      00FF60E6H   LINE      CODE     ---       #193
      00FF60FBH   LINE      CODE     ---       #194
      00FF6110H   LINE      CODE     ---       #195
      00FF6125H   LINE      CODE     ---       #196
      00FF613CH   LINE      CODE     ---       #197
      00FF613CH   LINE      CODE     ---       #200
      00FF6154H   LINE      CODE     ---       #203
L251 LINKER/LOCATER V4.66.93.0                                                        04/15/2024  21:19:48  PAGE 100


      00FF6154H   LINE      CODE     ---       #204
      ---         BLOCKEND  ---      ---       LVL=0

      00FF75DEH   BLOCK     CODE     ---       LVL=0
      00FF75DEH   LINE      CODE     ---       #206
      00FF75E4H   LINE      CODE     ---       #208
      00FF75E9H   LINE      CODE     ---       #210
      00FF75ECH   LINE      CODE     ---       #211
      00FF75EFH   LINE      CODE     ---       #212
      00FF75EFH   LINE      CODE     ---       #213
      00FF75F4H   LINE      CODE     ---       #215
      00FF75F7H   LINE      CODE     ---       #216
      00FF7608H   LINE      CODE     ---       #217
      00FF7620H   LINE      CODE     ---       #218
      00FF7620H   LINE      CODE     ---       #219
      ---         BLOCKEND  ---      ---       LVL=0
      00000A74H   SYMBOL    EDATA    BYTE      uart_num

      ---         MODULE    ---      ---       isr
      000000D0H   SFRSYM    DATA     BYTE      PSW
      0000009DH   SFRSYM    DATA     BYTE      IRCBAND
      00000097H   SFRSYM    DATA     BYTE      AUXR2
      000000EFH   SFRSYM    DATA     BYTE      AUXINTIF
      000000FDH   SFRSYM    DATA     BYTE      S4CON
      000000ACH   SFRSYM    DATA     BYTE      S3CON
      0000009AH   SFRSYM    DATA     BYTE      S2CON
      000000B7H   SFRSYM    DATA     BYTE      IPH
      000000CDH   SFRSYM    DATA     BYTE      SPSTAT
      000000DDH   SFRSYM    DATA     BYTE      T4T3M
      000000C1H   SFRSYM    DATA     BYTE      WDT_CONTR
      000000DFH   SFRSYM    DATA     BYTE      IP3
      000000F4H   SFRSYM    DATA     BYTE      USBCON
      000000B5H   SFRSYM    DATA     BYTE      IP2
      000000FFH   SFRSYM    DATA     BYTE      RSTCFG
      000000F9H   SFRSYM    DATA     BYTE      LINICR
      0000008EH   SFRSYM    DATA     BYTE      AUXR
      000000AFH   SFRSYM    DATA     BYTE      IE2
      00000088H   SFRSYM    DATA     BYTE      TCON
      00000098H   SFRSYM    DATA     BYTE      SCON
      000000F1H   SFRSYM    DATA     BYTE      CANICR
      00000087H   SFRSYM    DATA     BYTE      PCON
      000000BCH   SFRSYM    DATA     BYTE      ADC_CONTR
      000000E7H   SFRSYM    DATA     BYTE      CMPCR2
      000000E6H   SFRSYM    DATA     BYTE      CMPCR1
      000000B8H   SFRSYM    DATA     BYTE      IP
      0000008FH   SFRSYM    DATA     BYTE      INTCLKO
      000000EEH   SFRSYM    DATA     BYTE      IP3H
      000000B6H   SFRSYM    DATA     BYTE      IP2H
      000000A8H   SFRSYM    DATA     BYTE      IE
      000000BBH   SFRSYM    DATA     BYTE      P_SW3
      000000BAH   SFRSYM    DATA     BYTE      P_SW2
      000000A2H   SFRSYM    DATA     BYTE      P_SW1
      000000CEH   SFRSYM    DATA     BYTE      SPCTL
      000000F8H   SFRSYM    DATA     BYTE      P7
      000000E8H   SFRSYM    DATA     BYTE      P6
      000000C8H   SFRSYM    DATA     BYTE      P5
      000000C0H   SFRSYM    DATA     BYTE      P4
      000000B0H   SFRSYM    DATA     BYTE      P3
      000000A0H   SFRSYM    DATA     BYTE      P2
      00000090H   SFRSYM    DATA     BYTE      P1
      00000080H   SFRSYM    DATA     BYTE      P0

      ---         MODULE    ---      ---       key
      00FF7BBDH   PUBLIC    CODE     ---       keys_ui_init
      00FF0040H   PUBLIC    CODE     ---       key1_short_press
L251 LINKER/LOCATER V4.66.93.0                                                        04/15/2024  21:19:48  PAGE 101


      00FF0041H   PUBLIC    CODE     ---       key2_short_press
      00FF0042H   PUBLIC    CODE     ---       key3_short_press
      00FF732DH   PUBLIC    CODE     ---       key4_short_press
      00FF737EH   PUBLIC    CODE     ---       key1_check
      00FF7234H   PUBLIC    CODE     ---       key2_check
      00FF7287H   PUBLIC    CODE     ---       key3_check
      00FF72DAH   PUBLIC    CODE     ---       key4_check
      00000021H.4 PUBLIC    BIT      BIT       LaserRanging_State
      000009D6H   PUBLIC    EDATA    BYTE      key1_up_store
      000009D7H   PUBLIC    EDATA    BYTE      key2_up_store
      000009D8H   PUBLIC    EDATA    BYTE      key3_up_store
      000009D9H   PUBLIC    EDATA    BYTE      key4_up_store
      000000B0H.6 SFRSYM    DATA     BIT       key3
      000000B0H.5 SFRSYM    DATA     BIT       key2
      000000B0H.4 SFRSYM    DATA     BIT       key1
      000000D0H   SFRSYM    DATA     BYTE      PSW
      0000009DH   SFRSYM    DATA     BYTE      IRCBAND
      00000097H   SFRSYM    DATA     BYTE      AUXR2
      000000EFH   SFRSYM    DATA     BYTE      AUXINTIF
      000000FDH   SFRSYM    DATA     BYTE      S4CON
      000000ACH   SFRSYM    DATA     BYTE      S3CON
      0000009AH   SFRSYM    DATA     BYTE      S2CON
      000000B7H   SFRSYM    DATA     BYTE      IPH
      000000CDH   SFRSYM    DATA     BYTE      SPSTAT
      000000DDH   SFRSYM    DATA     BYTE      T4T3M
      000000C1H   SFRSYM    DATA     BYTE      WDT_CONTR
      000000DFH   SFRSYM    DATA     BYTE      IP3
      000000F4H   SFRSYM    DATA     BYTE      USBCON
      000000B5H   SFRSYM    DATA     BYTE      IP2
      000000FFH   SFRSYM    DATA     BYTE      RSTCFG
      000000F9H   SFRSYM    DATA     BYTE      LINICR
      0000008EH   SFRSYM    DATA     BYTE      AUXR
      000000AFH   SFRSYM    DATA     BYTE      IE2
      00000088H   SFRSYM    DATA     BYTE      TCON
      00000098H   SFRSYM    DATA     BYTE      SCON
      000000F1H   SFRSYM    DATA     BYTE      CANICR
      00000087H   SFRSYM    DATA     BYTE      PCON
      000000BCH   SFRSYM    DATA     BYTE      ADC_CONTR
      000000E7H   SFRSYM    DATA     BYTE      CMPCR2
      000000E6H   SFRSYM    DATA     BYTE      CMPCR1
      000000B8H   SFRSYM    DATA     BYTE      IP
      0000008FH   SFRSYM    DATA     BYTE      INTCLKO
      000000EEH   SFRSYM    DATA     BYTE      IP3H
      000000B6H   SFRSYM    DATA     BYTE      IP2H
      000000A8H   SFRSYM    DATA     BYTE      IE
      000000BBH   SFRSYM    DATA     BYTE      P_SW3
      000000BAH   SFRSYM    DATA     BYTE      P_SW2
      000000A2H   SFRSYM    DATA     BYTE      P_SW1
      000000CEH   SFRSYM    DATA     BYTE      SPCTL
      000000F8H   SFRSYM    DATA     BYTE      P7
      000000E8H   SFRSYM    DATA     BYTE      P6
      000000C8H   SFRSYM    DATA     BYTE      P5
      000000C0H   SFRSYM    DATA     BYTE      P4
      000000B0H   SFRSYM    DATA     BYTE      P3
      000000A0H   SFRSYM    DATA     BYTE      P2
      00000090H   SFRSYM    DATA     BYTE      P1
      00000080H   SFRSYM    DATA     BYTE      P0
      000000B0H.7 SFRSYM    DATA     BIT       key4

      00FF7BBDH   BLOCK     CODE     ---       LVL=0
      00FF7BBDH   LINE      CODE     ---       #11
      00FF7BBDH   LINE      CODE     ---       #14
      00FF7BCCH   LINE      CODE     ---       #15
      ---         BLOCKEND  ---      ---       LVL=0

L251 LINKER/LOCATER V4.66.93.0                                                        04/15/2024  21:19:48  PAGE 102


      00FF0040H   BLOCK     CODE     ---       LVL=0
      00FF0040H   LINE      CODE     ---       #17
      00FF0040H   LINE      CODE     ---       #20
      ---         BLOCKEND  ---      ---       LVL=0

      00FF0041H   BLOCK     CODE     ---       LVL=0
      00FF0041H   LINE      CODE     ---       #22
      00FF0041H   LINE      CODE     ---       #25
      ---         BLOCKEND  ---      ---       LVL=0

      00FF0042H   BLOCK     CODE     ---       LVL=0
      00FF0042H   LINE      CODE     ---       #27
      00FF0042H   LINE      CODE     ---       #30
      ---         BLOCKEND  ---      ---       LVL=0

      00FF732DH   BLOCK     CODE     ---       LVL=0
      00FF732DH   LINE      CODE     ---       #32
      00FF732DH   LINE      CODE     ---       #35
      00FF7336H   LINE      CODE     ---       #36
      00FF7339H   LINE      CODE     ---       #38
      00FF7348H   LINE      CODE     ---       #39
      00FF7351H   LINE      CODE     ---       #40
      00FF735AH   LINE      CODE     ---       #41
      00FF735CH   LINE      CODE     ---       #44
      00FF736BH   LINE      CODE     ---       #45
      00FF7374H   LINE      CODE     ---       #46
      00FF737DH   LINE      CODE     ---       #47
      00FF737DH   LINE      CODE     ---       #48
      ---         BLOCKEND  ---      ---       LVL=0

      00FF737EH   BLOCK     CODE     ---       LVL=0
      00FF737EH   LINE      CODE     ---       #50
      00FF737EH   LINE      CODE     ---       #52
      00FF7390H   LINE      CODE     ---       #54
      00FF7395H   LINE      CODE     ---       #55
      00FF73A4H   LINE      CODE     ---       #56
      00FF73A4H   LINE      CODE     ---       #57
      00FF73B6H   LINE      CODE     ---       #59
      00FF73BCH   LINE      CODE     ---       #60
      00FF73BFH   LINE      CODE     ---       #61
      00FF73CEH   LINE      CODE     ---       #62
      ---         BLOCKEND  ---      ---       LVL=0

      00FF7234H   BLOCK     CODE     ---       LVL=0
      00FF7234H   LINE      CODE     ---       #65
      00FF7234H   LINE      CODE     ---       #67
      00FF7246H   LINE      CODE     ---       #69
      00FF724BH   LINE      CODE     ---       #70
      00FF725BH   LINE      CODE     ---       #71
      00FF725BH   LINE      CODE     ---       #72
      00FF726DH   LINE      CODE     ---       #74
      00FF7273H   LINE      CODE     ---       #75
      00FF7276H   LINE      CODE     ---       #76
      00FF7286H   LINE      CODE     ---       #77
      ---         BLOCKEND  ---      ---       LVL=0

      00FF7287H   BLOCK     CODE     ---       LVL=0
      00FF7287H   LINE      CODE     ---       #80
      00FF7287H   LINE      CODE     ---       #82
      00FF7299H   LINE      CODE     ---       #84
      00FF729EH   LINE      CODE     ---       #85
      00FF72AEH   LINE      CODE     ---       #86
      00FF72AEH   LINE      CODE     ---       #87
      00FF72C0H   LINE      CODE     ---       #89
      00FF72C6H   LINE      CODE     ---       #90
L251 LINKER/LOCATER V4.66.93.0                                                        04/15/2024  21:19:48  PAGE 103


      00FF72C9H   LINE      CODE     ---       #91
      00FF72D9H   LINE      CODE     ---       #92
      ---         BLOCKEND  ---      ---       LVL=0

      00FF72DAH   BLOCK     CODE     ---       LVL=0
      00FF72DAH   LINE      CODE     ---       #95
      00FF72DAH   LINE      CODE     ---       #97
      00FF72ECH   LINE      CODE     ---       #99
      00FF72F1H   LINE      CODE     ---       #100
      00FF7301H   LINE      CODE     ---       #101
      00FF7301H   LINE      CODE     ---       #102
      00FF7313H   LINE      CODE     ---       #104
      00FF7319H   LINE      CODE     ---       #105
      00FF731CH   LINE      CODE     ---       #106
      00FF732CH   LINE      CODE     ---       #107
      ---         BLOCKEND  ---      ---       LVL=0

      ---         MODULE    ---      ---       host_comm

      ---         MODULE    ---      ---       laser_ranging
      00FF7A95H   PUBLIC    CODE     ---       laser_ranging_get_uart_value
      00FF798DH   PUBLIC    CODE     ---       laser_ranging
      00FF5634H   PUBLIC    CODE     ---       laser_ranging_irqhandler
      00000132H   PUBLIC    EDATA    ---       lrcmd_setrange_10m
      00000137H   PUBLIC    EDATA    ---       laser_ranging_cmd_arr_shutdown
      0000013BH   PUBLIC    EDATA    ---       lrcmd_setrange_30m
      00000140H   PUBLIC    EDATA    ---       lrcmd_setrange_50m
      00000145H   PUBLIC    EDATA    ---       laser_ranging_cmd_arr_single
      00000149H   PUBLIC    EDATA    ---       lrcmd_setrange_80m
      0000014EH   PUBLIC    EDATA    ---       lrcmd_readcache
      00000153H   PUBLIC    EDATA    ---       lrcmd_setresolution_1mm
      00000158H   PUBLIC    EDATA    ---       laser_ranging_cmd_arr_setrange_10m
      0000015DH   PUBLIC    EDATA    ---       laser_ranging_cmd_arr_setrange_30m
      00000162H   PUBLIC    EDATA    ---       laser_ranging_cmd_arr_setrange_50m
      00000167H   PUBLIC    EDATA    ---       lrcmd_single_broadcast
      0000016CH   PUBLIC    EDATA    ---       laser_ranging_cmd_arr_setrange_80m
      00000171H   PUBLIC    EDATA    ---       laser_ranging_cmd_arr_readcache
      00000175H   PUBLIC    EDATA    ---       lrcmd_setfreq_10hz
      0000017AH   PUBLIC    EDATA    ---       laser_ranging_cmd_arr_setresolution_1mm
      0000017FH   PUBLIC    EDATA    ---       lrcmd_setfreq_20hz
      00000184H   PUBLIC    EDATA    ---       lrcmd_setresolution_0_1mm
      00000189H   PUBLIC    EDATA    ---       laser_ranging_cmd_arr_single_broadcast
      0000018DH   PUBLIC    EDATA    ---       laser_ranging_cmd_arr_setfreq_10hz
      00000192H   PUBLIC    EDATA    ---       laser_ranging_cmd_arr_setfreq_20hz
      00000197H   PUBLIC    EDATA    ---       laser_ranging_cmd_arr_setresolution_0_1mm
      0000019CH   PUBLIC    EDATA    ---       lrcmd_laseroff
      000001A1H   PUBLIC    EDATA    ---       lrcmd_setrange_5m
      000001A6H   PUBLIC    EDATA    ---       laser_ranging_cmd_arr_laseroff
      000001ABH   PUBLIC    EDATA    ---       lrcmd_continous
      000001B0H   PUBLIC    EDATA    ---       laser_ranging_cmd_arr_setrange_5m
      000001B5H   PUBLIC    EDATA    ---       lrcmd_setfreq_1hz
      000001BAH   PUBLIC    EDATA    ---       laser_ranging_cmd_arr_continous
      000001BEH   PUBLIC    EDATA    ---       lrcmd_setfreq_5hz
      000001C3H   PUBLIC    EDATA    ---       lrcmd_laseron
      000001C8H   PUBLIC    EDATA    ---       laser_ranging_cmd_arr_setfreq_1hz
      000001CDH   PUBLIC    EDATA    ---       lrcmd_shutdown
      000001D2H   PUBLIC    EDATA    ---       laser_ranging_cmd_arr_setfreq_5hz
      000001D7H   PUBLIC    EDATA    ---       lrdata
      000001FFH   PUBLIC    EDATA    ---       lrcmd_single
      00000204H   PUBLIC    EDATA    ---       laser_ranging_cmd_arr_laseron
      000000D0H   SFRSYM    DATA     BYTE      PSW
      0000009DH   SFRSYM    DATA     BYTE      IRCBAND
      00000097H   SFRSYM    DATA     BYTE      AUXR2
      000000EFH   SFRSYM    DATA     BYTE      AUXINTIF
      000000FDH   SFRSYM    DATA     BYTE      S4CON
L251 LINKER/LOCATER V4.66.93.0                                                        04/15/2024  21:19:48  PAGE 104


      000000ACH   SFRSYM    DATA     BYTE      S3CON
      0000009AH   SFRSYM    DATA     BYTE      S2CON
      000000B7H   SFRSYM    DATA     BYTE      IPH
      000000CDH   SFRSYM    DATA     BYTE      SPSTAT
      000000DDH   SFRSYM    DATA     BYTE      T4T3M
      000000C1H   SFRSYM    DATA     BYTE      WDT_CONTR
      000000DFH   SFRSYM    DATA     BYTE      IP3
      000000F4H   SFRSYM    DATA     BYTE      USBCON
      000000B5H   SFRSYM    DATA     BYTE      IP2
      000000FFH   SFRSYM    DATA     BYTE      RSTCFG
      000000F9H   SFRSYM    DATA     BYTE      LINICR
      0000008EH   SFRSYM    DATA     BYTE      AUXR
      000000AFH   SFRSYM    DATA     BYTE      IE2
      00000088H   SFRSYM    DATA     BYTE      TCON
      00000098H   SFRSYM    DATA     BYTE      SCON
      000000F1H   SFRSYM    DATA     BYTE      CANICR
      00000087H   SFRSYM    DATA     BYTE      PCON
      000000BCH   SFRSYM    DATA     BYTE      ADC_CONTR
      000000E7H   SFRSYM    DATA     BYTE      CMPCR2
      000000E6H   SFRSYM    DATA     BYTE      CMPCR1
      000000B8H   SFRSYM    DATA     BYTE      IP
      0000008FH   SFRSYM    DATA     BYTE      INTCLKO
      000000EEH   SFRSYM    DATA     BYTE      IP3H
      000000B6H   SFRSYM    DATA     BYTE      IP2H
      000000A8H   SFRSYM    DATA     BYTE      IE
      000000BBH   SFRSYM    DATA     BYTE      P_SW3
      000000BAH   SFRSYM    DATA     BYTE      P_SW2
      000000A2H   SFRSYM    DATA     BYTE      P_SW1
      000000CEH   SFRSYM    DATA     BYTE      SPCTL
      000000F8H   SFRSYM    DATA     BYTE      P7
      000000E8H   SFRSYM    DATA     BYTE      P6
      000000C8H   SFRSYM    DATA     BYTE      P5
      000000C0H   SFRSYM    DATA     BYTE      P4
      000000B0H   SFRSYM    DATA     BYTE      P3
      000000A0H   SFRSYM    DATA     BYTE      P2
      00000090H   SFRSYM    DATA     BYTE      P1
      00000080H   SFRSYM    DATA     BYTE      P0

      00FF5634H   BLOCK     CODE     ---       LVL=0
      00000A0BH   SYMBOL    EDATA    BYTE      lr_axis
      00FF5638H   BLOCK     CODE     NEAR LAB  LVL=1
      00000A0CH   SYMBOL    EDATA    WORD      i
      ---         BLOCKEND  ---      ---       LVL=1
      00FF5634H   LINE      CODE     ---       #49
      00FF5638H   LINE      CODE     ---       #50
      00FF5638H   LINE      CODE     ---       #52
      00FF5645H   LINE      CODE     ---       #54
      00FF5645H   LINE      CODE     ---       #55
      00FF5651H   LINE      CODE     ---       #57
      00FF565EH   LINE      CODE     ---       #59
      00FF5676H   LINE      CODE     ---       #61
      00FF5683H   LINE      CODE     ---       #63
      00FF5688H   LINE      CODE     ---       #64
      00FF5703H   LINE      CODE     ---       #69
      00FF570DH   LINE      CODE     ---       #71
      00FF572DH   LINE      CODE     ---       #72
      00FF5747H   LINE      CODE     ---       #73
      00FF5752H   LINE      CODE     ---       #74
      00FF5769H   LINE      CODE     ---       #75
      00FF576CH   LINE      CODE     ---       #78
      00FF5776H   LINE      CODE     ---       #79
      00FF577CH   LINE      CODE     ---       #80
      00FF5782H   LINE      CODE     ---       #81
      00FF5788H   LINE      CODE     ---       #82
      00FF5788H   LINE      CODE     ---       #83
L251 LINKER/LOCATER V4.66.93.0                                                        04/15/2024  21:19:48  PAGE 105


      00FF5788H   LINE      CODE     ---       #85
      00FF5788H   LINE      CODE     ---       #86
      00FF5788H   LINE      CODE     ---       #87
      00FF578BH   LINE      CODE     ---       #88
      00FF578BH   LINE      CODE     ---       #89
      00FF5797H   LINE      CODE     ---       #91
      00FF57A4H   LINE      CODE     ---       #93
      00FF57BCH   LINE      CODE     ---       #95
      00FF57C9H   LINE      CODE     ---       #97
      00FF57CEH   LINE      CODE     ---       #99
      00FF5849H   LINE      CODE     ---       #104
      00FF5853H   LINE      CODE     ---       #106
      00FF5873H   LINE      CODE     ---       #107
      00FF588DH   LINE      CODE     ---       #108
      00FF5898H   LINE      CODE     ---       #109
      00FF58AFH   LINE      CODE     ---       #110
      00FF58B1H   LINE      CODE     ---       #113
      00FF58BBH   LINE      CODE     ---       #114
      00FF58C1H   LINE      CODE     ---       #115
      00FF58C7H   LINE      CODE     ---       #116
      00FF58CDH   LINE      CODE     ---       #117
      00FF58CDH   LINE      CODE     ---       #118
      00FF58CDH   LINE      CODE     ---       #120
      00FF58CDH   LINE      CODE     ---       #121
      00FF58CDH   LINE      CODE     ---       #122
      00FF58CDH   LINE      CODE     ---       #123
      00FF58CDH   LINE      CODE     ---       #124
      00FF58CDH   LINE      CODE     ---       #125
      00FF58CDH   LINE      CODE     ---       #127
      ---         BLOCKEND  ---      ---       LVL=0

      00FF7A95H   BLOCK     CODE     ---       LVL=0
      00000A75H   SYMBOL    EDATA    BYTE      lr_axis
      00FF7A95H   LINE      CODE     ---       #131
      00FF7A99H   LINE      CODE     ---       #133
      00FF7AA4H   LINE      CODE     ---       #135
      00FF7AA4H   LINE      CODE     ---       #136
      00FF7AA8H   LINE      CODE     ---       #137
      00FF7AA8H   LINE      CODE     ---       #139
      00FF7AA8H   LINE      CODE     ---       #140
      00FF7AACH   LINE      CODE     ---       #141
      00FF7AACH   LINE      CODE     ---       #143
      00FF7AACH   LINE      CODE     ---       #144
      00FF7AB0H   LINE      CODE     ---       #145
      00FF7AB0H   LINE      CODE     ---       #147
      00FF7AB0H   LINE      CODE     ---       #148
      00FF7AB2H   LINE      CODE     ---       #149
      00FF7AB2H   LINE      CODE     ---       #150
      00FF7AB2H   LINE      CODE     ---       #151
      ---         BLOCKEND  ---      ---       LVL=0

      00FF798DH   BLOCK     CODE     ---       LVL=0
      00000995H   SYMBOL    EDATA    BYTE      lr_axis
      00000996H   SYMBOL    EDATA    ---       specific_cmd
      00FF798DH   LINE      CODE     ---       #154
      00FF7995H   LINE      CODE     ---       #156
      00FF79AFH   LINE      CODE     ---       #157
      ---         BLOCKEND  ---      ---       LVL=0

      ---         MODULE    ---      ---       motor_driver_boards
      000000D0H   SFRSYM    DATA     BYTE      PSW
      0000009DH   SFRSYM    DATA     BYTE      IRCBAND
      00000097H   SFRSYM    DATA     BYTE      AUXR2
      000000EFH   SFRSYM    DATA     BYTE      AUXINTIF
      000000FDH   SFRSYM    DATA     BYTE      S4CON
L251 LINKER/LOCATER V4.66.93.0                                                        04/15/2024  21:19:48  PAGE 106


      000000ACH   SFRSYM    DATA     BYTE      S3CON
      0000009AH   SFRSYM    DATA     BYTE      S2CON
      000000B7H   SFRSYM    DATA     BYTE      IPH
      000000CDH   SFRSYM    DATA     BYTE      SPSTAT
      000000DDH   SFRSYM    DATA     BYTE      T4T3M
      000000C1H   SFRSYM    DATA     BYTE      WDT_CONTR
      000000DFH   SFRSYM    DATA     BYTE      IP3
      000000F4H   SFRSYM    DATA     BYTE      USBCON
      000000B5H   SFRSYM    DATA     BYTE      IP2
      000000FFH   SFRSYM    DATA     BYTE      RSTCFG
      000000F9H   SFRSYM    DATA     BYTE      LINICR
      000000C0H.5 SFRSYM    DATA     BIT       gpio_wheel_y_front_counterclockwise
      000000C0H.6 SFRSYM    DATA     BIT       gpio_wheel_y_rear_counterclockwise
      0000008EH   SFRSYM    DATA     BYTE      AUXR
      000000C0H.1 SFRSYM    DATA     BIT       gpio_wheel_x_front_counterclockwise
      000000C0H.2 SFRSYM    DATA     BIT       gpio_wheel_x_rear_counterclockwise
      000000AFH   SFRSYM    DATA     BYTE      IE2
      000000C0H.4 SFRSYM    DATA     BIT       gpio_wheel_y_front_clockwise
      000000C0H.7 SFRSYM    DATA     BIT       gpio_wheel_y_rear_clockwise
      000000C0H.0 SFRSYM    DATA     BIT       gpio_wheel_x_front_clockwise
      000000C0H.3 SFRSYM    DATA     BIT       gpio_wheel_x_rear_clockwise
      00000088H   SFRSYM    DATA     BYTE      TCON
      00000098H   SFRSYM    DATA     BYTE      SCON
      000000F1H   SFRSYM    DATA     BYTE      CANICR
      00000087H   SFRSYM    DATA     BYTE      PCON
      000000BCH   SFRSYM    DATA     BYTE      ADC_CONTR
      000000E7H   SFRSYM    DATA     BYTE      CMPCR2
      000000E6H   SFRSYM    DATA     BYTE      CMPCR1
      000000B8H   SFRSYM    DATA     BYTE      IP
      0000008FH   SFRSYM    DATA     BYTE      INTCLKO
      000000EEH   SFRSYM    DATA     BYTE      IP3H
      000000B6H   SFRSYM    DATA     BYTE      IP2H
      000000A8H   SFRSYM    DATA     BYTE      IE
      000000BBH   SFRSYM    DATA     BYTE      P_SW3
      000000BAH   SFRSYM    DATA     BYTE      P_SW2
      000000A2H   SFRSYM    DATA     BYTE      P_SW1
      000000CEH   SFRSYM    DATA     BYTE      SPCTL
      000000F8H   SFRSYM    DATA     BYTE      P7
      000000E8H   SFRSYM    DATA     BYTE      P6
      000000C8H   SFRSYM    DATA     BYTE      P5
      000000C0H   SFRSYM    DATA     BYTE      P4
      000000B0H   SFRSYM    DATA     BYTE      P3
      000000A0H   SFRSYM    DATA     BYTE      P2
      00000090H   SFRSYM    DATA     BYTE      P1
      00000080H   SFRSYM    DATA     BYTE      P0

      ---         MODULE    ---      ---       seekfree_assistant
      00010201H   PUBLIC    XDATA    ---       seekfree_assistant_oscilloscope_data
      0001023CH   PUBLIC    XDATA    ---       seekfree_assistant_parameter_update_flag
      00010244H   PUBLIC    XDATA    ---       seekfree_assistant_parameter
      000005D0H   PUBLIC    EDATA    BYTE      ?seekfree_assistant_camera_data_send?BYTE
      00000731H   PUBLIC    EDATA    BYTE      ?seekfree_assistant_camera_information_config?BYTE
      000004C8H   PUBLIC    EDATA    BYTE      ?seekfree_assistant_camera_boundary_config?BYTE
      000000D0H   SFRSYM    DATA     BYTE      PSW
      0000009DH   SFRSYM    DATA     BYTE      IRCBAND
      00000097H   SFRSYM    DATA     BYTE      AUXR2
      000000EFH   SFRSYM    DATA     BYTE      AUXINTIF
      000000FDH   SFRSYM    DATA     BYTE      S4CON
      000000ACH   SFRSYM    DATA     BYTE      S3CON
      0000009AH   SFRSYM    DATA     BYTE      S2CON
      000000B7H   SFRSYM    DATA     BYTE      IPH
      000000CDH   SFRSYM    DATA     BYTE      SPSTAT
      000000DDH   SFRSYM    DATA     BYTE      T4T3M
      000000C1H   SFRSYM    DATA     BYTE      WDT_CONTR
      000000DFH   SFRSYM    DATA     BYTE      IP3
L251 LINKER/LOCATER V4.66.93.0                                                        04/15/2024  21:19:48  PAGE 107


      000000F4H   SFRSYM    DATA     BYTE      USBCON
      000000B5H   SFRSYM    DATA     BYTE      IP2
      000000FFH   SFRSYM    DATA     BYTE      RSTCFG
      000000F9H   SFRSYM    DATA     BYTE      LINICR
      0000008EH   SFRSYM    DATA     BYTE      AUXR
      000000AFH   SFRSYM    DATA     BYTE      IE2
      00000088H   SFRSYM    DATA     BYTE      TCON
      00000098H   SFRSYM    DATA     BYTE      SCON
      000000F1H   SFRSYM    DATA     BYTE      CANICR
      00000087H   SFRSYM    DATA     BYTE      PCON
      000000BCH   SFRSYM    DATA     BYTE      ADC_CONTR
      000000E7H   SFRSYM    DATA     BYTE      CMPCR2
      000000E6H   SFRSYM    DATA     BYTE      CMPCR1
      000000B8H   SFRSYM    DATA     BYTE      IP
      0000008FH   SFRSYM    DATA     BYTE      INTCLKO
      000000EEH   SFRSYM    DATA     BYTE      IP3H
      000000B6H   SFRSYM    DATA     BYTE      IP2H
      000000A8H   SFRSYM    DATA     BYTE      IE
      000000BBH   SFRSYM    DATA     BYTE      P_SW3
      000000BAH   SFRSYM    DATA     BYTE      P_SW2
      000000A2H   SFRSYM    DATA     BYTE      P_SW1
      000000CEH   SFRSYM    DATA     BYTE      SPCTL
      000000F8H   SFRSYM    DATA     BYTE      P7
      000000E8H   SFRSYM    DATA     BYTE      P6
      000000C8H   SFRSYM    DATA     BYTE      P5
      000000C0H   SFRSYM    DATA     BYTE      P4
      000000B0H   SFRSYM    DATA     BYTE      P3
      000000A0H   SFRSYM    DATA     BYTE      P2
      00000090H   SFRSYM    DATA     BYTE      P1
      00000080H   SFRSYM    DATA     BYTE      P0
      0000036DH   SYMBOL    EDATA    ---       seekfree_assistant_camera_dot_data
      00000375H   SYMBOL    EDATA    ---       seekfree_assistant_camera_buffer
      000003BFH   SYMBOL    EDATA    ---       seekfree_assistant_camera_data
      00010225H   SYMBOL    XDATA    ---       seekfree_assistant_fifo
      00010264H   SYMBOL    XDATA    ---       seekfree_assistant_buffer
      000007C2H   SYMBOL    EDATA    ---       buffer
      000007C6H   SYMBOL    EDATA    DWORD     length
      000007CAH   SYMBOL    EDATA    BYTE      temp_sum
      000005D0H   SYMBOL    EDATA    INT       camera_type
      000005D2H   SYMBOL    EDATA    ---       image_addr
      000005D6H   SYMBOL    EDATA    BYTE      boundary_num
      000005D7H   SYMBOL    EDATA    WORD      width
      000005D9H   SYMBOL    EDATA    WORD      height
      000005DBH   SYMBOL    EDATA    DWORD     image_size
      00000731H   SYMBOL    EDATA    INT       camera_type
      00000733H   SYMBOL    EDATA    ---       image_addr
      00000737H   SYMBOL    EDATA    WORD      width
      00000739H   SYMBOL    EDATA    WORD      height
      0000047FH   SYMBOL    EDATA    ---       seekfree_assistant_oscilloscope
      00000483H   SYMBOL    EDATA    BYTE      packet_size
      00000484H   SYMBOL    EDATA    BYTE      i
      00000485H   SYMBOL    EDATA    ---       temp_oscilloscope
      00000887H   SYMBOL    EDATA    ---       buffer
      0000088BH   SYMBOL    EDATA    BYTE      i
      0000088CH   SYMBOL    EDATA    WORD      dot_bytes
      000004C8H   SYMBOL    EDATA    INT       boundary_type
      000004CAH   SYMBOL    EDATA    WORD      dot_num
      000004CCH   SYMBOL    EDATA    ---       dot_x1
      000004D0H   SYMBOL    EDATA    ---       dot_x2
      000004D4H   SYMBOL    EDATA    ---       dot_x3
      000004D8H   SYMBOL    EDATA    ---       dot_y1
      000004DCH   SYMBOL    EDATA    ---       dot_y2
      000004E0H   SYMBOL    EDATA    ---       dot_y3
      000004E4H   SYMBOL    EDATA    BYTE      i
      000004E5H   SYMBOL    EDATA    BYTE      boundary_num
L251 LINKER/LOCATER V4.66.93.0                                                        04/15/2024  21:19:48  PAGE 108


      000004E6H   SYMBOL    EDATA    BYTE      boundary_data_type
      00000209H   SYMBOL    EDATA    BYTE      temp_sum
      0000020AH   SYMBOL    EDATA    DWORD     read_length
      0000020EH   SYMBOL    EDATA    ---       receive_packet
      00000212H   SYMBOL    EDATA    ---       temp_buffer
      00000292H   SYMBOL    EDATA    DWORD     i

      ---         MODULE    ---      ---       seekfree_assistant_inface
      000009DAH   PUBLIC    EDATA    ---       seekfree_assistant_receive
      000009DCH   PUBLIC    EDATA    ---       seekfree_assistant_transfer
      000000D0H   SFRSYM    DATA     BYTE      PSW
      0000009DH   SFRSYM    DATA     BYTE      IRCBAND
      00000097H   SFRSYM    DATA     BYTE      AUXR2
      000000EFH   SFRSYM    DATA     BYTE      AUXINTIF
      000000FDH   SFRSYM    DATA     BYTE      S4CON
      000000ACH   SFRSYM    DATA     BYTE      S3CON
      0000009AH   SFRSYM    DATA     BYTE      S2CON
      000000B7H   SFRSYM    DATA     BYTE      IPH
      000000CDH   SFRSYM    DATA     BYTE      SPSTAT
      000000DDH   SFRSYM    DATA     BYTE      T4T3M
      000000C1H   SFRSYM    DATA     BYTE      WDT_CONTR
      000000DFH   SFRSYM    DATA     BYTE      IP3
      000000F4H   SFRSYM    DATA     BYTE      USBCON
      000000B5H   SFRSYM    DATA     BYTE      IP2
      000000FFH   SFRSYM    DATA     BYTE      RSTCFG
      000000F9H   SFRSYM    DATA     BYTE      LINICR
      0000008EH   SFRSYM    DATA     BYTE      AUXR
      000000AFH   SFRSYM    DATA     BYTE      IE2
      00000088H   SFRSYM    DATA     BYTE      TCON
      00000098H   SFRSYM    DATA     BYTE      SCON
      000000F1H   SFRSYM    DATA     BYTE      CANICR
      00000087H   SFRSYM    DATA     BYTE      PCON
      000000BCH   SFRSYM    DATA     BYTE      ADC_CONTR
      000000E7H   SFRSYM    DATA     BYTE      CMPCR2
      000000E6H   SFRSYM    DATA     BYTE      CMPCR1
      000000B8H   SFRSYM    DATA     BYTE      IP
      0000008FH   SFRSYM    DATA     BYTE      INTCLKO
      000000EEH   SFRSYM    DATA     BYTE      IP3H
      000000B6H   SFRSYM    DATA     BYTE      IP2H
      000000A8H   SFRSYM    DATA     BYTE      IE
      000000BBH   SFRSYM    DATA     BYTE      P_SW3
      000000BAH   SFRSYM    DATA     BYTE      P_SW2
      000000A2H   SFRSYM    DATA     BYTE      P_SW1
      000000CEH   SFRSYM    DATA     BYTE      SPCTL
      000000F8H   SFRSYM    DATA     BYTE      P7
      000000E8H   SFRSYM    DATA     BYTE      P6
      000000C8H   SFRSYM    DATA     BYTE      P5
      000000C0H   SFRSYM    DATA     BYTE      P4
      000000B0H   SFRSYM    DATA     BYTE      P3
      000000A0H   SFRSYM    DATA     BYTE      P2
      00000090H   SFRSYM    DATA     BYTE      P1
      00000080H   SFRSYM    DATA     BYTE      P0

      ---         MODULE    ---      ---       SEEKFREE_CONFIG
      00FF0096H   PUBLIC    CODE     ---       dl1b_default_configuration
      00FF011DH   PUBLIC    CODE     ---       imu660ra_config_file

      ---         MODULE    ---      ---       ?C?FPADD
      00FF2F2BH   PUBLIC    CODE     ---       ?C?FPADD
      00FF2F28H   PUBLIC    CODE     ---       ?C?FPSUB

      ---         MODULE    ---      ---       ?C?FPMUL
      00FF2FE3H   PUBLIC    CODE     ---       ?C?FPMUL

      ---         MODULE    ---      ---       ?C?FPDIV
L251 LINKER/LOCATER V4.66.93.0                                                        04/15/2024  21:19:48  PAGE 109


      00FF3083H   PUBLIC    CODE     ---       ?C?FPDIV

      ---         MODULE    ---      ---       ?C?FPCMP
      00FF3106H   PUBLIC    CODE     ---       ?C?FPCMP
      00FF3104H   PUBLIC    CODE     ---       ?C?FPCMP3

      ---         MODULE    ---      ---       ?C?FCAST
      00FF3154H   PUBLIC    CODE     NEAR LAB  ?C?FCASTC
      00FF314FH   PUBLIC    CODE     NEAR LAB  ?C?FCASTI
      00FF314AH   PUBLIC    CODE     NEAR LAB  ?C?FCASTL

      ---         MODULE    ---      ---       ?C?CASTF
      00FF3187H   PUBLIC    CODE     NEAR LAB  ?C?CASTF

      ---         MODULE    ---      ---       PRINTF
      00FF31C4H   PUBLIC    CODE     NEAR LAB  PRINTF

      ---         MODULE    ---      ---       ATOF?_
      00FF31F0H   PUBLIC    CODE     NEAR LAB  ATOF?_

      ---         MODULE    ---      ---       ?C?FPGETOPN
      00FF320FH   PUBLIC    CODE     ---       ?C?FPGETOPN2
      00FF324CH   PUBLIC    CODE     ---       ?C?FPNANRESULT
      00FF3254H   PUBLIC    CODE     ---       ?C?FPOVERFLOW
      00FF3228H   PUBLIC    CODE     ---       ?C?FPRESULT
      00FF323EH   PUBLIC    CODE     ---       ?C?FPRESULT2
      00FF3251H   PUBLIC    CODE     ---       ?C?FPUNDERFLOW

      ---         MODULE    ---      ---       ?C?ATOF
      00FF3260H   PUBLIC    CODE     NEAR LAB  ?C?FPATOF

      ---         MODULE    ---      ---       ?C?PRNFMT
      00FF3349H   PUBLIC    CODE     ---       ?C?PRNFMT

      ---         MODULE    ---      ---       ?C?FPNEG
      00FF3758H   PUBLIC    CODE     ---       ?C?FPNEG

      ---         MODULE    ---      ---       ?C?FTNPWR
      00FF3796H   PUBLIC    CODE     ---       ?C?FTNPWR

      ---         MODULE    ---      ---       ?C?FPCONVERT
      00FF37DBH   PUBLIC    CODE     ---       ?C?FPCONVERT
      00FF3893H   PUBLIC    CODE     ---       ?C?FPROUND

      ---         MODULE    ---      ---       ?C_START
      00FF0000H   PUBLIC    CODE     ---       ?C?STARTUP
      00FF0000H   PUBLIC    CODE     ---       ?C_STARTUP

      ---         MODULE    ---      ---       ?C?INITEDATA
      00FF6A9DH   PUBLIC    CODE     ---       ?C?INITEDATA

      ---         MODULE    ---      ---       ?C?INITHDATA
      00FF6AC6H   PUBLIC    CODE     ---       ?C?INITHDATA

      ---         MODULE    ---      ---       ?C?SIDIV
      00FF38D6H   PUBLIC    CODE     ---       ?C?SIDIV

      ---         MODULE    ---      ---       ?C?LMUL
      00FF3908H   PUBLIC    CODE     ---       ?C?LMUL

      ---         MODULE    ---      ---       ?C?LIMUL
      00FF3919H   PUBLIC    CODE     ---       ?C?LIMUL

      ---         MODULE    ---      ---       ?C?ULDIV
      00FF3924H   PUBLIC    CODE     NEAR LAB  ?C?ULDIV
L251 LINKER/LOCATER V4.66.93.0                                                        04/15/2024  21:19:48  PAGE 110


      00FF3922H   PUBLIC    CODE     NEAR LAB  ?C?ULIDIV

      ---         MODULE    ---      ---       ?C?SLDIV
      00FF3975H   PUBLIC    CODE     NEAR LAB  ?C?SLDIV

      ---         MODULE    ---      ---       ISSPACE
      00FF7B5FH   PUBLIC    CODE     ---       isspace?_

      ---         MODULE    ---      ---       memcpy
      00FF7968H   PUBLIC    CODE     ---       memcpy?_

      ---         MODULE    ---      ---       memset

      ---         MODULE    ---      ---       ?C?INITEDATA_END
      00FF7E5EH   PUBLIC    HCONST   WORD      ?C?INITEDATA_END

      ---         MODULE    ---      ---       ?C?INITHDATA_END
      00FF7FE1H   PUBLIC    HCONST   WORD      ?C?INITHDATA_END

Program Size: data=9.5 edata+hdata=2924 xdata=1757 const=1160 code=31689
L251 RUN COMPLETE.  0 WARNING(S),  0 ERROR(S)
