L251 LINKER/LOCATER V4.66.93.0                                                          04/24/2024  12:31:03  PAGE 1


L251 LINKER/LOCATER V4.66.93.0, INVOKED BY:
C:\KEIL_V5\C251\BIN\L251.EXE .\Out_File\board.obj, .\Out_File\common.obj, .\Out_File\zf_adc.obj, .\Out_File\zf_delay.obj
>> , .\Out_File\zf_eeprom.obj, .\Out_File\zf_exti.obj, .\Out_File\zf_gpio.obj, .\Out_File\zf_nvic.obj, .\Out_File\zf_pwm
>> .obj, .\Out_File\zf_spi.obj, .\Out_File\zf_tim.obj, .\Out_File\zf_uart.obj, .\Out_File\zf_fifo.obj, .\Out_File\zf_iic
>> .obj, .\Out_File\SEEKFREE_18TFT.obj, .\Out_File\SEEKFREE_BLUETOOTH_CH9141.obj, Libraries\seekfree_peripheral\SEEKFREE
>> _CONFIG.LIB, .\Out_File\SEEKFREE_DL1A.obj, .\Out_File\SEEKFREE_DL1B.obj, .\Out_File\SEEKFREE_FONT.obj, .\Out_File\SEE
>> KFREE_ICM20602.obj, .\Out_File\SEEKFREE_IMU660RA.obj, .\Out_File\SEEKFREE_IMU963RA.obj, .\Out_File\SEEKFREE_IPS114_SP
>> I.obj, .\Out_File\SEEKFREE_MPU6050.obj, .\Out_File\SEEKFREE_OLED.obj, .\Out_File\SEEKFREE_PRINTF.obj, .\Out_File\SEEK
>> FREE_TSL1401.obj, .\Out_File\SEEKFREE_VIRSCO.obj, .\Out_File\SEEKFREE_WIRELESS.obj, .\Out_File\SEEKFREE_WIRELESS_CH57
>> 3.obj, .\Out_File\main.obj, .\Out_File\qmc5883.obj, .\Out_File\uart.obj, .\Out_File\isr.obj, .\Out_File\key.obj, .\Ou
>> t_File\host_comm.obj, .\Out_File\laser_ranging.obj, .\Out_File\motor_driver_boards.obj, .\Out_File\ui.obj, .\Out_File
>> \seekfree_assistant.obj, .\Out_File\seekfree_assistant_inface.obj TO .\Out_File\SEEKFREE PRINT (.\Out_File\SEEKFREE.m
>> ap) CASE DISABLEWARNING (15, 16, 57) REMOVEUNUSED CLASSES (EDATA (0X0-0XFFF), HDATA (0X0-0XFFF))


CPU MODE:     251 SOURCE MODE
INTR FRAME:   2 BYTES SAVED ON INTERRUPT
MEMORY MODEL: XSMALL WITH FLOATING POINT ARITHMETIC


INPUT MODULES INCLUDED:
  .\Out_File\board.obj (board)
         COMMENT TYPE 0: C251 V5.60.0
  .\Out_File\common.obj (common)
         COMMENT TYPE 0: C251 V5.60.0
  .\Out_File\zf_adc.obj (zf_adc)
         COMMENT TYPE 0: C251 V5.60.0
  .\Out_File\zf_delay.obj (zf_delay)
         COMMENT TYPE 0: C251 V5.60.0
  .\Out_File\zf_eeprom.obj (zf_eeprom)
         COMMENT TYPE 0: C251 V5.60.0
  .\Out_File\zf_exti.obj (zf_exti)
         COMMENT TYPE 0: C251 V5.60.0
  .\Out_File\zf_gpio.obj (zf_gpio)
         COMMENT TYPE 0: C251 V5.60.0
  .\Out_File\zf_nvic.obj (zf_nvic)
         COMMENT TYPE 0: C251 V5.60.0
  .\Out_File\zf_pwm.obj (zf_pwm)
         COMMENT TYPE 0: C251 V5.60.0
  .\Out_File\zf_spi.obj (zf_spi)
         COMMENT TYPE 0: C251 V5.60.0
  .\Out_File\zf_tim.obj (zf_tim)
         COMMENT TYPE 0: C251 V5.60.0
  .\Out_File\zf_uart.obj (zf_uart)
         COMMENT TYPE 0: C251 V5.60.0
  .\Out_File\zf_fifo.obj (zf_fifo)
         COMMENT TYPE 0: C251 V5.60.0
  .\Out_File\zf_iic.obj (zf_iic)
         COMMENT TYPE 0: C251 V5.60.0
  .\Out_File\SEEKFREE_18TFT.obj (SEEKFREE_18TFT)
         COMMENT TYPE 0: C251 V5.60.0
  .\Out_File\SEEKFREE_BLUETOOTH_CH9141.obj (SEEKFREE_BLUETOOTH_CH9141)
         COMMENT TYPE 0: C251 V5.60.0
  .\Out_File\SEEKFREE_DL1A.obj (SEEKFREE_DL1A)
         COMMENT TYPE 0: C251 V5.60.0
  .\Out_File\SEEKFREE_DL1B.obj (SEEKFREE_DL1B)
         COMMENT TYPE 0: C251 V5.60.0
  .\Out_File\SEEKFREE_FONT.obj (SEEKFREE_FONT)
         COMMENT TYPE 0: C251 V5.60.0
  .\Out_File\SEEKFREE_ICM20602.obj (SEEKFREE_ICM20602)
         COMMENT TYPE 0: C251 V5.60.0
  .\Out_File\SEEKFREE_IMU660RA.obj (SEEKFREE_IMU660RA)
         COMMENT TYPE 0: C251 V5.60.0
  .\Out_File\SEEKFREE_IMU963RA.obj (SEEKFREE_IMU963RA)
         COMMENT TYPE 0: C251 V5.60.0
  .\Out_File\SEEKFREE_IPS114_SPI.obj (SEEKFREE_IPS114_SPI)
L251 LINKER/LOCATER V4.66.93.0                                                        04/24/2024  12:31:03  PAGE 2


         COMMENT TYPE 0: C251 V5.60.0
  .\Out_File\SEEKFREE_MPU6050.obj (SEEKFREE_MPU6050)
         COMMENT TYPE 0: C251 V5.60.0
  .\Out_File\SEEKFREE_OLED.obj (SEEKFREE_OLED)
         COMMENT TYPE 0: C251 V5.60.0
  .\Out_File\SEEKFREE_PRINTF.obj (SEEKFREE_PRINTF)
         COMMENT TYPE 0: C251 V5.60.0
  .\Out_File\SEEKFREE_TSL1401.obj (SEEKFREE_TSL1401)
         COMMENT TYPE 0: C251 V5.60.0
  .\Out_File\SEEKFREE_VIRSCO.obj (SEEKFREE_VIRSCO)
         COMMENT TYPE 0: C251 V5.60.0
  .\Out_File\SEEKFREE_WIRELESS.obj (SEEKFREE_WIRELESS)
         COMMENT TYPE 0: C251 V5.60.0
  .\Out_File\SEEKFREE_WIRELESS_CH573.obj (SEEKFREE_WIRELESS_CH573)
         COMMENT TYPE 0: C251 V5.60.0
  .\Out_File\main.obj (main)
         COMMENT TYPE 0: C251 V5.60.0
  .\Out_File\qmc5883.obj (qmc5883)
         COMMENT TYPE 0: C251 V5.60.0
  .\Out_File\uart.obj (uart)
         COMMENT TYPE 0: C251 V5.60.0
  .\Out_File\isr.obj (isr)
         COMMENT TYPE 0: C251 V5.60.0
  .\Out_File\key.obj (key)
         COMMENT TYPE 0: C251 V5.60.0
  .\Out_File\host_comm.obj (host_comm)
         COMMENT TYPE 0: C251 V5.60.0
  .\Out_File\laser_ranging.obj (laser_ranging)
         COMMENT TYPE 0: C251 V5.60.0
  .\Out_File\motor_driver_boards.obj (motor_driver_boards)
         COMMENT TYPE 0: C251 V5.60.0
  .\Out_File\ui.obj (ui)
         COMMENT TYPE 0: C251 V5.60.0
  .\Out_File\seekfree_assistant.obj (seekfree_assistant)
         COMMENT TYPE 0: C251 V5.60.0
  .\Out_File\seekfree_assistant_inface.obj (seekfree_assistant_inface)
         COMMENT TYPE 0: C251 V5.60.0
  Libraries\seekfree_peripheral\SEEKFREE_CONFIG.LIB (SEEKFREE_CONFIG)
         COMMENT TYPE 0: C251 V5.60.0
  C:\KEIL_V5\C251\LIB\C2SFPXS.LIB (?C?FPADD)
         COMMENT TYPE 0: A251 V4.69.6.0
  C:\KEIL_V5\C251\LIB\C2SFPXS.LIB (?C?FPMUL)
         COMMENT TYPE 0: A251 V4.69.6.0
  C:\KEIL_V5\C251\LIB\C2SFPXS.LIB (?C?FPDIV)
         COMMENT TYPE 0: A251 V4.69.6.0
  C:\KEIL_V5\C251\LIB\C2SFPXS.LIB (?C?FPCMP)
         COMMENT TYPE 0: A251 V4.69.6.0
  C:\KEIL_V5\C251\LIB\C2SFPXS.LIB (?C?FCAST)
         COMMENT TYPE 0: A251 V4.69.6.0
  C:\KEIL_V5\C251\LIB\C2SFPXS.LIB (?C?CASTF)
         COMMENT TYPE 0: A251 V4.69.6.0
  C:\KEIL_V5\C251\LIB\C2SFPXS.LIB (PRINTF)
         COMMENT TYPE 0: A251 V4.69.6.0
  C:\KEIL_V5\C251\LIB\C2SFPXS.LIB (ATOF?_)
         COMMENT TYPE 0: A251 V4.69.6.0
  C:\KEIL_V5\C251\LIB\C2SFPXS.LIB (?C?FPGETOPN)
         COMMENT TYPE 0: A251 V4.69.6.0
  C:\KEIL_V5\C251\LIB\C2SFPXS.LIB (?C?ATOF)
         COMMENT TYPE 0: A251 V4.69.6.0
  C:\KEIL_V5\C251\LIB\C2SFPXS.LIB (?C?PRNFMT)
         COMMENT TYPE 0: A251 V4.69.6.0
  C:\KEIL_V5\C251\LIB\C2SFPXS.LIB (?C?FPNEG)
         COMMENT TYPE 0: A251 V4.69.6.0
  C:\KEIL_V5\C251\LIB\C2SFPXS.LIB (?C?FTNPWR)
         COMMENT TYPE 0: A251 V4.69.6.0
L251 LINKER/LOCATER V4.66.93.0                                                        04/24/2024  12:31:03  PAGE 3


  C:\KEIL_V5\C251\LIB\C2SFPXS.LIB (?C?FPCONVERT)
         COMMENT TYPE 0: A251 V4.69.6.0
  C:\KEIL_V5\C251\LIB\C2SXS.LIB (?C_START)
         COMMENT TYPE 0: A251 V4.69.6.0
  C:\KEIL_V5\C251\LIB\C2SXS.LIB (?C?INITEDATA)
         COMMENT TYPE 0: A251 V4.69.6.0
  C:\KEIL_V5\C251\LIB\C2SXS.LIB (?C?INITHDATA)
         COMMENT TYPE 0: A251 V4.69.6.0
  C:\KEIL_V5\C251\LIB\C2SXS.LIB (?C?SIDIV)
         COMMENT TYPE 0: A251 V4.69.6.0
  C:\KEIL_V5\C251\LIB\C2SXS.LIB (?C?LMUL)
         COMMENT TYPE 0: A251 V4.69.6.0
  C:\KEIL_V5\C251\LIB\C2SXS.LIB (?C?LIMUL)
         COMMENT TYPE 0: A251 V4.69.6.0
  C:\KEIL_V5\C251\LIB\C2SXS.LIB (?C?ULDIV)
         COMMENT TYPE 0: A251 V4.69.6.0
  C:\KEIL_V5\C251\LIB\C2SXS.LIB (?C?SLDIV)
         COMMENT TYPE 0: A251 V4.69.6.0
  C:\KEIL_V5\C251\LIB\C2SXS.LIB (ISSPACE)
         COMMENT TYPE 0: C251 V5.58.7
  C:\KEIL_V5\C251\LIB\C2SXS.LIB (memcpy)
         COMMENT TYPE 0: C251 V5.58.7
  C:\KEIL_V5\C251\LIB\C2SXS.LIB (memset)
         COMMENT TYPE 0: C251 V5.58.7
  C:\KEIL_V5\C251\LIB\C2SXS.LIB (?C?INITEDATA_END)
         COMMENT TYPE 0: A251 V4.69.6.0
  C:\KEIL_V5\C251\LIB\C2SXS.LIB (?C?INITHDATA_END)
         COMMENT TYPE 0: A251 V4.69.6.0


ACTIVE MEMORY CLASSES OF MODULE:  .\Out_File\SEEKFREE (board)

BASE        START       END         USED      MEMORY CLASS
==========================================================
000000H     000000H     000FFFH     000C47H   EDATA
000000H     000000H     000FFFH               HDATA
FF0000H     FF0000H     FFFFFFH     007F73H   CODE
000000H     FF0000H     FFFFFFH     000471H   HCONST
010000H     010000H     01FFFFH     0006DDH   XDATA
000020H.0   000020H.0   00002FH.7   000002H.3 BIT
FF0000H     FF0000H     FFFFFFH     000004H   CONST
000000H     000000H     00007FH     000008H   DATA


MEMORY MAP OF MODULE:  .\Out_File\SEEKFREE (board)


START     STOP      LENGTH    ALIGN  RELOC    MEMORY CLASS   SEGMENT NAME
=========================================================================
000000H   000007H   000008H   ---    AT..     DATA           "REG BANK 0"
000008H   00001FH   000018H   BYTE   UNIT     EDATA          ?ED?FIFO_READ_BUFFER?ZF_FIFO
000020H.0 000021H.7 000002H.0 BIT    UNIT     BIT            ?BI?UART
000022H.0 000022H.1 000000H.2 BIT    UNIT     BIT            ?BI?HOST_COMM
000022H.2 000022H.2 000000H.1 BIT    UNIT     BIT            ?BI?KEY
000022H.3 000022H   000000H.5 ---    ---      **GAP**
000023H   000132H   000110H   BYTE   UNIT     EDATA          ?ED?QMC5883
000133H   00023AH   000108H   BYTE   UNIT     EDATA          ?ED?UART
00023BH   000307H   0000CDH   BYTE   UNIT     EDATA          ?ED?LASER_RANGING
000308H   000394H   00008DH   BYTE   UNIT     EDATA          ?ED?SEEKFREE_ASSISTANT_DATA_ANALYSIS?SEEKFREE_ASSISTANT
000395H   0003F3H   00005FH   BYTE   UNIT     EDATA          ?ED?ZF_SPRINTF?SEEKFREE_PRINTF
0003F4H   00044DH   00005AH   BYTE   UNIT     EDATA          ?ED?SEEKFREE_ASSISTANT
00044EH   00048FH   000042H   BYTE   UNIT     EDATA          ?ED?HOST_COMM_IRQHANDLER?HOST_COMM
000490H   0004BFH   000030H   BYTE   UNIT     EDATA          ?ED?OLED_PRINTF_FLOAT?SEEKFREE_OLED
0004C0H   0004EFH   000030H   BYTE   UNIT     EDATA          ?ED?OLED_PRINTF_FLOAT_SPI?SEEKFREE_OLED
0004F0H   00051BH   00002CH   BYTE   UNIT     EDATA          ?ED?OLED_PRINTF_INT32?SEEKFREE_OLED
L251 LINKER/LOCATER V4.66.93.0                                                        04/24/2024  12:31:03  PAGE 4


00051CH   000547H   00002CH   BYTE   UNIT     EDATA          ?ED?OLED_PRINTF_INT32_SPI?SEEKFREE_OLED
000548H   000571H   00002AH   BYTE   UNIT     EDATA          ?ED?SEEKFREE_ASSISTANT_OSCILLOSCOPE_SEND?SEEKFREE_ASSISTAN
                                                             -T
000572H   000590H   00001FH   BYTE   UNIT     EDATA          ?ED?DL1A_SET_MEASUREMENT_TIMING_BUDGET?SEEKFREE_DL1A
000591H   0005AFH   00001FH   BYTE   UNIT     EDATA          ?ED?SEEKFREE_ASSISTANT_CAMERA_BOUNDARY_CONFIG?SEEKFREE_ASS
                                                             -ISTANT
0005B0H   0005CAH   00001BH   BYTE   UNIT     EDATA          ?ED?DL1A_GET_MEASUREMENT_TIMING_BUDGET?SEEKFREE_DL1A
0005CBH   0005E2H   000018H   BYTE   UNIT     EDATA          ?ED?FIFO_READ_TAIL_BUFFER?ZF_FIFO
0005E3H   0005F8H   000016H   BYTE   UNIT     EDATA          ?ED?ATOF?QMC5883
0005F9H   00060CH   000014H   BYTE   UNIT     EDATA          ?ED?PWM_INIT?ZF_PWM
00060DH   000620H   000014H   BYTE   UNIT     EDATA          ?ED?PWM_FREQ?ZF_PWM
000621H   000634H   000014H   BYTE   UNIT     EDATA          ?ED?NUMBER_CONVERSION_ASCII?SEEKFREE_PRINTF
000635H   000646H   000012H   BYTE   UNIT     EDATA          ?ED?FIFO_WRITE_BUFFER?ZF_FIFO
000647H   000658H   000012H   BYTE   UNIT     EDATA          ?ED?SEEKFREE_IMU963RA
000659H   000668H   000010H   BYTE   UNIT     EDATA          ?ED?FIFO_INIT?ZF_FIFO
000669H   000678H   000010H   BYTE   UNIT     EDATA          ?ED?DL1B_IIC_TRANSFER_8BIT_ARRAY?SEEKFREE_DL1B
000679H   000688H   000010H   BYTE   UNIT     EDATA          ?ED?OLED_DIS_BMP?SEEKFREE_OLED
000689H   000698H   000010H   BYTE   UNIT     EDATA          ?ED?OLED_DIS_BMP_SPI?SEEKFREE_OLED
000699H   0006A7H   00000FH   BYTE   UNIT     EDATA          ?ED?SEEKFREE_ASSISTANT_CAMERA_DATA_SEND?SEEKFREE_ASSISTANT
0006A8H   0006B5H   00000EH   BYTE   UNIT     EDATA          ?ED?PWM_DUTY?ZF_PWM
0006B6H   0006C3H   00000EH   BYTE   UNIT     EDATA          ?ED?UART_INIT?ZF_UART
0006C4H   0006D1H   00000EH   BYTE   UNIT     EDATA          ?ED?OLED_PRINT_CHINESE?SEEKFREE_OLED
0006D2H   0006DFH   00000EH   BYTE   UNIT     EDATA          ?ED?OLED_PRINT_CHINESE_SPI?SEEKFREE_OLED
0006E0H   0006EDH   00000EH   BYTE   UNIT     EDATA          ?ED?DATA_CONVERSION?SEEKFREE_VIRSCO
0006EEH   0006FAH   00000DH   BYTE   UNIT     EDATA          ?ED?SPI_INIT?ZF_SPI
0006FBH   000707H   00000DH   BYTE   UNIT     EDATA          ?ED?PRINTF_REVERSE_ORDER?SEEKFREE_PRINTF
000708H   000713H   00000CH   BYTE   UNIT     EDATA          ?ED?FIFO_READ_ELEMENT?ZF_FIFO
000714H   00071FH   00000CH   BYTE   UNIT     EDATA          ?ED?LCD_SHOWFLOAT_SIMSPI?SEEKFREE_18TFT
000720H   00072BH   00000CH   BYTE   UNIT     EDATA          ?ED?LCD_SHOWFLOAT?SEEKFREE_18TFT
00072CH   000737H   00000CH   BYTE   UNIT     EDATA          ?ED?SHOWIMAGE?SEEKFREE_18TFT
000738H   000743H   00000CH   BYTE   UNIT     EDATA          ?ED?SEEKFREE_ICM20602
000744H   00074FH   00000CH   BYTE   UNIT     EDATA          ?ED?SEEKFREE_IMU660RA
000750H   00075BH   00000CH   BYTE   UNIT     EDATA          ?ED?IPS114_SHOWFLOAT_SIMSPI?SEEKFREE_IPS114_SPI
00075CH   000767H   00000CH   BYTE   UNIT     EDATA          ?ED?IPS114_SHOWFLOAT?SEEKFREE_IPS114_SPI
000768H   000773H   00000CH   BYTE   UNIT     EDATA          ?ED?SEEKFREE_MPU6050
000774H   00077EH   00000BH   BYTE   UNIT     EDATA          ?ED?OLED_UINT16?SEEKFREE_OLED
00077FH   000789H   00000BH   BYTE   UNIT     EDATA          ?ED?OLED_INT16?SEEKFREE_OLED
00078AH   000794H   00000BH   BYTE   UNIT     EDATA          ?ED?OLED_UINT16_SPI?SEEKFREE_OLED
000795H   00079FH   00000BH   BYTE   UNIT     EDATA          ?ED?OLED_INT16_SPI?SEEKFREE_OLED
0007A0H   0007A9H   00000AH   BYTE   UNIT     EDATA          ?ED?IAP_READ_BYTES?ZF_EEPROM
0007AAH   0007B3H   00000AH   BYTE   UNIT     EDATA          ?ED?IAP_WRITE_BYTES?ZF_EEPROM
0007B4H   0007BDH   00000AH   BYTE   UNIT     EDATA          ?ED?UART_PUTBUFF?ZF_UART
0007BEH   0007C7H   00000AH   BYTE   UNIT     EDATA          ?ED?FIFO_WRITE_ELEMENT?ZF_FIFO
0007C8H   0007D1H   00000AH   BYTE   UNIT     EDATA          ?ED?DL1A_SIMIIC_READ_REGS?SEEKFREE_DL1A
0007D2H   0007DBH   00000AH   BYTE   UNIT     EDATA          ?ED?DL1A_SIMIIC_READ_REGS_1?SEEKFREE_DL1A
0007DCH   0007E5H   00000AH   BYTE   UNIT     EDATA          ?ED?DL1A_GET_SPAD_INFO?SEEKFREE_DL1A
0007E6H   0007EFH   00000AH   BYTE   UNIT     EDATA          ?ED?SEEKFREE_VIRSCO
0007F0H   0007F9H   00000AH   BYTE   UNIT     EDATA          ?ED?ATOI?QMC5883
0007FAH   000803H   00000AH   BYTE   UNIT     EDATA          ?ED?SEEKFREE_ASSISTANT_CAMERA_INFORMATION_CONFIG?SEEKFREE_
                                                             -ASSISTANT
000804H   00080CH   000009H   BYTE   UNIT     EDATA          ?ED?LCD_SHOWINT32_SIMSPI?SEEKFREE_18TFT
00080DH   000815H   000009H   BYTE   UNIT     EDATA          ?ED?LCD_SHOWINT32?SEEKFREE_18TFT
000816H   00081EH   000009H   BYTE   UNIT     EDATA          ?ED?DL1A_SIMIIC_WRITE_DATS?SEEKFREE_DL1A
00081FH   000827H   000009H   BYTE   UNIT     EDATA          ?ED?ICM20602_SIMSPI_R_REG_BYTES?SEEKFREE_ICM20602
000828H   000830H   000009H   BYTE   UNIT     EDATA          ?ED?ICM20602_READ_REGISTERS?SEEKFREE_ICM20602
000831H   000839H   000009H   BYTE   UNIT     EDATA          ?ED?IMU660RA_SIMSPI_W_REG_BYTES?SEEKFREE_IMU660RA
00083AH   000842H   000009H   BYTE   UNIT     EDATA          ?ED?IMU660RA_SIMSPI_R_REG_BYTES?SEEKFREE_IMU660RA
000843H   00084BH   000009H   BYTE   UNIT     EDATA          ?ED?IMU660RA_WRITE_REGISTERS?SEEKFREE_IMU660RA
00084CH   000854H   000009H   BYTE   UNIT     EDATA          ?ED?IMU660RA_READ_REGISTERS?SEEKFREE_IMU660RA
000855H   00085DH   000009H   BYTE   UNIT     EDATA          ?ED?IMU963RA_SIMSPI_R_REG_BYTES?SEEKFREE_IMU963RA
00085EH   000866H   000009H   BYTE   UNIT     EDATA          ?ED?IMU963RA_READ_ACC_GYRO_REGISTERS?SEEKFREE_IMU963RA
000867H   00086FH   000009H   BYTE   UNIT     EDATA          ?ED?IPS114_SHOWINT32_SIMSPI?SEEKFREE_IPS114_SPI
000870H   000878H   000009H   BYTE   UNIT     EDATA          ?ED?IPS114_SHOWINT32?SEEKFREE_IPS114_SPI
000879H   000881H   000009H   BYTE   UNIT     EDATA          ?ED?CRC_CHECK?SEEKFREE_VIRSCO
000882H   00088AH   000009H   BYTE   UNIT     EDATA          ?ED?QMC5883_DATA_PARSE?QMC5883
L251 LINKER/LOCATER V4.66.93.0                                                        04/24/2024  12:31:03  PAGE 5


00088BH   000893H   000009H   BYTE   UNIT     EDATA          ?ED?SEEKFREE_ASSISTANT_SUM?SEEKFREE_ASSISTANT
000894H   00089BH   000008H   BYTE   UNIT     EDATA          ?ED?FIFO_HEAD_OFFSET?ZF_FIFO
00089CH   0008A3H   000008H   BYTE   UNIT     EDATA          ?ED?FIFO_END_OFFSET?ZF_FIFO
0008A4H   0008ABH   000008H   BYTE   UNIT     EDATA          ?ED?LCD_SET_REGION_SIMSPI?SEEKFREE_18TFT
0008ACH   0008B3H   000008H   BYTE   UNIT     EDATA          ?ED?LCD_SHOWSTR_SIMSPI?SEEKFREE_18TFT
0008B4H   0008BBH   000008H   BYTE   UNIT     EDATA          ?ED?LCD_SET_REGION?SEEKFREE_18TFT
0008BCH   0008C3H   000008H   BYTE   UNIT     EDATA          ?ED?LCD_SHOWSTR?SEEKFREE_18TFT
0008C4H   0008CBH   000008H   BYTE   UNIT     EDATA          ?ED?BLUETOOTH_CH9141_SEND_BUFF?SEEKFREE_BLUETOOTH_CH9141
0008CCH   0008D3H   000008H   BYTE   UNIT     EDATA          ?ED?BLUETOOTH_CH9141_READ_BUFF?SEEKFREE_BLUETOOTH_CH9141
0008D4H   0008DBH   000008H   BYTE   UNIT     EDATA          ?ED?DL1A_GET_SEQUENCE_STEP_TIMEOUTS?SEEKFREE_DL1A
0008DCH   0008E3H   000008H   BYTE   UNIT     EDATA          ?ED?IPS114_SET_REGION_SIMSPI?SEEKFREE_IPS114_SPI
0008E4H   0008EBH   000008H   BYTE   UNIT     EDATA          ?ED?IPS114_SHOWSTR_SIMSPI?SEEKFREE_IPS114_SPI
0008ECH   0008F3H   000008H   BYTE   UNIT     EDATA          ?ED?IPS114_SET_REGION?SEEKFREE_IPS114_SPI
0008F4H   0008FBH   000008H   BYTE   UNIT     EDATA          ?ED?IPS114_SHOWSTR?SEEKFREE_IPS114_SPI
0008FCH   000903H   000008H   BYTE   UNIT     EDATA          ?ED?OLED_P6X8STR?SEEKFREE_OLED
000904H   00090BH   000008H   BYTE   UNIT     EDATA          ?ED?OLED_P8X16STR?SEEKFREE_OLED
00090CH   000913H   000008H   BYTE   UNIT     EDATA          ?ED?OLED_P6X8STR_SPI?SEEKFREE_OLED
000914H   00091BH   000008H   BYTE   UNIT     EDATA          ?ED?OLED_P8X16STR_SPI?SEEKFREE_OLED
00091CH   000923H   000008H   BYTE   UNIT     EDATA          ?ED?WIRELESS_UART_SEND_BUFF?SEEKFREE_WIRELESS
000924H   00092BH   000008H   BYTE   UNIT     EDATA          ?ED?WIRELESS_UART_READ_BUFF?SEEKFREE_WIRELESS
00092CH   000933H   000008H   BYTE   UNIT     EDATA          ?ED?WIRELESS_CH573_READ_BUFF?SEEKFREE_WIRELESS_CH573
000934H   00093AH   000007H   BYTE   UNIT     EDATA          ?ED?IIC_READ_REG_BYTES?ZF_IIC
00093BH   000941H   000007H   BYTE   UNIT     EDATA          ?ED?MPU6050_SIMIIC_READ_REGS?SEEKFREE_MPU6050
000942H   000948H   000007H   BYTE   UNIT     EDATA          ?ED?CCD_SEND_DATA?SEEKFREE_TSL1401
000949H   00094FH   000007H   BYTE   UNIT     EDATA          ?ED?UART_SENDCMD?UART
000950H   000956H   000007H   BYTE   UNIT     EDATA          ?ED?SEEKFREE_ASSISTANT_CAMERA_DOT_SEND?SEEKFREE_ASSISTANT
000957H   00095CH   000006H   BYTE   UNIT     EDATA          ?ED?ADC_ONCE?ZF_ADC
00095DH   000962H   000006H   BYTE   UNIT     EDATA          ?ED?DELAY_US?ZF_DELAY
000963H   000968H   000006H   BYTE   UNIT     EDATA          ?ED?PIT_TIMER_MS?ZF_TIM
000969H   00096EH   000006H   BYTE   UNIT     EDATA          ?ED?UART_PUTSTR?ZF_UART
00096FH   000974H   000006H   BYTE   UNIT     EDATA          ?ED?FIFO_CLEAR?ZF_FIFO
000975H   00097AH   000006H   BYTE   UNIT     EDATA          ?ED?IIC_INIT?ZF_IIC
00097BH   000980H   000006H   BYTE   UNIT     EDATA          ?ED?IIC_READ_REG?ZF_IIC
000981H   000986H   000006H   BYTE   UNIT     EDATA          ?ED?LCD_DRAWPOINT_SIMSPI?SEEKFREE_18TFT
000987H   00098CH   000006H   BYTE   UNIT     EDATA          ?ED?LCD_SHOWCHAR_SIMSPI?SEEKFREE_18TFT
00098DH   000992H   000006H   BYTE   UNIT     EDATA          ?ED?LCD_SHOWINT16_SIMSPI?SEEKFREE_18TFT
000993H   000998H   000006H   BYTE   UNIT     EDATA          ?ED?LCD_SHOWUINT16_SIMSPI?SEEKFREE_18TFT
000999H   00099EH   000006H   BYTE   UNIT     EDATA          ?ED?LCD_DRAWPOINT?SEEKFREE_18TFT
00099FH   0009A4H   000006H   BYTE   UNIT     EDATA          ?ED?LCD_SHOWCHAR?SEEKFREE_18TFT
0009A5H   0009AAH   000006H   BYTE   UNIT     EDATA          ?ED?LCD_SHOWINT16?SEEKFREE_18TFT
0009ABH   0009B0H   000006H   BYTE   UNIT     EDATA          ?ED?LCD_SHOWUINT16?SEEKFREE_18TFT
0009B1H   0009B6H   000006H   BYTE   UNIT     EDATA          ?ED?ICM20602_ACC_TRANSITION?SEEKFREE_ICM20602
0009B7H   0009BCH   000006H   BYTE   UNIT     EDATA          ?ED?ICM20602_GYRO_TRANSITION?SEEKFREE_ICM20602
0009BDH   0009C2H   000006H   BYTE   UNIT     EDATA          ?ED?IMU660RA_ACC_TRANSITION?SEEKFREE_IMU660RA
0009C3H   0009C8H   000006H   BYTE   UNIT     EDATA          ?ED?IMU660RA_GYRO_TRANSITION?SEEKFREE_IMU660RA
0009C9H   0009CEH   000006H   BYTE   UNIT     EDATA          ?ED?IMU963RA_ACC_TRANSITION?SEEKFREE_IMU963RA
0009CFH   0009D4H   000006H   BYTE   UNIT     EDATA          ?ED?IMU963RA_GYRO_TRANSITION?SEEKFREE_IMU963RA
0009D5H   0009DAH   000006H   BYTE   UNIT     EDATA          ?ED?IMU963RA_MAG_TRANSITION?SEEKFREE_IMU963RA
0009DBH   0009E0H   000006H   BYTE   UNIT     EDATA          ?ED?IPS114_DRAWPOINT_SIMSPI?SEEKFREE_IPS114_SPI
0009E1H   0009E6H   000006H   BYTE   UNIT     EDATA          ?ED?IPS114_SHOWCHAR_SIMSPI?SEEKFREE_IPS114_SPI
0009E7H   0009ECH   000006H   BYTE   UNIT     EDATA          ?ED?IPS114_SHOWINT16_SIMSPI?SEEKFREE_IPS114_SPI
0009EDH   0009F2H   000006H   BYTE   UNIT     EDATA          ?ED?IPS114_SHOWUINT16_SIMSPI?SEEKFREE_IPS114_SPI
0009F3H   0009F8H   000006H   BYTE   UNIT     EDATA          ?ED?IPS114_DRAWPOINT?SEEKFREE_IPS114_SPI
0009F9H   0009FEH   000006H   BYTE   UNIT     EDATA          ?ED?IPS114_SHOWCHAR?SEEKFREE_IPS114_SPI
0009FFH   000A04H   000006H   BYTE   UNIT     EDATA          ?ED?IPS114_SHOWINT16?SEEKFREE_IPS114_SPI
000A05H   000A0AH   000006H   BYTE   UNIT     EDATA          ?ED?IPS114_SHOWUINT16?SEEKFREE_IPS114_SPI
000A0BH   000A10H   000006H   BYTE   UNIT     EDATA          ?ED?OLED_HEXASCII?SEEKFREE_OLED
000A11H   000A16H   000006H   BYTE   UNIT     EDATA          ?ED?OLED_HEXASCII_SPI?SEEKFREE_OLED
000A17H   000A1CH   000006H   BYTE   UNIT     EDATA          ?ED?WIRELESS_CH573_SEND_BUFF?SEEKFREE_WIRELESS_CH573
000A1DH   000A22H   000006H   BYTE   UNIT     EDATA          ?ED?WHEEL_ADJUST?MOTOR_DRIVER_BOARDS
000A23H   000A28H   000006H   BYTE   UNIT     EDATA          ?ED?WHEEL_SPEED?MOTOR_DRIVER_BOARDS
000A29H   000A2DH   000005H   BYTE   UNIT     EDATA          ?ED?ZF_UART
000A2EH   000A32H   000005H   BYTE   UNIT     EDATA          ?ED?LCD_SHOWINT8_SIMSPI?SEEKFREE_18TFT
000A33H   000A37H   000005H   BYTE   UNIT     EDATA          ?ED?LCD_SHOWUINT8_SIMSPI?SEEKFREE_18TFT
000A38H   000A3CH   000005H   BYTE   UNIT     EDATA          ?ED?LCD_SHOWINT8?SEEKFREE_18TFT
L251 LINKER/LOCATER V4.66.93.0                                                        04/24/2024  12:31:03  PAGE 6


000A3DH   000A41H   000005H   BYTE   UNIT     EDATA          ?ED?LCD_SHOWUINT8?SEEKFREE_18TFT
000A42H   000A46H   000005H   BYTE   UNIT     EDATA          ?ED?DL1A_TIMEOUT_MICROSECONDS_TO_MCLKS?SEEKFREE_DL1A
000A47H   000A4BH   000005H   BYTE   UNIT     EDATA          ?ED?ICM20602_SIMSPI_R_REG_BYTE?SEEKFREE_ICM20602
000A4CH   000A50H   000005H   BYTE   UNIT     EDATA          ?ED?IMU963RA_SIMSPI_R_REG_BYTE?SEEKFREE_IMU963RA
000A51H   000A55H   000005H   BYTE   UNIT     EDATA          ?ED?IPS114_SHOWINT8_SIMSPI?SEEKFREE_IPS114_SPI
000A56H   000A5AH   000005H   BYTE   UNIT     EDATA          ?ED?IPS114_SHOWUINT8_SIMSPI?SEEKFREE_IPS114_SPI
000A5BH   000A5FH   000005H   BYTE   UNIT     EDATA          ?ED?IPS114_SHOWINT8?SEEKFREE_IPS114_SPI
000A60H   000A64H   000005H   BYTE   UNIT     EDATA          ?ED?IPS114_SHOWUINT8?SEEKFREE_IPS114_SPI
000A65H   000A69H   000005H   BYTE   UNIT     EDATA          ?ED?UART_SENDSTRING?UART
000A6AH   000A6EH   000005H   BYTE   UNIT     EDATA          ?ED?LASER_RANGING?LASER_RANGING
000A6FH   000A72H   000004H   BYTE   UNIT     EDATA          ?ED?BOARD
000A73H   000A76H   000004H   BYTE   UNIT     EDATA          ?ED?ADC_INIT?ZF_ADC
000A77H   000A7AH   000004H   BYTE   UNIT     EDATA          ?ED?ZF_DELAY
000A7BH   000A7EH   000004H   BYTE   UNIT     EDATA          ?ED?DELAY_MS?ZF_DELAY
000A7FH   000A82H   000004H   BYTE   UNIT     EDATA          ?ED?IAP_ERASE_PAGE?ZF_EEPROM
000A83H   000A86H   000004H   BYTE   UNIT     EDATA          ?ED?EXIT_INIT?ZF_EXTI
000A87H   000A8AH   000004H   BYTE   UNIT     EDATA          ?ED?GPIO_PULL_SET?ZF_GPIO
000A8BH   000A8EH   000004H   BYTE   UNIT     EDATA          ?ED?GPIO_MODE?ZF_GPIO
000A8FH   000A92H   000004H   BYTE   UNIT     EDATA          ?ED?CTIMER_COUNT_READ?ZF_TIM
000A93H   000A96H   000004H   BYTE   UNIT     EDATA          ?ED?FIFO_USED?ZF_FIFO
000A97H   000A9AH   000004H   BYTE   UNIT     EDATA          ?ED?DL1A_GET_SEQUENCE_STEP_ENABLES?SEEKFREE_DL1A
000A9BH   000A9EH   000004H   BYTE   UNIT     EDATA          ?ED?DL1A_SET_SIGNAL_RATE_LIMIT?SEEKFREE_DL1A
000A9FH   000AA2H   000004H   BYTE   UNIT     EDATA          ?ED?SEEKFREE_DL1B
000AA3H   000AA6H   000004H   BYTE   UNIT     EDATA          ?ED?IPS114_CLEAR_SIMSPI?SEEKFREE_IPS114_SPI
000AA7H   000AAAH   000004H   BYTE   UNIT     EDATA          ?ED?IPS114_CLEAR?SEEKFREE_IPS114_SPI
000AABH   000AAEH   000004H   BYTE   UNIT     EDATA          ?ED?KEY
000AAFH   000AB2H   000004H   BYTE   UNIT     EDATA          ?ED?WHEEL_DIRECTION?MOTOR_DRIVER_BOARDS
000AB3H   000AB6H   000004H   BYTE   UNIT     EDATA          ?ED?SEEKFREE_ASSISTANT_INFACE
000AB7H   000AB9H   000003H   BYTE   UNIT     EDATA          ?ED?NVIC_SETPRIORITY?ZF_NVIC
000ABAH   000ABCH   000003H   BYTE   UNIT     EDATA          ?ED?UART_PUTCHAR?ZF_UART
000ABDH   000ABFH   000003H   BYTE   UNIT     EDATA          ?ED?IIC_DELAY_US?ZF_IIC
000AC0H   000AC2H   000003H   BYTE   UNIT     EDATA          ?ED?WAIT?ZF_IIC
000AC3H   000AC5H   000003H   BYTE   UNIT     EDATA          ?ED?IIC_WRITE_REG?ZF_IIC
000AC6H   000AC8H   000003H   BYTE   UNIT     EDATA          ?ED?LCD_CLEAR_SIMSPI?SEEKFREE_18TFT
000AC9H   000ACBH   000003H   BYTE   UNIT     EDATA          ?ED?LCD_CLEAR?SEEKFREE_18TFT
000ACCH   000ACEH   000003H   BYTE   UNIT     EDATA          ?ED?SEEKFREE_DL1A
000ACFH   000AD1H   000003H   BYTE   UNIT     EDATA          ?ED?DL1A_SIMIIC_WRITE_REG?SEEKFREE_DL1A
000AD2H   000AD4H   000003H   BYTE   UNIT     EDATA          ?ED?DL1A_TIMEOUT_MCLKS_TO_MICROSECONDS?SEEKFREE_DL1A
000AD5H   000AD7H   000003H   BYTE   UNIT     EDATA          ?ED?DL1A_PERFORM_SINGLE_REF_CALIBRATION?SEEKFREE_DL1A
000AD8H   000ADAH   000003H   BYTE   UNIT     EDATA          ?ED?IMU963RA_WRITE_MAG_REGISTER?SEEKFREE_IMU963RA
000ADBH   000ADDH   000003H   BYTE   UNIT     EDATA          ?ED?MPU6050_SIMIIC_WRITE_REG?SEEKFREE_MPU6050
000ADEH   000AE0H   000003H   BYTE   UNIT     EDATA          ?ED?OLED_PUTPIXEL?SEEKFREE_OLED
000AE1H   000AE3H   000003H   BYTE   UNIT     EDATA          ?ED?OLED_PUTPIXEL_SPI?SEEKFREE_OLED
000AE4H   000AE6H   000003H   BYTE   UNIT     EDATA          ?ED?LASER_RANGING_IRQHANDLER?LASER_RANGING
000AE7H   000AE8H   000002H   BYTE   UNIT     EDATA          ?ED?COMMON
000AE9H   000AEAH   000002H   BYTE   UNIT     EDATA          ?ED?PWM_SET_GPIO?ZF_PWM
000AEBH   000AECH   000002H   BYTE   UNIT     EDATA          ?ED?SPI_CHANGE_PIN?ZF_SPI
000AEDH   000AEEH   000002H   BYTE   UNIT     EDATA          ?ED?CTIMER_COUNT_INIT?ZF_TIM
000AEFH   000AF0H   000002H   BYTE   UNIT     EDATA          ?ED?CTIMER_COUNT_CLEAN?ZF_TIM
000AF1H   000AF2H   000002H   BYTE   UNIT     EDATA          ?ED?SEND_DATA?ZF_IIC
000AF3H   000AF4H   000002H   BYTE   UNIT     EDATA          ?ED?IIC_CHANGE_PIN?ZF_IIC
000AF5H   000AF6H   000002H   BYTE   UNIT     EDATA          ?ED?LCD_WRITEDATA_16BIT_SIMSPI?SEEKFREE_18TFT
000AF7H   000AF8H   000002H   BYTE   UNIT     EDATA          ?ED?LCD_WRITEDATA_16BIT?SEEKFREE_18TFT
000AF9H   000AFAH   000002H   BYTE   UNIT     EDATA          ?ED?DL1A_SIMIIC_READ_REG?SEEKFREE_DL1A
000AFBH   000AFCH   000002H   BYTE   UNIT     EDATA          ?ED?DL1A_DECODE_TIMEOUT?SEEKFREE_DL1A
000AFDH   000AFEH   000002H   BYTE   UNIT     EDATA          ?ED?DL1A_ENCODE_TIMEOUT?SEEKFREE_DL1A
000AFFH   000B00H   000002H   BYTE   UNIT     EDATA          ?ED?DL1A_GET_VCSEL_PULSE_PERIOD?SEEKFREE_DL1A
000B01H   000B02H   000002H   BYTE   UNIT     EDATA          ?ED?DL1B_GET_DISTANCE?SEEKFREE_DL1B
000B03H   000B04H   000002H   BYTE   UNIT     EDATA          ?ED?ICM20602_SIMSPI_W_REG_BYTE?SEEKFREE_ICM20602
000B05H   000B06H   000002H   BYTE   UNIT     EDATA          ?ED?ICM20602_WRITE_REGISTER?SEEKFREE_ICM20602
000B07H   000B08H   000002H   BYTE   UNIT     EDATA          ?ED?IMU660RA_SIMSPI_W_REG_BYTE?SEEKFREE_IMU660RA
000B09H   000B0AH   000002H   BYTE   UNIT     EDATA          ?ED?IMU660RA_WRITE_REGISTER?SEEKFREE_IMU660RA
000B0BH   000B0CH   000002H   BYTE   UNIT     EDATA          ?ED?IMU963RA_SIMSPI_W_REG_BYTE?SEEKFREE_IMU963RA
000B0DH   000B0EH   000002H   BYTE   UNIT     EDATA          ?ED?IMU963RA_WRITE_ACC_GYRO_REGISTER?SEEKFREE_IMU963RA
000B0FH   000B10H   000002H   BYTE   UNIT     EDATA          ?ED?IMU963RA_READ_MAG_REGISTER?SEEKFREE_IMU963RA
L251 LINKER/LOCATER V4.66.93.0                                                        04/24/2024  12:31:03  PAGE 7


000B11H   000B12H   000002H   BYTE   UNIT     EDATA          ?ED?IMU963RA_CONNECT_MAG?SEEKFREE_IMU963RA
000B13H   000B14H   000002H   BYTE   UNIT     EDATA          ?ED?IPS114_WRITEDATAI_16BIT_SIMSPI?SEEKFREE_IPS114_SPI
000B15H   000B16H   000002H   BYTE   UNIT     EDATA          ?ED?IPS114_WRITEDATA_16BIT?SEEKFREE_IPS114_SPI
000B17H   000B18H   000002H   BYTE   UNIT     EDATA          ?ED?MPU6050_SIMIIC_READ_REG?SEEKFREE_MPU6050
000B19H   000B1AH   000002H   BYTE   UNIT     EDATA          ?ED?OLED_SET_POS?SEEKFREE_OLED
000B1BH   000B1CH   000002H   BYTE   UNIT     EDATA          ?ED?OLED_FILL?SEEKFREE_OLED
000B1DH   000B1EH   000002H   BYTE   UNIT     EDATA          ?ED?OLED_CLRPIXEL?SEEKFREE_OLED
000B1FH   000B20H   000002H   BYTE   UNIT     EDATA          ?ED?OLED_SET_POS_SPI?SEEKFREE_OLED
000B21H   000B22H   000002H   BYTE   UNIT     EDATA          ?ED?OLED_FILL_SPI?SEEKFREE_OLED
000B23H   000B24H   000002H   BYTE   UNIT     EDATA          ?ED?OLED_CLRPIXEL_SPI?SEEKFREE_OLED
000B25H   000B26H   000002H   BYTE   UNIT     EDATA          ?ED?UART_SENDBYTE?UART
000B27H   000B27H   000001H   BYTE   UNIT     EDATA          ?ED?PUTCHAR?BOARD
000B28H   000B28H   000001H   BYTE   UNIT     EDATA          ?ED?IAP_SET_TPS?ZF_EEPROM
000B29H   000B29H   000001H   BYTE   UNIT     EDATA          ?ED?SPI_MOSI?ZF_SPI
000B2AH   000B2AH   000001H   BYTE   UNIT     EDATA          ?ED?SPI_CHANGE_MODE?ZF_SPI
000B2BH   000B2BH   000001H   BYTE   UNIT     EDATA          ?ED?START?ZF_IIC
000B2CH   000B2CH   000001H   BYTE   UNIT     EDATA          ?ED?RECV_ACK?ZF_IIC
000B2DH   000B2DH   000001H   BYTE   UNIT     EDATA          ?ED?SEND_ACK?ZF_IIC
000B2EH   000B2EH   000001H   BYTE   UNIT     EDATA          ?ED?STOP?ZF_IIC
000B2FH   000B2FH   000001H   BYTE   UNIT     EDATA          ?ED?LCD_WRITEINDEX_SIMSPI?SEEKFREE_18TFT
000B30H   000B30H   000001H   BYTE   UNIT     EDATA          ?ED?LCD_WRITEDATA_SIMSPI?SEEKFREE_18TFT
000B31H   000B31H   000001H   BYTE   UNIT     EDATA          ?ED?LCD_WRITEINDEX?SEEKFREE_18TFT
000B32H   000B32H   000001H   BYTE   UNIT     EDATA          ?ED?LCD_WRITEDATA?SEEKFREE_18TFT
000B33H   000B33H   000001H   BYTE   UNIT     EDATA          ?ED?DL1A_SIMIIC_SENDACK?SEEKFREE_DL1A
000B34H   000B34H   000001H   BYTE   UNIT     EDATA          ?ED?DL1A_SEND_CH?SEEKFREE_DL1A
000B35H   000B35H   000001H   BYTE   UNIT     EDATA          ?ED?DL1A_READ_CH?SEEKFREE_DL1A
000B36H   000B36H   000001H   BYTE   UNIT     EDATA          ?ED?DL1B_SIMIIC_SENDACK?SEEKFREE_DL1B
000B37H   000B37H   000001H   BYTE   UNIT     EDATA          ?ED?DL1B_SEND_CH?SEEKFREE_DL1B
000B38H   000B38H   000001H   BYTE   UNIT     EDATA          ?ED?DL1B_READ_CH?SEEKFREE_DL1B
000B39H   000B39H   000001H   BYTE   UNIT     EDATA          ?ED?ICM20602_SIMSPI_WR_BYTE?SEEKFREE_ICM20602
000B3AH   000B3AH   000001H   BYTE   UNIT     EDATA          ?ED?ICM20602_READ_REGISTER?SEEKFREE_ICM20602
000B3BH   000B3BH   000001H   BYTE   UNIT     EDATA          ?ED?ICM20602_SELF_CHECK?SEEKFREE_ICM20602
000B3CH   000B3CH   000001H   BYTE   UNIT     EDATA          ?ED?ICM20602_INIT?SEEKFREE_ICM20602
000B3DH   000B3DH   000001H   BYTE   UNIT     EDATA          ?ED?IMU660RA_SIMSPI_WR_BYTE?SEEKFREE_IMU660RA
000B3EH   000B3EH   000001H   BYTE   UNIT     EDATA          ?ED?IMU660RA_READ_REGISTER?SEEKFREE_IMU660RA
000B3FH   000B3FH   000001H   BYTE   UNIT     EDATA          ?ED?IMU660RA_SELF_CHECK?SEEKFREE_IMU660RA
000B40H   000B40H   000001H   BYTE   UNIT     EDATA          ?ED?IMU963RA_SIMSPI_WR_BYTE?SEEKFREE_IMU963RA
000B41H   000B41H   000001H   BYTE   UNIT     EDATA          ?ED?IMU963RA_READ_ACC_GYRO_REGISTER?SEEKFREE_IMU963RA
000B42H   000B42H   000001H   BYTE   UNIT     EDATA          ?ED?IPS114_WRITEINDEX_SIMSPI?SEEKFREE_IPS114_SPI
000B43H   000B43H   000001H   BYTE   UNIT     EDATA          ?ED?IPS114_WRITEDATA_SIMSPI?SEEKFREE_IPS114_SPI
000B44H   000B44H   000001H   BYTE   UNIT     EDATA          ?ED?IPS114_WRITEINDEX?SEEKFREE_IPS114_SPI
000B45H   000B45H   000001H   BYTE   UNIT     EDATA          ?ED?IPS114_WRITEDATA?SEEKFREE_IPS114_SPI
000B46H   000B46H   000001H   BYTE   UNIT     EDATA          ?ED?MPU6050_SIMIIC_SENDACK?SEEKFREE_MPU6050
000B47H   000B47H   000001H   BYTE   UNIT     EDATA          ?ED?MPU6050_SEND_CH?SEEKFREE_MPU6050
000B48H   000B48H   000001H   BYTE   UNIT     EDATA          ?ED?MPU6050_READ_CH?SEEKFREE_MPU6050
000B49H   000B49H   000001H   BYTE   UNIT     EDATA          ?ED?OLED_WRDAT?SEEKFREE_OLED
000B4AH   000B4AH   000001H   BYTE   UNIT     EDATA          ?ED?OLED_WRCMD?SEEKFREE_OLED
000B4BH   000B4BH   000001H   BYTE   UNIT     EDATA          ?ED?OLED_WRDAT_SPI?SEEKFREE_OLED
000B4CH   000B4CH   000001H   BYTE   UNIT     EDATA          ?ED?OLED_WRCMD_SPI?SEEKFREE_OLED
000B4DH   000B4DH   000001H   BYTE   UNIT     EDATA          ?ED?CCD_COLLECT?SEEKFREE_TSL1401
000B4EH   000B4EH   000001H   BYTE   UNIT     EDATA          ?ED?UART_INITIALIZE?UART
000B4FH   000B4FH   000001H   BYTE   UNIT     EDATA          ?ED?UART_RUNNING?UART
000B50H   000B50H   000001H   BYTE   UNIT     EDATA          ?ED?LASER_RANGING_GET_UART_VALUE?LASER_RANGING
000B51H   000B51H   000001H   BYTE   UNIT     EDATA          ?ED?UI
000B52H   000C51H   000100H   BYTE   UNIT     EDATA          ?STACK
000C52H   00FFFFH   00F3AEH   ---    ---      **GAP**
010000H   010200H   000201H   BYTE   INSEG    XDATA          ?XD?SEEKFREE_TSL1401
010201H   0102E3H   0000E3H   BYTE   INSEG    XDATA          ?XD?SEEKFREE_ASSISTANT
0102E4H   01036FH   00008CH   BYTE   UNIT     XDATA          ?XD?DL1B_INIT?SEEKFREE_DL1B
010370H   0103C7H   000058H   BYTE   INSEG    XDATA          ?XD?SEEKFREE_BLUETOOTH_CH9141
0103C8H   01041FH   000058H   BYTE   INSEG    XDATA          ?XD?SEEKFREE_WIRELESS
010420H   010477H   000058H   BYTE   INSEG    XDATA          ?XD?SEEKFREE_WIRELESS_CH573
010478H   01049BH   000024H   BYTE   UNIT     XDATA          ?XD?LCD_SHOWFLOAT_SIMSPI?SEEKFREE_18TFT
01049CH   0104BFH   000024H   BYTE   UNIT     XDATA          ?XD?LCD_SHOWFLOAT?SEEKFREE_18TFT
0104C0H   0104E3H   000024H   BYTE   UNIT     XDATA          ?XD?IPS114_SHOWFLOAT_SIMSPI?SEEKFREE_IPS114_SPI
L251 LINKER/LOCATER V4.66.93.0                                                        04/24/2024  12:31:03  PAGE 8


0104E4H   010507H   000024H   BYTE   UNIT     XDATA          ?XD?IPS114_SHOWFLOAT?SEEKFREE_IPS114_SPI
010508H   01052AH   000023H   BYTE   UNIT     XDATA          ?XD?LCD_SHOWINT32_SIMSPI?SEEKFREE_18TFT
01052BH   01054DH   000023H   BYTE   UNIT     XDATA          ?XD?LCD_SHOWINT32?SEEKFREE_18TFT
01054EH   010570H   000023H   BYTE   UNIT     XDATA          ?XD?IPS114_SHOWINT32_SIMSPI?SEEKFREE_IPS114_SPI
010571H   010593H   000023H   BYTE   UNIT     XDATA          ?XD?IPS114_SHOWINT32?SEEKFREE_IPS114_SPI
010594H   0105A8H   000015H   BYTE   UNIT     XDATA          ?XD?DL1A_INIT?SEEKFREE_DL1A
0105A9H   0105B8H   000010H   BYTE   UNIT     XDATA          ?XD?DL1A_SET_MEASUREMENT_TIMING_BUDGET?SEEKFREE_DL1A
0105B9H   0105C0H   000008H   BYTE   UNIT     XDATA          ?XD?DL1A_ENCODE_TIMEOUT?SEEKFREE_DL1A
0105C1H   0105C7H   000007H   BYTE   UNIT     XDATA          ?XD?IMU660RA_GET_ACC?SEEKFREE_IMU660RA
0105C8H   0105CEH   000007H   BYTE   UNIT     XDATA          ?XD?IMU660RA_GET_GYRO?SEEKFREE_IMU660RA
0105CFH   0105D5H   000007H   BYTE   UNIT     XDATA          ?XD?IMU963RA_GET_MAG?SEEKFREE_IMU963RA
0105D6H   0105DBH   000006H   BYTE   UNIT     XDATA          ?XD?LCD_SHOWINT16_SIMSPI?SEEKFREE_18TFT
0105DCH   0105E1H   000006H   BYTE   UNIT     XDATA          ?XD?LCD_SHOWUINT16_SIMSPI?SEEKFREE_18TFT
0105E2H   0105E7H   000006H   BYTE   UNIT     XDATA          ?XD?LCD_SHOWINT16?SEEKFREE_18TFT
0105E8H   0105EDH   000006H   BYTE   UNIT     XDATA          ?XD?LCD_SHOWUINT16?SEEKFREE_18TFT
0105EEH   0105F3H   000006H   BYTE   UNIT     XDATA          ?XD?ICM20602_GET_ACC?SEEKFREE_ICM20602
0105F4H   0105F9H   000006H   BYTE   UNIT     XDATA          ?XD?ICM20602_GET_GYRO?SEEKFREE_ICM20602
0105FAH   0105FFH   000006H   BYTE   UNIT     XDATA          ?XD?IMU963RA_GET_ACC?SEEKFREE_IMU963RA
010600H   010605H   000006H   BYTE   UNIT     XDATA          ?XD?IMU963RA_GET_GYRO?SEEKFREE_IMU963RA
010606H   01060BH   000006H   BYTE   UNIT     XDATA          ?XD?IPS114_SHOWINT16_SIMSPI?SEEKFREE_IPS114_SPI
01060CH   010611H   000006H   BYTE   UNIT     XDATA          ?XD?IPS114_SHOWUINT16_SIMSPI?SEEKFREE_IPS114_SPI
010612H   010617H   000006H   BYTE   UNIT     XDATA          ?XD?IPS114_SHOWINT16?SEEKFREE_IPS114_SPI
010618H   01061DH   000006H   BYTE   UNIT     XDATA          ?XD?IPS114_SHOWUINT16?SEEKFREE_IPS114_SPI
01061EH   010623H   000006H   BYTE   UNIT     XDATA          ?XD?MPU6050_GET_ACCDATA?SEEKFREE_MPU6050
010624H   010629H   000006H   BYTE   UNIT     XDATA          ?XD?MPU6050_GET_GYRO?SEEKFREE_MPU6050
01062AH   01062EH   000005H   BYTE   UNIT     XDATA          ?XD?DL1A_SET_SIGNAL_RATE_LIMIT?SEEKFREE_DL1A
01062FH   010632H   000004H   BYTE   UNIT     XDATA          ?XD?LCD_SHOWINT8_SIMSPI?SEEKFREE_18TFT
010633H   010636H   000004H   BYTE   UNIT     XDATA          ?XD?LCD_SHOWUINT8_SIMSPI?SEEKFREE_18TFT
010637H   01063AH   000004H   BYTE   UNIT     XDATA          ?XD?LCD_SHOWINT8?SEEKFREE_18TFT
01063BH   01063EH   000004H   BYTE   UNIT     XDATA          ?XD?LCD_SHOWUINT8?SEEKFREE_18TFT
01063FH   010642H   000004H   BYTE   UNIT     XDATA          ?XD?BLUETOOTH_CH9141_READ_BUFF?SEEKFREE_BLUETOOTH_CH9141
010643H   010646H   000004H   BYTE   UNIT     XDATA          ?XD?DL1A_TIMEOUT_MCLKS_TO_MICROSECONDS?SEEKFREE_DL1A
010647H   01064AH   000004H   BYTE   UNIT     XDATA          ?XD?DL1A_TIMEOUT_MICROSECONDS_TO_MCLKS?SEEKFREE_DL1A
01064BH   01064EH   000004H   BYTE   UNIT     XDATA          ?XD?DL1A_GET_SEQUENCE_STEP_TIMEOUTS?SEEKFREE_DL1A
01064FH   010652H   000004H   BYTE   UNIT     XDATA          ?XD?DL1A_GET_MEASUREMENT_TIMING_BUDGET?SEEKFREE_DL1A
010653H   010656H   000004H   BYTE   UNIT     XDATA          ?XD?ICM20602_SIMSPI_R_REG_BYTES?SEEKFREE_ICM20602
010657H   01065AH   000004H   BYTE   UNIT     XDATA          ?XD?IMU963RA_ACC_GYRO_SELF_CHECK?SEEKFREE_IMU963RA
01065BH   01065EH   000004H   BYTE   UNIT     XDATA          ?XD?IMU963RA_MAG_SELF_CHECK?SEEKFREE_IMU963RA
01065FH   010662H   000004H   BYTE   UNIT     XDATA          ?XD?IPS114_SHOWINT8_SIMSPI?SEEKFREE_IPS114_SPI
010663H   010666H   000004H   BYTE   UNIT     XDATA          ?XD?IPS114_SHOWUINT8_SIMSPI?SEEKFREE_IPS114_SPI
010667H   01066AH   000004H   BYTE   UNIT     XDATA          ?XD?IPS114_SHOWINT8?SEEKFREE_IPS114_SPI
01066BH   01066EH   000004H   BYTE   UNIT     XDATA          ?XD?IPS114_SHOWUINT8?SEEKFREE_IPS114_SPI
01066FH   010672H   000004H   BYTE   UNIT     XDATA          ?XD?WIRELESS_UART_READ_BUFF?SEEKFREE_WIRELESS
010673H   010676H   000004H   BYTE   UNIT     XDATA          ?XD?WIRELESS_CH573_READ_BUFF?SEEKFREE_WIRELESS_CH573
010677H   010679H   000003H   BYTE   UNIT     XDATA          ?XD?DL1A_GET_DISTANCE?SEEKFREE_DL1A
01067AH   01067CH   000003H   BYTE   UNIT     XDATA          ?XD?DL1B_GET_DISTANCE?SEEKFREE_DL1B
01067DH   01067FH   000003H   BYTE   UNIT     XDATA          ?XD?ICM20602_SELF_CHECK?SEEKFREE_ICM20602
010680H   010682H   000003H   BYTE   UNIT     XDATA          ?XD?ICM20602_INIT?SEEKFREE_ICM20602
010683H   010685H   000003H   BYTE   UNIT     XDATA          ?XD?IMU660RA_SELF_CHECK?SEEKFREE_IMU660RA
010686H   010688H   000003H   BYTE   UNIT     XDATA          ?XD?IMU963RA_WRITE_MAG_REGISTER?SEEKFREE_IMU963RA
010689H   01068AH   000002H   BYTE   UNIT     XDATA          ?XD?LCD_SHOWCHAR_SIMSPI?SEEKFREE_18TFT
01068BH   01068CH   000002H   BYTE   UNIT     XDATA          ?XD?LCD_SHOWSTR_SIMSPI?SEEKFREE_18TFT
01068DH   01068EH   000002H   BYTE   UNIT     XDATA          ?XD?LCD_WRITEDATA_16BIT?SEEKFREE_18TFT
01068FH   010690H   000002H   BYTE   UNIT     XDATA          ?XD?LCD_SHOWCHAR?SEEKFREE_18TFT
010691H   010692H   000002H   BYTE   UNIT     XDATA          ?XD?LCD_SHOWSTR?SEEKFREE_18TFT
010693H   010694H   000002H   BYTE   UNIT     XDATA          ?XD?BLUETOOTH_CH9141_SEND_BUFF?SEEKFREE_BLUETOOTH_CH9141
010695H   010696H   000002H   BYTE   UNIT     XDATA          ?XD?DL1A_SIMIIC_DELAY?SEEKFREE_DL1A
010697H   010698H   000002H   BYTE   UNIT     XDATA          ?XD?DL1A_READ_CH?SEEKFREE_DL1A
010699H   01069AH   000002H   BYTE   UNIT     XDATA          ?XD?DL1A_GET_SPAD_INFO?SEEKFREE_DL1A
01069BH   01069CH   000002H   BYTE   UNIT     XDATA          ?XD?DL1A_PERFORM_SINGLE_REF_CALIBRATION?SEEKFREE_DL1A
01069DH   01069EH   000002H   BYTE   UNIT     XDATA          ?XD?DL1B_SIMIIC_DELAY?SEEKFREE_DL1B
01069FH   0106A0H   000002H   BYTE   UNIT     XDATA          ?XD?DL1B_READ_CH?SEEKFREE_DL1B
0106A1H   0106A2H   000002H   BYTE   UNIT     XDATA          ?XD?IMU660RA_READ_REGISTER?SEEKFREE_IMU660RA
0106A3H   0106A4H   000002H   BYTE   UNIT     XDATA          ?XD?IMU963RA_READ_MAG_REGISTER?SEEKFREE_IMU963RA
0106A5H   0106A6H   000002H   BYTE   UNIT     XDATA          ?XD?IPS114_CLEAR_SIMSPI?SEEKFREE_IPS114_SPI
L251 LINKER/LOCATER V4.66.93.0                                                        04/24/2024  12:31:03  PAGE 9


0106A7H   0106A8H   000002H   BYTE   UNIT     XDATA          ?XD?IPS114_SHOWCHAR_SIMSPI?SEEKFREE_IPS114_SPI
0106A9H   0106AAH   000002H   BYTE   UNIT     XDATA          ?XD?IPS114_SHOWSTR_SIMSPI?SEEKFREE_IPS114_SPI
0106ABH   0106ACH   000002H   BYTE   UNIT     XDATA          ?XD?IPS114_WRITEDATA_16BIT?SEEKFREE_IPS114_SPI
0106ADH   0106AEH   000002H   BYTE   UNIT     XDATA          ?XD?IPS114_CLEAR?SEEKFREE_IPS114_SPI
0106AFH   0106B0H   000002H   BYTE   UNIT     XDATA          ?XD?IPS114_SHOWCHAR?SEEKFREE_IPS114_SPI
0106B1H   0106B2H   000002H   BYTE   UNIT     XDATA          ?XD?IPS114_SHOWSTR?SEEKFREE_IPS114_SPI
0106B3H   0106B4H   000002H   BYTE   UNIT     XDATA          ?XD?MPU6050_SIMIIC_DELAY?SEEKFREE_MPU6050
0106B5H   0106B6H   000002H   BYTE   UNIT     XDATA          ?XD?MPU6050_READ_CH?SEEKFREE_MPU6050
0106B7H   0106B8H   000002H   BYTE   UNIT     XDATA          ?XD?OLED_HEXASCII?SEEKFREE_OLED
0106B9H   0106BAH   000002H   BYTE   UNIT     XDATA          ?XD?OLED_DIS_BMP?SEEKFREE_OLED
0106BBH   0106BCH   000002H   BYTE   UNIT     XDATA          ?XD?OLED_HEXASCII_SPI?SEEKFREE_OLED
0106BDH   0106BEH   000002H   BYTE   UNIT     XDATA          ?XD?OLED_DIS_BMP_SPI?SEEKFREE_OLED
0106BFH   0106BFH   000001H   BYTE   UNIT     XDATA          ?XD?LCD_WRITEINDEX_SIMSPI?SEEKFREE_18TFT
0106C0H   0106C0H   000001H   BYTE   UNIT     XDATA          ?XD?LCD_WRITEDATA_SIMSPI?SEEKFREE_18TFT
0106C1H   0106C1H   000001H   BYTE   UNIT     XDATA          ?XD?LCD_WRITEDATA_16BIT_SIMSPI?SEEKFREE_18TFT
0106C2H   0106C2H   000001H   BYTE   UNIT     XDATA          ?XD?LCD_CLEAR_SIMSPI?SEEKFREE_18TFT
0106C3H   0106C3H   000001H   BYTE   UNIT     XDATA          ?XD?LCD_CLEAR?SEEKFREE_18TFT
0106C4H   0106C4H   000001H   BYTE   UNIT     XDATA          ?XD?DL1A_SEND_CH?SEEKFREE_DL1A
0106C5H   0106C5H   000001H   BYTE   UNIT     XDATA          ?XD?DL1A_SIMIIC_READ_REG?SEEKFREE_DL1A
0106C6H   0106C6H   000001H   BYTE   UNIT     XDATA          ?XD?DL1A_GET_SEQUENCE_STEP_ENABLES?SEEKFREE_DL1A
0106C7H   0106C7H   000001H   BYTE   UNIT     XDATA          ?XD?DL1A_GET_VCSEL_PULSE_PERIOD?SEEKFREE_DL1A
0106C8H   0106C8H   000001H   BYTE   UNIT     XDATA          ?XD?DL1B_SEND_CH?SEEKFREE_DL1B
0106C9H   0106C9H   000001H   BYTE   UNIT     XDATA          ?XD?ICM20602_SIMSPI_WR_BYTE?SEEKFREE_ICM20602
0106CAH   0106CAH   000001H   BYTE   UNIT     XDATA          ?XD?ICM20602_READ_REGISTER?SEEKFREE_ICM20602
0106CBH   0106CBH   000001H   BYTE   UNIT     XDATA          ?XD?IMU660RA_SIMSPI_WR_BYTE?SEEKFREE_IMU660RA
0106CCH   0106CCH   000001H   BYTE   UNIT     XDATA          ?XD?IMU660RA_INIT?SEEKFREE_IMU660RA
0106CDH   0106CDH   000001H   BYTE   UNIT     XDATA          ?XD?IMU963RA_SIMSPI_WR_BYTE?SEEKFREE_IMU963RA
0106CEH   0106CEH   000001H   BYTE   UNIT     XDATA          ?XD?IMU963RA_READ_ACC_GYRO_REGISTER?SEEKFREE_IMU963RA
0106CFH   0106CFH   000001H   BYTE   UNIT     XDATA          ?XD?IMU963RA_INIT?SEEKFREE_IMU963RA
0106D0H   0106D0H   000001H   BYTE   UNIT     XDATA          ?XD?IPS114_WRITEINDEX_SIMSPI?SEEKFREE_IPS114_SPI
0106D1H   0106D1H   000001H   BYTE   UNIT     XDATA          ?XD?IPS114_WRITEDATA_SIMSPI?SEEKFREE_IPS114_SPI
0106D2H   0106D2H   000001H   BYTE   UNIT     XDATA          ?XD?IPS114_WRITEDATAI_16BIT_SIMSPI?SEEKFREE_IPS114_SPI
0106D3H   0106D3H   000001H   BYTE   UNIT     XDATA          ?XD?MPU6050_SEND_CH?SEEKFREE_MPU6050
0106D4H   0106D4H   000001H   BYTE   UNIT     XDATA          ?XD?MPU6050_SIMIIC_READ_REG?SEEKFREE_MPU6050
0106D5H   0106D5H   000001H   BYTE   UNIT     XDATA          ?XD?OLED_WRDAT?SEEKFREE_OLED
0106D6H   0106D6H   000001H   BYTE   UNIT     XDATA          ?XD?OLED_WRCMD?SEEKFREE_OLED
0106D7H   0106D7H   000001H   BYTE   UNIT     XDATA          ?XD?OLED_FILL?SEEKFREE_OLED
0106D8H   0106D8H   000001H   BYTE   UNIT     XDATA          ?XD?OLED_P6X8STR?SEEKFREE_OLED
0106D9H   0106D9H   000001H   BYTE   UNIT     XDATA          ?XD?OLED_P8X16STR?SEEKFREE_OLED
0106DAH   0106DAH   000001H   BYTE   UNIT     XDATA          ?XD?OLED_FILL_SPI?SEEKFREE_OLED
0106DBH   0106DBH   000001H   BYTE   UNIT     XDATA          ?XD?OLED_P6X8STR_SPI?SEEKFREE_OLED
0106DCH   0106DCH   000001H   BYTE   UNIT     XDATA          ?XD?OLED_P8X16STR_SPI?SEEKFREE_OLED
0106DDH   FEFFFFH   FDF923H   ---    ---      **GAP**
FF0000H   FF0002H   000003H   ---    OFFS..   CODE           ?CO?start251?4
FF0003H   FF0006H   000004H   BYTE   INSEG    CODE           ?PR?ENABLEGLOBALIRQ?BOARD
FF0007H   FF000AH   000004H   BYTE   UNIT     CONST          ?CO?PRINTF
FF000BH   FF000DH   000003H   ---    OFFS..   CODE           ?PR?IV?1
FF000EH   FF0022H   000015H   BYTE   INSEG    CODE           ?PR?LCD_WRITEINDEX?SEEKFREE_18TFT
FF0023H   FF0025H   000003H   ---    OFFS..   CODE           ?PR?IV?4
FF0026H   FF0042H   00001DH   BYTE   INSEG    CODE           ?PR?GPIO_INIT?MAIN
FF0043H   FF0045H   000003H   ---    OFFS..   CODE           ?PR?IV?8
FF0046H   FF0087H   000042H   BYTE   INSEG    CODE           ?PR?DL1A_SIMIIC_WRITE_DATS?SEEKFREE_DL1A
FF0088H   FF008AH   000003H   ---    ---      **GAP**
FF008BH   FF008DH   000003H   ---    OFFS..   CODE           ?PR?IV?17
FF008EH   FF0092H   000005H   ---    ---      **GAP**
FF0093H   FF0095H   000003H   ---    OFFS..   CODE           ?PR?IV?18
FF0096H   FF211CH   002087H   BYTE   UNIT     CODE           ?CO?SEEKFREE_CONFIG
FF211DH   FF2F24H   000E08H   BYTE   UNIT     CODE           ?CO?SEEKFREE_FONT
FF2F25H   FF39A8H   000A84H   BYTE   UNIT     CODE           ?C?LIB_CODE
FF39A9H   FF42B5H   00090DH   BYTE   INSEG    CODE           ?PR?GPIO_MODE?ZF_GPIO
FF42B6H   FF4916H   000661H   BYTE   INSEG    CODE           ?PR?ZF_SPRINTF?SEEKFREE_PRINTF
FF4917H   FF4CF0H   0003DAH   BYTE   INSEG    CODE           ?PR?PWM_INIT?ZF_PWM
FF4CF1H   FF50A8H   0003B8H   BYTE   INSEG    CODE           ?PR?PWM_SET_GPIO?ZF_PWM
FF50A9H   FF5381H   0002D9H   BYTE   INSEG    CODE           ?PR?QMC5883_DATA_PARSE?QMC5883
FF5382H   FF5633H   0002B2H   BYTE   INSEG    CODE           ?PR?UART_INIT?ZF_UART
L251 LINKER/LOCATER V4.66.93.0                                                        04/24/2024  12:31:03  PAGE 10


FF5634H   FF587AH   000247H   BYTE   INSEG    CODE           ?PR?WHEEL_DIRECTION?MOTOR_DRIVER_BOARDS
FF587BH   FF5A80H   000206H   BYTE   INSEG    CODE           ?PR?SET_CLK?BOARD
FF5A81H   FF5C28H   0001A8H   BYTE   INSEG    CODE           ?PR?ATOF?QMC5883
FF5C29H   FF5DAFH   000187H   BYTE   INSEG    CODE           ?PR?DL1A_GET_SEQUENCE_STEP_TIMEOUTS?SEEKFREE_DL1A
FF5DB0H   FF5F0DH   00015EH   BYTE   INSEG    CODE           ?PR?WHEEL_ADJUST?MOTOR_DRIVER_BOARDS
FF5F0EH   FF6052H   000145H   BYTE   INSEG    CODE           ?PR?OLED_PRINTF_FLOAT_SPI?SEEKFREE_OLED
FF6053H   FF616AH   000118H   BYTE   INSEG    CODE           ?PR?PWM_DUTY?ZF_PWM
FF616BH   FF6281H   000117H   BYTE   INSEG    CODE           ?PR?NUMBER_CONVERSION_ASCII?SEEKFREE_PRINTF
FF6282H   FF6390H   00010FH   BYTE   INSEG    CODE           ?PR?HOST_COMM_IRQHANDLER?HOST_COMM
FF6391H   FF6497H   000107H   BYTE   INSEG    CODE           ?PR?UART_SENDCMD?UART
FF6498H   FF6596H   0000FFH   BYTE   INSEG    CODE           ?PR?ATOI?QMC5883
FF6597H   FF6668H   0000D2H   BYTE   INSEG    CODE           ?PR?OLED_P6X8STR_SPI?SEEKFREE_OLED
FF6669H   FF6736H   0000CEH   BYTE   INSEG    CODE           ?PR?SPI_INIT?ZF_SPI
FF6737H   FF67FBH   0000C5H   BYTE   INSEG    CODE           ?PR?OLED_INIT_SPI?SEEKFREE_OLED
FF67FCH   FF68BAH   0000BFH   BYTE   INSEG    CODE           ?PR?UART_SENDSTRING?UART
FF68BBH   FF6965H   0000ABH   BYTE   INSEG    CODE           ?PR?DL1A_ENCODE_TIMEOUT?SEEKFREE_DL1A
FF6966H   FF6A01H   00009CH   BYTE   INSEG    CODE           ?PR?DL1A_GET_SEQUENCE_STEP_ENABLES?SEEKFREE_DL1A
FF6A02H   FF6A98H   000097H   BYTE   INSEG    CODE           ?PR?BOARD_INIT?BOARD
FF6A99H   FF6B2DH   000095H   BYTE   INSEG    CODE           ?PR?PRINTF_REVERSE_ORDER?SEEKFREE_PRINTF
FF6B2EH   FF6BAFH   000082H   BYTE   INSEG    CODE           ?PR?DL1A_GET_VCSEL_PULSE_PERIOD?SEEKFREE_DL1A
FF6BB0H   FF6BC2H   000013H   BYTE   UNIT     CODE           ?C_C51STARTUP
FF6BC3H   FF6BC8H   000006H   BYTE   UNIT     CODE           ?C_C51STARTUP?1
FF6BC9H   FF6C22H   00005AH   BYTE   UNIT     CODE           ?C_C51STARTUP?2
FF6C23H   FF6C25H   000003H   BYTE   UNIT     CODE           ?C_C51STARTUP?3
FF6C26H   FF6C9AH   000075H   BYTE   INSEG    CODE           ?PR?UART_PUTCHAR?ZF_UART
FF6C9BH   FF6D0CH   000072H   BYTE   INSEG    CODE           ?PR?UART1_ISR?UART
FF6D0DH   FF6D7CH   000070H   BYTE   INSEG    CODE           ?PR?FIFO_HEAD_OFFSET?ZF_FIFO
FF6D7DH   FF6DEBH   00006FH   BYTE   INSEG    CODE           ?PR?IMU963RA_READ_MAG_REGISTER?SEEKFREE_IMU963RA
FF6DECH   FF6E57H   00006CH   BYTE   INSEG    CODE           ?PR?MAIN?MAIN
FF6E58H   FF6EC3H   00006CH   BYTE   INSEG    CODE           ?PR?UART3_ISR?UART
FF6EC4H   FF6F2BH   000068H   BYTE   INSEG    CODE           ?PR?DL1A_SIMIIC_READ_REGS?SEEKFREE_DL1A
FF6F2CH   FF6F90H   000065H   BYTE   INSEG    CODE           ?PR?DL1A_TIMEOUT_MCLKS_TO_MICROSECONDS?SEEKFREE_DL1A
FF6F91H   FF6FF5H   000065H   BYTE   INSEG    CODE           ?PR?DL1A_READ_CH?SEEKFREE_DL1A
FF6FF6H   FF705AH   000065H   BYTE   INSEG    CODE           ?PR?DL1B_READ_CH?SEEKFREE_DL1B
FF705BH   FF70BEH   000064H   BYTE   INSEG    CODE           ?PR?LCD_SET_REGION_SIMSPI?SEEKFREE_18TFT
FF70BFH   FF7122H   000064H   BYTE   INSEG    CODE           ?PR?LCD_SET_REGION?SEEKFREE_18TFT
FF7123H   FF7186H   000064H   BYTE   INSEG    CODE           ?PR?UI_RUNNING?UI
FF7187H   FF71E9H   000063H   BYTE   INSEG    CODE           ?PR?DL1A_TIMEOUT_MICROSECONDS_TO_MCLKS?SEEKFREE_DL1A
FF71EAH   FF724BH   000062H   BYTE   INSEG    CODE           ?PR?QMC5883_IRQHANDLER?QMC5883
FF724CH   FF72AAH   00005FH   BYTE   INSEG    CODE           ?PR?OLED_FILL_SPI?SEEKFREE_OLED
FF72ABH   FF7303H   000059H   BYTE   INSEG    CODE           ?PR?ICM20602_SIMSPI_WR_BYTE?SEEKFREE_ICM20602
FF7304H   FF735CH   000059H   BYTE   INSEG    CODE           ?PR?IMU660RA_SIMSPI_WR_BYTE?SEEKFREE_IMU660RA
FF735DH   FF73B5H   000059H   BYTE   INSEG    CODE           ?PR?IMU963RA_SIMSPI_WR_BYTE?SEEKFREE_IMU963RA
FF73B6H   FF740CH   000057H   BYTE   INSEG    CODE           ?PR?WAIT?ZF_IIC
FF740DH   FF7463H   000057H   BYTE   INSEG    CODE           ?PR?ICM20602_SIMSPI_R_REG_BYTES?SEEKFREE_ICM20602
FF7464H   FF74BAH   000057H   BYTE   INSEG    CODE           ?PR?MOTOR_DRIVERS_PWM_INIT?MAIN
FF74BBH   FF750EH   000054H   BYTE   INSEG    CODE           ?PR?LCD_WRITEDATA_16BIT_SIMSPI?SEEKFREE_18TFT
FF750FH   FF7562H   000054H   BYTE   INSEG    CODE           ?PR?IPS114_WRITEDATAI_16BIT_SIMSPI?SEEKFREE_IPS114_SPI
FF7563H   FF75B5H   000053H   BYTE   INSEG    CODE           ?PR?KEY2_CHECK?KEY
FF75B6H   FF7608H   000053H   BYTE   INSEG    CODE           ?PR?KEY3_CHECK?KEY
FF7609H   FF765BH   000053H   BYTE   INSEG    CODE           ?PR?KEY4_CHECK?KEY
FF765CH   FF76ACH   000051H   BYTE   INSEG    CODE           ?PR?KEY1_CHECK?KEY
FF76ADH   FF76F7H   00004BH   BYTE   INSEG    CODE           ?PR?LCD_WRITEINDEX_SIMSPI?SEEKFREE_18TFT
FF76F8H   FF7742H   00004BH   BYTE   INSEG    CODE           ?PR?LCD_WRITEDATA_SIMSPI?SEEKFREE_18TFT
FF7743H   FF778DH   00004BH   BYTE   INSEG    CODE           ?PR?IMU660RA_SIMSPI_R_REG_BYTES?SEEKFREE_IMU660RA
FF778EH   FF77D8H   00004BH   BYTE   INSEG    CODE           ?PR?IPS114_WRITEINDEX_SIMSPI?SEEKFREE_IPS114_SPI
FF77D9H   FF7823H   00004BH   BYTE   INSEG    CODE           ?PR?OLED_WRCMD?SEEKFREE_OLED
FF7824H   FF786EH   00004BH   BYTE   INSEG    CODE           ?PR?OLED_WRDAT?SEEKFREE_OLED
FF786FH   FF78B7H   000049H   BYTE   INSEG    CODE           ?PR?UART4_ISR?UART
FF78B8H   FF78FFH   000048H   BYTE   INSEG    CODE           ?PR?DL1A_SEND_CH?SEEKFREE_DL1A
FF7900H   FF7947H   000048H   BYTE   INSEG    CODE           ?PR?DL1B_SEND_CH?SEEKFREE_DL1B
FF7948H   FF7988H   000041H   BYTE   INSEG    CODE           ?PR?DELAY_INIT?ZF_DELAY
FF7989H   FF79C8H   000040H   BYTE   INSEG    CODE           ?PR?UART2_ISR?UART
FF79C9H   FF7A08H   000040H   BYTE   INSEG    CODE           ?PR?UI_INIT?UI
FF7A09H   FF7A3EH   000036H   BYTE   INSEG    CODE           ?PR?OLED_SET_POS_SPI?SEEKFREE_OLED
L251 LINKER/LOCATER V4.66.93.0                                                        04/24/2024  12:31:03  PAGE 11


FF7A3FH   FF7A73H   000035H   BYTE   INSEG    CODE           ?PR?DELAY_MS?ZF_DELAY
FF7A74H   FF7AA8H   000035H   BYTE   INSEG    CODE           ?PR?IIC_DELAY_US?ZF_IIC
FF7AA9H   FF7ADDH   000035H   BYTE   INSEG    CODE           ?PR?OLED_SET_POS?SEEKFREE_OLED
FF7ADEH   FF7B11H   000034H   BYTE   INSEG    CODE           ?PR?QMC5883_INIT?MAIN
FF7B12H   FF7B41H   000030H   BYTE   INSEG    CODE           ?PR?UI_RUNNING_TIMER_ISR?UI
FF7B42H   FF7B6EH   00002DH   BYTE   INSEG    CODE           ?PR?IMU963RA_SIMSPI_R_REG_BYTE?SEEKFREE_IMU963RA
FF7B6FH   FF7B9AH   00002CH   BYTE   INSEG    CODE           ?PR?LCD_WRITEDATA_16BIT?SEEKFREE_18TFT
FF7B9BH   FF7BC6H   00002CH   BYTE   INSEG    CODE           ?PR?IPS114_WRITEDATA_16BIT?SEEKFREE_IPS114_SPI
FF7BC7H   FF7BF0H   00002AH   BYTE   INSEG    CODE           ?PR?DL1A_DECODE_TIMEOUT?SEEKFREE_DL1A
FF7BF1H   FF7C18H   000028H   BYTE   INSEG    CODE           ?PR?DL1A_SIMIIC_SENDACK?SEEKFREE_DL1A
FF7C19H   FF7C40H   000028H   BYTE   INSEG    CODE           ?PR?DL1B_SIMIIC_SENDACK?SEEKFREE_DL1B
FF7C41H   FF7C68H   000028H   BYTE   INSEG    CODE           ?PR?MPU6050_SIMIIC_SENDACK?SEEKFREE_MPU6050
FF7C69H   FF7C8FH   000027H   BYTE   INSEG    CODE           ?PR?ICM20602_SIMSPI_R_REG_BYTE?SEEKFREE_ICM20602
FF7C90H   FF7CB6H   000027H   BYTE   INSEG    CODE           ?PR?IMU963RA_READ_ACC_GYRO_REGISTER?SEEKFREE_IMU963RA
FF7CB7H   FF7CDDH   000027H   BYTE   INSEG    CODE           ?PR?HOST_COMM_SENDER?HOST_COMM
FF7CDEH   FF7D03H   000026H   BYTE   INSEG    CODE           ?PR?IMU660RA_READ_REGISTER?SEEKFREE_IMU660RA
FF7D04H   FF7D28H   000025H   BYTE   INSEG    CODE           ?PR?MEMCPY?_?MEMCPY
FF7D29H   FF7D4AH   000022H   BYTE   INSEG    CODE           ?PR?ICM20602_READ_REGISTER?SEEKFREE_ICM20602
FF7D4BH   FF7D6BH   000021H   BYTE   INSEG    CODE           ?PR?DL1A_SCCB_WAITACK?SEEKFREE_DL1A
FF7D6CH   FF7D8CH   000021H   BYTE   INSEG    CODE           ?PR?DL1B_SCCB_WAITACK?SEEKFREE_DL1B
FF7D8DH   FF7DADH   000021H   BYTE   INSEG    CODE           ?PR?IMU963RA_SIMSPI_W_REG_BYTE?SEEKFREE_IMU963RA
FF7DAEH   FF7DCDH   000020H   BYTE   INSEG    CODE           ?PR?DL1A_SIMIIC_DELAY?SEEKFREE_DL1A
FF7DCEH   FF7DEDH   000020H   BYTE   INSEG    CODE           ?PR?DL1B_SIMIIC_DELAY?SEEKFREE_DL1B
FF7DEEH   FF7E0DH   000020H   BYTE   INSEG    CODE           ?PR?MPU6050_SIMIIC_DELAY?SEEKFREE_MPU6050
FF7E0EH   FF7E2CH   00001FH   BYTE   INSEG    CODE           ?PR?HOST_COMM_UART_INIT?HOST_COMM
FF7E2DH   FF7E4AH   00001EH   BYTE   INSEG    CODE           ?PR?LASER_RANGING_GET_UART_VALUE?LASER_RANGING
FF7E4BH   FF7E66H   00001CH   BYTE   INSEG    CODE           ?PR?KEY1_SHORT_PRESS?KEY
FF7E67H   FF7E80H   00001AH   BYTE   INSEG    CODE           ?PR?IMU963RA_WRITE_ACC_GYRO_REGISTER?SEEKFREE_IMU963RA
FF7E81H   FF7E96H   000016H   BYTE   INSEG    CODE           ?PR?DL1A_SIMIIC_STOP?SEEKFREE_DL1A
FF7E97H   FF7EACH   000016H   BYTE   INSEG    CODE           ?PR?MPU6050_SIMIIC_STOP?SEEKFREE_MPU6050
FF7EADH   FF7EC1H   000015H   BYTE   INSEG    CODE           ?PR?LCD_WRITEDATA?SEEKFREE_18TFT
FF7EC2H   FF7ED6H   000015H   BYTE   INSEG    CODE           ?PR?IPS114_WRITEINDEX?SEEKFREE_IPS114_SPI
FF7ED7H   FF7EEBH   000015H   BYTE   INSEG    CODE           ?PR?OLED_WRCMD_SPI?SEEKFREE_OLED
FF7EECH   FF7F00H   000015H   BYTE   INSEG    CODE           ?PR?OLED_WRDAT_SPI?SEEKFREE_OLED
FF7F01H   FF7F13H   000013H   BYTE   INSEG    CODE           ?PR?DL1A_SIMIIC_START?SEEKFREE_DL1A
FF7F14H   FF7F26H   000013H   BYTE   INSEG    CODE           ?PR?MPU6050_SIMIIC_START?SEEKFREE_MPU6050
FF7F27H   FF7F38H   000012H   BYTE   INSEG    CODE           ?PR?PUTCHAR?BOARD
FF7F39H   FF7F4AH   000012H   BYTE   INSEG    CODE           ?PR?SPI_MOSI?ZF_SPI
FF7F4BH   FF7F5AH   000010H   BYTE   INSEG    CODE           ?PR?UI_KEYS_INIT?UI
FF7F5BH   FF7F66H   00000CH   BYTE   INSEG    CODE           ?PR?KEY2_SHORT_PRESS?KEY
FF7F67H   FF7F72H   00000CH   BYTE   INSEG    CODE           ?PR?KEY3_SHORT_PRESS?KEY
FF7F73H   FF7F7EH   00000CH   BYTE   INSEG    CODE           ?PR?KEY4_SHORT_PRESS?KEY
FF7F7FH   FF8200H   000282H   BYTE   UNIT     HCONST         ?C_INITEDATA
FF8201H   FF8258H   000058H   BYTE   UNIT     HCONST         ?HC?ZF_PWM
FF8259H   FF82A3H   00004BH   BYTE   UNIT     HCONST         ?HC?SEEKFREE_IMU963RA
FF82A4H   FF82D7H   000034H   BYTE   UNIT     HCONST         ?HC?SEEKFREE_IMU660RA
FF82D8H   FF830BH   000034H   BYTE   UNIT     HCONST         ?C_INITHDATA
FF830CH   FF833EH   000033H   BYTE   UNIT     HCONST         ?HC?SEEKFREE_ICM20602
FF833FH   FF836BH   00002DH   BYTE   UNIT     HCONST         ?HC?KEY
FF836CH   FF8390H   000025H   BYTE   UNIT     HCONST         ?HC?UI
FF8391H   FF83A6H   000016H   BYTE   UNIT     HCONST         ?HC?SEEKFREE_MPU6050
FF83A7H   FF83B9H   000013H   BYTE   UNIT     HCONST         ?HC?SEEKFREE_DL1A
FF83BAH   FF83CCH   000013H   BYTE   UNIT     HCONST         ?HC?MAIN
FF83CDH   FF83D9H   00000DH   BYTE   UNIT     HCONST         ?HC?HOST_COMM
FF83DAH   FF83E3H   00000AH   BYTE   UNIT     HCONST         ?HC?SEEKFREE_OLED
FF83E4H   FF83E9H   000006H   BYTE   UNIT     HCONST         ?HC?SEEKFREE_18TFT
FF83EAH   FF83EFH   000006H   BYTE   UNIT     HCONST         ?HC?SEEKFREE_IPS114_SPI

* * * * * * * * *   R E M O V E D     S E G M E N T S   * * * * * * * *
   *DEL*:           000004H   BYTE   INSEG    CODE           ?PR?DISABLEGLOBALIRQ?BOARD
   *DEL*:           000056H   BYTE   INSEG    CODE           ?PR?ADC_ONCE?ZF_ADC
   *DEL*:           0000B5H   BYTE   INSEG    CODE           ?PR?ADC_INIT?ZF_ADC
   *DEL*:           000033H   BYTE   INSEG    CODE           ?PR?DELAY_US?ZF_DELAY
   *DEL*:           00001AH   BYTE   INSEG    CODE           ?PR?IAP_SET_TPS?ZF_EEPROM
   *DEL*:           000015H   BYTE   INSEG    CODE           ?PR?EEPROM_TRIG?ZF_EEPROM
L251 LINKER/LOCATER V4.66.93.0                                                        04/24/2024  12:31:03  PAGE 12


   *DEL*:           000029H   BYTE   INSEG    CODE           ?PR?IAP_ERASE_PAGE?ZF_EEPROM
   *DEL*:           000004H   BYTE   INSEG    CODE           ?PR?IAP_IDLE?ZF_EEPROM
   *DEL*:           000062H   BYTE   INSEG    CODE           ?PR?IAP_READ_BYTES?ZF_EEPROM
   *DEL*:           000008H   BYTE   INSEG    CODE           ?PR?IAP_INIT?ZF_EEPROM
   *DEL*:           00005EH   BYTE   INSEG    CODE           ?PR?IAP_WRITE_BYTES?ZF_EEPROM
   *DEL*:           000012H   BYTE   INSEG    CODE           ?PR?IAP_GET_CMD_STATE?ZF_EEPROM
   *DEL*:           000066H   BYTE   INSEG    CODE           ?PR?EXIT_INIT?ZF_EXTI
   *DEL*:           000095H   BYTE   INSEG    CODE           ?PR?GPIO_PULL_SET?ZF_GPIO
   *DEL*:           0000B9H   BYTE   INSEG    CODE           ?PR?NVIC_SETPRIORITY?ZF_NVIC
   *DEL*:           0001ABH   BYTE   INSEG    CODE           ?PR?PWM_FREQ?ZF_PWM
   *DEL*:           000026H   BYTE   INSEG    CODE           ?PR?SPI_CHANGE_MODE?ZF_SPI
   *DEL*:           0000CCH   BYTE   INSEG    CODE           ?PR?SPI_CHANGE_PIN?ZF_SPI
   *DEL*:           0000B4H   BYTE   INSEG    CODE           ?PR?CTIMER_COUNT_READ?ZF_TIM
   *DEL*:           0000E5H   BYTE   INSEG    CODE           ?PR?PIT_TIMER_MS?ZF_TIM
   *DEL*:           000054H   BYTE   INSEG    CODE           ?PR?CTIMER_COUNT_INIT?ZF_TIM
   *DEL*:           00005DH   BYTE   INSEG    CODE           ?PR?CTIMER_COUNT_CLEAN?ZF_TIM
   *DEL*:           000033H   BYTE   INSEG    CODE           ?PR?UART_PUTBUFF?ZF_UART
   *DEL*:           00002BH   BYTE   INSEG    CODE           ?PR?UART_PUTSTR?ZF_UART
   *DEL*:           0003ACH   BYTE   INSEG    CODE           ?PR?FIFO_READ_BUFFER?ZF_FIFO
   *DEL*:           00013BH   BYTE   INSEG    CODE           ?PR?FIFO_WRITE_ELEMENT?ZF_FIFO
   *DEL*:           000434H   BYTE   INSEG    CODE           ?PR?FIFO_READ_TAIL_BUFFER?ZF_FIFO
   *DEL*:           0000EAH   BYTE   INSEG    CODE           ?PR?FIFO_CLEAR?ZF_FIFO
   *DEL*:           000392H   BYTE   INSEG    CODE           ?PR?FIFO_WRITE_BUFFER?ZF_FIFO
   *DEL*:           000070H   BYTE   INSEG    CODE           ?PR?FIFO_END_OFFSET?ZF_FIFO
   *DEL*:           000025H   BYTE   INSEG    CODE           ?PR?FIFO_USED?ZF_FIFO
   *DEL*:           000083H   BYTE   INSEG    CODE           ?PR?FIFO_INIT?ZF_FIFO
   *DEL*:           00018BH   BYTE   INSEG    CODE           ?PR?FIFO_READ_ELEMENT?ZF_FIFO
   *DEL*:           000028H   BYTE   INSEG    CODE           ?PR?SEND_DATA?ZF_IIC
   *DEL*:           000037H   BYTE   INSEG    CODE           ?PR?IIC_CHANGE_PIN?ZF_IIC
   *DEL*:           00001CH   BYTE   INSEG    CODE           ?PR?RECV_DATA?ZF_IIC
   *DEL*:           000015H   BYTE   INSEG    CODE           ?PR?START?ZF_IIC
   *DEL*:           000021H   BYTE   INSEG    CODE           ?PR?SEND_ACK?ZF_IIC
   *DEL*:           000015H   BYTE   INSEG    CODE           ?PR?RECV_ACK?ZF_IIC
   *DEL*:           000015H   BYTE   INSEG    CODE           ?PR?STOP?ZF_IIC
   *DEL*:           00001EH   BYTE   INSEG    CODE           ?PR?SEND_NAK?ZF_IIC
   *DEL*:           00007AH   BYTE   INSEG    CODE           ?PR?IIC_INIT?ZF_IIC
   *DEL*:           000099H   BYTE   INSEG    CODE           ?PR?IIC_READ_REG?ZF_IIC
   *DEL*:           0000D4H   BYTE   INSEG    CODE           ?PR?IIC_READ_REG_BYTES?ZF_IIC
   *DEL*:           00007CH   BYTE   INSEG    CODE           ?PR?IIC_WRITE_REG?ZF_IIC
   *DEL*:           0000D1H   BYTE   INSEG    CODE           ?PR?LCD_SHOWUINT16?SEEKFREE_18TFT
   *DEL*:           0000E5H   BYTE   INSEG    CODE           ?PR?LCD_SHOWINT32_SIMSPI?SEEKFREE_18TFT
   *DEL*:           00011FH   BYTE   INSEG    CODE           ?PR?LCD_SHOWINT16_SIMSPI?SEEKFREE_18TFT
   *DEL*:           0000E5H   BYTE   INSEG    CODE           ?PR?LCD_SHOWINT32?SEEKFREE_18TFT
   *DEL*:           00011FH   BYTE   INSEG    CODE           ?PR?LCD_SHOWINT16?SEEKFREE_18TFT
   *DEL*:           000057H   BYTE   INSEG    CODE           ?PR?LCD_CLEAR_SIMSPI?SEEKFREE_18TFT
   *DEL*:           000057H   BYTE   INSEG    CODE           ?PR?LCD_CLEAR?SEEKFREE_18TFT
   *DEL*:           00006AH   BYTE   INSEG    CODE           ?PR?LCD_SHOWSTR_SIMSPI?SEEKFREE_18TFT
   *DEL*:           00006AH   BYTE   INSEG    CODE           ?PR?LCD_SHOWSTR?SEEKFREE_18TFT
   *DEL*:           0001FDH   BYTE   INSEG    CODE           ?PR?LCD_INIT_SIMSPI?SEEKFREE_18TFT
   *DEL*:           0000ECH   BYTE   INSEG    CODE           ?PR?SHOWIMAGE?SEEKFREE_18TFT
   *DEL*:           0001F3H   BYTE   INSEG    CODE           ?PR?LCD_INIT?SEEKFREE_18TFT
   *DEL*:           0000ADH   BYTE   INSEG    CODE           ?PR?LCD_SHOWUINT8_SIMSPI?SEEKFREE_18TFT
   *DEL*:           0000ADH   BYTE   INSEG    CODE           ?PR?LCD_SHOWUINT8?SEEKFREE_18TFT
   *DEL*:           0000F1H   BYTE   INSEG    CODE           ?PR?LCD_SHOWINT8_SIMSPI?SEEKFREE_18TFT
   *DEL*:           0000F1H   BYTE   INSEG    CODE           ?PR?LCD_SHOWINT8?SEEKFREE_18TFT
   *DEL*:           000169H   BYTE   INSEG    CODE           ?PR?LCD_SHOWFLOAT_SIMSPI?SEEKFREE_18TFT
   *DEL*:           000023H   BYTE   INSEG    CODE           ?PR?LCD_DRAWPOINT_SIMSPI?SEEKFREE_18TFT
   *DEL*:           000169H   BYTE   INSEG    CODE           ?PR?LCD_SHOWFLOAT?SEEKFREE_18TFT
   *DEL*:           000023H   BYTE   INSEG    CODE           ?PR?LCD_DRAWPOINT?SEEKFREE_18TFT
   *DEL*:           0000BCH   BYTE   INSEG    CODE           ?PR?LCD_SHOWCHAR_SIMSPI?SEEKFREE_18TFT
   *DEL*:           0000BCH   BYTE   INSEG    CODE           ?PR?LCD_SHOWCHAR?SEEKFREE_18TFT
   *DEL*:           0000D1H   BYTE   INSEG    CODE           ?PR?LCD_SHOWUINT16_SIMSPI?SEEKFREE_18TFT
   *DEL*:           000022H   BYTE   INSEG    CODE           ?PR?BLUETOOTH_CH9141_UART_CALLBACK?SEEKFREE_BLUETOOTH_CH91
                                                             -41
   *DEL*:           000042H   BYTE   INSEG    CODE           ?PR?BLUETOOTH_CH9141_READ_BUFF?SEEKFREE_BLUETOOTH_CH9141
L251 LINKER/LOCATER V4.66.93.0                                                        04/24/2024  12:31:03  PAGE 13


   *DEL*:           0000E0H   BYTE   INSEG    CODE           ?PR?BLUETOOTH_CH9141_SEND_BUFF?SEEKFREE_BLUETOOTH_CH9141
   *DEL*:           00004AH   BYTE   INSEG    CODE           ?PR?BLUETOOTH_CH9141_INIT?SEEKFREE_BLUETOOTH_CH9141
   *DEL*:           00004AH   BYTE   INSEG    CODE           ?PR?DL1A_SET_SIGNAL_RATE_LIMIT?SEEKFREE_DL1A
   *DEL*:           0001ACH   BYTE   INSEG    CODE           ?PR?DL1A_GET_SPAD_INFO?SEEKFREE_DL1A
   *DEL*:           000076H   BYTE   INSEG    CODE           ?PR?DL1A_GET_DISTANCE?SEEKFREE_DL1A
   *DEL*:           0000B5H   BYTE   INSEG    CODE           ?PR?DL1A_PERFORM_SINGLE_REF_CALIBRATION?SEEKFREE_DL1A
   *DEL*:           0000EFH   BYTE   INSEG    CODE           ?PR?DL1A_GET_MEASUREMENT_TIMING_BUDGET?SEEKFREE_DL1A
   *DEL*:           00003BH   BYTE   INSEG    CODE           ?PR?DL1A_SIMIIC_READ_REG?SEEKFREE_DL1A
   *DEL*:           000068H   BYTE   INSEG    CODE           ?PR?DL1A_SIMIIC_READ_REGS_1?SEEKFREE_DL1A
   *DEL*:           0001ACH   BYTE   INSEG    CODE           ?PR?DL1A_SET_MEASUREMENT_TIMING_BUDGET?SEEKFREE_DL1A
   *DEL*:           00002AH   BYTE   INSEG    CODE           ?PR?DL1A_SIMIIC_WRITE_REG?SEEKFREE_DL1A
   *DEL*:           0006F9H   BYTE   INSEG    CODE           ?PR?DL1A_INIT?SEEKFREE_DL1A
   *DEL*:           000079H   BYTE   INSEG    CODE           ?PR?DL1B_IIC_TRANSFER_8BIT_ARRAY?SEEKFREE_DL1B
   *DEL*:           000156H   BYTE   INSEG    CODE           ?PR?DL1B_GET_DISTANCE?SEEKFREE_DL1B
   *DEL*:           000013H   BYTE   INSEG    CODE           ?PR?DL1B_SIMIIC_START?SEEKFREE_DL1B
   *DEL*:           000016H   BYTE   INSEG    CODE           ?PR?DL1B_SIMIIC_STOP?SEEKFREE_DL1B
   *DEL*:           000133H   BYTE   INSEG    CODE           ?PR?DL1B_INIT?SEEKFREE_DL1B
   *DEL*:           00008DH   BYTE   INSEG    CODE           ?PR?ICM20602_GYRO_TRANSITION?SEEKFREE_ICM20602
   *DEL*:           00001AH   BYTE   INSEG    CODE           ?PR?ICM20602_WRITE_REGISTER?SEEKFREE_ICM20602
   *DEL*:           000051H   BYTE   INSEG    CODE           ?PR?ICM20602_SELF_CHECK?SEEKFREE_ICM20602
   *DEL*:           00001BH   BYTE   INSEG    CODE           ?PR?ICM20602_SIMSPI_W_REG_BYTE?SEEKFREE_ICM20602
   *DEL*:           0000C5H   BYTE   INSEG    CODE           ?PR?ICM20602_INIT?SEEKFREE_ICM20602
   *DEL*:           000054H   BYTE   INSEG    CODE           ?PR?ICM20602_GET_ACC?SEEKFREE_ICM20602
   *DEL*:           000089H   BYTE   INSEG    CODE           ?PR?ICM20602_ACC_TRANSITION?SEEKFREE_ICM20602
   *DEL*:           000026H   BYTE   INSEG    CODE           ?PR?ICM20602_READ_REGISTERS?SEEKFREE_ICM20602
   *DEL*:           000054H   BYTE   INSEG    CODE           ?PR?ICM20602_GET_GYRO?SEEKFREE_ICM20602
   *DEL*:           000054H   BYTE   INSEG    CODE           ?PR?IMU660RA_GET_GYRO?SEEKFREE_IMU660RA
   *DEL*:           000022H   BYTE   INSEG    CODE           ?PR?IMU660RA_WRITE_REGISTERS?SEEKFREE_IMU660RA
   *DEL*:           0000A8H   BYTE   INSEG    CODE           ?PR?IMU660RA_GYRO_TRANSITION?SEEKFREE_IMU660RA
   *DEL*:           00001AH   BYTE   INSEG    CODE           ?PR?IMU660RA_WRITE_REGISTER?SEEKFREE_IMU660RA
   *DEL*:           00004EH   BYTE   INSEG    CODE           ?PR?IMU660RA_SELF_CHECK?SEEKFREE_IMU660RA
   *DEL*:           00003EH   BYTE   INSEG    CODE           ?PR?IMU660RA_SIMSPI_W_REG_BYTES?SEEKFREE_IMU660RA
   *DEL*:           00001BH   BYTE   INSEG    CODE           ?PR?IMU660RA_SIMSPI_W_REG_BYTE?SEEKFREE_IMU660RA
   *DEL*:           0000AEH   BYTE   INSEG    CODE           ?PR?IMU660RA_INIT?SEEKFREE_IMU660RA
   *DEL*:           000054H   BYTE   INSEG    CODE           ?PR?IMU660RA_GET_ACC?SEEKFREE_IMU660RA
   *DEL*:           00007CH   BYTE   INSEG    CODE           ?PR?IMU660RA_ACC_TRANSITION?SEEKFREE_IMU660RA
   *DEL*:           000026H   BYTE   INSEG    CODE           ?PR?IMU660RA_READ_REGISTERS?SEEKFREE_IMU660RA
   *DEL*:           00008DH   BYTE   INSEG    CODE           ?PR?IMU963RA_ACC_TRANSITION?SEEKFREE_IMU963RA
   *DEL*:           000054H   BYTE   INSEG    CODE           ?PR?IMU963RA_GET_GYRO?SEEKFREE_IMU963RA
   *DEL*:           000051H   BYTE   INSEG    CODE           ?PR?IMU963RA_MAG_TRANSITION?SEEKFREE_IMU963RA
   *DEL*:           0000D2H   BYTE   INSEG    CODE           ?PR?IMU963RA_GYRO_TRANSITION?SEEKFREE_IMU963RA
   *DEL*:           00003AH   BYTE   INSEG    CODE           ?PR?IMU963RA_CONNECT_MAG?SEEKFREE_IMU963RA
   *DEL*:           000026H   BYTE   INSEG    CODE           ?PR?IMU963RA_READ_ACC_GYRO_REGISTERS?SEEKFREE_IMU963RA
   *DEL*:           000082H   BYTE   INSEG    CODE           ?PR?IMU963RA_WRITE_MAG_REGISTER?SEEKFREE_IMU963RA
   *DEL*:           00004BH   BYTE   INSEG    CODE           ?PR?IMU963RA_SIMSPI_R_REG_BYTES?SEEKFREE_IMU963RA
   *DEL*:           000054H   BYTE   INSEG    CODE           ?PR?IMU963RA_MAG_SELF_CHECK?SEEKFREE_IMU963RA
   *DEL*:           00011DH   BYTE   INSEG    CODE           ?PR?IMU963RA_INIT?SEEKFREE_IMU963RA
   *DEL*:           000051H   BYTE   INSEG    CODE           ?PR?IMU963RA_ACC_GYRO_SELF_CHECK?SEEKFREE_IMU963RA
   *DEL*:           000054H   BYTE   INSEG    CODE           ?PR?IMU963RA_GET_ACC?SEEKFREE_IMU963RA
   *DEL*:           000073H   BYTE   INSEG    CODE           ?PR?IMU963RA_GET_MAG?SEEKFREE_IMU963RA
   *DEL*:           0000ADH   BYTE   INSEG    CODE           ?PR?IPS114_SHOWUINT8_SIMSPI?SEEKFREE_IPS114_SPI
   *DEL*:           0000A9H   BYTE   INSEG    CODE           ?PR?IPS114_SHOWUINT8?SEEKFREE_IPS114_SPI
   *DEL*:           0000F1H   BYTE   INSEG    CODE           ?PR?IPS114_SHOWINT8_SIMSPI?SEEKFREE_IPS114_SPI
   *DEL*:           0000EDH   BYTE   INSEG    CODE           ?PR?IPS114_SHOWINT8?SEEKFREE_IPS114_SPI
   *DEL*:           000169H   BYTE   INSEG    CODE           ?PR?IPS114_SHOWFLOAT_SIMSPI?SEEKFREE_IPS114_SPI
   *DEL*:           000023H   BYTE   INSEG    CODE           ?PR?IPS114_DRAWPOINT_SIMSPI?SEEKFREE_IPS114_SPI
   *DEL*:           000169H   BYTE   INSEG    CODE           ?PR?IPS114_SHOWFLOAT?SEEKFREE_IPS114_SPI
   *DEL*:           000023H   BYTE   INSEG    CODE           ?PR?IPS114_DRAWPOINT?SEEKFREE_IPS114_SPI
   *DEL*:           0000BCH   BYTE   INSEG    CODE           ?PR?IPS114_SHOWCHAR_SIMSPI?SEEKFREE_IPS114_SPI
   *DEL*:           0000BCH   BYTE   INSEG    CODE           ?PR?IPS114_SHOWCHAR?SEEKFREE_IPS114_SPI
   *DEL*:           0000D1H   BYTE   INSEG    CODE           ?PR?IPS114_SHOWUINT16_SIMSPI?SEEKFREE_IPS114_SPI
   *DEL*:           0000D1H   BYTE   INSEG    CODE           ?PR?IPS114_SHOWUINT16?SEEKFREE_IPS114_SPI
   *DEL*:           0000E5H   BYTE   INSEG    CODE           ?PR?IPS114_SHOWINT32_SIMSPI?SEEKFREE_IPS114_SPI
   *DEL*:           00011FH   BYTE   INSEG    CODE           ?PR?IPS114_SHOWINT16_SIMSPI?SEEKFREE_IPS114_SPI
   *DEL*:           0000E5H   BYTE   INSEG    CODE           ?PR?IPS114_SHOWINT32?SEEKFREE_IPS114_SPI
L251 LINKER/LOCATER V4.66.93.0                                                        04/24/2024  12:31:03  PAGE 14


   *DEL*:           00011BH   BYTE   INSEG    CODE           ?PR?IPS114_SHOWINT16?SEEKFREE_IPS114_SPI
   *DEL*:           000064H   BYTE   INSEG    CODE           ?PR?IPS114_CLEAR_SIMSPI?SEEKFREE_IPS114_SPI
   *DEL*:           000064H   BYTE   INSEG    CODE           ?PR?IPS114_CLEAR?SEEKFREE_IPS114_SPI
   *DEL*:           00006AH   BYTE   INSEG    CODE           ?PR?IPS114_SHOWSTR_SIMSPI?SEEKFREE_IPS114_SPI
   *DEL*:           00006AH   BYTE   INSEG    CODE           ?PR?IPS114_SHOWSTR?SEEKFREE_IPS114_SPI
   *DEL*:           00004BH   BYTE   INSEG    CODE           ?PR?IPS114_WRITEDATA_SIMSPI?SEEKFREE_IPS114_SPI
   *DEL*:           000015H   BYTE   INSEG    CODE           ?PR?IPS114_WRITEDATA?SEEKFREE_IPS114_SPI
   *DEL*:           000054H   BYTE   INSEG    CODE           ?PR?IPS114_SET_REGION_SIMSPI?SEEKFREE_IPS114_SPI
   *DEL*:           000154H   BYTE   INSEG    CODE           ?PR?IPS114_INIT_SIMSPI?SEEKFREE_IPS114_SPI
   *DEL*:           000054H   BYTE   INSEG    CODE           ?PR?IPS114_SET_REGION?SEEKFREE_IPS114_SPI
   *DEL*:           000174H   BYTE   INSEG    CODE           ?PR?IPS114_INIT?SEEKFREE_IPS114_SPI
   *DEL*:           00006CH   BYTE   INSEG    CODE           ?PR?MPU6050_SIMIIC_READ_REGS?SEEKFREE_MPU6050
   *DEL*:           00003BH   BYTE   INSEG    CODE           ?PR?MPU6050_SIMIIC_READ_REG?SEEKFREE_MPU6050
   *DEL*:           00002AH   BYTE   INSEG    CODE           ?PR?MPU6050_SIMIIC_WRITE_REG?SEEKFREE_MPU6050
   *DEL*:           000060H   BYTE   INSEG    CODE           ?PR?MPU6050_INIT?SEEKFREE_MPU6050
   *DEL*:           000033H   BYTE   INSEG    CODE           ?PR?MPU6050_SELF1_CHECK?SEEKFREE_MPU6050
   *DEL*:           000065H   BYTE   INSEG    CODE           ?PR?MPU6050_READ_CH?SEEKFREE_MPU6050
   *DEL*:           000048H   BYTE   INSEG    CODE           ?PR?MPU6050_SEND_CH?SEEKFREE_MPU6050
   *DEL*:           000056H   BYTE   INSEG    CODE           ?PR?MPU6050_GET_GYRO?SEEKFREE_MPU6050
   *DEL*:           000021H   BYTE   INSEG    CODE           ?PR?MPU6050_SCCB_WAITACK?SEEKFREE_MPU6050
   *DEL*:           000056H   BYTE   INSEG    CODE           ?PR?MPU6050_GET_ACCDATA?SEEKFREE_MPU6050
   *DEL*:           000047H   BYTE   INSEG    CODE           ?PR?OLED_PUTPIXEL?SEEKFREE_OLED
   *DEL*:           000074H   BYTE   INSEG    CODE           ?PR?OLED_HEXASCII_SPI?SEEKFREE_OLED
   *DEL*:           000474H   BYTE   INSEG    CODE           ?PR?OLED_DIS_BMP_SPI?SEEKFREE_OLED
   *DEL*:           000145H   BYTE   INSEG    CODE           ?PR?OLED_PRINTF_FLOAT?SEEKFREE_OLED
   *DEL*:           000123H   BYTE   INSEG    CODE           ?PR?OLED_P8X16STR_SPI?SEEKFREE_OLED
   *DEL*:           000041H   BYTE   INSEG    CODE           ?PR?OLED_CLRPIXEL_SPI?SEEKFREE_OLED
   *DEL*:           0000C0H   BYTE   INSEG    CODE           ?PR?OLED_PRINT_CHINESE_SPI?SEEKFREE_OLED
   *DEL*:           00005FH   BYTE   INSEG    CODE           ?PR?OLED_FILL?SEEKFREE_OLED
   *DEL*:           0000CEH   BYTE   INSEG    CODE           ?PR?OLED_PRINTF_INT32?SEEKFREE_OLED
   *DEL*:           000027H   BYTE   INSEG    CODE           ?PR?OLED_UINT16?SEEKFREE_OLED
   *DEL*:           000048H   BYTE   INSEG    CODE           ?PR?OLED_PUTPIXEL_SPI?SEEKFREE_OLED
   *DEL*:           0000D2H   BYTE   INSEG    CODE           ?PR?OLED_P6X8STR?SEEKFREE_OLED
   *DEL*:           000073H   BYTE   INSEG    CODE           ?PR?OLED_INT16?SEEKFREE_OLED
   *DEL*:           0000A8H   BYTE   INSEG    CODE           ?PR?OLED_INIT?SEEKFREE_OLED
   *DEL*:           000074H   BYTE   INSEG    CODE           ?PR?OLED_HEXASCII?SEEKFREE_OLED
   *DEL*:           0000CEH   BYTE   INSEG    CODE           ?PR?OLED_PRINTF_INT32_SPI?SEEKFREE_OLED
   *DEL*:           000027H   BYTE   INSEG    CODE           ?PR?OLED_UINT16_SPI?SEEKFREE_OLED
   *DEL*:           000073H   BYTE   INSEG    CODE           ?PR?OLED_INT16_SPI?SEEKFREE_OLED
   *DEL*:           000481H   BYTE   INSEG    CODE           ?PR?OLED_DIS_BMP?SEEKFREE_OLED
   *DEL*:           000123H   BYTE   INSEG    CODE           ?PR?OLED_P8X16STR?SEEKFREE_OLED
   *DEL*:           000040H   BYTE   INSEG    CODE           ?PR?OLED_CLRPIXEL?SEEKFREE_OLED
   *DEL*:           0000C0H   BYTE   INSEG    CODE           ?PR?OLED_PRINT_CHINESE?SEEKFREE_OLED
   *DEL*:           00008AH   BYTE   INSEG    CODE           ?PR?CCD_SEND_DATA?SEEKFREE_TSL1401
   *DEL*:           000022H   BYTE   INSEG    CODE           ?PR?CCD_INIT?SEEKFREE_TSL1401
   *DEL*:           000088H   BYTE   INSEG    CODE           ?PR?CCD_COLLECT?SEEKFREE_TSL1401
   *DEL*:           00009AH   BYTE   INSEG    CODE           ?PR?CRC_CHECK?SEEKFREE_VIRSCO
   *DEL*:           0000DCH   BYTE   INSEG    CODE           ?PR?DATA_CONVERSION?SEEKFREE_VIRSCO
   *DEL*:           000042H   BYTE   INSEG    CODE           ?PR?WIRELESS_UART_READ_BUFF?SEEKFREE_WIRELESS
   *DEL*:           000075H   BYTE   INSEG    CODE           ?PR?WIRELESS_UART_SEND_BUFF?SEEKFREE_WIRELESS
   *DEL*:           000022H   BYTE   INSEG    CODE           ?PR?WIRELESS_UART_CALLBACK?SEEKFREE_WIRELESS
   *DEL*:           00004CH   BYTE   INSEG    CODE           ?PR?WIRELESS_UART_INIT?SEEKFREE_WIRELESS
   *DEL*:           000042H   BYTE   INSEG    CODE           ?PR?WIRELESS_CH573_READ_BUFF?SEEKFREE_WIRELESS_CH573
   *DEL*:           00007DH   BYTE   INSEG    CODE           ?PR?WIRELESS_CH573_SEND_BUFF?SEEKFREE_WIRELESS_CH573
   *DEL*:           000022H   BYTE   INSEG    CODE           ?PR?WIRELESS_CH573_CALLBACK?SEEKFREE_WIRELESS_CH573
   *DEL*:           00004CH   BYTE   INSEG    CODE           ?PR?WIRELESS_CH573_INIT?SEEKFREE_WIRELESS_CH573
   *DEL*:           000001H   BYTE   INSEG    CODE           ?PR?LASER_RANGING_UART_INIT?MAIN
   *DEL*:           000012H   BYTE   INSEG    CODE           ?PR?SERVO_MECH_ARM_PWM_INIT?MAIN
   *DEL*:           000012H   BYTE   INSEG    CODE           ?PR?SERVO_CHASSIS_PWM_INIT?MAIN
   *DEL*:           000012H   BYTE   INSEG    CODE           ?PR?STEPPER_PWM_INIT?MAIN
   *DEL*:           00004DH   BYTE   INSEG    CODE           ?PR?UART_SENDBYTE?UART
   *DEL*:           000121H   BYTE   INSEG    CODE           ?PR?UART_RUNNING?UART
   *DEL*:           00003BH   BYTE   INSEG    CODE           ?PR?UART_INITIALIZE?UART
   *DEL*:           000007H   BYTE   INSEG    CODE           ?PR?UART_PORT_INIT?UART
   *DEL*:           000010H   BYTE   INSEG    CODE           ?PR?KEYS_UI_INIT?KEY
L251 LINKER/LOCATER V4.66.93.0                                                        04/24/2024  12:31:03  PAGE 15


   *DEL*:           000023H   BYTE   INSEG    CODE           ?PR?LASER_RANGING?LASER_RANGING
   *DEL*:           00026DH   BYTE   INSEG    CODE           ?PR?LASER_RANGING_IRQHANDLER?LASER_RANGING
   *DEL*:           000037H   BYTE   INSEG    CODE           ?PR?LASER_RANGING_INIT?LASER_RANGING
   *DEL*:           0000EFH   BYTE   INSEG    CODE           ?PR?WHEEL_SPEED?MOTOR_DRIVER_BOARDS
   *DEL*:           000025H   BYTE   INSEG    CODE           ?PR?UI_RUNNING_INIT_TIMER?UI
   *DEL*:           0003F2H   BYTE   INSEG    CODE           ?PR?SEEKFREE_ASSISTANT_CAMERA_BOUNDARY_CONFIG?SEEKFREE_ASS
                                                             -ISTANT
   *DEL*:           000101H   BYTE   INSEG    CODE           ?PR?SEEKFREE_ASSISTANT_CAMERA_DOT_SEND?SEEKFREE_ASSISTANT
   *DEL*:           000138H   BYTE   INSEG    CODE           ?PR?SEEKFREE_ASSISTANT_OSCILLOSCOPE_SEND?SEEKFREE_ASSISTAN
                                                             -T
   *DEL*:           000022H   BYTE   INSEG    CODE           ?PR?SEEKFREE_ASSISTANT_INIT?SEEKFREE_ASSISTANT
   *DEL*:           00003FH   BYTE   INSEG    CODE           ?PR?SEEKFREE_ASSISTANT_SUM?SEEKFREE_ASSISTANT
   *DEL*:           00003FH   BYTE   INSEG    CODE           ?PR?SEEKFREE_ASSISTANT_CAMERA_INFORMATION_CONFIG?SEEKFREE_
                                                             -ASSISTANT
   *DEL*:           0001B8H   BYTE   INSEG    CODE           ?PR?SEEKFREE_ASSISTANT_DATA_ANALYSIS?SEEKFREE_ASSISTANT
   *DEL*:           000101H   BYTE   INSEG    CODE           ?PR?SEEKFREE_ASSISTANT_CAMERA_DATA_SEND?SEEKFREE_ASSISTANT
   *DEL*:           000034H   BYTE   INSEG    CODE           ?PR?SEEKFREE_ASSISTANT_CAMERA_SEND?SEEKFREE_ASSISTANT
   *DEL*:           000028H   BYTE   UNIT     EDATA          ?ED?PRINTF
   *DEL*:           000014H   BYTE   INSEG    CODE           ?PR?ISSPACE?_?ISSPACE
   *DEL*:           00001AH   BYTE   INSEG    CODE           ?PR?MEMSET?_?MEMSET



OVERLAY MAP OF MODULE:   .\Out_File\SEEKFREE (board)


FUNCTION/MODULE                                BIT_GROUP   DATA_GROUP 
--> CALLED FUNCTION/MODULE                    START  STOP  START  STOP
======================================================================
uart1_isr/uart                                ----- -----  ----- -----
  +--> host_comm_irqhandler/host_comm

host_comm_irqhandler/host_comm                ----- -----  ----- -----
  +--> oled_p6x8str_spi/SEEKFREE_OLED

oled_p6x8str_spi/SEEKFREE_OLED                ----- -----  ----- -----
  +--> oled_set_pos_spi/SEEKFREE_OLED
  +--> oled_wrdat_spi/SEEKFREE_OLED

oled_set_pos_spi/SEEKFREE_OLED                ----- -----  ----- -----
  +--> oled_wrcmd_spi/SEEKFREE_OLED

oled_wrcmd_spi/SEEKFREE_OLED                  ----- -----  ----- -----
  +--> spi_mosi/zf_spi

spi_mosi/zf_spi                               ----- -----  ----- -----

oled_wrdat_spi/SEEKFREE_OLED                  ----- -----  ----- -----
  +--> spi_mosi/zf_spi

*** NEW ROOT ********************************

uart2_isr/uart                                ----- -----  ----- -----

*** NEW ROOT ********************************

uart3_isr/uart                                ----- -----  ----- -----
  +--> qmc5883_irqhandler/qmc5883

qmc5883_irqhandler/qmc5883                    ----- -----  ----- -----
  +--> memcpy?_/memcpy
  +--> qmc5883_data_parse/qmc5883
  +--> oled_printf_float_spi/SEEKFREE_OLED

memcpy?_/memcpy                               ----- -----  ----- -----
L251 LINKER/LOCATER V4.66.93.0                                                        04/24/2024  12:31:03  PAGE 16



qmc5883_data_parse/qmc5883                    ----- -----  ----- -----
  +--> atoi/qmc5883
  +--> atof/qmc5883

atoi/qmc5883                                  ----- -----  ----- -----

atof/qmc5883                                  ----- -----  ----- -----

oled_printf_float_spi/SEEKFREE_OLED           ----- -----  ----- -----
  +--> zf_sprintf/SEEKFREE_PRINTF
  +--> oled_p6x8str_spi/SEEKFREE_OLED

zf_sprintf/SEEKFREE_PRINTF                    ----- -----  ----- -----
  +--> number_conversion_ascii/SEEKFREE_PRINTF
  +--> printf_reverse_order/SEEKFREE_PRINTF
  +--> memcpy?_/memcpy

number_conversion_ascii/SEEKFREE_PRINTF       ----- -----  ----- -----
  +--> ?C?SLDIV/?C?SLDIV
  +--> ?C?ULIDIV/?C?ULDIV

?C?SLDIV/?C?SLDIV                             ----- -----  ----- -----
  +--> ?C?ULIDIV/?C?ULDIV

?C?ULIDIV/?C?ULDIV                            ----- -----  ----- -----

printf_reverse_order/SEEKFREE_PRINTF          ----- -----  ----- -----

*** NEW ROOT ********************************

uart4_isr/uart                                ----- -----  ----- -----

*** NEW ROOT ********************************

?C_C51STARTUP?1                               ----- -----  ----- -----

*** NEW ROOT ********************************

ui_running_timer_isr/ui                       ----- -----  ----- -----
  +--> ui_running/ui

ui_running/ui                                 ----- -----  ----- -----
  +--> oled_p6x8str_spi/SEEKFREE_OLED

*** NEW ROOT ********************************

?C_C51STARTUP                                 ----- -----  ----- -----

*** NEW ROOT ********************************

?C_C51STARTUP?3                               ----- -----  ----- -----
  +--> main/main

main/main                                     ----- -----  ----- -----
  +--> board_init/board
  +--> motor_drivers_pwm_init/main
  +--> gpio_init/main
  +--> oled_init_spi/SEEKFREE_OLED
  +--> ui_init/ui
  +--> qmc5883_init/main
  +--> oled_p6x8str_spi/SEEKFREE_OLED
  +--> pwm_init/zf_pwm
  +--> gpio_mode/zf_gpio
  +--> host_comm_uart_init/host_comm
L251 LINKER/LOCATER V4.66.93.0                                                        04/24/2024  12:31:03  PAGE 17


  +--> key1_check/key
  +--> key2_check/key
  +--> key3_check/key
  +--> key4_check/key
  +--> host_comm_sender/host_comm

board_init/board                              ----- -----  ----- -----
  +--> set_clk/board
  +--> delay_init/zf_delay
  +--> uart_init/zf_uart
  +--> EnableGlobalIRQ/board

set_clk/board                                 ----- -----  ----- -----

delay_init/zf_delay                           ----- -----  ----- -----
  +--> ?C?SLDIV/?C?SLDIV

uart_init/zf_uart                             ----- -----  ----- -----
  +--> ?C?ULIDIV/?C?ULDIV

EnableGlobalIRQ/board                         ----- -----  ----- -----

motor_drivers_pwm_init/main                   ----- -----  ----- -----
  +--> pwm_init/zf_pwm
  +--> wheel_adjust/motor_driver_boards

pwm_init/zf_pwm                               ----- -----  ----- -----
  +--> pwm_set_gpio/zf_pwm
  +--> ?C?ULIDIV/?C?ULDIV

pwm_set_gpio/zf_pwm                           ----- -----  ----- -----
  +--> gpio_mode/zf_gpio

gpio_mode/zf_gpio                             ----- -----  ----- -----

wheel_adjust/motor_driver_boards              ----- -----  ----- -----
  +--> wheel_direction/motor_driver_boards
  +--> pwm_duty/zf_pwm

wheel_direction/motor_driver_boards           ----- -----  ----- -----

pwm_duty/zf_pwm                               ----- -----  ----- -----

gpio_init/main                                ----- -----  ----- -----

oled_init_spi/SEEKFREE_OLED                   ----- -----  ----- -----
  +--> spi_init/zf_spi
  +--> delay_ms/zf_delay
  +--> oled_wrcmd_spi/SEEKFREE_OLED
  +--> oled_fill_spi/SEEKFREE_OLED
  +--> oled_set_pos_spi/SEEKFREE_OLED

spi_init/zf_spi                               ----- -----  ----- -----
  +--> gpio_mode/zf_gpio

delay_ms/zf_delay                             ----- -----  ----- -----

oled_fill_spi/SEEKFREE_OLED                   ----- -----  ----- -----
  +--> oled_wrcmd_spi/SEEKFREE_OLED
  +--> oled_wrdat_spi/SEEKFREE_OLED

ui_init/ui                                    ----- -----  ----- -----
  +--> oled_p6x8str_spi/SEEKFREE_OLED
  +--> ui_keys_init/ui

L251 LINKER/LOCATER V4.66.93.0                                                        04/24/2024  12:31:03  PAGE 18


ui_keys_init/ui                               ----- -----  ----- -----
  +--> oled_p6x8str_spi/SEEKFREE_OLED

qmc5883_init/main                             ----- -----  ----- -----
  +--> uart_init/zf_uart
  +--> delay_ms/zf_delay
  +--> uart_sendstring/uart

uart_sendstring/uart                          ----- -----  ----- -----

host_comm_uart_init/host_comm                 ----- -----  ----- -----

key1_check/key                                ----- -----  ----- -----
  +--> oled_p6x8str_spi/SEEKFREE_OLED
  +--> key1_short_press/key

key1_short_press/key                          ----- -----  ----- -----
  +--> wheel_adjust/motor_driver_boards

key2_check/key                                ----- -----  ----- -----
  +--> oled_p6x8str_spi/SEEKFREE_OLED
  +--> key2_short_press/key

key2_short_press/key                          ----- -----  ----- -----
  +--> wheel_adjust/motor_driver_boards

key3_check/key                                ----- -----  ----- -----
  +--> oled_p6x8str_spi/SEEKFREE_OLED
  +--> key3_short_press/key

key3_short_press/key                          ----- -----  ----- -----
  +--> wheel_adjust/motor_driver_boards

key4_check/key                                ----- -----  ----- -----
  +--> oled_p6x8str_spi/SEEKFREE_OLED
  +--> key4_short_press/key

key4_short_press/key                          ----- -----  ----- -----
  +--> wheel_adjust/motor_driver_boards

host_comm_sender/host_comm                    ----- -----  ----- -----
  +--> uart_sendstring/uart

*** NEW ROOT ********************************

?C_C51STARTUP?2                               ----- -----  ----- -----



PUBLIC SYMBOLS OF MODULE:  .\Out_File\SEEKFREE (board)


      VALUE       CLASS    TYPE      PUBLIC SYMBOL NAME
      =================================================
      00FF3187H   CODE     NEAR LAB  ?C?CASTF
      000000FFH   NUMBER   ---       ?C?CODESEG
      00FF3154H   CODE     NEAR LAB  ?C?FCASTC
      00FF314FH   CODE     NEAR LAB  ?C?FCASTI
      00FF314AH   CODE     NEAR LAB  ?C?FCASTL
      00FF2F2BH   CODE     ---       ?C?FPADD
      00FF3260H   CODE     NEAR LAB  ?C?FPATOF
      00FF3106H   CODE     ---       ?C?FPCMP
      00FF3104H   CODE     ---       ?C?FPCMP3
      00FF37DBH   CODE     ---       ?C?FPCONVERT
      00FF3083H   CODE     ---       ?C?FPDIV
L251 LINKER/LOCATER V4.66.93.0                                                        04/24/2024  12:31:03  PAGE 19


      00FF320FH   CODE     ---       ?C?FPGETOPN2
      00FF2FE3H   CODE     ---       ?C?FPMUL
      00FF324CH   CODE     ---       ?C?FPNANRESULT
      00FF3758H   CODE     ---       ?C?FPNEG
      00FF3254H   CODE     ---       ?C?FPOVERFLOW
      00FF3228H   CODE     ---       ?C?FPRESULT
      00FF323EH   CODE     ---       ?C?FPRESULT2
      00FF3893H   CODE     ---       ?C?FPROUND
      00FF2F28H   CODE     ---       ?C?FPSUB
      00FF3251H   CODE     ---       ?C?FPUNDERFLOW
      00FF3796H   CODE     ---       ?C?FTNPWR
      00FF6BC9H   CODE     ---       ?C?INITEDATA
      00FF81FFH   HCONST   WORD      ?C?INITEDATA_END
      00FF6BF2H   CODE     ---       ?C?INITHDATA
      00FF830AH   HCONST   WORD      ?C?INITHDATA_END
      00FF3919H   CODE     ---       ?C?LIMUL
      00FF3908H   CODE     ---       ?C?LMUL
      00FF3349H   CODE     ---       ?C?PRNFMT
      00FF38D6H   CODE     ---       ?C?SIDIV
      00FF3975H   CODE     NEAR LAB  ?C?SLDIV
      00FF0000H   CODE     ---       ?C?STARTUP
      00FF3924H   CODE     NEAR LAB  ?C?ULDIV
      00FF3922H   CODE     NEAR LAB  ?C?ULIDIV
      00000001H   NUMBER   ---       ?C?XDATASEG
      00FF0000H   CODE     ---       ?C_STARTUP
      000006E0H   EDATA    BYTE      ?data_conversion?BYTE
      00000669H   EDATA    BYTE      ?dl1b_iic_transfer_8bit_array?BYTE
      00000659H   EDATA    BYTE      ?fifo_init?BYTE
      00000008H   EDATA    BYTE      ?fifo_read_buffer?BYTE
      00000708H   EDATA    BYTE      ?fifo_read_element?BYTE
      000005CBH   EDATA    BYTE      ?fifo_read_tail_buffer?BYTE
      00000635H   EDATA    BYTE      ?fifo_write_buffer?BYTE
      000007A0H   EDATA    BYTE      ?iap_read_bytes?BYTE
      000007AAH   EDATA    BYTE      ?iap_write_bytes?BYTE
      00000971H   EDATA    BYTE      ?iic_init?BYTE
      0000075CH   EDATA    BYTE      ?ips114_showfloat?BYTE
      00000750H   EDATA    BYTE      ?ips114_showfloat_simspi?BYTE
      00000720H   EDATA    BYTE      ?lcd_showfloat?BYTE
      00000714H   EDATA    BYTE      ?lcd_showfloat_simspi?BYTE
      00000621H   EDATA    BYTE      ?number_conversion_ascii?BYTE
      00000490H   EDATA    BYTE      ?oled_printf_float?BYTE
      000004C0H   EDATA    BYTE      ?oled_printf_float_spi?BYTE
*DEL*:00000028H   EDATA    ---       ?printf?BYTE
      0000060DH   EDATA    BYTE      ?pwm_freq?BYTE
      000005F9H   EDATA    BYTE      ?pwm_init?BYTE
      00000591H   EDATA    BYTE      ?seekfree_assistant_camera_boundary_config?BYTE
      00000699H   EDATA    BYTE      ?seekfree_assistant_camera_data_send?BYTE
      000007FAH   EDATA    BYTE      ?seekfree_assistant_camera_information_config?BYTE
      000006EEH   EDATA    BYTE      ?spi_init?BYTE
      000006B6H   EDATA    BYTE      ?uart_init?BYTE
      000007B4H   EDATA    BYTE      ?uart_putbuff?BYTE
      000003BDH   EDATA    BYTE      ?zf_sprintf?BYTE
*SFR* 000000BCH   DATA     BYTE      ADC_CONTR
*DEL*:00000000H   CODE     ---       adc_init
*DEL*:00000000H   CODE     ---       adc_once
*SFR* 000000BDH   DATA     BYTE      ADC_RES
*SFR* 000000BEH   DATA     BYTE      ADC_RESL
*SFR* 000000DEH   DATA     BYTE      ADCCFG
      00FF5A81H   CODE     ---       atof
      00FF31F0H   CODE     NEAR LAB  atof?_
      00FF6498H   CODE     ---       atoi
*SFR* 000000EFH   DATA     BYTE      AUXINTIF
*SFR* 0000008EH   DATA     BYTE      AUXR
*SFR* 00000097H   DATA     BYTE      AUXR2
*DEL*:00000000H   CODE     ---       bluetooth_ch9141_init
L251 LINKER/LOCATER V4.66.93.0                                                        04/24/2024  12:31:03  PAGE 20


*DEL*:00000000H   CODE     ---       bluetooth_ch9141_read_buff
*DEL*:00000000H   CODE     ---       bluetooth_ch9141_send_buff
*DEL*:00000000H   CODE     ---       bluetooth_ch9141_uart_callback
      00FF6A02H   CODE     ---       board_init
      00000A29H   EDATA    ---       busy
*SFR* 000000F1H   DATA     BYTE      CANICR
*DEL*:00000000H   CODE     ---       ccd_collect
      00010001H   XDATA    ---       ccd_data_ch1
      00010101H   XDATA    ---       ccd_data_ch2
*DEL*:00000000H   CODE     ---       ccd_init
*DEL*:00000000H   CODE     ---       ccd_send_data
*SFR* 000000EAH   DATA     BYTE      CKCON
*SFR* 000000E6H   DATA     BYTE      CMPCR1
*SFR* 000000E7H   DATA     BYTE      CMPCR2
*DEL*:00000000H   CODE     ---       CRC_CHECK
*DEL*:00000000H   CODE     ---       ctimer_count_clean
*DEL*:00000000H   CODE     ---       ctimer_count_init
*DEL*:00000000H   CODE     ---       ctimer_count_read
*DEL*:00000000H   CODE     ---       data_conversion
      00FF7948H   CODE     ---       delay_init
      00FF7A3FH   CODE     ---       delay_ms
*DEL*:00000000H   CODE     ---       delay_us
*DEL*:00000000H   CODE     ---       DisableGlobalIRQ
      00000ACCH   EDATA    WORD      dl1a_distance_mm
      00000ACEH   EDATA    BYTE      dl1a_finsh_flag
*DEL*:00000000H   CODE     ---       dl1a_get_distance
*DEL*:00000000H   CODE     ---       dl1a_init
      00FF0096H   CODE     ---       dl1b_default_configuration
      00000A9FH   EDATA    WORD      dl1b_distance_mm
      00000AA1H   EDATA    BYTE      dl1b_finsh_flag
*DEL*:00000000H   CODE     ---       dl1b_get_distance
*DEL*:00000000H   CODE     ---       dl1b_iic_transfer_8bit_array
*DEL*:00000000H   CODE     ---       dl1b_init
      00000AA2H   EDATA    BYTE      dl1b_init_flag
*SFR* 000000A8H.7 DATA     BIT       EA
*SFR* 000000BAH.7 DATA     BIT       EAXFR
*DEL*:00000000H   CODE     ---       eeprom_trig
      00FF0003H   CODE     ---       EnableGlobalIRQ
*SFR* 000000A8H.4 DATA     BIT       ES
*SFR* 000000A8H.1 DATA     BIT       ET0
*SFR* 000000A8H.3 DATA     BIT       ET1
*SFR* 000000A8H.0 DATA     BIT       EX0
*SFR* 000000A8H.2 DATA     BIT       EX1
*DEL*:00000000H   CODE     ---       exit_init
*SFR* 000000D0H.5 DATA     BIT       F0
*DEL*:00000000H   CODE     ---       fifo_clear
*DEL*:00000000H   CODE     ---       fifo_init
*DEL*:00000000H   CODE     ---       fifo_read_buffer
*DEL*:00000000H   CODE     ---       fifo_read_element
*DEL*:00000000H   CODE     ---       fifo_read_tail_buffer
*DEL*:00000000H   CODE     ---       fifo_used
*DEL*:00000000H   CODE     ---       fifo_write_buffer
*DEL*:00000000H   CODE     ---       fifo_write_element
      00FF0026H   CODE     ---       gpio_init
      00FF39A9H   CODE     ---       gpio_mode
*DEL*:00000000H   CODE     ---       gpio_pull_set
*SFR* 000000E8H.2 DATA     BIT       gpio_wheel_x_front_backward
*SFR* 000000E8H.1 DATA     BIT       gpio_wheel_x_front_forward
*SFR* 000000E8H.5 DATA     BIT       gpio_wheel_x_rear_backward
*SFR* 000000E8H.4 DATA     BIT       gpio_wheel_x_rear_forward
*SFR* 00000090H.1 DATA     BIT       gpio_wheel_y_front_backward
*SFR* 00000090H.0 DATA     BIT       gpio_wheel_y_front_forward
*SFR* 00000090H.5 DATA     BIT       gpio_wheel_y_rear_backward
*SFR* 00000090H.6 DATA     BIT       gpio_wheel_y_rear_forward
      00FF6282H   CODE     ---       host_comm_irqhandler
L251 LINKER/LOCATER V4.66.93.0                                                        04/24/2024  12:31:03  PAGE 21


      00FF7CB7H   CODE     ---       host_comm_sender
      00FF7E0EH   CODE     ---       host_comm_uart_init
*SFR* 000000F6H   DATA     BYTE      IAP_ADDRE
*SFR* 000000C3H   DATA     BYTE      IAP_ADDRH
*SFR* 000000C4H   DATA     BYTE      IAP_ADDRL
*SFR* 000000C5H   DATA     BYTE      IAP_CMD
*SFR* 000000C7H   DATA     BYTE      IAP_CONTR
*SFR* 000000C2H   DATA     BYTE      IAP_DATA
*DEL*:00000000H   CODE     ---       iap_erase_page
*DEL*:00000000H   CODE     ---       iap_get_cmd_state
*DEL*:00000000H   CODE     ---       iap_idle
*DEL*:00000000H   CODE     ---       iap_init
*DEL*:00000000H   CODE     ---       iap_read_bytes
*DEL*:00000000H   CODE     ---       iap_set_tps
*SFR* 000000F5H   DATA     BYTE      IAP_TPS
*SFR* 000000C6H   DATA     BYTE      IAP_TRIG
*DEL*:00000000H   CODE     ---       iap_write_bytes
*DEL*:00000000H   CODE     ---       icm20602_acc_transition
      00000738H   EDATA    INT       icm20602_acc_x
      0000073AH   EDATA    INT       icm20602_acc_y
      0000073CH   EDATA    INT       icm20602_acc_z
*DEL*:00000000H   CODE     ---       icm20602_get_acc
*DEL*:00000000H   CODE     ---       icm20602_get_gyro
*DEL*:00000000H   CODE     ---       icm20602_gyro_transition
      0000073EH   EDATA    INT       icm20602_gyro_x
      00000740H   EDATA    INT       icm20602_gyro_y
      00000742H   EDATA    INT       icm20602_gyro_z
*DEL*:00000000H   CODE     ---       icm20602_init
*SFR* 000000A8H   DATA     BYTE      IE
*SFR* 000000AFH   DATA     BYTE      IE2
*DEL*:00000000H   CODE     ---       iic_change_pin
      00FF7A74H   CODE     ---       iic_delay_us
*DEL*:00000000H   CODE     ---       iic_init
*DEL*:00000000H   CODE     ---       iic_read_reg
*DEL*:00000000H   CODE     ---       iic_read_reg_bytes
*DEL*:00000000H   CODE     ---       iic_write_reg
*DEL*:00000000H   CODE     ---       imu660ra_acc_transition
      00000744H   EDATA    INT       imu660ra_acc_x
      00000746H   EDATA    INT       imu660ra_acc_y
      00000748H   EDATA    INT       imu660ra_acc_z
      00FF011DH   CODE     ---       imu660ra_config_file
*DEL*:00000000H   CODE     ---       imu660ra_get_acc
*DEL*:00000000H   CODE     ---       imu660ra_get_gyro
*DEL*:00000000H   CODE     ---       imu660ra_gyro_transition
      0000074AH   EDATA    INT       imu660ra_gyro_x
      0000074CH   EDATA    INT       imu660ra_gyro_y
      0000074EH   EDATA    INT       imu660ra_gyro_z
*DEL*:00000000H   CODE     ---       imu660ra_init
*DEL*:00000000H   CODE     ---       imu963ra_acc_transition
      00000647H   EDATA    INT       imu963ra_acc_x
      00000649H   EDATA    INT       imu963ra_acc_y
      0000064BH   EDATA    INT       imu963ra_acc_z
*DEL*:00000000H   CODE     ---       imu963ra_get_acc
*DEL*:00000000H   CODE     ---       imu963ra_get_gyro
*DEL*:00000000H   CODE     ---       imu963ra_get_mag
*DEL*:00000000H   CODE     ---       imu963ra_gyro_transition
      00000653H   EDATA    INT       imu963ra_gyro_x
      00000655H   EDATA    INT       imu963ra_gyro_y
      00000657H   EDATA    INT       imu963ra_gyro_z
*DEL*:00000000H   CODE     ---       imu963ra_init
*DEL*:00000000H   CODE     ---       imu963ra_mag_transition
      0000064DH   EDATA    INT       imu963ra_mag_x
      0000064FH   EDATA    INT       imu963ra_mag_y
      00000651H   EDATA    INT       imu963ra_mag_z
*SFR* 0000008FH   DATA     BYTE      INTCLKO
L251 LINKER/LOCATER V4.66.93.0                                                        04/24/2024  12:31:03  PAGE 22


*SFR* 000000B8H   DATA     BYTE      IP
*SFR* 000000B5H   DATA     BYTE      IP2
*SFR* 000000B6H   DATA     BYTE      IP2H
*SFR* 000000DFH   DATA     BYTE      IP3
*SFR* 000000EEH   DATA     BYTE      IP3H
*SFR* 000000B7H   DATA     BYTE      IPH
*DEL*:00000000H   CODE     ---       ips114_clear
*DEL*:00000000H   CODE     ---       ips114_clear_simspi
*DEL*:00000000H   CODE     ---       ips114_drawpoint
*DEL*:00000000H   CODE     ---       ips114_drawpoint_simspi
*DEL*:00000000H   CODE     ---       ips114_init
*DEL*:00000000H   CODE     ---       ips114_init_simspi
*DEL*:00000000H   CODE     ---       ips114_set_region
*DEL*:00000000H   CODE     ---       ips114_set_region_simspi
*DEL*:00000000H   CODE     ---       ips114_showchar
*DEL*:00000000H   CODE     ---       ips114_showchar_simspi
*DEL*:00000000H   CODE     ---       ips114_showfloat
*DEL*:00000000H   CODE     ---       ips114_showfloat_simspi
*DEL*:00000000H   CODE     ---       ips114_showint16
*DEL*:00000000H   CODE     ---       ips114_showint16_simspi
*DEL*:00000000H   CODE     ---       ips114_showint32
*DEL*:00000000H   CODE     ---       ips114_showint32_simspi
*DEL*:00000000H   CODE     ---       ips114_showint8
*DEL*:00000000H   CODE     ---       ips114_showint8_simspi
*DEL*:00000000H   CODE     ---       ips114_showstr
*DEL*:00000000H   CODE     ---       ips114_showstr_simspi
*DEL*:00000000H   CODE     ---       ips114_showuint16
*DEL*:00000000H   CODE     ---       ips114_showuint16_simspi
*DEL*:00000000H   CODE     ---       ips114_showuint8
*DEL*:00000000H   CODE     ---       ips114_showuint8_simspi
*DEL*:00000000H   CODE     ---       ips114_writeData
      00FF7B9BH   CODE     ---       ips114_writedata_16bit
*DEL*:00000000H   CODE     ---       ips114_writeData_simspi
      00FF750FH   CODE     ---       ips114_writeDatai_16bit_simspi
      00FF7EC2H   CODE     ---       ips114_writeIndex
      00FF778EH   CODE     ---       ips114_writeIndex_simspi
*SFR* 0000009DH   DATA     BYTE      IRCBAND
*SFR* 0000009FH   DATA     BYTE      IRTRIM
*DEL*:00000000H   CODE     ---       ISSPACE?_
*SFR* 00000088H.0 DATA     BIT       IT0
*SFR* 00000088H.2 DATA     BIT       IT1
*SFR* 000000C0H.5 DATA     BIT       key1
      00FF765CH   CODE     ---       key1_check
      00FF7E4BH   CODE     ---       key1_short_press
      00000AABH   EDATA    BYTE      key1_up_store
*SFR* 000000C0H.2 DATA     BIT       key2
      00FF7563H   CODE     ---       key2_check
      00FF7F5BH   CODE     ---       key2_short_press
      00000AACH   EDATA    BYTE      key2_up_store
*SFR* 000000C0H.1 DATA     BIT       key3
      00FF75B6H   CODE     ---       key3_check
      00FF7F67H   CODE     ---       key3_short_press
      00000AADH   EDATA    BYTE      key3_up_store
*SFR* 000000C0H.0 DATA     BIT       key4
      00FF7609H   CODE     ---       key4_check
      00FF7F73H   CODE     ---       key4_short_press
      00000AAEH   EDATA    BYTE      key4_up_store
*DEL*:00000000H   CODE     ---       keys_ui_init
*DEL*:00000000H   CODE     ---       laser_ranging
      000002BEH   EDATA    ---       laser_ranging_cmd_arr_continous
      000002AFH   EDATA    ---       laser_ranging_cmd_arr_laseroff
      00000303H   EDATA    ---       laser_ranging_cmd_arr_laseron
      0000027AH   EDATA    ---       laser_ranging_cmd_arr_readcache
      00000296H   EDATA    ---       laser_ranging_cmd_arr_setfreq_10hz
      0000029BH   EDATA    ---       laser_ranging_cmd_arr_setfreq_20hz
L251 LINKER/LOCATER V4.66.93.0                                                        04/24/2024  12:31:03  PAGE 23


      000002D1H   EDATA    ---       laser_ranging_cmd_arr_setfreq_5hz
      00000261H   EDATA    ---       laser_ranging_cmd_arr_setrange_10m
      00000266H   EDATA    ---       laser_ranging_cmd_arr_setrange_30m
      0000026BH   EDATA    ---       laser_ranging_cmd_arr_setrange_50m
      000002B9H   EDATA    ---       laser_ranging_cmd_arr_setrange_5m
      00000275H   EDATA    ---       laser_ranging_cmd_arr_setrange_80m
      000002A0H   EDATA    ---       laser_ranging_cmd_arr_setresolution_0_1mm
      00000283H   EDATA    ---       laser_ranging_cmd_arr_setresolution_1mm
      00000240H   EDATA    ---       laser_ranging_cmd_arr_shutdown
      0000024EH   EDATA    ---       laser_ranging_cmd_arr_single
      00000292H   EDATA    ---       laser_ranging_cmd_arr_single_broadcast
      00FF7E2DH   CODE     ---       laser_ranging_get_uart_value
*DEL*:00000000H   CODE     ---       laser_ranging_init
*DEL*:00000000H   CODE     ---       laser_ranging_irqhandler
*DEL*:00000000H   CODE     ---       laser_ranging_uart_init
      00000022H.2 BIT      BIT       LaserRanging_State
*DEL*:00000000H   CODE     ---       lcd_clear
*DEL*:00000000H   CODE     ---       lcd_clear_simspi
*DEL*:00000000H   CODE     ---       lcd_drawpoint
*DEL*:00000000H   CODE     ---       lcd_drawpoint_simspi
*DEL*:00000000H   CODE     ---       lcd_init
*DEL*:00000000H   CODE     ---       lcd_init_simspi
      00FF70BFH   CODE     ---       lcd_set_region
      00FF705BH   CODE     ---       lcd_set_region_simspi
*DEL*:00000000H   CODE     ---       lcd_showchar
*DEL*:00000000H   CODE     ---       lcd_showchar_simspi
*DEL*:00000000H   CODE     ---       lcd_showfloat
*DEL*:00000000H   CODE     ---       lcd_showfloat_simspi
*DEL*:00000000H   CODE     ---       lcd_showint16
*DEL*:00000000H   CODE     ---       lcd_showint16_simspi
*DEL*:00000000H   CODE     ---       lcd_showint32
*DEL*:00000000H   CODE     ---       lcd_showint32_simspi
*DEL*:00000000H   CODE     ---       lcd_showint8
*DEL*:00000000H   CODE     ---       lcd_showint8_simspi
*DEL*:00000000H   CODE     ---       lcd_showstr
*DEL*:00000000H   CODE     ---       lcd_showstr_simspi
*DEL*:00000000H   CODE     ---       lcd_showuint16
*DEL*:00000000H   CODE     ---       lcd_showuint16_simspi
*DEL*:00000000H   CODE     ---       lcd_showuint8
*DEL*:00000000H   CODE     ---       lcd_showuint8_simspi
      00FF7EADH   CODE     ---       lcd_writeData
      00FF7B6FH   CODE     ---       lcd_writedata_16bit
      00FF74BBH   CODE     ---       lcd_writeData_16bit_simspi
      00FF76F8H   CODE     ---       lcd_writeData_simspi
      00FF000EH   CODE     ---       lcd_writeIndex
      00FF76ADH   CODE     ---       lcd_writeIndex_simspi
*SFR* 00000090H.7 DATA     BIT       led_1
*SFR* 00000090H.3 DATA     BIT       led_2
*SFR* 000000E8H.6 DATA     BIT       led_3
*SFR* 000000F9H   DATA     BYTE      LINICR
      000002B4H   EDATA    ---       lrcmd_continous
      000002A5H   EDATA    ---       lrcmd_laseroff
      000002C7H   EDATA    ---       lrcmd_laseron
      00000257H   EDATA    ---       lrcmd_readcache
      0000027EH   EDATA    ---       lrcmd_setfreq_10hz
      00000288H   EDATA    ---       lrcmd_setfreq_20hz
      000002C2H   EDATA    ---       lrcmd_setfreq_5hz
      0000023BH   EDATA    ---       lrcmd_setrange_10m
      00000244H   EDATA    ---       lrcmd_setrange_30m
      00000249H   EDATA    ---       lrcmd_setrange_50m
      000002AAH   EDATA    ---       lrcmd_setrange_5m
      00000252H   EDATA    ---       lrcmd_setrange_80m
      0000028DH   EDATA    ---       lrcmd_setresolution_0_1mm
      0000025CH   EDATA    ---       lrcmd_setresolution_1mm
      000002CCH   EDATA    ---       lrcmd_shutdown
L251 LINKER/LOCATER V4.66.93.0                                                        04/24/2024  12:31:03  PAGE 24


      000002FEH   EDATA    ---       lrcmd_single
      00000270H   EDATA    ---       lrcmd_single_broadcast
      000002D6H   EDATA    ---       lrdata
      00FF6DECH   CODE     ---       main
      00FF7D04H   CODE     ---       memcpy?_
*DEL*:00000000H   CODE     ---       memset?_
      00FF7464H   CODE     ---       motor_drivers_pwm_init
      00000768H   EDATA    INT       mpu6050_acc_x
      0000076AH   EDATA    INT       mpu6050_acc_y
      0000076CH   EDATA    INT       mpu6050_acc_z
*DEL*:00000000H   CODE     ---       mpu6050_get_accdata
*DEL*:00000000H   CODE     ---       mpu6050_get_gyro
      0000076EH   EDATA    INT       mpu6050_gyro_x
      00000770H   EDATA    INT       mpu6050_gyro_y
      00000772H   EDATA    INT       mpu6050_gyro_z
*DEL*:00000000H   CODE     ---       mpu6050_init
*DEL*:00000000H   CODE     ---       mpu6050_simiic_read_reg
*DEL*:00000000H   CODE     ---       mpu6050_simiic_read_regs
      00FF616BH   CODE     ---       number_conversion_ascii
*DEL*:00000000H   CODE     ---       NVIC_SetPriority
      00FF2CFDH   CODE     ---       oled_6x8
      00FF211DH   CODE     ---       oled_8x16
*DEL*:00000000H   CODE     ---       oled_clrpixel
*DEL*:00000000H   CODE     ---       oled_clrpixel_spi
*DEL*:00000000H   CODE     ---       oled_dis_bmp
*DEL*:00000000H   CODE     ---       oled_dis_bmp_spi
*DEL*:00000000H   CODE     ---       oled_fill
      00FF724CH   CODE     ---       oled_fill_spi
*DEL*:00000000H   CODE     ---       oled_hexascii
*DEL*:00000000H   CODE     ---       oled_hexascii_spi
*DEL*:00000000H   CODE     ---       oled_init
      00FF6737H   CODE     ---       oled_init_spi
*DEL*:00000000H   CODE     ---       oled_int16
*DEL*:00000000H   CODE     ---       oled_int16_spi
*DEL*:00000000H   CODE     ---       oled_p6x8str
      00FF6597H   CODE     ---       oled_p6x8str_spi
*DEL*:00000000H   CODE     ---       oled_p8x16str
*DEL*:00000000H   CODE     ---       oled_p8x16str_spi
*DEL*:00000000H   CODE     ---       oled_print_chinese
*DEL*:00000000H   CODE     ---       oled_print_chinese_spi
*DEL*:00000000H   CODE     ---       oled_printf_float
      00FF5F0EH   CODE     ---       oled_printf_float_spi
*DEL*:00000000H   CODE     ---       oled_printf_int32
*DEL*:00000000H   CODE     ---       oled_printf_int32_spi
*DEL*:00000000H   CODE     ---       oled_putpixel
*DEL*:00000000H   CODE     ---       oled_putpixel_spi
      00FF7AA9H   CODE     ---       oled_set_pos
      00FF7A09H   CODE     ---       oled_set_pos_spi
*DEL*:00000000H   CODE     ---       oled_uint16
*DEL*:00000000H   CODE     ---       oled_uint16_spi
      00FF77D9H   CODE     ---       oled_wrcmd
      00FF7ED7H   CODE     ---       oled_wrcmd_spi
      00FF7824H   CODE     ---       oled_wrdat
      00FF7EECH   CODE     ---       oled_wrdat_spi
*SFR* 00000080H   DATA     BYTE      P0
*SFR* 00000080H.7 DATA     BIT       P07
*SFR* 00000094H   DATA     BYTE      P0M0
*SFR* 00000093H   DATA     BYTE      P0M1
*SFR* 00000090H   DATA     BYTE      P1
*SFR* 00000092H   DATA     BYTE      P1M0
*SFR* 00000091H   DATA     BYTE      P1M1
*SFR* 000000A0H   DATA     BYTE      P2
*SFR* 000000A0H.0 DATA     BIT       P20
*SFR* 000000A0H.1 DATA     BIT       P21
*SFR* 000000A0H.2 DATA     BIT       P22
L251 LINKER/LOCATER V4.66.93.0                                                        04/24/2024  12:31:03  PAGE 25


*SFR* 000000A0H.3 DATA     BIT       P23
*SFR* 000000A0H.5 DATA     BIT       P25
*SFR* 000000A0H.7 DATA     BIT       P27
*SFR* 00000096H   DATA     BYTE      P2M0
*SFR* 00000095H   DATA     BYTE      P2M1
*SFR* 000000B0H   DATA     BYTE      P3
*SFR* 000000B0H.2 DATA     BIT       P32
*SFR* 000000B0H.5 DATA     BIT       P35
*SFR* 000000B0H.6 DATA     BIT       P36
*SFR* 000000B0H.7 DATA     BIT       P37
*SFR* 000000B2H   DATA     BYTE      P3M0
*SFR* 000000B1H   DATA     BYTE      P3M1
*SFR* 000000C0H   DATA     BYTE      P4
*SFR* 000000C0H.0 DATA     BIT       P40
*SFR* 000000C0H.1 DATA     BIT       P41
*SFR* 000000C0H.2 DATA     BIT       P42
*SFR* 000000C0H.3 DATA     BIT       P43
*SFR* 000000C0H.7 DATA     BIT       P47
*SFR* 000000B4H   DATA     BYTE      P4M0
*SFR* 000000B3H   DATA     BYTE      P4M1
*SFR* 000000C8H   DATA     BYTE      P5
*SFR* 000000CAH   DATA     BYTE      P5M0
*SFR* 000000C9H   DATA     BYTE      P5M1
*SFR* 000000E8H   DATA     BYTE      P6
*SFR* 000000E8H.3 DATA     BIT       P63
*SFR* 000000E8H.5 DATA     BIT       P65
*SFR* 000000CCH   DATA     BYTE      P6M0
*SFR* 000000CBH   DATA     BYTE      P6M1
*SFR* 000000F8H   DATA     BYTE      P7
*SFR* 000000E2H   DATA     BYTE      P7M0
*SFR* 000000E1H   DATA     BYTE      P7M1
*SFR* 000000A2H   DATA     BYTE      P_SW1
*SFR* 000000BAH   DATA     BYTE      P_SW2
*SFR* 000000BBH   DATA     BYTE      P_SW3
*SFR* 00000087H   DATA     BYTE      PCON
*DEL*:00000000H   CODE     ---       pit_timer_ms
      00FF31C4H   CODE     NEAR LAB  printf
      00FF6A99H   CODE     ---       printf_reverse_order
*SFR* 000000D0H   DATA     BYTE      PSW
      00FF7F27H   CODE     ---       putchar
      00FF8221H   HCONST   ---       PWM_ARR_ADDR
      00FF8229H   HCONST   ---       PWM_CCER_ADDR
      00FF8239H   HCONST   ---       PWM_CCMR_ADDR
      00FF8201H   HCONST   ---       PWM_CCR_ADDR
      00FF6053H   CODE     ---       pwm_duty
*DEL*:00000000H   CODE     ---       pwm_freq
      00FF4917H   CODE     ---       pwm_init
      00FF4CF1H   CODE     ---       pwm_set_gpio
      000000C1H   EDATA    ---       qmc5883_char_magx
      000000CDH   EDATA    ---       qmc5883_char_magy
      000000D9H   EDATA    ---       qmc5883_char_magz
      000000E7H   EDATA    ---       qmc5883_char_yaw
      000000F1H   EDATA    ---       qmc5883_cmd_buf
      0000005CH   EDATA    ---       qmc5883_data
      00FF50A9H   CODE     ---       qmc5883_data_parse
      00FF7ADEH   CODE     ---       qmc5883_init
      00FF71EAH   CODE     ---       qmc5883_irqhandler
      000000BFH   EDATA    INT       qmc5883_magx
      000000CBH   EDATA    INT       qmc5883_magy
      000000D7H   EDATA    INT       qmc5883_magz
      000000E3H   EDATA    FLOAT     qmc5883_yaw
      00000126H   EDATA    ---       qmccmd_check_connection
      00000111H   EDATA    ---       qmccmd_clear_mag_offset
      0000009CH   EDATA    ---       qmccmd_disable_filter
      000000A6H   EDATA    ---       qmccmd_get_device_id
L251 LINKER/LOCATER V4.66.93.0                                                        04/24/2024  12:31:03  PAGE 26


      00000041H   EDATA    ---       qmccmd_init_sensor
      000000B8H   EDATA    ---       qmccmd_set_device_id
      00000049H   EDATA    ---       qmccmd_set_filter_value
      00000037H   EDATA    ---       qmccmd_set_measure_rate
      0000011BH   EDATA    ---       qmccmd_set_single_measure_mode
      00000023H   EDATA    ---       qmccmd_set_uart_baudrate_115200
      0000002DH   EDATA    ---       qmccmd_set_uart_baudrate_460800
      000000AEH   EDATA    ---       qmccmd_set_uart_baudrate_9600
      00000129H   EDATA    ---       qmccmd_start_calibration
      00000052H   EDATA    ---       qmccmd_stop_calibration
*DEL*:00000000H   CODE     ---       recv_ack
*DEL*:00000000H   CODE     ---       recv_data
*SFR* 00000098H.0 DATA     BIT       RI
*SFR* 000000FFH   DATA     BYTE      RSTCFG
*SFR* 0000009BH   DATA     BYTE      S2BUF
*SFR* 0000009AH   DATA     BYTE      S2CON
*SFR* 000000ADH   DATA     BYTE      S3BUF
*SFR* 000000ACH   DATA     BYTE      S3CON
*SFR* 000000FEH   DATA     BYTE      S4BUF
*SFR* 000000FDH   DATA     BYTE      S4CON
*SFR* 00000099H   DATA     BYTE      SBUF
*SFR* 00000098H   DATA     BYTE      SCON
*DEL*:00000000H   CODE     ---       seekfree_assistant_camera_boundary_config
*DEL*:00000000H   CODE     ---       seekfree_assistant_camera_data_send
*DEL*:00000000H   CODE     ---       seekfree_assistant_camera_dot_send
*DEL*:00000000H   CODE     ---       seekfree_assistant_camera_information_config
*DEL*:00000000H   CODE     ---       seekfree_assistant_camera_send
*DEL*:00000000H   CODE     ---       seekfree_assistant_data_analysis
*DEL*:00000000H   CODE     ---       seekfree_assistant_init
      00010201H   XDATA    ---       seekfree_assistant_oscilloscope_data
*DEL*:00000000H   CODE     ---       seekfree_assistant_oscilloscope_send
      00010244H   XDATA    ---       seekfree_assistant_parameter
      0001023CH   XDATA    ---       seekfree_assistant_parameter_update_flag
      00000AB3H   EDATA    ---       seekfree_assistant_receive
      00000AB5H   EDATA    ---       seekfree_assistant_transfer
*DEL*:00000000H   CODE     ---       send_ack
*DEL*:00000000H   CODE     ---       send_data
*DEL*:00000000H   CODE     ---       send_nak
      00000022H.1 BIT      BIT       senderr
      00000022H.0 BIT      BIT       sendok
*DEL*:00000000H   CODE     ---       servo_chassis_pwm_init
*DEL*:00000000H   CODE     ---       servo_mech_arm_pwm_init
      00FF587BH   CODE     ---       set_clk
*DEL*:00000000H   CODE     ---       showimage
*SFR* 000000CEH   DATA     BYTE      SPCTL
*SFR* 000000CFH   DATA     BYTE      SPDAT
*DEL*:00000000H   CODE     ---       spi_change_mode
*DEL*:00000000H   CODE     ---       spi_change_pin
      00FF6669H   CODE     ---       spi_init
      00FF7F39H   CODE     ---       spi_mosi
*SFR* 000000CDH   DATA     BYTE      SPSTAT
*DEL*:00000000H   CODE     ---       start
*DEL*:00000000H   CODE     ---       stepper_pwm_init
*DEL*:00000000H   CODE     ---       stop
      00000A6FH   EDATA    LONG      sys_clk
*SFR* 000000D6H   DATA     BYTE      T2H
*SFR* 000000D7H   DATA     BYTE      T2L
*SFR* 000000D4H   DATA     BYTE      T3H
*SFR* 000000D5H   DATA     BYTE      T3L
*SFR* 000000D2H   DATA     BYTE      T4H
*SFR* 000000D3H   DATA     BYTE      T4L
*SFR* 000000DDH   DATA     BYTE      T4T3M
*SFR* 00000088H   DATA     BYTE      TCON
*SFR* 00000088H.5 DATA     BIT       TF0
      00FF270DH   CODE     ---       tft_ascii
L251 LINKER/LOCATER V4.66.93.0                                                        04/24/2024  12:31:03  PAGE 27


*SFR* 0000008CH   DATA     BYTE      TH0
*SFR* 0000008DH   DATA     BYTE      TH1
*SFR* 00000098H.1 DATA     BIT       TI
*SFR* 0000008AH   DATA     BYTE      TL0
*SFR* 0000008BH   DATA     BYTE      TL1
*SFR* 00000089H   DATA     BYTE      TMOD
*SFR* 00000088H.4 DATA     BIT       TR0
*SFR* 00000088H.6 DATA     BIT       TR1
      00010000H   XDATA    BYTE      tsl1401_finish_flag
      00000020H.4 BIT      BIT       uart1_cr
      00FF6C9BH   CODE     ---       uart1_isr
      00000020H.0 BIT      BIT       uart1_lf
      00000133H   EDATA    ---       uart1_rx_buffer
      00000233H   EDATA    BYTE      uart1_rx_counter
      00000021H.4 BIT      BIT       uart1_rx_rdy
      00000021H.0 BIT      BIT       uart1_tx_busy
      00000236H   EDATA    BYTE      uart1_tx_counter
      00000020H.5 BIT      BIT       uart2_cr
      00FF7989H   CODE     ---       uart2_isr
      00000020H.1 BIT      BIT       uart2_lf
      00000173H   EDATA    ---       uart2_rx_buffer
      00000234H   EDATA    BYTE      uart2_rx_counter
      00000021H.5 BIT      BIT       uart2_rx_rdy
      00000021H.1 BIT      BIT       uart2_tx_busy
      00000238H   EDATA    BYTE      uart2_tx_counter
      00000020H.6 BIT      BIT       uart3_cr
      00FF6E58H   CODE     ---       uart3_isr
      00000020H.2 BIT      BIT       uart3_lf
      000001B3H   EDATA    ---       uart3_rx_buffer
      00000235H   EDATA    BYTE      uart3_rx_counter
      00000021H.6 BIT      BIT       uart3_rx_rdy
      00000021H.2 BIT      BIT       uart3_tx_busy
      00000239H   EDATA    BYTE      uart3_tx_counter
      00000020H.7 BIT      BIT       uart4_cr
      00FF786FH   CODE     ---       uart4_isr
      00000020H.3 BIT      BIT       uart4_lf
      000001F3H   EDATA    ---       uart4_rx_buffer
      00000237H   EDATA    BYTE      uart4_rx_counter
      00000021H.7 BIT      BIT       uart4_rx_rdy
      00000021H.3 BIT      BIT       uart4_tx_busy
      0000023AH   EDATA    BYTE      uart4_tx_counter
      00FF5382H   CODE     ---       uart_init
*DEL*:00000000H   CODE     ---       uart_initialize
*DEL*:00000000H   CODE     ---       uart_port_init
*DEL*:00000000H   CODE     ---       uart_putbuff
      00FF6C26H   CODE     ---       uart_putchar
*DEL*:00000000H   CODE     ---       uart_putstr
*DEL*:00000000H   CODE     ---       uart_running
*DEL*:00000000H   CODE     ---       uart_sendbyte
      00FF6391H   CODE     ---       uart_sendcmd
      00FF67FCH   CODE     ---       uart_sendstring
      00FF79C9H   CODE     ---       ui_init
      00FF7F4BH   CODE     ---       ui_keys_init
      00000B51H   EDATA    BYTE      ui_loading_index
      00FF7123H   CODE     ---       ui_running
*DEL*:00000000H   CODE     ---       ui_running_init_timer
      00FF7B12H   CODE     ---       ui_running_timer_isr
*SFR* 000000F4H   DATA     BYTE      USBCON
      000007E6H   EDATA    ---       virtual_scope_data
*SFR* 000000A6H   DATA     BYTE      VRTRIM
      00FF73B6H   CODE     ---       wait
*SFR* 000000C1H   DATA     BYTE      WDT_CONTR
      00FF5DB0H   CODE     ---       wheel_adjust
      00FF5634H   CODE     ---       wheel_direction
*DEL*:00000000H   CODE     ---       wheel_speed
L251 LINKER/LOCATER V4.66.93.0                                                        04/24/2024  12:31:03  PAGE 28


*DEL*:00000000H   CODE     ---       wireless_ch573_callback
*DEL*:00000000H   CODE     ---       wireless_ch573_init
*DEL*:00000000H   CODE     ---       wireless_ch573_read_buff
*DEL*:00000000H   CODE     ---       wireless_ch573_send_buff
      00000AE7H   EDATA    INT       wireless_type
*DEL*:00000000H   CODE     ---       wireless_uart_callback
*DEL*:00000000H   CODE     ---       wireless_uart_init
*DEL*:00000000H   CODE     ---       wireless_uart_read_buff
*DEL*:00000000H   CODE     ---       wireless_uart_send_buff
*SFR* 000000E9H   DATA     BYTE      WTST
      00000A77H   EDATA    WORD      zf_delay_ms
      00000A79H   EDATA    WORD      zf_delay_us
      00FF42B6H   CODE     ---       zf_sprintf



SYMBOL TABLE OF MODULE:  .\Out_File\SEEKFREE (board)

      VALUE       REP       CLASS    TYPE      SYMBOL NAME
      ====================================================
      ---         MODULE    ---      ---       board
      00FF0003H   PUBLIC    CODE     ---       EnableGlobalIRQ
      00FF6A02H   PUBLIC    CODE     ---       board_init
      00FF587BH   PUBLIC    CODE     ---       set_clk
      00FF7F27H   PUBLIC    CODE     ---       putchar
      00000A6FH   PUBLIC    EDATA    LONG      sys_clk
      00000094H   SFRSYM    DATA     BYTE      P0M0
      000000D0H   SFRSYM    DATA     BYTE      PSW
      000000BAH.7 SFRSYM    DATA     BIT       EAXFR
      0000009DH   SFRSYM    DATA     BYTE      IRCBAND
      00000097H   SFRSYM    DATA     BYTE      AUXR2
      000000EAH   SFRSYM    DATA     BYTE      CKCON
      000000EFH   SFRSYM    DATA     BYTE      AUXINTIF
      000000FDH   SFRSYM    DATA     BYTE      S4CON
      000000ACH   SFRSYM    DATA     BYTE      S3CON
      0000009AH   SFRSYM    DATA     BYTE      S2CON
      000000A6H   SFRSYM    DATA     BYTE      VRTRIM
      000000B7H   SFRSYM    DATA     BYTE      IPH
      000000CDH   SFRSYM    DATA     BYTE      SPSTAT
      000000DDH   SFRSYM    DATA     BYTE      T4T3M
      0000009FH   SFRSYM    DATA     BYTE      IRTRIM
      000000C1H   SFRSYM    DATA     BYTE      WDT_CONTR
      000000E9H   SFRSYM    DATA     BYTE      WTST
      000000DFH   SFRSYM    DATA     BYTE      IP3
      000000F4H   SFRSYM    DATA     BYTE      USBCON
      000000B5H   SFRSYM    DATA     BYTE      IP2
      000000FFH   SFRSYM    DATA     BYTE      RSTCFG
      000000F9H   SFRSYM    DATA     BYTE      LINICR
      0000008EH   SFRSYM    DATA     BYTE      AUXR
      000000AFH   SFRSYM    DATA     BYTE      IE2
      00000088H   SFRSYM    DATA     BYTE      TCON
      00000089H   SFRSYM    DATA     BYTE      TMOD
      00000098H   SFRSYM    DATA     BYTE      SCON
      000000F1H   SFRSYM    DATA     BYTE      CANICR
      00000087H   SFRSYM    DATA     BYTE      PCON
      000000BCH   SFRSYM    DATA     BYTE      ADC_CONTR
      000000E7H   SFRSYM    DATA     BYTE      CMPCR2
      000000E6H   SFRSYM    DATA     BYTE      CMPCR1
      000000DEH   SFRSYM    DATA     BYTE      ADCCFG
      000000B8H   SFRSYM    DATA     BYTE      IP
      0000008FH   SFRSYM    DATA     BYTE      INTCLKO
      000000EEH   SFRSYM    DATA     BYTE      IP3H
      000000B6H   SFRSYM    DATA     BYTE      IP2H
      000000A8H   SFRSYM    DATA     BYTE      IE
      000000BBH   SFRSYM    DATA     BYTE      P_SW3
L251 LINKER/LOCATER V4.66.93.0                                                        04/24/2024  12:31:03  PAGE 29


      000000BAH   SFRSYM    DATA     BYTE      P_SW2
      000000A2H   SFRSYM    DATA     BYTE      P_SW1
      000000CEH   SFRSYM    DATA     BYTE      SPCTL
      000000F8H   SFRSYM    DATA     BYTE      P7
      000000A8H.7 SFRSYM    DATA     BIT       EA
      000000E1H   SFRSYM    DATA     BYTE      P7M1
      000000E8H   SFRSYM    DATA     BYTE      P6
      000000C8H   SFRSYM    DATA     BYTE      P5
      000000CBH   SFRSYM    DATA     BYTE      P6M1
      000000E2H   SFRSYM    DATA     BYTE      P7M0
      000000C0H   SFRSYM    DATA     BYTE      P4
      000000C9H   SFRSYM    DATA     BYTE      P5M1
      000000CCH   SFRSYM    DATA     BYTE      P6M0
      000000B0H   SFRSYM    DATA     BYTE      P3
      000000B3H   SFRSYM    DATA     BYTE      P4M1
      000000CAH   SFRSYM    DATA     BYTE      P5M0
      000000A0H   SFRSYM    DATA     BYTE      P2
      000000B1H   SFRSYM    DATA     BYTE      P3M1
      000000B4H   SFRSYM    DATA     BYTE      P4M0
      00000090H   SFRSYM    DATA     BYTE      P1
      00000095H   SFRSYM    DATA     BYTE      P2M1
      000000B2H   SFRSYM    DATA     BYTE      P3M0
      00000080H   SFRSYM    DATA     BYTE      P0
      00000091H   SFRSYM    DATA     BYTE      P1M1
      00000096H   SFRSYM    DATA     BYTE      P2M0
      00000092H   SFRSYM    DATA     BYTE      P1M0
      00000093H   SFRSYM    DATA     BYTE      P0M1

      00FF587BH   BLOCK     CODE     ---       LVL=0
      00FF587BH   LINE      CODE     ---       #43
      00FF587BH   LINE      CODE     ---       #46
      00FF587EH   LINE      CODE     ---       #48
      00FF588EH   LINE      CODE     ---       #51
      00FF589BH   LINE      CODE     ---       #52
      00FF58A8H   LINE      CODE     ---       #53
      00FF58B5H   LINE      CODE     ---       #54
      00FF58B9H   LINE      CODE     ---       #55
      00FF58C5H   LINE      CODE     ---       #56
      00FF58C8H   LINE      CODE     ---       #57
      00FF58D8H   LINE      CODE     ---       #60
      00FF58E5H   LINE      CODE     ---       #61
      00FF58F2H   LINE      CODE     ---       #62
      00FF58FFH   LINE      CODE     ---       #63
      00FF5903H   LINE      CODE     ---       #64
      00FF590FH   LINE      CODE     ---       #65
      00FF5912H   LINE      CODE     ---       #66
      00FF5922H   LINE      CODE     ---       #69
      00FF592FH   LINE      CODE     ---       #70
      00FF593CH   LINE      CODE     ---       #71
      00FF5949H   LINE      CODE     ---       #72
      00FF594DH   LINE      CODE     ---       #73
      00FF5959H   LINE      CODE     ---       #74
      00FF595CH   LINE      CODE     ---       #75
      00FF596CH   LINE      CODE     ---       #79
      00FF5979H   LINE      CODE     ---       #80
      00FF5986H   LINE      CODE     ---       #81
      00FF5993H   LINE      CODE     ---       #82
      00FF5997H   LINE      CODE     ---       #83
      00FF59A3H   LINE      CODE     ---       #84
      00FF59A6H   LINE      CODE     ---       #85
      00FF59B6H   LINE      CODE     ---       #88
      00FF59C3H   LINE      CODE     ---       #89
      00FF59D0H   LINE      CODE     ---       #90
      00FF59DDH   LINE      CODE     ---       #91
      00FF59E1H   LINE      CODE     ---       #92
L251 LINKER/LOCATER V4.66.93.0                                                        04/24/2024  12:31:03  PAGE 30


      00FF59EDH   LINE      CODE     ---       #93
      00FF59F0H   LINE      CODE     ---       #94
      00FF5A00H   LINE      CODE     ---       #97
      00FF5A0DH   LINE      CODE     ---       #98
      00FF5A1AH   LINE      CODE     ---       #99
      00FF5A27H   LINE      CODE     ---       #100
      00FF5A2BH   LINE      CODE     ---       #101
      00FF5A37H   LINE      CODE     ---       #102
      00FF5A39H   LINE      CODE     ---       #105
      00FF5A45H   LINE      CODE     ---       #107
      00FF5A52H   LINE      CODE     ---       #108
      00FF5A5FH   LINE      CODE     ---       #109
      00FF5A6CH   LINE      CODE     ---       #110
      00FF5A70H   LINE      CODE     ---       #111
      00FF5A7CH   LINE      CODE     ---       #112
      00FF5A7CH   LINE      CODE     ---       #114
      00FF5A80H   LINE      CODE     ---       #115
      ---         BLOCKEND  ---      ---       LVL=0

      00FF6A02H   BLOCK     CODE     ---       LVL=0
      00FF6A02H   LINE      CODE     ---       #121
      00FF6A02H   LINE      CODE     ---       #123
      00FF6A06H   LINE      CODE     ---       #124
      00FF6A09H   LINE      CODE     ---       #125
      00FF6A0CH   LINE      CODE     ---       #126
      00FF6A0FH   LINE      CODE     ---       #127
      00FF6A13H   LINE      CODE     ---       #137
      00FF6A1AH   LINE      CODE     ---       #143
      00FF6A1DH   LINE      CODE     ---       #145
      00FF6A20H   LINE      CODE     ---       #146
      00FF6A23H   LINE      CODE     ---       #147
      00FF6A2FH   LINE      CODE     ---       #149
      00FF6A32H   LINE      CODE     ---       #150
      00FF6A35H   LINE      CODE     ---       #151
      00FF6A38H   LINE      CODE     ---       #152
      00FF6A3BH   LINE      CODE     ---       #153
      00FF6A3EH   LINE      CODE     ---       #154
      00FF6A41H   LINE      CODE     ---       #155
      00FF6A44H   LINE      CODE     ---       #156
      00FF6A47H   LINE      CODE     ---       #157
      00FF6A4AH   LINE      CODE     ---       #158
      00FF6A4DH   LINE      CODE     ---       #159
      00FF6A50H   LINE      CODE     ---       #160
      00FF6A53H   LINE      CODE     ---       #161
      00FF6A56H   LINE      CODE     ---       #162
      00FF6A59H   LINE      CODE     ---       #163
      00FF6A5CH   LINE      CODE     ---       #164
      00FF6A5FH   LINE      CODE     ---       #166
      00FF6A62H   LINE      CODE     ---       #167
      00FF6A65H   LINE      CODE     ---       #168
      00FF6A68H   LINE      CODE     ---       #169
      00FF6A6BH   LINE      CODE     ---       #170
      00FF6A6EH   LINE      CODE     ---       #171
      00FF6A71H   LINE      CODE     ---       #172
      00FF6A74H   LINE      CODE     ---       #173
      00FF6A77H   LINE      CODE     ---       #174
      00FF6A7AH   LINE      CODE     ---       #176
      00FF6A95H   LINE      CODE     ---       #177
      00FF6A98H   LINE      CODE     ---       #178
      ---         BLOCKEND  ---      ---       LVL=0

      00FF7F27H   BLOCK     CODE     ---       LVL=0
      00000B27H   SYMBOL    EDATA    CHAR      c
      00FF7F27H   LINE      CODE     ---       #183
      00FF7F2BH   LINE      CODE     ---       #185
L251 LINKER/LOCATER V4.66.93.0                                                        04/24/2024  12:31:03  PAGE 31


      00FF7F34H   LINE      CODE     ---       #187
      00FF7F38H   LINE      CODE     ---       #188
      ---         BLOCKEND  ---      ---       LVL=0

      00FF0003H   BLOCK     CODE     ---       LVL=0
      00FF0003H   LINE      CODE     ---       #197
      00FF0003H   LINE      CODE     ---       #199
      00FF0006H   LINE      CODE     ---       #200
      ---         BLOCKEND  ---      ---       LVL=0

      ---         MODULE    ---      ---       common
      00000AE7H   PUBLIC    EDATA    INT       wireless_type
      000000D0H   SFRSYM    DATA     BYTE      PSW
      0000009DH   SFRSYM    DATA     BYTE      IRCBAND
      00000097H   SFRSYM    DATA     BYTE      AUXR2
      000000EFH   SFRSYM    DATA     BYTE      AUXINTIF
      000000FDH   SFRSYM    DATA     BYTE      S4CON
      000000ACH   SFRSYM    DATA     BYTE      S3CON
      0000009AH   SFRSYM    DATA     BYTE      S2CON
      000000B7H   SFRSYM    DATA     BYTE      IPH
      000000CDH   SFRSYM    DATA     BYTE      SPSTAT
      000000DDH   SFRSYM    DATA     BYTE      T4T3M
      000000C1H   SFRSYM    DATA     BYTE      WDT_CONTR
      000000DFH   SFRSYM    DATA     BYTE      IP3
      000000F4H   SFRSYM    DATA     BYTE      USBCON
      000000B5H   SFRSYM    DATA     BYTE      IP2
      000000FFH   SFRSYM    DATA     BYTE      RSTCFG
      000000F9H   SFRSYM    DATA     BYTE      LINICR
      0000008EH   SFRSYM    DATA     BYTE      AUXR
      000000AFH   SFRSYM    DATA     BYTE      IE2
      00000088H   SFRSYM    DATA     BYTE      TCON
      00000098H   SFRSYM    DATA     BYTE      SCON
      000000F1H   SFRSYM    DATA     BYTE      CANICR
      00000087H   SFRSYM    DATA     BYTE      PCON
      000000BCH   SFRSYM    DATA     BYTE      ADC_CONTR
      000000E7H   SFRSYM    DATA     BYTE      CMPCR2
      000000E6H   SFRSYM    DATA     BYTE      CMPCR1
      000000B8H   SFRSYM    DATA     BYTE      IP
      0000008FH   SFRSYM    DATA     BYTE      INTCLKO
      000000EEH   SFRSYM    DATA     BYTE      IP3H
      000000B6H   SFRSYM    DATA     BYTE      IP2H
      000000A8H   SFRSYM    DATA     BYTE      IE
      000000BBH   SFRSYM    DATA     BYTE      P_SW3
      000000BAH   SFRSYM    DATA     BYTE      P_SW2
      000000A2H   SFRSYM    DATA     BYTE      P_SW1
      000000CEH   SFRSYM    DATA     BYTE      SPCTL
      000000F8H   SFRSYM    DATA     BYTE      P7
      000000E8H   SFRSYM    DATA     BYTE      P6
      000000C8H   SFRSYM    DATA     BYTE      P5
      000000C0H   SFRSYM    DATA     BYTE      P4
      000000B0H   SFRSYM    DATA     BYTE      P3
      000000A0H   SFRSYM    DATA     BYTE      P2
      00000090H   SFRSYM    DATA     BYTE      P1
      00000080H   SFRSYM    DATA     BYTE      P0

      ---         MODULE    ---      ---       zf_adc
      00000094H   SFRSYM    DATA     BYTE      P0M0
      000000D0H   SFRSYM    DATA     BYTE      PSW
      0000009DH   SFRSYM    DATA     BYTE      IRCBAND
      00000097H   SFRSYM    DATA     BYTE      AUXR2
      000000EFH   SFRSYM    DATA     BYTE      AUXINTIF
      000000FDH   SFRSYM    DATA     BYTE      S4CON
      000000ACH   SFRSYM    DATA     BYTE      S3CON
      0000009AH   SFRSYM    DATA     BYTE      S2CON
      000000B7H   SFRSYM    DATA     BYTE      IPH
L251 LINKER/LOCATER V4.66.93.0                                                        04/24/2024  12:31:03  PAGE 32


      000000CDH   SFRSYM    DATA     BYTE      SPSTAT
      000000BEH   SFRSYM    DATA     BYTE      ADC_RESL
      000000DDH   SFRSYM    DATA     BYTE      T4T3M
      000000C1H   SFRSYM    DATA     BYTE      WDT_CONTR
      000000DFH   SFRSYM    DATA     BYTE      IP3
      000000F4H   SFRSYM    DATA     BYTE      USBCON
      000000B5H   SFRSYM    DATA     BYTE      IP2
      000000FFH   SFRSYM    DATA     BYTE      RSTCFG
      000000F9H   SFRSYM    DATA     BYTE      LINICR
      0000008EH   SFRSYM    DATA     BYTE      AUXR
      000000AFH   SFRSYM    DATA     BYTE      IE2
      00000088H   SFRSYM    DATA     BYTE      TCON
      00000098H   SFRSYM    DATA     BYTE      SCON
      000000F1H   SFRSYM    DATA     BYTE      CANICR
      00000087H   SFRSYM    DATA     BYTE      PCON
      000000BCH   SFRSYM    DATA     BYTE      ADC_CONTR
      000000E7H   SFRSYM    DATA     BYTE      CMPCR2
      000000E6H   SFRSYM    DATA     BYTE      CMPCR1
      000000DEH   SFRSYM    DATA     BYTE      ADCCFG
      000000B8H   SFRSYM    DATA     BYTE      IP
      0000008FH   SFRSYM    DATA     BYTE      INTCLKO
      000000EEH   SFRSYM    DATA     BYTE      IP3H
      000000B6H   SFRSYM    DATA     BYTE      IP2H
      000000BDH   SFRSYM    DATA     BYTE      ADC_RES
      000000A8H   SFRSYM    DATA     BYTE      IE
      000000BBH   SFRSYM    DATA     BYTE      P_SW3
      000000BAH   SFRSYM    DATA     BYTE      P_SW2
      000000A2H   SFRSYM    DATA     BYTE      P_SW1
      000000CEH   SFRSYM    DATA     BYTE      SPCTL
      000000F8H   SFRSYM    DATA     BYTE      P7
      000000E8H   SFRSYM    DATA     BYTE      P6
      000000C8H   SFRSYM    DATA     BYTE      P5
      000000C0H   SFRSYM    DATA     BYTE      P4
      000000B0H   SFRSYM    DATA     BYTE      P3
      000000A0H   SFRSYM    DATA     BYTE      P2
      00000090H   SFRSYM    DATA     BYTE      P1
      00000080H   SFRSYM    DATA     BYTE      P0
      00000091H   SFRSYM    DATA     BYTE      P1M1
      00000092H   SFRSYM    DATA     BYTE      P1M0
      00000093H   SFRSYM    DATA     BYTE      P0M1
      00000A73H   SYMBOL    EDATA    INT       adcn
      00000A75H   SYMBOL    EDATA    INT       speed
      00000957H   SYMBOL    EDATA    INT       adcn
      00000959H   SYMBOL    EDATA    INT       resolution
      0000095BH   SYMBOL    EDATA    WORD      adc_value

      ---         MODULE    ---      ---       zf_delay
      00FF7948H   PUBLIC    CODE     ---       delay_init
      00FF7A3FH   PUBLIC    CODE     ---       delay_ms
      00000A77H   PUBLIC    EDATA    WORD      zf_delay_ms
      00000A79H   PUBLIC    EDATA    WORD      zf_delay_us
      000000D0H   SFRSYM    DATA     BYTE      PSW
      0000009DH   SFRSYM    DATA     BYTE      IRCBAND
      00000097H   SFRSYM    DATA     BYTE      AUXR2
      000000EFH   SFRSYM    DATA     BYTE      AUXINTIF
      000000FDH   SFRSYM    DATA     BYTE      S4CON
      000000ACH   SFRSYM    DATA     BYTE      S3CON
      0000009AH   SFRSYM    DATA     BYTE      S2CON
      000000B7H   SFRSYM    DATA     BYTE      IPH
      000000CDH   SFRSYM    DATA     BYTE      SPSTAT
      000000DDH   SFRSYM    DATA     BYTE      T4T3M
      000000C1H   SFRSYM    DATA     BYTE      WDT_CONTR
      000000DFH   SFRSYM    DATA     BYTE      IP3
      000000F4H   SFRSYM    DATA     BYTE      USBCON
      000000B5H   SFRSYM    DATA     BYTE      IP2
L251 LINKER/LOCATER V4.66.93.0                                                        04/24/2024  12:31:03  PAGE 33


      000000FFH   SFRSYM    DATA     BYTE      RSTCFG
      000000F9H   SFRSYM    DATA     BYTE      LINICR
      0000008EH   SFRSYM    DATA     BYTE      AUXR
      000000AFH   SFRSYM    DATA     BYTE      IE2
      00000088H   SFRSYM    DATA     BYTE      TCON
      00000098H   SFRSYM    DATA     BYTE      SCON
      000000F1H   SFRSYM    DATA     BYTE      CANICR
      00000087H   SFRSYM    DATA     BYTE      PCON
      000000BCH   SFRSYM    DATA     BYTE      ADC_CONTR
      000000E7H   SFRSYM    DATA     BYTE      CMPCR2
      000000E6H   SFRSYM    DATA     BYTE      CMPCR1
      000000B8H   SFRSYM    DATA     BYTE      IP
      0000008FH   SFRSYM    DATA     BYTE      INTCLKO
      000000EEH   SFRSYM    DATA     BYTE      IP3H
      000000B6H   SFRSYM    DATA     BYTE      IP2H
      000000A8H   SFRSYM    DATA     BYTE      IE
      000000BBH   SFRSYM    DATA     BYTE      P_SW3
      000000BAH   SFRSYM    DATA     BYTE      P_SW2
      000000A2H   SFRSYM    DATA     BYTE      P_SW1
      000000CEH   SFRSYM    DATA     BYTE      SPCTL
      000000F8H   SFRSYM    DATA     BYTE      P7
      000000E8H   SFRSYM    DATA     BYTE      P6
      000000C8H   SFRSYM    DATA     BYTE      P5
      000000C0H   SFRSYM    DATA     BYTE      P4
      000000B0H   SFRSYM    DATA     BYTE      P3
      000000A0H   SFRSYM    DATA     BYTE      P2
      00000090H   SFRSYM    DATA     BYTE      P1
      00000080H   SFRSYM    DATA     BYTE      P0

      00FF7948H   BLOCK     CODE     ---       LVL=0
      00FF7948H   LINE      CODE     ---       #34
      00FF7948H   LINE      CODE     ---       #36
      00FF7957H   LINE      CODE     ---       #37
      00FF796AH   LINE      CODE     ---       #38
      00FF7988H   LINE      CODE     ---       #40
      ---         BLOCKEND  ---      ---       LVL=0

      00FF7A3FH   BLOCK     CODE     ---       LVL=0
      00000A7BH   SYMBOL    EDATA    WORD      ms
      00FF7A43H   BLOCK     CODE     NEAR LAB  LVL=1
      00000A7DH   SYMBOL    EDATA    WORD      i
      ---         BLOCKEND  ---      ---       LVL=1
      00FF7A3FH   LINE      CODE     ---       #48
      00FF7A43H   LINE      CODE     ---       #49
      00FF7A43H   LINE      CODE     ---       #51
      00FF7A43H   LINE      CODE     ---       #52
      00FF7A4BH   LINE      CODE     ---       #54
      00FF7A5FH   LINE      CODE     ---       #55
      00FF7A73H   LINE      CODE     ---       #56
      ---         BLOCKEND  ---      ---       LVL=0
      0000095DH   SYMBOL    EDATA    DWORD     us
      00000961H   SYMBOL    EDATA    WORD      i

      ---         MODULE    ---      ---       zf_eeprom
      000007A0H   PUBLIC    EDATA    BYTE      ?iap_read_bytes?BYTE
      000007AAH   PUBLIC    EDATA    BYTE      ?iap_write_bytes?BYTE
      000000D0H   SFRSYM    DATA     BYTE      PSW
      0000009DH   SFRSYM    DATA     BYTE      IRCBAND
      000000D0H.5 SFRSYM    DATA     BIT       F0
      00000097H   SFRSYM    DATA     BYTE      AUXR2
      000000C6H   SFRSYM    DATA     BYTE      IAP_TRIG
      000000EFH   SFRSYM    DATA     BYTE      AUXINTIF
      000000FDH   SFRSYM    DATA     BYTE      S4CON
      000000ACH   SFRSYM    DATA     BYTE      S3CON
      0000009AH   SFRSYM    DATA     BYTE      S2CON
L251 LINKER/LOCATER V4.66.93.0                                                        04/24/2024  12:31:03  PAGE 34


      000000B7H   SFRSYM    DATA     BYTE      IPH
      000000CDH   SFRSYM    DATA     BYTE      SPSTAT
      000000DDH   SFRSYM    DATA     BYTE      T4T3M
      000000C1H   SFRSYM    DATA     BYTE      WDT_CONTR
      000000C2H   SFRSYM    DATA     BYTE      IAP_DATA
      000000DFH   SFRSYM    DATA     BYTE      IP3
      000000F4H   SFRSYM    DATA     BYTE      USBCON
      000000B5H   SFRSYM    DATA     BYTE      IP2
      000000FFH   SFRSYM    DATA     BYTE      RSTCFG
      000000C7H   SFRSYM    DATA     BYTE      IAP_CONTR
      000000F9H   SFRSYM    DATA     BYTE      LINICR
      0000008EH   SFRSYM    DATA     BYTE      AUXR
      000000AFH   SFRSYM    DATA     BYTE      IE2
      00000088H   SFRSYM    DATA     BYTE      TCON
      00000098H   SFRSYM    DATA     BYTE      SCON
      000000F5H   SFRSYM    DATA     BYTE      IAP_TPS
      000000F1H   SFRSYM    DATA     BYTE      CANICR
      00000087H   SFRSYM    DATA     BYTE      PCON
      000000BCH   SFRSYM    DATA     BYTE      ADC_CONTR
      000000E7H   SFRSYM    DATA     BYTE      CMPCR2
      000000E6H   SFRSYM    DATA     BYTE      CMPCR1
      000000C4H   SFRSYM    DATA     BYTE      IAP_ADDRL
      000000C3H   SFRSYM    DATA     BYTE      IAP_ADDRH
      000000F6H   SFRSYM    DATA     BYTE      IAP_ADDRE
      000000B8H   SFRSYM    DATA     BYTE      IP
      0000008FH   SFRSYM    DATA     BYTE      INTCLKO
      000000EEH   SFRSYM    DATA     BYTE      IP3H
      000000B6H   SFRSYM    DATA     BYTE      IP2H
      000000C5H   SFRSYM    DATA     BYTE      IAP_CMD
      000000A8H   SFRSYM    DATA     BYTE      IE
      000000BBH   SFRSYM    DATA     BYTE      P_SW3
      000000BAH   SFRSYM    DATA     BYTE      P_SW2
      000000A2H   SFRSYM    DATA     BYTE      P_SW1
      000000CEH   SFRSYM    DATA     BYTE      SPCTL
      000000F8H   SFRSYM    DATA     BYTE      P7
      000000A8H.7 SFRSYM    DATA     BIT       EA
      000000E8H   SFRSYM    DATA     BYTE      P6
      000000C8H   SFRSYM    DATA     BYTE      P5
      000000C0H   SFRSYM    DATA     BYTE      P4
      000000B0H   SFRSYM    DATA     BYTE      P3
      000000A0H   SFRSYM    DATA     BYTE      P2
      00000090H   SFRSYM    DATA     BYTE      P1
      00000080H   SFRSYM    DATA     BYTE      P0
      00000B28H   SYMBOL    EDATA    BYTE      write_time
      000007A0H   SYMBOL    EDATA    DWORD     addr
      000007A4H   SYMBOL    EDATA    ---       buf
      000007A8H   SYMBOL    EDATA    WORD      len
      000007AAH   SYMBOL    EDATA    DWORD     addr
      000007AEH   SYMBOL    EDATA    ---       buf
      000007B2H   SYMBOL    EDATA    WORD      len
      00000A7FH   SYMBOL    EDATA    DWORD     addr

      ---         MODULE    ---      ---       zf_exti
      000000D0H   SFRSYM    DATA     BYTE      PSW
      0000009DH   SFRSYM    DATA     BYTE      IRCBAND
      00000097H   SFRSYM    DATA     BYTE      AUXR2
      000000EFH   SFRSYM    DATA     BYTE      AUXINTIF
      000000FDH   SFRSYM    DATA     BYTE      S4CON
      000000ACH   SFRSYM    DATA     BYTE      S3CON
      0000009AH   SFRSYM    DATA     BYTE      S2CON
      000000B7H   SFRSYM    DATA     BYTE      IPH
      000000CDH   SFRSYM    DATA     BYTE      SPSTAT
      000000DDH   SFRSYM    DATA     BYTE      T4T3M
      000000C1H   SFRSYM    DATA     BYTE      WDT_CONTR
      00000088H.2 SFRSYM    DATA     BIT       IT1
L251 LINKER/LOCATER V4.66.93.0                                                        04/24/2024  12:31:03  PAGE 35


      000000A8H.2 SFRSYM    DATA     BIT       EX1
      00000088H.0 SFRSYM    DATA     BIT       IT0
      000000A8H.0 SFRSYM    DATA     BIT       EX0
      000000DFH   SFRSYM    DATA     BYTE      IP3
      000000F4H   SFRSYM    DATA     BYTE      USBCON
      000000B5H   SFRSYM    DATA     BYTE      IP2
      000000FFH   SFRSYM    DATA     BYTE      RSTCFG
      000000F9H   SFRSYM    DATA     BYTE      LINICR
      0000008EH   SFRSYM    DATA     BYTE      AUXR
      000000AFH   SFRSYM    DATA     BYTE      IE2
      00000088H   SFRSYM    DATA     BYTE      TCON
      00000098H   SFRSYM    DATA     BYTE      SCON
      000000F1H   SFRSYM    DATA     BYTE      CANICR
      00000087H   SFRSYM    DATA     BYTE      PCON
      000000BCH   SFRSYM    DATA     BYTE      ADC_CONTR
      000000E7H   SFRSYM    DATA     BYTE      CMPCR2
      000000E6H   SFRSYM    DATA     BYTE      CMPCR1
      000000B8H   SFRSYM    DATA     BYTE      IP
      0000008FH   SFRSYM    DATA     BYTE      INTCLKO
      000000EEH   SFRSYM    DATA     BYTE      IP3H
      000000B6H   SFRSYM    DATA     BYTE      IP2H
      000000A8H   SFRSYM    DATA     BYTE      IE
      000000BBH   SFRSYM    DATA     BYTE      P_SW3
      000000BAH   SFRSYM    DATA     BYTE      P_SW2
      000000A2H   SFRSYM    DATA     BYTE      P_SW1
      000000CEH   SFRSYM    DATA     BYTE      SPCTL
      000000F8H   SFRSYM    DATA     BYTE      P7
      000000E8H   SFRSYM    DATA     BYTE      P6
      000000C8H   SFRSYM    DATA     BYTE      P5
      000000C0H   SFRSYM    DATA     BYTE      P4
      000000B0H   SFRSYM    DATA     BYTE      P3
      000000A0H   SFRSYM    DATA     BYTE      P2
      00000090H   SFRSYM    DATA     BYTE      P1
      00000080H   SFRSYM    DATA     BYTE      P0
      00000A83H   SYMBOL    EDATA    INT       int_n
      00000A85H   SYMBOL    EDATA    INT       mode

      ---         MODULE    ---      ---       zf_gpio
      00FF39A9H   PUBLIC    CODE     ---       gpio_mode
      00000094H   SFRSYM    DATA     BYTE      P0M0
      000000D0H   SFRSYM    DATA     BYTE      PSW
      0000009DH   SFRSYM    DATA     BYTE      IRCBAND
      00000097H   SFRSYM    DATA     BYTE      AUXR2
      000000EFH   SFRSYM    DATA     BYTE      AUXINTIF
      000000FDH   SFRSYM    DATA     BYTE      S4CON
      000000ACH   SFRSYM    DATA     BYTE      S3CON
      0000009AH   SFRSYM    DATA     BYTE      S2CON
      000000B7H   SFRSYM    DATA     BYTE      IPH
      000000CDH   SFRSYM    DATA     BYTE      SPSTAT
      000000DDH   SFRSYM    DATA     BYTE      T4T3M
      000000C1H   SFRSYM    DATA     BYTE      WDT_CONTR
      000000DFH   SFRSYM    DATA     BYTE      IP3
      000000F4H   SFRSYM    DATA     BYTE      USBCON
      000000B5H   SFRSYM    DATA     BYTE      IP2
      000000FFH   SFRSYM    DATA     BYTE      RSTCFG
      000000F9H   SFRSYM    DATA     BYTE      LINICR
      0000008EH   SFRSYM    DATA     BYTE      AUXR
      000000AFH   SFRSYM    DATA     BYTE      IE2
      00000088H   SFRSYM    DATA     BYTE      TCON
      00000098H   SFRSYM    DATA     BYTE      SCON
      000000F1H   SFRSYM    DATA     BYTE      CANICR
      00000087H   SFRSYM    DATA     BYTE      PCON
      000000BCH   SFRSYM    DATA     BYTE      ADC_CONTR
      000000E7H   SFRSYM    DATA     BYTE      CMPCR2
      000000E6H   SFRSYM    DATA     BYTE      CMPCR1
L251 LINKER/LOCATER V4.66.93.0                                                        04/24/2024  12:31:03  PAGE 36


      000000B8H   SFRSYM    DATA     BYTE      IP
      0000008FH   SFRSYM    DATA     BYTE      INTCLKO
      000000EEH   SFRSYM    DATA     BYTE      IP3H
      000000B6H   SFRSYM    DATA     BYTE      IP2H
      000000A8H   SFRSYM    DATA     BYTE      IE
      000000BBH   SFRSYM    DATA     BYTE      P_SW3
      000000BAH   SFRSYM    DATA     BYTE      P_SW2
      000000A2H   SFRSYM    DATA     BYTE      P_SW1
      000000CEH   SFRSYM    DATA     BYTE      SPCTL
      000000F8H   SFRSYM    DATA     BYTE      P7
      000000E1H   SFRSYM    DATA     BYTE      P7M1
      000000E8H   SFRSYM    DATA     BYTE      P6
      000000C8H   SFRSYM    DATA     BYTE      P5
      000000CBH   SFRSYM    DATA     BYTE      P6M1
      000000E2H   SFRSYM    DATA     BYTE      P7M0
      000000C0H   SFRSYM    DATA     BYTE      P4
      000000C9H   SFRSYM    DATA     BYTE      P5M1
      000000CCH   SFRSYM    DATA     BYTE      P6M0
      000000B0H   SFRSYM    DATA     BYTE      P3
      000000B3H   SFRSYM    DATA     BYTE      P4M1
      000000CAH   SFRSYM    DATA     BYTE      P5M0
      000000A0H   SFRSYM    DATA     BYTE      P2
      000000B1H   SFRSYM    DATA     BYTE      P3M1
      000000B4H   SFRSYM    DATA     BYTE      P4M0
      00000090H   SFRSYM    DATA     BYTE      P1
      00000095H   SFRSYM    DATA     BYTE      P2M1
      000000B2H   SFRSYM    DATA     BYTE      P3M0
      00000080H   SFRSYM    DATA     BYTE      P0
      00000091H   SFRSYM    DATA     BYTE      P1M1
      00000096H   SFRSYM    DATA     BYTE      P2M0
      00000092H   SFRSYM    DATA     BYTE      P1M0
      00000093H   SFRSYM    DATA     BYTE      P0M1
      00000A87H   SYMBOL    EDATA    INT       pin
      00000A89H   SYMBOL    EDATA    INT       pull

      00FF39A9H   BLOCK     CODE     ---       LVL=0
      00000A8BH   SYMBOL    EDATA    INT       pin
      00000A8DH   SYMBOL    EDATA    INT       mode
      00FF39A9H   LINE      CODE     ---       #54
      00FF39B1H   LINE      CODE     ---       #56
      00FF39BEH   LINE      CODE     ---       #58
      00FF39CEH   LINE      CODE     ---       #60
      00FF39E9H   LINE      CODE     ---       #61
      00FF3A04H   LINE      CODE     ---       #62
      00FF3A04H   LINE      CODE     ---       #63
      00FF3A16H   LINE      CODE     ---       #65
      00FF3A31H   LINE      CODE     ---       #66
      00FF3A4CH   LINE      CODE     ---       #67
      00FF3A4CH   LINE      CODE     ---       #68
      00FF3A5EH   LINE      CODE     ---       #70
      00FF3A79H   LINE      CODE     ---       #71
      00FF3A94H   LINE      CODE     ---       #72
      00FF3A94H   LINE      CODE     ---       #74
      00FF3AA6H   LINE      CODE     ---       #76
      00FF3AC1H   LINE      CODE     ---       #77
      00FF3ADCH   LINE      CODE     ---       #78
      00FF3ADCH   LINE      CODE     ---       #79
      00FF3AEEH   LINE      CODE     ---       #81
      00FF3B09H   LINE      CODE     ---       #82
      00FF3B24H   LINE      CODE     ---       #83
      00FF3B24H   LINE      CODE     ---       #84
      00FF3B36H   LINE      CODE     ---       #86
      00FF3B51H   LINE      CODE     ---       #87
      00FF3B6CH   LINE      CODE     ---       #88
      00FF3B6CH   LINE      CODE     ---       #89
L251 LINKER/LOCATER V4.66.93.0                                                        04/24/2024  12:31:03  PAGE 37


      00FF3B7EH   LINE      CODE     ---       #91
      00FF3B99H   LINE      CODE     ---       #92
      00FF3BB4H   LINE      CODE     ---       #93
      00FF3BB4H   LINE      CODE     ---       #94
      00FF3BC9H   LINE      CODE     ---       #96
      00FF3BE4H   LINE      CODE     ---       #97
      00FF3BFFH   LINE      CODE     ---       #98
      00FF3C02H   LINE      CODE     ---       #100
      00FF3C11H   LINE      CODE     ---       #102
      00FF3C21H   LINE      CODE     ---       #104
      00FF3C3CH   LINE      CODE     ---       #105
      00FF3C55H   LINE      CODE     ---       #106
      00FF3C55H   LINE      CODE     ---       #107
      00FF3C67H   LINE      CODE     ---       #109
      00FF3C82H   LINE      CODE     ---       #110
      00FF3C9BH   LINE      CODE     ---       #111
      00FF3C9BH   LINE      CODE     ---       #112
      00FF3CADH   LINE      CODE     ---       #114
      00FF3CC8H   LINE      CODE     ---       #115
      00FF3CE1H   LINE      CODE     ---       #116
      00FF3CE1H   LINE      CODE     ---       #118
      00FF3CF3H   LINE      CODE     ---       #120
      00FF3D0EH   LINE      CODE     ---       #121
      00FF3D27H   LINE      CODE     ---       #122
      00FF3D27H   LINE      CODE     ---       #123
      00FF3D39H   LINE      CODE     ---       #125
      00FF3D54H   LINE      CODE     ---       #126
      00FF3D6DH   LINE      CODE     ---       #127
      00FF3D6DH   LINE      CODE     ---       #128
      00FF3D7FH   LINE      CODE     ---       #130
      00FF3D9AH   LINE      CODE     ---       #131
      00FF3DB3H   LINE      CODE     ---       #132
      00FF3DB3H   LINE      CODE     ---       #133
      00FF3DC5H   LINE      CODE     ---       #135
      00FF3DE0H   LINE      CODE     ---       #136
      00FF3DF9H   LINE      CODE     ---       #137
      00FF3DF9H   LINE      CODE     ---       #138
      00FF3E0EH   LINE      CODE     ---       #140
      00FF3E29H   LINE      CODE     ---       #141
      00FF3E42H   LINE      CODE     ---       #142
      00FF3E45H   LINE      CODE     ---       #145
      00FF3E54H   LINE      CODE     ---       #147
      00FF3E64H   LINE      CODE     ---       #149
      00FF3E7DH   LINE      CODE     ---       #150
      00FF3E98H   LINE      CODE     ---       #151
      00FF3E98H   LINE      CODE     ---       #152
      00FF3EAAH   LINE      CODE     ---       #154
      00FF3EC3H   LINE      CODE     ---       #155
      00FF3EDEH   LINE      CODE     ---       #156
      00FF3EDEH   LINE      CODE     ---       #157
      00FF3EF0H   LINE      CODE     ---       #159
      00FF3F09H   LINE      CODE     ---       #160
      00FF3F24H   LINE      CODE     ---       #161
      00FF3F24H   LINE      CODE     ---       #163
      00FF3F36H   LINE      CODE     ---       #165
      00FF3F4FH   LINE      CODE     ---       #166
      00FF3F6AH   LINE      CODE     ---       #167
      00FF3F6AH   LINE      CODE     ---       #168
      00FF3F7CH   LINE      CODE     ---       #170
      00FF3F95H   LINE      CODE     ---       #171
      00FF3FB0H   LINE      CODE     ---       #172
      00FF3FB0H   LINE      CODE     ---       #173
      00FF3FC2H   LINE      CODE     ---       #175
      00FF3FDBH   LINE      CODE     ---       #176
      00FF3FF6H   LINE      CODE     ---       #177
L251 LINKER/LOCATER V4.66.93.0                                                        04/24/2024  12:31:03  PAGE 38


      00FF3FF6H   LINE      CODE     ---       #178
      00FF4008H   LINE      CODE     ---       #180
      00FF4021H   LINE      CODE     ---       #181
      00FF403CH   LINE      CODE     ---       #182
      00FF403CH   LINE      CODE     ---       #183
      00FF4051H   LINE      CODE     ---       #185
      00FF406AH   LINE      CODE     ---       #186
      00FF4085H   LINE      CODE     ---       #187
      00FF4088H   LINE      CODE     ---       #189
      00FF4097H   LINE      CODE     ---       #191
      00FF40A7H   LINE      CODE     ---       #193
      00FF40C0H   LINE      CODE     ---       #194
      00FF40D9H   LINE      CODE     ---       #195
      00FF40D9H   LINE      CODE     ---       #196
      00FF40EBH   LINE      CODE     ---       #198
      00FF4104H   LINE      CODE     ---       #199
      00FF411DH   LINE      CODE     ---       #200
      00FF411DH   LINE      CODE     ---       #201
      00FF412FH   LINE      CODE     ---       #203
      00FF4148H   LINE      CODE     ---       #204
      00FF4161H   LINE      CODE     ---       #205
      00FF4161H   LINE      CODE     ---       #207
      00FF4173H   LINE      CODE     ---       #209
      00FF418CH   LINE      CODE     ---       #210
      00FF41A5H   LINE      CODE     ---       #211
      00FF41A5H   LINE      CODE     ---       #212
      00FF41B7H   LINE      CODE     ---       #214
      00FF41D0H   LINE      CODE     ---       #215
      00FF41E9H   LINE      CODE     ---       #216
      00FF41E9H   LINE      CODE     ---       #217
      00FF41FBH   LINE      CODE     ---       #219
      00FF4214H   LINE      CODE     ---       #220
      00FF422DH   LINE      CODE     ---       #221
      00FF422DH   LINE      CODE     ---       #222
      00FF423FH   LINE      CODE     ---       #224
      00FF4258H   LINE      CODE     ---       #225
      00FF4271H   LINE      CODE     ---       #226
      00FF4271H   LINE      CODE     ---       #227
      00FF4283H   LINE      CODE     ---       #229
      00FF429CH   LINE      CODE     ---       #230
      00FF42B5H   LINE      CODE     ---       #231
      00FF42B5H   LINE      CODE     ---       #233
      ---         BLOCKEND  ---      ---       LVL=0

      ---         MODULE    ---      ---       zf_nvic
      000000D0H   SFRSYM    DATA     BYTE      PSW
      0000009DH   SFRSYM    DATA     BYTE      IRCBAND
      00000097H   SFRSYM    DATA     BYTE      AUXR2
      000000EFH   SFRSYM    DATA     BYTE      AUXINTIF
      000000FDH   SFRSYM    DATA     BYTE      S4CON
      000000ACH   SFRSYM    DATA     BYTE      S3CON
      0000009AH   SFRSYM    DATA     BYTE      S2CON
      000000B7H   SFRSYM    DATA     BYTE      IPH
      000000CDH   SFRSYM    DATA     BYTE      SPSTAT
      000000DDH   SFRSYM    DATA     BYTE      T4T3M
      000000C1H   SFRSYM    DATA     BYTE      WDT_CONTR
      000000DFH   SFRSYM    DATA     BYTE      IP3
      000000F4H   SFRSYM    DATA     BYTE      USBCON
      000000B5H   SFRSYM    DATA     BYTE      IP2
      000000FFH   SFRSYM    DATA     BYTE      RSTCFG
      000000F9H   SFRSYM    DATA     BYTE      LINICR
      0000008EH   SFRSYM    DATA     BYTE      AUXR
      000000AFH   SFRSYM    DATA     BYTE      IE2
      00000088H   SFRSYM    DATA     BYTE      TCON
      00000098H   SFRSYM    DATA     BYTE      SCON
L251 LINKER/LOCATER V4.66.93.0                                                        04/24/2024  12:31:03  PAGE 39


      000000F1H   SFRSYM    DATA     BYTE      CANICR
      00000087H   SFRSYM    DATA     BYTE      PCON
      000000BCH   SFRSYM    DATA     BYTE      ADC_CONTR
      000000E7H   SFRSYM    DATA     BYTE      CMPCR2
      000000E6H   SFRSYM    DATA     BYTE      CMPCR1
      000000B8H   SFRSYM    DATA     BYTE      IP
      0000008FH   SFRSYM    DATA     BYTE      INTCLKO
      000000EEH   SFRSYM    DATA     BYTE      IP3H
      000000B6H   SFRSYM    DATA     BYTE      IP2H
      000000A8H   SFRSYM    DATA     BYTE      IE
      000000BBH   SFRSYM    DATA     BYTE      P_SW3
      000000BAH   SFRSYM    DATA     BYTE      P_SW2
      000000A2H   SFRSYM    DATA     BYTE      P_SW1
      000000CEH   SFRSYM    DATA     BYTE      SPCTL
      000000F8H   SFRSYM    DATA     BYTE      P7
      000000E8H   SFRSYM    DATA     BYTE      P6
      000000C8H   SFRSYM    DATA     BYTE      P5
      000000C0H   SFRSYM    DATA     BYTE      P4
      000000B0H   SFRSYM    DATA     BYTE      P3
      000000A0H   SFRSYM    DATA     BYTE      P2
      00000090H   SFRSYM    DATA     BYTE      P1
      00000080H   SFRSYM    DATA     BYTE      P0
      00000AB7H   SYMBOL    EDATA    INT       irqn
      00000AB9H   SYMBOL    EDATA    BYTE      priority

      ---         MODULE    ---      ---       zf_pwm
      00FF6053H   PUBLIC    CODE     ---       pwm_duty
      00FF4CF1H   PUBLIC    CODE     ---       pwm_set_gpio
      00FF4917H   PUBLIC    CODE     ---       pwm_init
      00FF8201H   PUBLIC    HCONST   ---       PWM_CCR_ADDR
      00FF8221H   PUBLIC    HCONST   ---       PWM_ARR_ADDR
      00FF8229H   PUBLIC    HCONST   ---       PWM_CCER_ADDR
      00FF8239H   PUBLIC    HCONST   ---       PWM_CCMR_ADDR
      000005F9H   PUBLIC    EDATA    BYTE      ?pwm_init?BYTE
      0000060DH   PUBLIC    EDATA    BYTE      ?pwm_freq?BYTE
      000000D0H   SFRSYM    DATA     BYTE      PSW
      0000009DH   SFRSYM    DATA     BYTE      IRCBAND
      00000097H   SFRSYM    DATA     BYTE      AUXR2
      000000EFH   SFRSYM    DATA     BYTE      AUXINTIF
      000000FDH   SFRSYM    DATA     BYTE      S4CON
      000000ACH   SFRSYM    DATA     BYTE      S3CON
      0000009AH   SFRSYM    DATA     BYTE      S2CON
      000000B7H   SFRSYM    DATA     BYTE      IPH
      000000CDH   SFRSYM    DATA     BYTE      SPSTAT
      000000DDH   SFRSYM    DATA     BYTE      T4T3M
      000000C1H   SFRSYM    DATA     BYTE      WDT_CONTR
      000000DFH   SFRSYM    DATA     BYTE      IP3
      000000F4H   SFRSYM    DATA     BYTE      USBCON
      000000B5H   SFRSYM    DATA     BYTE      IP2
      000000FFH   SFRSYM    DATA     BYTE      RSTCFG
      000000F9H   SFRSYM    DATA     BYTE      LINICR
      0000008EH   SFRSYM    DATA     BYTE      AUXR
      000000AFH   SFRSYM    DATA     BYTE      IE2
      00000088H   SFRSYM    DATA     BYTE      TCON
      00000098H   SFRSYM    DATA     BYTE      SCON
      000000F1H   SFRSYM    DATA     BYTE      CANICR
      00000087H   SFRSYM    DATA     BYTE      PCON
      000000BCH   SFRSYM    DATA     BYTE      ADC_CONTR
      000000E7H   SFRSYM    DATA     BYTE      CMPCR2
      000000E6H   SFRSYM    DATA     BYTE      CMPCR1
      000000B8H   SFRSYM    DATA     BYTE      IP
      0000008FH   SFRSYM    DATA     BYTE      INTCLKO
      000000EEH   SFRSYM    DATA     BYTE      IP3H
      000000B6H   SFRSYM    DATA     BYTE      IP2H
      000000A8H   SFRSYM    DATA     BYTE      IE
L251 LINKER/LOCATER V4.66.93.0                                                        04/24/2024  12:31:03  PAGE 40


      000000BBH   SFRSYM    DATA     BYTE      P_SW3
      000000BAH   SFRSYM    DATA     BYTE      P_SW2
      000000A2H   SFRSYM    DATA     BYTE      P_SW1
      000000CEH   SFRSYM    DATA     BYTE      SPCTL
      000000F8H   SFRSYM    DATA     BYTE      P7
      000000E8H   SFRSYM    DATA     BYTE      P6
      000000C8H   SFRSYM    DATA     BYTE      P5
      000000C0H   SFRSYM    DATA     BYTE      P4
      000000B0H   SFRSYM    DATA     BYTE      P3
      000000A0H   SFRSYM    DATA     BYTE      P2
      00000090H   SFRSYM    DATA     BYTE      P1
      00000080H   SFRSYM    DATA     BYTE      P0

      00FF4CF1H   BLOCK     CODE     ---       LVL=0
      00000AE9H   SYMBOL    EDATA    INT       pwmch
      00FF4CF1H   LINE      CODE     ---       #49
      00FF4CF5H   LINE      CODE     ---       #51
      00FF4E6AH   LINE      CODE     ---       #53
      00FF4E6AH   LINE      CODE     ---       #55
      00FF4E75H   LINE      CODE     ---       #56
      00FF4E78H   LINE      CODE     ---       #58
      00FF4E78H   LINE      CODE     ---       #60
      00FF4E83H   LINE      CODE     ---       #61
      00FF4E86H   LINE      CODE     ---       #63
      00FF4E86H   LINE      CODE     ---       #65
      00FF4E91H   LINE      CODE     ---       #66
      00FF4E94H   LINE      CODE     ---       #68
      00FF4E94H   LINE      CODE     ---       #70
      00FF4E9FH   LINE      CODE     ---       #71
      00FF4EA2H   LINE      CODE     ---       #73
      00FF4EA2H   LINE      CODE     ---       #75
      00FF4EADH   LINE      CODE     ---       #76
      00FF4EB0H   LINE      CODE     ---       #78
      00FF4EB0H   LINE      CODE     ---       #80
      00FF4EBBH   LINE      CODE     ---       #81
      00FF4EBEH   LINE      CODE     ---       #84
      00FF4EBEH   LINE      CODE     ---       #86
      00FF4EC9H   LINE      CODE     ---       #87
      00FF4ECCH   LINE      CODE     ---       #89
      00FF4ECCH   LINE      CODE     ---       #91
      00FF4ED7H   LINE      CODE     ---       #92
      00FF4EDAH   LINE      CODE     ---       #94
      00FF4EDAH   LINE      CODE     ---       #96
      00FF4EE5H   LINE      CODE     ---       #97
      00FF4EE8H   LINE      CODE     ---       #99
      00FF4EE8H   LINE      CODE     ---       #101
      00FF4EF3H   LINE      CODE     ---       #102
      00FF4EF6H   LINE      CODE     ---       #104
      00FF4EF6H   LINE      CODE     ---       #106
      00FF4F01H   LINE      CODE     ---       #107
      00FF4F04H   LINE      CODE     ---       #109
      00FF4F04H   LINE      CODE     ---       #111
      00FF4F0FH   LINE      CODE     ---       #112
      00FF4F12H   LINE      CODE     ---       #115
      00FF4F12H   LINE      CODE     ---       #117
      00FF4F1DH   LINE      CODE     ---       #118
      00FF4F20H   LINE      CODE     ---       #120
      00FF4F20H   LINE      CODE     ---       #122
      00FF4F2BH   LINE      CODE     ---       #123
      00FF4F2EH   LINE      CODE     ---       #125
      00FF4F2EH   LINE      CODE     ---       #127
      00FF4F39H   LINE      CODE     ---       #128
      00FF4F3CH   LINE      CODE     ---       #130
      00FF4F3CH   LINE      CODE     ---       #132
      00FF4F47H   LINE      CODE     ---       #133
L251 LINKER/LOCATER V4.66.93.0                                                        04/24/2024  12:31:03  PAGE 41


      00FF4F4AH   LINE      CODE     ---       #135
      00FF4F4AH   LINE      CODE     ---       #137
      00FF4F55H   LINE      CODE     ---       #138
      00FF4F58H   LINE      CODE     ---       #140
      00FF4F58H   LINE      CODE     ---       #142
      00FF4F63H   LINE      CODE     ---       #143
      00FF4F66H   LINE      CODE     ---       #147
      00FF4F66H   LINE      CODE     ---       #149
      00FF4F71H   LINE      CODE     ---       #150
      00FF4F74H   LINE      CODE     ---       #152
      00FF4F74H   LINE      CODE     ---       #154
      00FF4F7FH   LINE      CODE     ---       #155
      00FF4F82H   LINE      CODE     ---       #157
      00FF4F82H   LINE      CODE     ---       #159
      00FF4F8DH   LINE      CODE     ---       #160
      00FF4F90H   LINE      CODE     ---       #162
      00FF4F90H   LINE      CODE     ---       #164
      00FF4F9BH   LINE      CODE     ---       #165
      00FF4F9EH   LINE      CODE     ---       #167
      00FF4F9EH   LINE      CODE     ---       #169
      00FF4FA9H   LINE      CODE     ---       #170
      00FF4FACH   LINE      CODE     ---       #172
      00FF4FACH   LINE      CODE     ---       #174
      00FF4FB7H   LINE      CODE     ---       #175
      00FF4FBAH   LINE      CODE     ---       #177
      00FF4FBAH   LINE      CODE     ---       #179
      00FF4FC5H   LINE      CODE     ---       #180
      00FF4FC8H   LINE      CODE     ---       #182
      00FF4FC8H   LINE      CODE     ---       #184
      00FF4FD3H   LINE      CODE     ---       #185
      00FF4FD6H   LINE      CODE     ---       #189
      00FF4FD6H   LINE      CODE     ---       #191
      00FF4FE1H   LINE      CODE     ---       #192
      00FF4FE4H   LINE      CODE     ---       #194
      00FF4FE4H   LINE      CODE     ---       #196
      00FF4FEFH   LINE      CODE     ---       #197
      00FF4FF2H   LINE      CODE     ---       #199
      00FF4FF2H   LINE      CODE     ---       #201
      00FF4FFBH   LINE      CODE     ---       #202
      00FF4FFEH   LINE      CODE     ---       #204
      00FF4FFEH   LINE      CODE     ---       #206
      00FF5009H   LINE      CODE     ---       #207
      00FF500CH   LINE      CODE     ---       #210
      00FF500CH   LINE      CODE     ---       #212
      00FF5017H   LINE      CODE     ---       #213
      00FF501AH   LINE      CODE     ---       #215
      00FF501AH   LINE      CODE     ---       #217
      00FF5025H   LINE      CODE     ---       #218
      00FF5028H   LINE      CODE     ---       #220
      00FF5028H   LINE      CODE     ---       #222
      00FF5033H   LINE      CODE     ---       #223
      00FF5035H   LINE      CODE     ---       #225
      00FF5035H   LINE      CODE     ---       #227
      00FF5040H   LINE      CODE     ---       #228
      00FF5042H   LINE      CODE     ---       #232
      00FF5042H   LINE      CODE     ---       #234
      00FF504DH   LINE      CODE     ---       #235
      00FF504FH   LINE      CODE     ---       #237
      00FF504FH   LINE      CODE     ---       #239
      00FF505AH   LINE      CODE     ---       #240
      00FF505CH   LINE      CODE     ---       #242
      00FF505CH   LINE      CODE     ---       #244
      00FF5067H   LINE      CODE     ---       #245
      00FF5069H   LINE      CODE     ---       #247
      00FF5069H   LINE      CODE     ---       #249
L251 LINKER/LOCATER V4.66.93.0                                                        04/24/2024  12:31:03  PAGE 42


      00FF5074H   LINE      CODE     ---       #250
      00FF5076H   LINE      CODE     ---       #254
      00FF5076H   LINE      CODE     ---       #256
      00FF5081H   LINE      CODE     ---       #257
      00FF5083H   LINE      CODE     ---       #259
      00FF5083H   LINE      CODE     ---       #261
      00FF508EH   LINE      CODE     ---       #262
      00FF5090H   LINE      CODE     ---       #264
      00FF5090H   LINE      CODE     ---       #266
      00FF509BH   LINE      CODE     ---       #267
      00FF509DH   LINE      CODE     ---       #269
      00FF509DH   LINE      CODE     ---       #271
      00FF50A8H   LINE      CODE     ---       #272
      00FF50A8H   LINE      CODE     ---       #275
      00FF50A8H   LINE      CODE     ---       #277
      ---         BLOCKEND  ---      ---       LVL=0

      00FF4917H   BLOCK     CODE     ---       LVL=0
      000005F9H   SYMBOL    EDATA    INT       pwmch
      000005FBH   SYMBOL    EDATA    DWORD     freq
      000005FFH   SYMBOL    EDATA    DWORD     duty
      00FF491FH   BLOCK     CODE     NEAR LAB  LVL=1
      00000603H   SYMBOL    EDATA    DWORD     match_temp
      00000607H   SYMBOL    EDATA    DWORD     period_temp
      0000060BH   SYMBOL    EDATA    WORD      freq_div
      ---         BLOCKEND  ---      ---       LVL=1
      00FF4917H   LINE      CODE     ---       #290
      00FF491FH   LINE      CODE     ---       #291
      00FF491FH   LINE      CODE     ---       #295
      00FF4925H   LINE      CODE     ---       #298
      00FF4928H   LINE      CODE     ---       #301
      00FF492FH   LINE      CODE     ---       #305
      00FF4942H   LINE      CODE     ---       #306
      00FF4951H   LINE      CODE     ---       #307
      00FF496CH   LINE      CODE     ---       #309
      00FF4976H   LINE      CODE     ---       #311
      00FF499DH   LINE      CODE     ---       #312
      00FF499FH   LINE      CODE     ---       #315
      00FF49ADH   LINE      CODE     ---       #316
      00FF49ADH   LINE      CODE     ---       #319
      00FF49BCH   LINE      CODE     ---       #322
      00FF49EDH   LINE      CODE     ---       #323
      00FF4A24H   LINE      CODE     ---       #326
      00FF4A76H   LINE      CODE     ---       #329
      00FF4A89H   LINE      CODE     ---       #330
      00FF4A98H   LINE      CODE     ---       #332
      00FF4AA5H   LINE      CODE     ---       #333
      00FF4AB2H   LINE      CODE     ---       #334
      00FF4AB5H   LINE      CODE     ---       #337
      00FF4AF3H   LINE      CODE     ---       #338
      00FF4B26H   LINE      CODE     ---       #341
      00FF4B86H   LINE      CODE     ---       #345
      00FF4B99H   LINE      CODE     ---       #346
      00FF4BA8H   LINE      CODE     ---       #348
      00FF4BB5H   LINE      CODE     ---       #349
      00FF4BC2H   LINE      CODE     ---       #350
      00FF4BC2H   LINE      CODE     ---       #353
      00FF4BF4H   LINE      CODE     ---       #354
      00FF4C2CH   LINE      CODE     ---       #357
      00FF4C5AH   LINE      CODE     ---       #358
      00FF4C8EH   LINE      CODE     ---       #361
      00FF4CBFH   LINE      CODE     ---       #362
      00FF4CF0H   LINE      CODE     ---       #367
      ---         BLOCKEND  ---      ---       LVL=0

L251 LINKER/LOCATER V4.66.93.0                                                        04/24/2024  12:31:03  PAGE 43


      00FF6053H   BLOCK     CODE     ---       LVL=0
      000006A8H   SYMBOL    EDATA    INT       pwmch
      000006AAH   SYMBOL    EDATA    DWORD     duty
      00FF605BH   BLOCK     CODE     NEAR LAB  LVL=1
      000006AEH   SYMBOL    EDATA    DWORD     match_temp
      000006B2H   SYMBOL    EDATA    DWORD     arr
      ---         BLOCKEND  ---      ---       LVL=1
      00FF6053H   LINE      CODE     ---       #377
      00FF605BH   LINE      CODE     ---       #378
      00FF605BH   LINE      CODE     ---       #380
      00FF60C7H   LINE      CODE     ---       #384
      00FF60D1H   LINE      CODE     ---       #386
      00FF60F8H   LINE      CODE     ---       #387
      00FF60FAH   LINE      CODE     ---       #390
      00FF6108H   LINE      CODE     ---       #391
      00FF6108H   LINE      CODE     ---       #396
      00FF6136H   LINE      CODE     ---       #397
      00FF616AH   LINE      CODE     ---       #401
      ---         BLOCKEND  ---      ---       LVL=0
      0000060DH   SYMBOL    EDATA    INT       pwmch
      0000060FH   SYMBOL    EDATA    DWORD     freq
      00000613H   SYMBOL    EDATA    DWORD     duty
      00000617H   SYMBOL    EDATA    DWORD     match_temp
      0000061BH   SYMBOL    EDATA    DWORD     period_temp
      0000061FH   SYMBOL    EDATA    WORD      freq_div

      ---         MODULE    ---      ---       zf_spi
      00FF6669H   PUBLIC    CODE     ---       spi_init
      00FF7F39H   PUBLIC    CODE     ---       spi_mosi
      000006EEH   PUBLIC    EDATA    BYTE      ?spi_init?BYTE
      000000CFH   SFRSYM    DATA     BYTE      SPDAT
      000000D0H   SFRSYM    DATA     BYTE      PSW
      0000009DH   SFRSYM    DATA     BYTE      IRCBAND
      00000097H   SFRSYM    DATA     BYTE      AUXR2
      000000EFH   SFRSYM    DATA     BYTE      AUXINTIF
      000000FDH   SFRSYM    DATA     BYTE      S4CON
      000000ACH   SFRSYM    DATA     BYTE      S3CON
      0000009AH   SFRSYM    DATA     BYTE      S2CON
      000000B7H   SFRSYM    DATA     BYTE      IPH
      000000CDH   SFRSYM    DATA     BYTE      SPSTAT
      000000DDH   SFRSYM    DATA     BYTE      T4T3M
      000000C1H   SFRSYM    DATA     BYTE      WDT_CONTR
      000000DFH   SFRSYM    DATA     BYTE      IP3
      000000F4H   SFRSYM    DATA     BYTE      USBCON
      000000B5H   SFRSYM    DATA     BYTE      IP2
      000000FFH   SFRSYM    DATA     BYTE      RSTCFG
      000000F9H   SFRSYM    DATA     BYTE      LINICR
      0000008EH   SFRSYM    DATA     BYTE      AUXR
      000000AFH   SFRSYM    DATA     BYTE      IE2
      00000088H   SFRSYM    DATA     BYTE      TCON
      00000098H   SFRSYM    DATA     BYTE      SCON
      000000F1H   SFRSYM    DATA     BYTE      CANICR
      00000087H   SFRSYM    DATA     BYTE      PCON
      000000BCH   SFRSYM    DATA     BYTE      ADC_CONTR
      000000E7H   SFRSYM    DATA     BYTE      CMPCR2
      000000E6H   SFRSYM    DATA     BYTE      CMPCR1
      000000B8H   SFRSYM    DATA     BYTE      IP
      0000008FH   SFRSYM    DATA     BYTE      INTCLKO
      000000EEH   SFRSYM    DATA     BYTE      IP3H
      000000B6H   SFRSYM    DATA     BYTE      IP2H
      000000A8H   SFRSYM    DATA     BYTE      IE
      000000BBH   SFRSYM    DATA     BYTE      P_SW3
      000000BAH   SFRSYM    DATA     BYTE      P_SW2
      000000A2H   SFRSYM    DATA     BYTE      P_SW1
      000000CEH   SFRSYM    DATA     BYTE      SPCTL
L251 LINKER/LOCATER V4.66.93.0                                                        04/24/2024  12:31:03  PAGE 44


      000000F8H   SFRSYM    DATA     BYTE      P7
      000000E8H   SFRSYM    DATA     BYTE      P6
      000000C8H   SFRSYM    DATA     BYTE      P5
      000000C0H   SFRSYM    DATA     BYTE      P4
      000000B0H   SFRSYM    DATA     BYTE      P3
      000000A0H   SFRSYM    DATA     BYTE      P2
      00000090H   SFRSYM    DATA     BYTE      P1
      00000080H   SFRSYM    DATA     BYTE      P0

      00FF6669H   BLOCK     CODE     ---       LVL=0
      000006EEH   SYMBOL    EDATA    INT       spi_n
      000006F0H   SYMBOL    EDATA    INT       sck_pin
      000006F2H   SYMBOL    EDATA    INT       mosi_pin
      000006F4H   SYMBOL    EDATA    INT       miso_pin
      000006F6H   SYMBOL    EDATA    BYTE      mode
      000006F7H   SYMBOL    EDATA    INT       mstr
      000006F9H   SYMBOL    EDATA    INT       baud
      00FF6669H   LINE      CODE     ---       #39
      00FF667DH   LINE      CODE     ---       #48
      00FF6689H   LINE      CODE     ---       #50
      00FF6698H   LINE      CODE     ---       #51
      00FF6698H   LINE      CODE     ---       #53
      00FF66A4H   LINE      CODE     ---       #55
      00FF66B3H   LINE      CODE     ---       #56
      00FF66B3H   LINE      CODE     ---       #58
      00FF66BFH   LINE      CODE     ---       #60
      00FF66CEH   LINE      CODE     ---       #61
      00FF66CEH   LINE      CODE     ---       #64
      00FF66D1H   LINE      CODE     ---       #65
      00FF66E7H   LINE      CODE     ---       #67
      00FF66E7H   LINE      CODE     ---       #68
      00FF66EBH   LINE      CODE     ---       #69
      00FF66EDH   LINE      CODE     ---       #70
      00FF66EDH   LINE      CODE     ---       #71
      00FF66F0H   LINE      CODE     ---       #72
      00FF66F2H   LINE      CODE     ---       #73
      00FF66F2H   LINE      CODE     ---       #74
      00FF66F5H   LINE      CODE     ---       #75
      00FF66F7H   LINE      CODE     ---       #76
      00FF66F7H   LINE      CODE     ---       #77
      00FF66FAH   LINE      CODE     ---       #78
      00FF66FAH   LINE      CODE     ---       #79
      00FF66FAH   LINE      CODE     ---       #81
      00FF66FDH   LINE      CODE     ---       #82
      00FF670CH   LINE      CODE     ---       #84
      00FF670CH   LINE      CODE     ---       #86
      00FF670EH   LINE      CODE     ---       #87
      00FF670EH   LINE      CODE     ---       #88
      00FF6711H   LINE      CODE     ---       #89
      00FF6713H   LINE      CODE     ---       #90
      00FF6713H   LINE      CODE     ---       #91
      00FF6716H   LINE      CODE     ---       #92
      00FF6718H   LINE      CODE     ---       #93
      00FF6718H   LINE      CODE     ---       #94
      00FF671BH   LINE      CODE     ---       #95
      00FF671BH   LINE      CODE     ---       #96
      00FF671BH   LINE      CODE     ---       #99
      00FF6723H   LINE      CODE     ---       #101
      00FF672DH   LINE      CODE     ---       #103
      00FF6730H   LINE      CODE     ---       #104
      00FF6733H   LINE      CODE     ---       #105
      00FF6733H   LINE      CODE     ---       #109
      00FF6733H   LINE      CODE     ---       #110
      00FF6736H   LINE      CODE     ---       #111
      ---         BLOCKEND  ---      ---       LVL=0
L251 LINKER/LOCATER V4.66.93.0                                                        04/24/2024  12:31:03  PAGE 45



      00FF7F39H   BLOCK     CODE     ---       LVL=0
      00000B29H   SYMBOL    EDATA    BYTE      dat
      00FF7F39H   LINE      CODE     ---       #121
      00FF7F3DH   LINE      CODE     ---       #123
      00FF7F3FH   LINE      CODE     ---       #124
      00FF7F44H   LINE      CODE     ---       #125
      00FF7F48H   LINE      CODE     ---       #126
      00FF7F4AH   LINE      CODE     ---       #127
      ---         BLOCKEND  ---      ---       LVL=0
      00000AEBH   SYMBOL    EDATA    INT       spi_n
      00000B2AH   SYMBOL    EDATA    BYTE      mode

      ---         MODULE    ---      ---       zf_tim
      000000D0H   SFRSYM    DATA     BYTE      PSW
      0000009DH   SFRSYM    DATA     BYTE      IRCBAND
      00000097H   SFRSYM    DATA     BYTE      AUXR2
      000000EFH   SFRSYM    DATA     BYTE      AUXINTIF
      000000FDH   SFRSYM    DATA     BYTE      S4CON
      000000ACH   SFRSYM    DATA     BYTE      S3CON
      0000009AH   SFRSYM    DATA     BYTE      S2CON
      000000B7H   SFRSYM    DATA     BYTE      IPH
      000000CDH   SFRSYM    DATA     BYTE      SPSTAT
      000000DDH   SFRSYM    DATA     BYTE      T4T3M
      000000C1H   SFRSYM    DATA     BYTE      WDT_CONTR
      00000088H.6 SFRSYM    DATA     BIT       TR1
      00000088H.4 SFRSYM    DATA     BIT       TR0
      000000D3H   SFRSYM    DATA     BYTE      T4L
      000000D5H   SFRSYM    DATA     BYTE      T3L
      000000D7H   SFRSYM    DATA     BYTE      T2L
      0000008BH   SFRSYM    DATA     BYTE      TL1
      0000008AH   SFRSYM    DATA     BYTE      TL0
      000000D2H   SFRSYM    DATA     BYTE      T4H
      000000D4H   SFRSYM    DATA     BYTE      T3H
      000000D6H   SFRSYM    DATA     BYTE      T2H
      0000008DH   SFRSYM    DATA     BYTE      TH1
      0000008CH   SFRSYM    DATA     BYTE      TH0
      000000DFH   SFRSYM    DATA     BYTE      IP3
      000000F4H   SFRSYM    DATA     BYTE      USBCON
      000000B5H   SFRSYM    DATA     BYTE      IP2
      000000FFH   SFRSYM    DATA     BYTE      RSTCFG
      000000A8H.3 SFRSYM    DATA     BIT       ET1
      000000A8H.1 SFRSYM    DATA     BIT       ET0
      000000F9H   SFRSYM    DATA     BYTE      LINICR
      0000008EH   SFRSYM    DATA     BYTE      AUXR
      000000AFH   SFRSYM    DATA     BYTE      IE2
      00000088H   SFRSYM    DATA     BYTE      TCON
      00000089H   SFRSYM    DATA     BYTE      TMOD
      00000098H   SFRSYM    DATA     BYTE      SCON
      000000F1H   SFRSYM    DATA     BYTE      CANICR
      00000087H   SFRSYM    DATA     BYTE      PCON
      000000BCH   SFRSYM    DATA     BYTE      ADC_CONTR
      000000E7H   SFRSYM    DATA     BYTE      CMPCR2
      000000E6H   SFRSYM    DATA     BYTE      CMPCR1
      000000B8H   SFRSYM    DATA     BYTE      IP
      0000008FH   SFRSYM    DATA     BYTE      INTCLKO
      000000EEH   SFRSYM    DATA     BYTE      IP3H
      000000B6H   SFRSYM    DATA     BYTE      IP2H
      000000A8H   SFRSYM    DATA     BYTE      IE
      000000BBH   SFRSYM    DATA     BYTE      P_SW3
      000000BAH   SFRSYM    DATA     BYTE      P_SW2
      000000A2H   SFRSYM    DATA     BYTE      P_SW1
      000000CEH   SFRSYM    DATA     BYTE      SPCTL
      000000F8H   SFRSYM    DATA     BYTE      P7
      000000E8H   SFRSYM    DATA     BYTE      P6
L251 LINKER/LOCATER V4.66.93.0                                                        04/24/2024  12:31:03  PAGE 46


      000000C8H   SFRSYM    DATA     BYTE      P5
      000000C0H   SFRSYM    DATA     BYTE      P4
      000000B0H   SFRSYM    DATA     BYTE      P3
      000000A0H   SFRSYM    DATA     BYTE      P2
      00000090H   SFRSYM    DATA     BYTE      P1
      00000080H   SFRSYM    DATA     BYTE      P0
      00000AEDH   SYMBOL    EDATA    INT       tim_n
      00000A8FH   SYMBOL    EDATA    INT       tim_n
      00000A91H   SYMBOL    EDATA    WORD      dat
      00000AEFH   SYMBOL    EDATA    INT       tim_n
      00000963H   SYMBOL    EDATA    INT       tim_n
      00000965H   SYMBOL    EDATA    WORD      time_ms
      00000967H   SYMBOL    EDATA    WORD      temp

      ---         MODULE    ---      ---       zf_uart
      00FF6C26H   PUBLIC    CODE     ---       uart_putchar
      00FF5382H   PUBLIC    CODE     ---       uart_init
      00000A29H   PUBLIC    EDATA    ---       busy
      000006B6H   PUBLIC    EDATA    BYTE      ?uart_init?BYTE
      000007B4H   PUBLIC    EDATA    BYTE      ?uart_putbuff?BYTE
      000000D0H   SFRSYM    DATA     BYTE      PSW
      0000009DH   SFRSYM    DATA     BYTE      IRCBAND
      00000097H   SFRSYM    DATA     BYTE      AUXR2
      000000EFH   SFRSYM    DATA     BYTE      AUXINTIF
      000000FDH   SFRSYM    DATA     BYTE      S4CON
      000000ACH   SFRSYM    DATA     BYTE      S3CON
      0000009AH   SFRSYM    DATA     BYTE      S2CON
      000000FEH   SFRSYM    DATA     BYTE      S4BUF
      000000ADH   SFRSYM    DATA     BYTE      S3BUF
      0000009BH   SFRSYM    DATA     BYTE      S2BUF
      000000B7H   SFRSYM    DATA     BYTE      IPH
      000000CDH   SFRSYM    DATA     BYTE      SPSTAT
      000000DDH   SFRSYM    DATA     BYTE      T4T3M
      000000C1H   SFRSYM    DATA     BYTE      WDT_CONTR
      00000088H.6 SFRSYM    DATA     BIT       TR1
      000000D3H   SFRSYM    DATA     BYTE      T4L
      000000D5H   SFRSYM    DATA     BYTE      T3L
      000000D7H   SFRSYM    DATA     BYTE      T2L
      0000008BH   SFRSYM    DATA     BYTE      TL1
      000000D2H   SFRSYM    DATA     BYTE      T4H
      000000D4H   SFRSYM    DATA     BYTE      T3H
      000000D6H   SFRSYM    DATA     BYTE      T2H
      0000008DH   SFRSYM    DATA     BYTE      TH1
      000000DFH   SFRSYM    DATA     BYTE      IP3
      000000F4H   SFRSYM    DATA     BYTE      USBCON
      000000B5H   SFRSYM    DATA     BYTE      IP2
      000000FFH   SFRSYM    DATA     BYTE      RSTCFG
      000000F9H   SFRSYM    DATA     BYTE      LINICR
      0000008EH   SFRSYM    DATA     BYTE      AUXR
      000000AFH   SFRSYM    DATA     BYTE      IE2
      00000088H   SFRSYM    DATA     BYTE      TCON
      00000089H   SFRSYM    DATA     BYTE      TMOD
      00000098H   SFRSYM    DATA     BYTE      SCON
      000000F1H   SFRSYM    DATA     BYTE      CANICR
      00000087H   SFRSYM    DATA     BYTE      PCON
      00000099H   SFRSYM    DATA     BYTE      SBUF
      000000BCH   SFRSYM    DATA     BYTE      ADC_CONTR
      000000E7H   SFRSYM    DATA     BYTE      CMPCR2
      000000E6H   SFRSYM    DATA     BYTE      CMPCR1
      000000B8H   SFRSYM    DATA     BYTE      IP
      000000A8H.4 SFRSYM    DATA     BIT       ES
      0000008FH   SFRSYM    DATA     BYTE      INTCLKO
      000000EEH   SFRSYM    DATA     BYTE      IP3H
      000000B6H   SFRSYM    DATA     BYTE      IP2H
      000000A8H   SFRSYM    DATA     BYTE      IE
L251 LINKER/LOCATER V4.66.93.0                                                        04/24/2024  12:31:03  PAGE 47


      000000BBH   SFRSYM    DATA     BYTE      P_SW3
      000000BAH   SFRSYM    DATA     BYTE      P_SW2
      000000A2H   SFRSYM    DATA     BYTE      P_SW1
      000000CEH   SFRSYM    DATA     BYTE      SPCTL
      000000F8H   SFRSYM    DATA     BYTE      P7
      000000E8H   SFRSYM    DATA     BYTE      P6
      000000C8H   SFRSYM    DATA     BYTE      P5
      000000C0H   SFRSYM    DATA     BYTE      P4
      000000C9H   SFRSYM    DATA     BYTE      P5M1
      000000B0H   SFRSYM    DATA     BYTE      P3
      000000CAH   SFRSYM    DATA     BYTE      P5M0
      000000A0H   SFRSYM    DATA     BYTE      P2
      00000090H   SFRSYM    DATA     BYTE      P1
      00000080H   SFRSYM    DATA     BYTE      P0

      00FF5382H   BLOCK     CODE     ---       LVL=0
      000006B6H   SYMBOL    EDATA    INT       uart_n
      000006B8H   SYMBOL    EDATA    INT       uart_rx_pin
      000006BAH   SYMBOL    EDATA    INT       uart_tx_pin
      000006BCH   SYMBOL    EDATA    DWORD     baud
      000006C0H   SYMBOL    EDATA    INT       tim_n
      00FF5392H   BLOCK     CODE     NEAR LAB  LVL=1
      000006C2H   SYMBOL    EDATA    WORD      brt
      ---         BLOCKEND  ---      ---       LVL=1
      00FF5382H   LINE      CODE     ---       #42
      00FF5392H   LINE      CODE     ---       #43
      00FF5392H   LINE      CODE     ---       #46
      00FF53B9H   LINE      CODE     ---       #49
      00FF53DBH   LINE      CODE     ---       #51
      00FF53DBH   LINE      CODE     ---       #53
      00FF53E7H   LINE      CODE     ---       #55
      00FF53EAH   LINE      CODE     ---       #56
      00FF53EEH   LINE      CODE     ---       #57
      00FF53F4H   LINE      CODE     ---       #58
      00FF53FEH   LINE      CODE     ---       #59
      00FF5401H   LINE      CODE     ---       #60
      00FF5404H   LINE      CODE     ---       #61
      00FF5409H   LINE      CODE     ---       #62
      00FF540BH   LINE      CODE     ---       #63
      00FF5417H   LINE      CODE     ---       #65
      00FF541AH   LINE      CODE     ---       #66
      00FF5420H   LINE      CODE     ---       #67
      00FF542AH   LINE      CODE     ---       #68
      00FF542DH   LINE      CODE     ---       #69
      00FF542DH   LINE      CODE     ---       #70
      00FF5430H   LINE      CODE     ---       #71
      00FF5446H   LINE      CODE     ---       #73
      00FF544AH   LINE      CODE     ---       #74
      00FF544CH   LINE      CODE     ---       #75
      00FF5464H   LINE      CODE     ---       #77
      00FF5467H   LINE      CODE     ---       #78
      00FF5469H   LINE      CODE     ---       #79
      00FF5481H   LINE      CODE     ---       #81
      00FF5484H   LINE      CODE     ---       #82
      00FF5486H   LINE      CODE     ---       #83
      00FF549EH   LINE      CODE     ---       #85
      00FF54A1H   LINE      CODE     ---       #86
      00FF54A1H   LINE      CODE     ---       #87
      00FF54A6H   LINE      CODE     ---       #88
      00FF54A9H   LINE      CODE     ---       #89
      00FF54ACH   LINE      CODE     ---       #92
      00FF54ACH   LINE      CODE     ---       #94
      00FF54B8H   LINE      CODE     ---       #96
      00FF54BBH   LINE      CODE     ---       #97
      00FF54C1H   LINE      CODE     ---       #98
L251 LINKER/LOCATER V4.66.93.0                                                        04/24/2024  12:31:03  PAGE 48


      00FF54CBH   LINE      CODE     ---       #99
      00FF54CEH   LINE      CODE     ---       #100
      00FF54CEH   LINE      CODE     ---       #102
      00FF54D1H   LINE      CODE     ---       #103
      00FF54E9H   LINE      CODE     ---       #105
      00FF54EDH   LINE      CODE     ---       #106
      00FF54EFH   LINE      CODE     ---       #107
      00FF5507H   LINE      CODE     ---       #109
      00FF550AH   LINE      CODE     ---       #110
      00FF550AH   LINE      CODE     ---       #112
      00FF550DH   LINE      CODE     ---       #113
      00FF5512H   LINE      CODE     ---       #114
      00FF5515H   LINE      CODE     ---       #117
      00FF5515H   LINE      CODE     ---       #119
      00FF5521H   LINE      CODE     ---       #121
      00FF5524H   LINE      CODE     ---       #122
      00FF552AH   LINE      CODE     ---       #123
      00FF5534H   LINE      CODE     ---       #124
      00FF5537H   LINE      CODE     ---       #125
      00FF5539H   LINE      CODE     ---       #126
      00FF5545H   LINE      CODE     ---       #128
      00FF5548H   LINE      CODE     ---       #129
      00FF554EH   LINE      CODE     ---       #130
      00FF5558H   LINE      CODE     ---       #131
      00FF555BH   LINE      CODE     ---       #132
      00FF555BH   LINE      CODE     ---       #134
      00FF555EH   LINE      CODE     ---       #135
      00FF5576H   LINE      CODE     ---       #137
      00FF557AH   LINE      CODE     ---       #138
      00FF557CH   LINE      CODE     ---       #139
      00FF5594H   LINE      CODE     ---       #141
      00FF5597H   LINE      CODE     ---       #142
      00FF5597H   LINE      CODE     ---       #144
      00FF559AH   LINE      CODE     ---       #145
      00FF559FH   LINE      CODE     ---       #146
      00FF55A2H   LINE      CODE     ---       #149
      00FF55A2H   LINE      CODE     ---       #151
      00FF55AEH   LINE      CODE     ---       #153
      00FF55B1H   LINE      CODE     ---       #154
      00FF55B7H   LINE      CODE     ---       #155
      00FF55C1H   LINE      CODE     ---       #156
      00FF55C4H   LINE      CODE     ---       #157
      00FF55C6H   LINE      CODE     ---       #158
      00FF55D2H   LINE      CODE     ---       #160
      00FF55D5H   LINE      CODE     ---       #161
      00FF55DBH   LINE      CODE     ---       #162
      00FF55E5H   LINE      CODE     ---       #163
      00FF55E8H   LINE      CODE     ---       #164
      00FF55E8H   LINE      CODE     ---       #166
      00FF55EBH   LINE      CODE     ---       #167
      00FF5603H   LINE      CODE     ---       #169
      00FF5607H   LINE      CODE     ---       #170
      00FF5609H   LINE      CODE     ---       #171
      00FF5621H   LINE      CODE     ---       #173
      00FF5624H   LINE      CODE     ---       #174
      00FF5628H   LINE      CODE     ---       #175
      00FF562BH   LINE      CODE     ---       #176
      00FF562BH   LINE      CODE     ---       #177
      00FF562EH   LINE      CODE     ---       #178
      00FF5633H   LINE      CODE     ---       #179
      00FF5633H   LINE      CODE     ---       #182
      00FF5633H   LINE      CODE     ---       #184
      ---         BLOCKEND  ---      ---       LVL=0

      00FF6C26H   BLOCK     CODE     ---       LVL=0
L251 LINKER/LOCATER V4.66.93.0                                                        04/24/2024  12:31:03  PAGE 49


      00000ABAH   SYMBOL    EDATA    INT       uart_n
      00000ABCH   SYMBOL    EDATA    BYTE      dat
      00FF6C26H   LINE      CODE     ---       #193
      00FF6C2EH   LINE      CODE     ---       #195
      00FF6C40H   LINE      CODE     ---       #197
      00FF6C40H   LINE      CODE     ---       #198
      00FF6C49H   LINE      CODE     ---       #199
      00FF6C4FH   LINE      CODE     ---       #200
      00FF6C55H   LINE      CODE     ---       #201
      00FF6C57H   LINE      CODE     ---       #202
      00FF6C57H   LINE      CODE     ---       #203
      00FF6C60H   LINE      CODE     ---       #204
      00FF6C66H   LINE      CODE     ---       #205
      00FF6C6CH   LINE      CODE     ---       #206
      00FF6C6EH   LINE      CODE     ---       #207
      00FF6C6EH   LINE      CODE     ---       #208
      00FF6C77H   LINE      CODE     ---       #209
      00FF6C7DH   LINE      CODE     ---       #210
      00FF6C83H   LINE      CODE     ---       #211
      00FF6C85H   LINE      CODE     ---       #212
      00FF6C85H   LINE      CODE     ---       #213
      00FF6C8EH   LINE      CODE     ---       #214
      00FF6C94H   LINE      CODE     ---       #215
      00FF6C9AH   LINE      CODE     ---       #216
      00FF6C9AH   LINE      CODE     ---       #217
      00FF6C9AH   LINE      CODE     ---       #218
      ---         BLOCKEND  ---      ---       LVL=0
      000007B4H   SYMBOL    EDATA    INT       uart_n
      000007B6H   SYMBOL    EDATA    ---       p
      000007BAH   SYMBOL    EDATA    DWORD     len
      00000969H   SYMBOL    EDATA    INT       uart_n
      0000096BH   SYMBOL    EDATA    ---       str

      ---         MODULE    ---      ---       zf_fifo
      00000635H   PUBLIC    EDATA    BYTE      ?fifo_write_buffer?BYTE
      00000708H   PUBLIC    EDATA    BYTE      ?fifo_read_element?BYTE
      00000008H   PUBLIC    EDATA    BYTE      ?fifo_read_buffer?BYTE
      000005CBH   PUBLIC    EDATA    BYTE      ?fifo_read_tail_buffer?BYTE
      00000659H   PUBLIC    EDATA    BYTE      ?fifo_init?BYTE
      000000D0H   SFRSYM    DATA     BYTE      PSW
      0000009DH   SFRSYM    DATA     BYTE      IRCBAND
      00000097H   SFRSYM    DATA     BYTE      AUXR2
      000000EFH   SFRSYM    DATA     BYTE      AUXINTIF
      000000FDH   SFRSYM    DATA     BYTE      S4CON
      000000ACH   SFRSYM    DATA     BYTE      S3CON
      0000009AH   SFRSYM    DATA     BYTE      S2CON
      000000B7H   SFRSYM    DATA     BYTE      IPH
      000000CDH   SFRSYM    DATA     BYTE      SPSTAT
      000000DDH   SFRSYM    DATA     BYTE      T4T3M
      000000C1H   SFRSYM    DATA     BYTE      WDT_CONTR
      000000DFH   SFRSYM    DATA     BYTE      IP3
      000000F4H   SFRSYM    DATA     BYTE      USBCON
      000000B5H   SFRSYM    DATA     BYTE      IP2
      000000FFH   SFRSYM    DATA     BYTE      RSTCFG
      000000F9H   SFRSYM    DATA     BYTE      LINICR
      0000008EH   SFRSYM    DATA     BYTE      AUXR
      000000AFH   SFRSYM    DATA     BYTE      IE2
      00000088H   SFRSYM    DATA     BYTE      TCON
      00000098H   SFRSYM    DATA     BYTE      SCON
      000000F1H   SFRSYM    DATA     BYTE      CANICR
      00000087H   SFRSYM    DATA     BYTE      PCON
      000000BCH   SFRSYM    DATA     BYTE      ADC_CONTR
      000000E7H   SFRSYM    DATA     BYTE      CMPCR2
      000000E6H   SFRSYM    DATA     BYTE      CMPCR1
      000000B8H   SFRSYM    DATA     BYTE      IP
L251 LINKER/LOCATER V4.66.93.0                                                        04/24/2024  12:31:03  PAGE 50


      0000008FH   SFRSYM    DATA     BYTE      INTCLKO
      000000EEH   SFRSYM    DATA     BYTE      IP3H
      000000B6H   SFRSYM    DATA     BYTE      IP2H
      000000A8H   SFRSYM    DATA     BYTE      IE
      000000BBH   SFRSYM    DATA     BYTE      P_SW3
      000000BAH   SFRSYM    DATA     BYTE      P_SW2
      000000A2H   SFRSYM    DATA     BYTE      P_SW1
      000000CEH   SFRSYM    DATA     BYTE      SPCTL
      000000F8H   SFRSYM    DATA     BYTE      P7
      000000E8H   SFRSYM    DATA     BYTE      P6
      000000C8H   SFRSYM    DATA     BYTE      P5
      000000C0H   SFRSYM    DATA     BYTE      P4
      000000B0H   SFRSYM    DATA     BYTE      P3
      000000A0H   SFRSYM    DATA     BYTE      P2
      00000090H   SFRSYM    DATA     BYTE      P1
      00000080H   SFRSYM    DATA     BYTE      P0
      00FF6D0DH   SYMBOL    CODE     ---       fifo_head_offset

      00FF6D0DH   BLOCK     CODE     ---       LVL=0
      00000894H   SYMBOL    EDATA    ---       fifo
      00000898H   SYMBOL    EDATA    DWORD     offset
      00FF6D0DH   LINE      CODE     ---       #42
      00FF6D15H   LINE      CODE     ---       #44
      00FF6D31H   LINE      CODE     ---       #46
      00FF6D33H   LINE      CODE     ---       #48
      00FF6D5AH   LINE      CODE     ---       #49
      00FF6D7CH   LINE      CODE     ---       #50
      ---         BLOCKEND  ---      ---       LVL=0
      0000089CH   SYMBOL    EDATA    ---       fifo
      000008A0H   SYMBOL    EDATA    DWORD     offset
      0000096FH   SYMBOL    EDATA    ---       fifo
      00000973H   SYMBOL    EDATA    INT       return_state
      00000A93H   SYMBOL    EDATA    ---       fifo
      000007BEH   SYMBOL    EDATA    ---       fifo
      000007C2H   SYMBOL    EDATA    DWORD     dat
      000007C6H   SYMBOL    EDATA    INT       return_state
      00000635H   SYMBOL    EDATA    ---       fifo
      00000639H   SYMBOL    EDATA    ---       dat
      0000063DH   SYMBOL    EDATA    DWORD     length
      00000641H   SYMBOL    EDATA    INT       return_state
      00000643H   SYMBOL    EDATA    DWORD     temp_length
      00000708H   SYMBOL    EDATA    ---       fifo
      0000070CH   SYMBOL    EDATA    ---       dat
      00000710H   SYMBOL    EDATA    INT       flag
      00000712H   SYMBOL    EDATA    INT       return_state
      00000008H   SYMBOL    EDATA    ---       fifo
      0000000CH   SYMBOL    EDATA    ---       dat
      00000010H   SYMBOL    EDATA    ---       length
      00000014H   SYMBOL    EDATA    INT       flag
      00000016H   SYMBOL    EDATA    INT       return_state
      00000018H   SYMBOL    EDATA    DWORD     temp_length
      0000001CH   SYMBOL    EDATA    DWORD     fifo_data_length
      000005CBH   SYMBOL    EDATA    ---       fifo
      000005CFH   SYMBOL    EDATA    ---       dat
      000005D3H   SYMBOL    EDATA    ---       length
      000005D7H   SYMBOL    EDATA    INT       flag
      000005D9H   SYMBOL    EDATA    INT       return_state
      000005DBH   SYMBOL    EDATA    DWORD     temp_length
      000005DFH   SYMBOL    EDATA    DWORD     fifo_data_length
      00000659H   SYMBOL    EDATA    ---       fifo
      0000065DH   SYMBOL    EDATA    INT       type
      0000065FH   SYMBOL    EDATA    ---       buffer_addr
      00000663H   SYMBOL    EDATA    DWORD     len
      00000667H   SYMBOL    EDATA    INT       return_state

L251 LINKER/LOCATER V4.66.93.0                                                        04/24/2024  12:31:03  PAGE 51


      ---         MODULE    ---      ---       zf_iic
      00FF73B6H   PUBLIC    CODE     ---       wait
      00FF7A74H   PUBLIC    CODE     ---       iic_delay_us
      00000971H   PUBLIC    EDATA    BYTE      ?iic_init?BYTE
      000000D0H   SFRSYM    DATA     BYTE      PSW
      0000009DH   SFRSYM    DATA     BYTE      IRCBAND
      00000097H   SFRSYM    DATA     BYTE      AUXR2
      000000EFH   SFRSYM    DATA     BYTE      AUXINTIF
      000000FDH   SFRSYM    DATA     BYTE      S4CON
      000000ACH   SFRSYM    DATA     BYTE      S3CON
      0000009AH   SFRSYM    DATA     BYTE      S2CON
      000000B7H   SFRSYM    DATA     BYTE      IPH
      000000CDH   SFRSYM    DATA     BYTE      SPSTAT
      000000DDH   SFRSYM    DATA     BYTE      T4T3M
      000000C1H   SFRSYM    DATA     BYTE      WDT_CONTR
      000000DFH   SFRSYM    DATA     BYTE      IP3
      000000F4H   SFRSYM    DATA     BYTE      USBCON
      000000B5H   SFRSYM    DATA     BYTE      IP2
      000000FFH   SFRSYM    DATA     BYTE      RSTCFG
      000000F9H   SFRSYM    DATA     BYTE      LINICR
      0000008EH   SFRSYM    DATA     BYTE      AUXR
      000000AFH   SFRSYM    DATA     BYTE      IE2
      00000088H   SFRSYM    DATA     BYTE      TCON
      00000098H   SFRSYM    DATA     BYTE      SCON
      000000F1H   SFRSYM    DATA     BYTE      CANICR
      00000087H   SFRSYM    DATA     BYTE      PCON
      000000BCH   SFRSYM    DATA     BYTE      ADC_CONTR
      000000E7H   SFRSYM    DATA     BYTE      CMPCR2
      000000E6H   SFRSYM    DATA     BYTE      CMPCR1
      000000B8H   SFRSYM    DATA     BYTE      IP
      0000008FH   SFRSYM    DATA     BYTE      INTCLKO
      000000EEH   SFRSYM    DATA     BYTE      IP3H
      000000B6H   SFRSYM    DATA     BYTE      IP2H
      000000A8H   SFRSYM    DATA     BYTE      IE
      000000BBH   SFRSYM    DATA     BYTE      P_SW3
      000000BAH   SFRSYM    DATA     BYTE      P_SW2
      000000A2H   SFRSYM    DATA     BYTE      P_SW1
      000000CEH   SFRSYM    DATA     BYTE      SPCTL
      000000F8H   SFRSYM    DATA     BYTE      P7
      000000E8H   SFRSYM    DATA     BYTE      P6
      000000C8H   SFRSYM    DATA     BYTE      P5
      000000C0H   SFRSYM    DATA     BYTE      P4
      000000B0H   SFRSYM    DATA     BYTE      P3
      000000A0H   SFRSYM    DATA     BYTE      P2
      00000090H   SFRSYM    DATA     BYTE      P1
      00000080H   SFRSYM    DATA     BYTE      P0

      00FF7A74H   BLOCK     CODE     ---       LVL=0
      00000ABDH   SYMBOL    EDATA    WORD      x
      00FF7A78H   BLOCK     CODE     NEAR LAB  LVL=1
      00000ABFH   SYMBOL    EDATA    BYTE      i
      ---         BLOCKEND  ---      ---       LVL=1
      00FF7A74H   LINE      CODE     ---       #30
      00FF7A78H   LINE      CODE     ---       #31
      00FF7A78H   LINE      CODE     ---       #33
      00FF7A7AH   LINE      CODE     ---       #35
      00FF7A80H   LINE      CODE     ---       #36
      00FF7A92H   LINE      CODE     ---       #37
      00FF7AA8H   LINE      CODE     ---       #38
      ---         BLOCKEND  ---      ---       LVL=0

      00FF73B6H   BLOCK     CODE     ---       LVL=0
      00000AC0H   SYMBOL    EDATA    WORD      count
      00000AC2H   SYMBOL    EDATA    BYTE      ret
      00FF73B6H   LINE      CODE     ---       #47
L251 LINKER/LOCATER V4.66.93.0                                                        04/24/2024  12:31:03  PAGE 52


      00FF73B6H   LINE      CODE     ---       #48
      00FF73B6H   LINE      CODE     ---       #49
      00FF73BCH   LINE      CODE     ---       #50
      00FF73C1H   LINE      CODE     ---       #51
      00FF73C3H   LINE      CODE     ---       #53
      00FF73CAH   LINE      CODE     ---       #54
      00FF73E0H   LINE      CODE     ---       #56
      00FF73E6H   LINE      CODE     ---       #57
      00FF73E8H   LINE      CODE     ---       #58
      00FF73F6H   LINE      CODE     ---       #60
      00FF7408H   LINE      CODE     ---       #61
      00FF740CH   LINE      CODE     ---       #62
      ---         BLOCKEND  ---      ---       LVL=0
      00000B2BH   SYMBOL    EDATA    BYTE      ret
      00000AF1H   SYMBOL    EDATA    CHAR      dat
      00000AF2H   SYMBOL    EDATA    BYTE      ret
      00000B2CH   SYMBOL    EDATA    BYTE      ret
      00000B2DH   SYMBOL    EDATA    BYTE      ret
      00000B2EH   SYMBOL    EDATA    BYTE      ret
      00000975H   SYMBOL    EDATA    INT       iic_n
      00000977H   SYMBOL    EDATA    DWORD     wait_time
      00000AC3H   SYMBOL    EDATA    BYTE      dev_add
      00000AC4H   SYMBOL    EDATA    BYTE      reg
      00000AC5H   SYMBOL    EDATA    BYTE      dat
      0000097BH   SYMBOL    EDATA    BYTE      dev_add
      0000097CH   SYMBOL    EDATA    BYTE      reg
      0000097DH   SYMBOL    EDATA    ---       dat
      00000934H   SYMBOL    EDATA    BYTE      dev_add
      00000935H   SYMBOL    EDATA    BYTE      reg
      00000936H   SYMBOL    EDATA    ---       dat
      0000093AH   SYMBOL    EDATA    BYTE      num
      00000AF3H   SYMBOL    EDATA    INT       iic_n

      ---         MODULE    ---      ---       SEEKFREE_18TFT
      00FF76ADH   PUBLIC    CODE     ---       lcd_writeIndex_simspi
      00FF76F8H   PUBLIC    CODE     ---       lcd_writeData_simspi
      00FF000EH   PUBLIC    CODE     ---       lcd_writeIndex
      00FF7EADH   PUBLIC    CODE     ---       lcd_writeData
      00FF74BBH   PUBLIC    CODE     ---       lcd_writeData_16bit_simspi
      00FF705BH   PUBLIC    CODE     ---       lcd_set_region_simspi
      00FF70BFH   PUBLIC    CODE     ---       lcd_set_region
      00FF7B6FH   PUBLIC    CODE     ---       lcd_writedata_16bit
      00000714H   PUBLIC    EDATA    BYTE      ?lcd_showfloat_simspi?BYTE
      00000720H   PUBLIC    EDATA    BYTE      ?lcd_showfloat?BYTE
      000000D0H   SFRSYM    DATA     BYTE      PSW
      0000009DH   SFRSYM    DATA     BYTE      IRCBAND
      00000097H   SFRSYM    DATA     BYTE      AUXR2
      000000EFH   SFRSYM    DATA     BYTE      AUXINTIF
      000000FDH   SFRSYM    DATA     BYTE      S4CON
      000000ACH   SFRSYM    DATA     BYTE      S3CON
      0000009AH   SFRSYM    DATA     BYTE      S2CON
      000000B7H   SFRSYM    DATA     BYTE      IPH
      000000CDH   SFRSYM    DATA     BYTE      SPSTAT
      000000DDH   SFRSYM    DATA     BYTE      T4T3M
      000000C1H   SFRSYM    DATA     BYTE      WDT_CONTR
      000000DFH   SFRSYM    DATA     BYTE      IP3
      000000F4H   SFRSYM    DATA     BYTE      USBCON
      000000B5H   SFRSYM    DATA     BYTE      IP2
      000000FFH   SFRSYM    DATA     BYTE      RSTCFG
      000000F9H   SFRSYM    DATA     BYTE      LINICR
      0000008EH   SFRSYM    DATA     BYTE      AUXR
      000000AFH   SFRSYM    DATA     BYTE      IE2
      000000A0H.5 SFRSYM    DATA     BIT       P25
      00000088H   SFRSYM    DATA     BYTE      TCON
      000000A0H.3 SFRSYM    DATA     BIT       P23
L251 LINKER/LOCATER V4.66.93.0                                                        04/24/2024  12:31:03  PAGE 53


      00000098H   SFRSYM    DATA     BYTE      SCON
      000000A0H.2 SFRSYM    DATA     BIT       P22
      000000A0H.1 SFRSYM    DATA     BIT       P21
      000000A0H.0 SFRSYM    DATA     BIT       P20
      000000F1H   SFRSYM    DATA     BYTE      CANICR
      00000087H   SFRSYM    DATA     BYTE      PCON
      000000BCH   SFRSYM    DATA     BYTE      ADC_CONTR
      000000E7H   SFRSYM    DATA     BYTE      CMPCR2
      000000E6H   SFRSYM    DATA     BYTE      CMPCR1
      000000B8H   SFRSYM    DATA     BYTE      IP
      0000008FH   SFRSYM    DATA     BYTE      INTCLKO
      000000EEH   SFRSYM    DATA     BYTE      IP3H
      000000B6H   SFRSYM    DATA     BYTE      IP2H
      000000A8H   SFRSYM    DATA     BYTE      IE
      000000BBH   SFRSYM    DATA     BYTE      P_SW3
      000000BAH   SFRSYM    DATA     BYTE      P_SW2
      000000A2H   SFRSYM    DATA     BYTE      P_SW1
      000000CEH   SFRSYM    DATA     BYTE      SPCTL
      000000F8H   SFRSYM    DATA     BYTE      P7
      000000E8H   SFRSYM    DATA     BYTE      P6
      000000C8H   SFRSYM    DATA     BYTE      P5
      000000C0H   SFRSYM    DATA     BYTE      P4
      000000B0H   SFRSYM    DATA     BYTE      P3
      000000A0H   SFRSYM    DATA     BYTE      P2
      00000090H   SFRSYM    DATA     BYTE      P1
      00000080H   SFRSYM    DATA     BYTE      P0

      00FF76ADH   BLOCK     CODE     ---       LVL=0
      00000B2FH   SYMBOL    EDATA    BYTE      dat
      00FF76B1H   BLOCK     CODE     NEAR LAB  LVL=1
      000106BFH   SYMBOL    XDATA    BYTE      i
      ---         BLOCKEND  ---      ---       LVL=1
      00FF76ADH   LINE      CODE     ---       #60
      00FF76B1H   LINE      CODE     ---       #61
      00FF76B1H   LINE      CODE     ---       #62
      00FF76B7H   LINE      CODE     ---       #64
      00FF76BAH   LINE      CODE     ---       #65
      00FF76BDH   LINE      CODE     ---       #66
      00FF76C0H   LINE      CODE     ---       #68
      00FF76C2H   LINE      CODE     ---       #70
      00FF76CEH   LINE      CODE     ---       #71
      00FF76D1H   LINE      CODE     ---       #72
      00FF76D4H   LINE      CODE     ---       #74
      00FF76D7H   LINE      CODE     ---       #75
      00FF76E1H   LINE      CODE     ---       #76
      00FF76F4H   LINE      CODE     ---       #77
      00FF76F7H   LINE      CODE     ---       #78
      ---         BLOCKEND  ---      ---       LVL=0

      00FF76F8H   BLOCK     CODE     ---       LVL=0
      00000B30H   SYMBOL    EDATA    BYTE      dat
      00FF76FCH   BLOCK     CODE     NEAR LAB  LVL=1
      000106C0H   SYMBOL    XDATA    BYTE      i
      ---         BLOCKEND  ---      ---       LVL=1
      00FF76F8H   LINE      CODE     ---       #87
      00FF76FCH   LINE      CODE     ---       #88
      00FF76FCH   LINE      CODE     ---       #89
      00FF7702H   LINE      CODE     ---       #91
      00FF7705H   LINE      CODE     ---       #92
      00FF7708H   LINE      CODE     ---       #93
      00FF770BH   LINE      CODE     ---       #94
      00FF770DH   LINE      CODE     ---       #96
      00FF7719H   LINE      CODE     ---       #97
      00FF771CH   LINE      CODE     ---       #98
      00FF771FH   LINE      CODE     ---       #100
L251 LINKER/LOCATER V4.66.93.0                                                        04/24/2024  12:31:03  PAGE 54


      00FF7722H   LINE      CODE     ---       #101
      00FF772CH   LINE      CODE     ---       #102
      00FF773FH   LINE      CODE     ---       #103
      00FF7742H   LINE      CODE     ---       #104
      ---         BLOCKEND  ---      ---       LVL=0

      00FF74BBH   BLOCK     CODE     ---       LVL=0
      00000AF5H   SYMBOL    EDATA    WORD      dat
      00FF74BFH   BLOCK     CODE     NEAR LAB  LVL=1
      000106C1H   SYMBOL    XDATA    BYTE      i
      ---         BLOCKEND  ---      ---       LVL=1
      00FF74BBH   LINE      CODE     ---       #113
      00FF74BFH   LINE      CODE     ---       #114
      00FF74BFH   LINE      CODE     ---       #115
      00FF74C5H   LINE      CODE     ---       #117
      00FF74C8H   LINE      CODE     ---       #118
      00FF74CBH   LINE      CODE     ---       #119
      00FF74CEH   LINE      CODE     ---       #121
      00FF74D0H   LINE      CODE     ---       #123
      00FF74E5H   LINE      CODE     ---       #124
      00FF74E8H   LINE      CODE     ---       #125
      00FF74EBH   LINE      CODE     ---       #127
      00FF74EEH   LINE      CODE     ---       #128
      00FF74F8H   LINE      CODE     ---       #129
      00FF750BH   LINE      CODE     ---       #131
      00FF750EH   LINE      CODE     ---       #133
      ---         BLOCKEND  ---      ---       LVL=0

      00FF705BH   BLOCK     CODE     ---       LVL=0
      000008A4H   SYMBOL    EDATA    WORD      x_start
      000008A6H   SYMBOL    EDATA    WORD      y_start
      000008A8H   SYMBOL    EDATA    WORD      x_end
      000008AAH   SYMBOL    EDATA    WORD      y_end
      00FF705BH   LINE      CODE     ---       #145
      00FF706BH   LINE      CODE     ---       #163
      00FF7070H   LINE      CODE     ---       #164
      00FF7074H   LINE      CODE     ---       #165
      00FF7081H   LINE      CODE     ---       #166
      00FF7085H   LINE      CODE     ---       #167
      00FF7092H   LINE      CODE     ---       #169
      00FF7097H   LINE      CODE     ---       #170
      00FF709BH   LINE      CODE     ---       #171
      00FF70A8H   LINE      CODE     ---       #172
      00FF70ACH   LINE      CODE     ---       #173
      00FF70B9H   LINE      CODE     ---       #177
      00FF70BEH   LINE      CODE     ---       #178
      ---         BLOCKEND  ---      ---       LVL=0
      00000AC6H   SYMBOL    EDATA    INT       color
      000106C2H   SYMBOL    XDATA    BYTE      i
      00000AC8H   SYMBOL    EDATA    BYTE      j
      00000981H   SYMBOL    EDATA    WORD      x
      00000983H   SYMBOL    EDATA    WORD      y
      00000985H   SYMBOL    EDATA    WORD      color
      00000987H   SYMBOL    EDATA    WORD      x
      00000989H   SYMBOL    EDATA    WORD      y
      0000098BH   SYMBOL    EDATA    CHAR      dat
      00010689H   SYMBOL    XDATA    BYTE      i
      0000098CH   SYMBOL    EDATA    BYTE      j
      0001068AH   SYMBOL    XDATA    BYTE      temp
      000008ACH   SYMBOL    EDATA    WORD      x
      000008AEH   SYMBOL    EDATA    WORD      y
      000008B0H   SYMBOL    EDATA    ---       dat
      0001068BH   SYMBOL    XDATA    WORD      j
      00000A2EH   SYMBOL    EDATA    WORD      x
      00000A30H   SYMBOL    EDATA    WORD      y
L251 LINKER/LOCATER V4.66.93.0                                                        04/24/2024  12:31:03  PAGE 55


      00000A32H   SYMBOL    EDATA    CHAR      dat
      0001062FH   SYMBOL    XDATA    ---       a
      00010632H   SYMBOL    XDATA    BYTE      i
      00000A33H   SYMBOL    EDATA    WORD      x
      00000A35H   SYMBOL    EDATA    WORD      y
      00000A37H   SYMBOL    EDATA    BYTE      dat
      00010633H   SYMBOL    XDATA    ---       a
      00010636H   SYMBOL    XDATA    BYTE      i
      0000098DH   SYMBOL    EDATA    WORD      x
      0000098FH   SYMBOL    EDATA    WORD      y
      00000991H   SYMBOL    EDATA    INT       dat
      000105D6H   SYMBOL    XDATA    ---       a
      000105DBH   SYMBOL    XDATA    BYTE      i
      00000993H   SYMBOL    EDATA    WORD      x
      00000995H   SYMBOL    EDATA    WORD      y
      00000997H   SYMBOL    EDATA    WORD      dat
      000105DCH   SYMBOL    XDATA    ---       a
      000105E1H   SYMBOL    XDATA    BYTE      i
      00000804H   SYMBOL    EDATA    WORD      x
      00000806H   SYMBOL    EDATA    WORD      y
      00000808H   SYMBOL    EDATA    LONG      dat
      0000080CH   SYMBOL    EDATA    BYTE      num
      00010508H   SYMBOL    XDATA    ---       buff
      0001052AH   SYMBOL    XDATA    BYTE      length
      00000714H   SYMBOL    EDATA    WORD      x
      00000716H   SYMBOL    EDATA    WORD      y
      00000718H   SYMBOL    EDATA    FLOAT     dat
      0000071CH   SYMBOL    EDATA    BYTE      num
      0000071DH   SYMBOL    EDATA    BYTE      pointnum
      00010478H   SYMBOL    XDATA    BYTE      length
      00010479H   SYMBOL    XDATA    ---       buff
      0001049BH   SYMBOL    XDATA    CHAR      start
      0000071EH   SYMBOL    EDATA    CHAR      end
      0000071FH   SYMBOL    EDATA    CHAR      point

      00FF000EH   BLOCK     CODE     ---       LVL=0
      00000B31H   SYMBOL    EDATA    BYTE      dat
      00FF000EH   LINE      CODE     ---       #607
      00FF0012H   LINE      CODE     ---       #610
      00FF0015H   LINE      CODE     ---       #611
      00FF0018H   LINE      CODE     ---       #612
      00FF001FH   LINE      CODE     ---       #613
      00FF0022H   LINE      CODE     ---       #614
      ---         BLOCKEND  ---      ---       LVL=0

      00FF7EADH   BLOCK     CODE     ---       LVL=0
      00000B32H   SYMBOL    EDATA    BYTE      dat
      00FF7EADH   LINE      CODE     ---       #623
      00FF7EB1H   LINE      CODE     ---       #625
      00FF7EB4H   LINE      CODE     ---       #626
      00FF7EB7H   LINE      CODE     ---       #627
      00FF7EBEH   LINE      CODE     ---       #628
      00FF7EC1H   LINE      CODE     ---       #629
      ---         BLOCKEND  ---      ---       LVL=0

      00FF7B6FH   BLOCK     CODE     ---       LVL=0
      00000AF7H   SYMBOL    EDATA    WORD      dat
      00FF7B73H   BLOCK     CODE     NEAR LAB  LVL=1
      0001068DH   SYMBOL    XDATA    ---       dat1
      ---         BLOCKEND  ---      ---       LVL=1
      00FF7B6FH   LINE      CODE     ---       #638
      00FF7B73H   LINE      CODE     ---       #639
      00FF7B73H   LINE      CODE     ---       #642
      00FF7B7BH   LINE      CODE     ---       #643
      00FF7B83H   LINE      CODE     ---       #645
L251 LINKER/LOCATER V4.66.93.0                                                        04/24/2024  12:31:03  PAGE 56


      00FF7B86H   LINE      CODE     ---       #646
      00FF7B89H   LINE      CODE     ---       #647
      00FF7B90H   LINE      CODE     ---       #648
      00FF7B97H   LINE      CODE     ---       #649
      00FF7B9AH   LINE      CODE     ---       #651
      ---         BLOCKEND  ---      ---       LVL=0

      00FF70BFH   BLOCK     CODE     ---       LVL=0
      000008B4H   SYMBOL    EDATA    WORD      x_start
      000008B6H   SYMBOL    EDATA    WORD      y_start
      000008B8H   SYMBOL    EDATA    WORD      x_end
      000008BAH   SYMBOL    EDATA    WORD      y_end
      00FF70BFH   LINE      CODE     ---       #663
      00FF70CFH   LINE      CODE     ---       #681
      00FF70D4H   LINE      CODE     ---       #682
      00FF70D8H   LINE      CODE     ---       #683
      00FF70E5H   LINE      CODE     ---       #684
      00FF70E9H   LINE      CODE     ---       #685
      00FF70F6H   LINE      CODE     ---       #687
      00FF70FBH   LINE      CODE     ---       #688
      00FF70FFH   LINE      CODE     ---       #689
      00FF710CH   LINE      CODE     ---       #690
      00FF7110H   LINE      CODE     ---       #691
      00FF711DH   LINE      CODE     ---       #695
      00FF7122H   LINE      CODE     ---       #696
      ---         BLOCKEND  ---      ---       LVL=0
      00000AC9H   SYMBOL    EDATA    INT       color
      000106C3H   SYMBOL    XDATA    BYTE      i
      00000ACBH   SYMBOL    EDATA    BYTE      j
      00000999H   SYMBOL    EDATA    WORD      x
      0000099BH   SYMBOL    EDATA    WORD      y
      0000099DH   SYMBOL    EDATA    WORD      color
      0000099FH   SYMBOL    EDATA    WORD      x
      000009A1H   SYMBOL    EDATA    WORD      y
      000009A3H   SYMBOL    EDATA    CHAR      dat
      0001068FH   SYMBOL    XDATA    BYTE      i
      000009A4H   SYMBOL    EDATA    BYTE      j
      00010690H   SYMBOL    XDATA    BYTE      temp
      000008BCH   SYMBOL    EDATA    WORD      x
      000008BEH   SYMBOL    EDATA    WORD      y
      000008C0H   SYMBOL    EDATA    ---       dat
      00010691H   SYMBOL    XDATA    WORD      j
      00000A38H   SYMBOL    EDATA    WORD      x
      00000A3AH   SYMBOL    EDATA    WORD      y
      00000A3CH   SYMBOL    EDATA    CHAR      dat
      00010637H   SYMBOL    XDATA    ---       a
      0001063AH   SYMBOL    XDATA    BYTE      i
      00000A3DH   SYMBOL    EDATA    WORD      x
      00000A3FH   SYMBOL    EDATA    WORD      y
      00000A41H   SYMBOL    EDATA    BYTE      dat
      0001063BH   SYMBOL    XDATA    ---       a
      0001063EH   SYMBOL    XDATA    BYTE      i
      000009A5H   SYMBOL    EDATA    WORD      x
      000009A7H   SYMBOL    EDATA    WORD      y
      000009A9H   SYMBOL    EDATA    INT       dat
      000105E2H   SYMBOL    XDATA    ---       a
      000105E7H   SYMBOL    XDATA    BYTE      i
      000009ABH   SYMBOL    EDATA    WORD      x
      000009ADH   SYMBOL    EDATA    WORD      y
      000009AFH   SYMBOL    EDATA    WORD      dat
      000105E8H   SYMBOL    XDATA    ---       a
      000105EDH   SYMBOL    XDATA    BYTE      i
      0000080DH   SYMBOL    EDATA    WORD      x
      0000080FH   SYMBOL    EDATA    WORD      y
      00000811H   SYMBOL    EDATA    LONG      dat
L251 LINKER/LOCATER V4.66.93.0                                                        04/24/2024  12:31:03  PAGE 57


      00000815H   SYMBOL    EDATA    BYTE      num
      0001052BH   SYMBOL    XDATA    ---       buff
      0001054DH   SYMBOL    XDATA    BYTE      length
      00000720H   SYMBOL    EDATA    WORD      x
      00000722H   SYMBOL    EDATA    WORD      y
      00000724H   SYMBOL    EDATA    FLOAT     dat
      00000728H   SYMBOL    EDATA    BYTE      num
      00000729H   SYMBOL    EDATA    BYTE      pointnum
      0001049CH   SYMBOL    XDATA    BYTE      length
      0001049DH   SYMBOL    XDATA    ---       buff
      000104BFH   SYMBOL    XDATA    CHAR      start
      0000072AH   SYMBOL    EDATA    CHAR      end
      0000072BH   SYMBOL    EDATA    CHAR      point
      0000072CH   SYMBOL    EDATA    ---       p
      00000730H   SYMBOL    EDATA    INT       i
      00000732H   SYMBOL    EDATA    INT       j
      00000734H   SYMBOL    EDATA    INT       k
      00000736H   SYMBOL    EDATA    BYTE      picH
      00000737H   SYMBOL    EDATA    BYTE      picL

      ---         MODULE    ---      ---       SEEKFREE_BLUETOOTH_CH9141
      000000D0H   SFRSYM    DATA     BYTE      PSW
      0000009DH   SFRSYM    DATA     BYTE      IRCBAND
      00000097H   SFRSYM    DATA     BYTE      AUXR2
      000000EFH   SFRSYM    DATA     BYTE      AUXINTIF
      000000FDH   SFRSYM    DATA     BYTE      S4CON
      000000ACH   SFRSYM    DATA     BYTE      S3CON
      0000009AH   SFRSYM    DATA     BYTE      S2CON
      000000FEH   SFRSYM    DATA     BYTE      S4BUF
      000000B7H   SFRSYM    DATA     BYTE      IPH
      000000CDH   SFRSYM    DATA     BYTE      SPSTAT
      000000DDH   SFRSYM    DATA     BYTE      T4T3M
      000000C1H   SFRSYM    DATA     BYTE      WDT_CONTR
      000000DFH   SFRSYM    DATA     BYTE      IP3
      000000F4H   SFRSYM    DATA     BYTE      USBCON
      000000B5H   SFRSYM    DATA     BYTE      IP2
      000000FFH   SFRSYM    DATA     BYTE      RSTCFG
      000000F9H   SFRSYM    DATA     BYTE      LINICR
      0000008EH   SFRSYM    DATA     BYTE      AUXR
      000000AFH   SFRSYM    DATA     BYTE      IE2
      00000080H.7 SFRSYM    DATA     BIT       P07
      00000088H   SFRSYM    DATA     BYTE      TCON
      00000098H   SFRSYM    DATA     BYTE      SCON
      000000F1H   SFRSYM    DATA     BYTE      CANICR
      00000087H   SFRSYM    DATA     BYTE      PCON
      000000BCH   SFRSYM    DATA     BYTE      ADC_CONTR
      000000E7H   SFRSYM    DATA     BYTE      CMPCR2
      000000E6H   SFRSYM    DATA     BYTE      CMPCR1
      000000B8H   SFRSYM    DATA     BYTE      IP
      0000008FH   SFRSYM    DATA     BYTE      INTCLKO
      000000EEH   SFRSYM    DATA     BYTE      IP3H
      000000B6H   SFRSYM    DATA     BYTE      IP2H
      000000A8H   SFRSYM    DATA     BYTE      IE
      000000BBH   SFRSYM    DATA     BYTE      P_SW3
      000000BAH   SFRSYM    DATA     BYTE      P_SW2
      000000A2H   SFRSYM    DATA     BYTE      P_SW1
      000000CEH   SFRSYM    DATA     BYTE      SPCTL
      000000F8H   SFRSYM    DATA     BYTE      P7
      000000E8H   SFRSYM    DATA     BYTE      P6
      000000C8H   SFRSYM    DATA     BYTE      P5
      000000C0H   SFRSYM    DATA     BYTE      P4
      000000B0H   SFRSYM    DATA     BYTE      P3
      000000A0H   SFRSYM    DATA     BYTE      P2
      00000090H   SFRSYM    DATA     BYTE      P1
      00000080H   SFRSYM    DATA     BYTE      P0
L251 LINKER/LOCATER V4.66.93.0                                                        04/24/2024  12:31:03  PAGE 58


      00010370H   SYMBOL    XDATA    ---       bluetooth_ch9141_buffer
      000103B0H   SYMBOL    XDATA    BYTE      bluetooth_ch9141_data
      000103B1H   SYMBOL    XDATA    ---       bluetooth_ch9141_fifo
      000008C4H   SYMBOL    EDATA    ---       buff
      000008C8H   SYMBOL    EDATA    DWORD     len
      00010693H   SYMBOL    XDATA    WORD      time_count
      000008CCH   SYMBOL    EDATA    ---       buff
      000008D0H   SYMBOL    EDATA    DWORD     len
      0001063FH   SYMBOL    XDATA    DWORD     data_len

      ---         MODULE    ---      ---       SEEKFREE_DL1A
      00000ACCH   PUBLIC    EDATA    WORD      dl1a_distance_mm
      00000ACEH   PUBLIC    EDATA    BYTE      dl1a_finsh_flag
      000000D0H   SFRSYM    DATA     BYTE      PSW
      0000009DH   SFRSYM    DATA     BYTE      IRCBAND
      00000097H   SFRSYM    DATA     BYTE      AUXR2
      000000EFH   SFRSYM    DATA     BYTE      AUXINTIF
      000000FDH   SFRSYM    DATA     BYTE      S4CON
      000000ACH   SFRSYM    DATA     BYTE      S3CON
      0000009AH   SFRSYM    DATA     BYTE      S2CON
      000000B7H   SFRSYM    DATA     BYTE      IPH
      000000CDH   SFRSYM    DATA     BYTE      SPSTAT
      000000DDH   SFRSYM    DATA     BYTE      T4T3M
      000000C1H   SFRSYM    DATA     BYTE      WDT_CONTR
      000000DFH   SFRSYM    DATA     BYTE      IP3
      000000F4H   SFRSYM    DATA     BYTE      USBCON
      000000B5H   SFRSYM    DATA     BYTE      IP2
      000000FFH   SFRSYM    DATA     BYTE      RSTCFG
      000000F9H   SFRSYM    DATA     BYTE      LINICR
      0000008EH   SFRSYM    DATA     BYTE      AUXR
      000000AFH   SFRSYM    DATA     BYTE      IE2
      000000C0H.7 SFRSYM    DATA     BIT       P47
      000000E8H.5 SFRSYM    DATA     BIT       P65
      000000E8H.3 SFRSYM    DATA     BIT       P63
      00000088H   SFRSYM    DATA     BYTE      TCON
      00000098H   SFRSYM    DATA     BYTE      SCON
      000000F1H   SFRSYM    DATA     BYTE      CANICR
      00000087H   SFRSYM    DATA     BYTE      PCON
      000000BCH   SFRSYM    DATA     BYTE      ADC_CONTR
      000000E7H   SFRSYM    DATA     BYTE      CMPCR2
      000000E6H   SFRSYM    DATA     BYTE      CMPCR1
      000000B8H   SFRSYM    DATA     BYTE      IP
      0000008FH   SFRSYM    DATA     BYTE      INTCLKO
      000000EEH   SFRSYM    DATA     BYTE      IP3H
      000000B6H   SFRSYM    DATA     BYTE      IP2H
      000000A8H   SFRSYM    DATA     BYTE      IE
      000000BBH   SFRSYM    DATA     BYTE      P_SW3
      000000BAH   SFRSYM    DATA     BYTE      P_SW2
      000000A2H   SFRSYM    DATA     BYTE      P_SW1
      000000CEH   SFRSYM    DATA     BYTE      SPCTL
      000000F8H   SFRSYM    DATA     BYTE      P7
      000000E8H   SFRSYM    DATA     BYTE      P6
      000000C8H   SFRSYM    DATA     BYTE      P5
      000000C0H   SFRSYM    DATA     BYTE      P4
      000000B0H   SFRSYM    DATA     BYTE      P3
      000000A0H   SFRSYM    DATA     BYTE      P2
      00000090H   SFRSYM    DATA     BYTE      P1
      00000080H   SFRSYM    DATA     BYTE      P0
      00FF7BF1H   SYMBOL    CODE     ---       dl1a_simiic_sendack
      00FF7187H   SYMBOL    CODE     ---       dl1a_timeout_microseconds_to_mclks
      00FF6F2CH   SYMBOL    CODE     ---       dl1a_timeout_mclks_to_microseconds
      00FF6F91H   SYMBOL    CODE     ---       dl1a_read_ch
      00FF7BC7H   SYMBOL    CODE     ---       dl1a_decode_timeout
      00FF78B8H   SYMBOL    CODE     ---       dl1a_send_ch
      00FF68BBH   SYMBOL    CODE     ---       dl1a_encode_timeout
L251 LINKER/LOCATER V4.66.93.0                                                        04/24/2024  12:31:03  PAGE 59


      00FF6966H   SYMBOL    CODE     ---       dl1a_get_sequence_step_enables
      00FF7D4BH   SYMBOL    CODE     ---       dl1a_sccb_waitack
      00FF7DAEH   SYMBOL    CODE     ---       dl1a_simiic_delay
      00FF5C29H   SYMBOL    CODE     ---       dl1a_get_sequence_step_timeouts
      00FF7F01H   SYMBOL    CODE     ---       dl1a_simiic_start
      00FF6EC4H   SYMBOL    CODE     ---       dl1a_simiic_read_regs
      00FF0046H   SYMBOL    CODE     ---       dl1a_simiic_write_dats
      00FF7E81H   SYMBOL    CODE     ---       dl1a_simiic_stop
      00FF6B2EH   SYMBOL    CODE     ---       dl1a_get_vcsel_pulse_period

      00FF7DAEH   BLOCK     CODE     ---       LVL=0
      00010695H   SYMBOL    XDATA    WORD      j
      00FF7DAEH   LINE      CODE     ---       #59
      00FF7DAEH   LINE      CODE     ---       #60
      00FF7DAEH   LINE      CODE     ---       #61
      00FF7DB6H   LINE      CODE     ---       #62
      00FF7DCDH   LINE      CODE     ---       #63
      ---         BLOCKEND  ---      ---       LVL=0

      00FF7F01H   BLOCK     CODE     ---       LVL=0
      00FF7F01H   LINE      CODE     ---       #66
      00FF7F01H   LINE      CODE     ---       #68
      00FF7F04H   LINE      CODE     ---       #69
      00FF7F07H   LINE      CODE     ---       #70
      00FF7F0AH   LINE      CODE     ---       #71
      00FF7F0DH   LINE      CODE     ---       #72
      00FF7F10H   LINE      CODE     ---       #73
      00FF7F13H   LINE      CODE     ---       #74
      ---         BLOCKEND  ---      ---       LVL=0

      00FF7E81H   BLOCK     CODE     ---       LVL=0
      00FF7E81H   LINE      CODE     ---       #77
      00FF7E81H   LINE      CODE     ---       #79
      00FF7E84H   LINE      CODE     ---       #80
      00FF7E87H   LINE      CODE     ---       #81
      00FF7E8AH   LINE      CODE     ---       #82
      00FF7E8DH   LINE      CODE     ---       #83
      00FF7E90H   LINE      CODE     ---       #84
      00FF7E93H   LINE      CODE     ---       #85
      00FF7E96H   LINE      CODE     ---       #86
      ---         BLOCKEND  ---      ---       LVL=0

      00FF7BF1H   BLOCK     CODE     ---       LVL=0
      00000B33H   SYMBOL    EDATA    BYTE      ack_dat
      00FF7BF1H   LINE      CODE     ---       #90
      00FF7BF5H   LINE      CODE     ---       #92
      00FF7BF8H   LINE      CODE     ---       #93
      00FF7BFBH   LINE      CODE     ---       #94
      00FF7C09H   LINE      CODE     ---       #95
      00FF7C0CH   LINE      CODE     ---       #96
      00FF7C0FH   LINE      CODE     ---       #97
      00FF7C12H   LINE      CODE     ---       #98
      00FF7C15H   LINE      CODE     ---       #99
      00FF7C18H   LINE      CODE     ---       #100
      ---         BLOCKEND  ---      ---       LVL=0

      00FF7D4BH   BLOCK     CODE     ---       LVL=0
      00FF7D4BH   LINE      CODE     ---       #103
      00FF7D4BH   LINE      CODE     ---       #105
      00FF7D4EH   LINE      CODE     ---       #106
      00FF7D51H   LINE      CODE     ---       #107
      00FF7D54H   LINE      CODE     ---       #108
      00FF7D57H   LINE      CODE     ---       #109
      00FF7D5AH   LINE      CODE     ---       #111
      00FF7D5DH   LINE      CODE     ---       #112
L251 LINKER/LOCATER V4.66.93.0                                                        04/24/2024  12:31:03  PAGE 60


      00FF7D61H   LINE      CODE     ---       #113
      00FF7D61H   LINE      CODE     ---       #114
      00FF7D64H   LINE      CODE     ---       #115
      00FF7D67H   LINE      CODE     ---       #116
      00FF7D6BH   LINE      CODE     ---       #117
      ---         BLOCKEND  ---      ---       LVL=0

      00FF78B8H   BLOCK     CODE     ---       LVL=0
      00000B34H   SYMBOL    EDATA    BYTE      c
      00FF78BCH   BLOCK     CODE     NEAR LAB  LVL=1
      000106C4H   SYMBOL    XDATA    BYTE      i
      ---         BLOCKEND  ---      ---       LVL=1
      00FF78B8H   LINE      CODE     ---       #123
      00FF78BCH   LINE      CODE     ---       #124
      00FF78BCH   LINE      CODE     ---       #125
      00FF78C2H   LINE      CODE     ---       #126
      00FF78C4H   LINE      CODE     ---       #128
      00FF78D0H   LINE      CODE     ---       #129
      00FF78D3H   LINE      CODE     ---       #130
      00FF78DDH   LINE      CODE     ---       #131
      00FF78E0H   LINE      CODE     ---       #132
      00FF78E3H   LINE      CODE     ---       #133
      00FF78E6H   LINE      CODE     ---       #134
      00FF78E9H   LINE      CODE     ---       #135
      00FF78FCH   LINE      CODE     ---       #136
      00FF78FFH   LINE      CODE     ---       #137
      ---         BLOCKEND  ---      ---       LVL=0

      00FF6F91H   BLOCK     CODE     ---       LVL=0
      00000B35H   SYMBOL    EDATA    BYTE      ack_x
      00FF6F95H   BLOCK     CODE     NEAR LAB  LVL=1
      00010697H   SYMBOL    XDATA    BYTE      i
      00010698H   SYMBOL    XDATA    BYTE      c
      ---         BLOCKEND  ---      ---       LVL=1
      00FF6F91H   LINE      CODE     ---       #143
      00FF6F95H   LINE      CODE     ---       #144
      00FF6F95H   LINE      CODE     ---       #147
      00FF6F9AH   LINE      CODE     ---       #148
      00FF6F9DH   LINE      CODE     ---       #149
      00FF6FA0H   LINE      CODE     ---       #150
      00FF6FA3H   LINE      CODE     ---       #151
      00FF6FAAH   LINE      CODE     ---       #153
      00FF6FADH   LINE      CODE     ---       #154
      00FF6FB0H   LINE      CODE     ---       #155
      00FF6FB3H   LINE      CODE     ---       #156
      00FF6FB6H   LINE      CODE     ---       #157
      00FF6FB9H   LINE      CODE     ---       #158
      00FF6FC0H   LINE      CODE     ---       #159
      00FF6FC3H   LINE      CODE     ---       #161
      00FF6FCDH   LINE      CODE     ---       #162
      00FF6FE4H   LINE      CODE     ---       #164
      00FF6FE7H   LINE      CODE     ---       #165
      00FF6FEAH   LINE      CODE     ---       #166
      00FF6FF1H   LINE      CODE     ---       #167
      00FF6FF5H   LINE      CODE     ---       #168
      ---         BLOCKEND  ---      ---       LVL=0

      00FF0046H   BLOCK     CODE     ---       LVL=0
      00000816H   SYMBOL    EDATA    BYTE      dev_add
      00000817H   SYMBOL    EDATA    ---       dat
      0000081BH   SYMBOL    EDATA    DWORD     len
      00FF0046H   LINE      CODE     ---       #180
      00FF0052H   LINE      CODE     ---       #182
      00FF0055H   LINE      CODE     ---       #183
      00FF005EH   LINE      CODE     ---       #184
L251 LINKER/LOCATER V4.66.93.0                                                        04/24/2024  12:31:03  PAGE 61


      00FF0060H   LINE      CODE     ---       #186
      00FF0070H   LINE      CODE     ---       #187
      00FF0084H   LINE      CODE     ---       #188
      00FF0087H   LINE      CODE     ---       #189
      ---         BLOCKEND  ---      ---       LVL=0
      00000ACFH   SYMBOL    EDATA    BYTE      dev_add
      00000AD0H   SYMBOL    EDATA    BYTE      reg
      00000AD1H   SYMBOL    EDATA    BYTE      dat
      00000AF9H   SYMBOL    EDATA    BYTE      dev_add
      00000AFAH   SYMBOL    EDATA    BYTE      reg
      000106C5H   SYMBOL    XDATA    BYTE      dat

      00FF6EC4H   BLOCK     CODE     ---       LVL=0
      000007C8H   SYMBOL    EDATA    BYTE      dev_add
      000007C9H   SYMBOL    EDATA    BYTE      reg
      000007CAH   SYMBOL    EDATA    ---       dat_add
      000007CEH   SYMBOL    EDATA    DWORD     num
      00FF6EC4H   LINE      CODE     ---       #243
      00FF6ED0H   LINE      CODE     ---       #245
      00FF6ED3H   LINE      CODE     ---       #246
      00FF6EDCH   LINE      CODE     ---       #247
      00FF6EE3H   LINE      CODE     ---       #248
      00FF6EE6H   LINE      CODE     ---       #249
      00FF6EF3H   LINE      CODE     ---       #250
      00FF6EF5H   LINE      CODE     ---       #252
      00FF6F01H   LINE      CODE     ---       #253
      00FF6F0BH   LINE      CODE     ---       #254
      00FF6F1DH   LINE      CODE     ---       #255
      00FF6F28H   LINE      CODE     ---       #256
      00FF6F2BH   LINE      CODE     ---       #257
      ---         BLOCKEND  ---      ---       LVL=0
      000007D2H   SYMBOL    EDATA    BYTE      dev_add
      000007D3H   SYMBOL    EDATA    BYTE      reg
      000007D4H   SYMBOL    EDATA    ---       dat_add
      000007D8H   SYMBOL    EDATA    DWORD     num
      000007DCH   SYMBOL    EDATA    ---       index
      000007E0H   SYMBOL    EDATA    ---       type_is_aperture
      00010699H   SYMBOL    XDATA    BYTE      tmp
      0001069AH   SYMBOL    XDATA    BYTE      return_state
      000007E4H   SYMBOL    EDATA    WORD      loop_count

      00FF6F2CH   BLOCK     CODE     ---       LVL=0
      00000AD2H   SYMBOL    EDATA    WORD      timeout_period_mclks
      00000AD4H   SYMBOL    EDATA    BYTE      vcsel_period_pclks
      00FF6F34H   BLOCK     CODE     NEAR LAB  LVL=1
      00010643H   SYMBOL    XDATA    DWORD     macro_period_ns
      ---         BLOCKEND  ---      ---       LVL=1
      00FF6F2CH   LINE      CODE     ---       #374
      00FF6F34H   LINE      CODE     ---       #375
      00FF6F34H   LINE      CODE     ---       #376
      00FF6F61H   LINE      CODE     ---       #377
      00FF6F90H   LINE      CODE     ---       #378
      ---         BLOCKEND  ---      ---       LVL=0

      00FF7187H   BLOCK     CODE     ---       LVL=0
      00000A42H   SYMBOL    EDATA    DWORD     timeout_period_us
      00000A46H   SYMBOL    EDATA    BYTE      vcsel_period_pclks
      00FF718FH   BLOCK     CODE     NEAR LAB  LVL=1
      00010647H   SYMBOL    XDATA    DWORD     macro_period_ns
      ---         BLOCKEND  ---      ---       LVL=1
      00FF7187H   LINE      CODE     ---       #388
      00FF718FH   LINE      CODE     ---       #389
      00FF718FH   LINE      CODE     ---       #390
      00FF71BCH   LINE      CODE     ---       #391
      00FF71E9H   LINE      CODE     ---       #392
L251 LINKER/LOCATER V4.66.93.0                                                        04/24/2024  12:31:03  PAGE 62


      ---         BLOCKEND  ---      ---       LVL=0

      00FF7BC7H   BLOCK     CODE     ---       LVL=0
      00000AFBH   SYMBOL    EDATA    WORD      reg_val
      00FF7BC7H   LINE      CODE     ---       #401
      00FF7BCBH   LINE      CODE     ---       #404
      00FF7BF0H   LINE      CODE     ---       #406
      ---         BLOCKEND  ---      ---       LVL=0

      00FF68BBH   BLOCK     CODE     ---       LVL=0
      00000AFDH   SYMBOL    EDATA    WORD      timeout_mclks
      00FF68BFH   BLOCK     CODE     NEAR LAB  LVL=1
      000105B9H   SYMBOL    XDATA    DWORD     ls_byte
      000105BDH   SYMBOL    XDATA    WORD      ms_byte
      000105BFH   SYMBOL    XDATA    WORD      return_data
      ---         BLOCKEND  ---      ---       LVL=1
      00FF68BBH   LINE      CODE     ---       #415
      00FF68BFH   LINE      CODE     ---       #416
      00FF68BFH   LINE      CODE     ---       #417
      00FF68CBH   LINE      CODE     ---       #418
      00FF68D3H   LINE      CODE     ---       #419
      00FF68DBH   LINE      CODE     ---       #420
      00FF68E5H   LINE      CODE     ---       #423
      00FF68FBH   LINE      CODE     ---       #424
      00FF68FDH   LINE      CODE     ---       #426
      00FF6917H   LINE      CODE     ---       #427
      00FF6926H   LINE      CODE     ---       #428
      00FF693DH   LINE      CODE     ---       #429
      00FF695FH   LINE      CODE     ---       #430
      00FF695FH   LINE      CODE     ---       #431
      00FF6965H   LINE      CODE     ---       #432
      ---         BLOCKEND  ---      ---       LVL=0

      00FF6966H   BLOCK     CODE     ---       LVL=0
      00000A97H   SYMBOL    EDATA    ---       enables
      00FF696AH   BLOCK     CODE     NEAR LAB  LVL=1
      000106C6H   SYMBOL    XDATA    BYTE      sequence_config
      ---         BLOCKEND  ---      ---       LVL=1
      00FF6966H   LINE      CODE     ---       #441
      00FF696AH   LINE      CODE     ---       #442
      00FF696AH   LINE      CODE     ---       #443
      00FF696FH   LINE      CODE     ---       #444
      00FF6987H   LINE      CODE     ---       #445
      00FF699DH   LINE      CODE     ---       #446
      00FF69B6H   LINE      CODE     ---       #447
      00FF69CEH   LINE      CODE     ---       #448
      00FF69E9H   LINE      CODE     ---       #449
      00FF6A01H   LINE      CODE     ---       #450
      ---         BLOCKEND  ---      ---       LVL=0

      00FF6B2EH   BLOCK     CODE     ---       LVL=0
      00000AFFH   SYMBOL    EDATA    INT       type
      00FF6B32H   BLOCK     CODE     NEAR LAB  LVL=1
      000106C7H   SYMBOL    XDATA    BYTE      data_buffer
      ---         BLOCKEND  ---      ---       LVL=1
      00FF6B2EH   LINE      CODE     ---       #459
      00FF6B32H   LINE      CODE     ---       #460
      00FF6B32H   LINE      CODE     ---       #461
      00FF6B37H   LINE      CODE     ---       #462
      00FF6B41H   LINE      CODE     ---       #464
      00FF6B59H   LINE      CODE     ---       #465
      00FF6B6BH   LINE      CODE     ---       #466
      00FF6B6DH   LINE      CODE     ---       #467
      00FF6B79H   LINE      CODE     ---       #469
      00FF6B91H   LINE      CODE     ---       #470
L251 LINKER/LOCATER V4.66.93.0                                                        04/24/2024  12:31:03  PAGE 63


      00FF6BA3H   LINE      CODE     ---       #471
      00FF6BA5H   LINE      CODE     ---       #474
      00FF6BABH   LINE      CODE     ---       #475
      00FF6BABH   LINE      CODE     ---       #476
      00FF6BAFH   LINE      CODE     ---       #477
      ---         BLOCKEND  ---      ---       LVL=0

      00FF5C29H   BLOCK     CODE     ---       LVL=0
      000008D4H   SYMBOL    EDATA    ---       enables
      000008D8H   SYMBOL    EDATA    ---       timeouts
      00FF5C31H   BLOCK     CODE     NEAR LAB  LVL=1
      0001064BH   SYMBOL    XDATA    ---       reg_buffer
      0001064DH   SYMBOL    XDATA    WORD      reg16_buffer
      ---         BLOCKEND  ---      ---       LVL=1
      00FF5C29H   LINE      CODE     ---       #487
      00FF5C31H   LINE      CODE     ---       #488
      00FF5C31H   LINE      CODE     ---       #490
      00FF5C39H   LINE      CODE     ---       #491
      00FF5C47H   LINE      CODE     ---       #492
      00FF5C5FH   LINE      CODE     ---       #493
      00FF5C74H   LINE      CODE     ---       #494
      00FF5C98H   LINE      CODE     ---       #495
      00FF5CB0H   LINE      CODE     ---       #496
      00FF5CC8H   LINE      CODE     ---       #497
      00FF5CDEH   LINE      CODE     ---       #498
      00FF5D04H   LINE      CODE     ---       #499
      00FF5D16H   LINE      CODE     ---       #500
      00FF5D2EH   LINE      CODE     ---       #501
      00FF5D46H   LINE      CODE     ---       #502
      00FF5D5CH   LINE      CODE     ---       #503
      00FF5D6CH   LINE      CODE     ---       #505
      00FF5D87H   LINE      CODE     ---       #506
      00FF5D87H   LINE      CODE     ---       #507
      00FF5DAFH   LINE      CODE     ---       #508
      ---         BLOCKEND  ---      ---       LVL=0
      00000AD5H   SYMBOL    EDATA    BYTE      vhv_init_byte
      0001069BH   SYMBOL    XDATA    BYTE      return_state
      0001069CH   SYMBOL    XDATA    BYTE      data_buffer
      00000AD6H   SYMBOL    EDATA    WORD      loop_count
      00000572H   SYMBOL    EDATA    DWORD     budget_us
      000105A9H   SYMBOL    XDATA    BYTE      return_state
      000105AAH   SYMBOL    XDATA    ---       data_buffer
      000105ADH   SYMBOL    XDATA    WORD      dat
      000105AFH   SYMBOL    XDATA    DWORD     used_budget_us
      000105B3H   SYMBOL    XDATA    DWORD     final_range_timeout_us
      000105B7H   SYMBOL    XDATA    WORD      final_range_timeout_mclks
      00000576H   SYMBOL    EDATA    ---       enables
      0000057BH   SYMBOL    EDATA    ---       timeouts
      000005B0H   SYMBOL    EDATA    ---       enables
      000005B5H   SYMBOL    EDATA    ---       timeouts
      0001064FH   SYMBOL    XDATA    DWORD     budget_us
      00000A9BH   SYMBOL    EDATA    FLOAT     limit_mcps
      0001062AH   SYMBOL    XDATA    ---       data_buffer
      0001062DH   SYMBOL    XDATA    WORD      limit_mcps_16bit
      00010677H   SYMBOL    XDATA    ---       reg_databuffer
      00010594H   SYMBOL    XDATA    DWORD     measurement_timing_budget_us
      00010598H   SYMBOL    XDATA    BYTE      stop_variable
      00010599H   SYMBOL    XDATA    BYTE      return_state
      0001059AH   SYMBOL    XDATA    BYTE      reg_data_buffer
      0001059BH   SYMBOL    XDATA    ---       ref_spad_map
      000105A1H   SYMBOL    XDATA    ---       data_buffer
      000105A8H   SYMBOL    XDATA    BYTE      i

      ---         MODULE    ---      ---       SEEKFREE_DL1B
      00000A9FH   PUBLIC    EDATA    WORD      dl1b_distance_mm
L251 LINKER/LOCATER V4.66.93.0                                                        04/24/2024  12:31:03  PAGE 64


      00000AA1H   PUBLIC    EDATA    BYTE      dl1b_finsh_flag
      00000AA2H   PUBLIC    EDATA    BYTE      dl1b_init_flag
      00000669H   PUBLIC    EDATA    BYTE      ?dl1b_iic_transfer_8bit_array?BYTE
      000000D0H   SFRSYM    DATA     BYTE      PSW
      0000009DH   SFRSYM    DATA     BYTE      IRCBAND
      00000097H   SFRSYM    DATA     BYTE      AUXR2
      000000EFH   SFRSYM    DATA     BYTE      AUXINTIF
      000000FDH   SFRSYM    DATA     BYTE      S4CON
      000000ACH   SFRSYM    DATA     BYTE      S3CON
      0000009AH   SFRSYM    DATA     BYTE      S2CON
      000000B7H   SFRSYM    DATA     BYTE      IPH
      000000CDH   SFRSYM    DATA     BYTE      SPSTAT
      000000DDH   SFRSYM    DATA     BYTE      T4T3M
      000000C1H   SFRSYM    DATA     BYTE      WDT_CONTR
      000000DFH   SFRSYM    DATA     BYTE      IP3
      000000F4H   SFRSYM    DATA     BYTE      USBCON
      000000B5H   SFRSYM    DATA     BYTE      IP2
      000000FFH   SFRSYM    DATA     BYTE      RSTCFG
      000000F9H   SFRSYM    DATA     BYTE      LINICR
      0000008EH   SFRSYM    DATA     BYTE      AUXR
      000000AFH   SFRSYM    DATA     BYTE      IE2
      000000C0H.7 SFRSYM    DATA     BIT       P47
      000000E8H.5 SFRSYM    DATA     BIT       P65
      000000E8H.3 SFRSYM    DATA     BIT       P63
      00000088H   SFRSYM    DATA     BYTE      TCON
      00000098H   SFRSYM    DATA     BYTE      SCON
      000000F1H   SFRSYM    DATA     BYTE      CANICR
      00000087H   SFRSYM    DATA     BYTE      PCON
      000000BCH   SFRSYM    DATA     BYTE      ADC_CONTR
      000000E7H   SFRSYM    DATA     BYTE      CMPCR2
      000000E6H   SFRSYM    DATA     BYTE      CMPCR1
      000000B8H   SFRSYM    DATA     BYTE      IP
      0000008FH   SFRSYM    DATA     BYTE      INTCLKO
      000000EEH   SFRSYM    DATA     BYTE      IP3H
      000000B6H   SFRSYM    DATA     BYTE      IP2H
      000000A8H   SFRSYM    DATA     BYTE      IE
      000000BBH   SFRSYM    DATA     BYTE      P_SW3
      000000BAH   SFRSYM    DATA     BYTE      P_SW2
      000000A2H   SFRSYM    DATA     BYTE      P_SW1
      000000CEH   SFRSYM    DATA     BYTE      SPCTL
      000000F8H   SFRSYM    DATA     BYTE      P7
      000000E8H   SFRSYM    DATA     BYTE      P6
      000000C8H   SFRSYM    DATA     BYTE      P5
      000000C0H   SFRSYM    DATA     BYTE      P4
      000000B0H   SFRSYM    DATA     BYTE      P3
      000000A0H   SFRSYM    DATA     BYTE      P2
      00000090H   SFRSYM    DATA     BYTE      P1
      00000080H   SFRSYM    DATA     BYTE      P0
      00FF7C19H   SYMBOL    CODE     ---       dl1b_simiic_sendack
      00FF6FF6H   SYMBOL    CODE     ---       dl1b_read_ch
      00FF7900H   SYMBOL    CODE     ---       dl1b_send_ch
      00FF7D6CH   SYMBOL    CODE     ---       dl1b_sccb_waitack
      00FF7DCEH   SYMBOL    CODE     ---       dl1b_simiic_delay

      00FF7DCEH   BLOCK     CODE     ---       LVL=0
      0001069DH   SYMBOL    XDATA    WORD      j
      00FF7DCEH   LINE      CODE     ---       #76
      00FF7DCEH   LINE      CODE     ---       #77
      00FF7DCEH   LINE      CODE     ---       #78
      00FF7DD6H   LINE      CODE     ---       #79
      00FF7DEDH   LINE      CODE     ---       #80
      ---         BLOCKEND  ---      ---       LVL=0

      00FF7C19H   BLOCK     CODE     ---       LVL=0
      00000B36H   SYMBOL    EDATA    BYTE      ack_dat
L251 LINKER/LOCATER V4.66.93.0                                                        04/24/2024  12:31:03  PAGE 65


      00FF7C19H   LINE      CODE     ---       #107
      00FF7C1DH   LINE      CODE     ---       #109
      00FF7C20H   LINE      CODE     ---       #110
      00FF7C23H   LINE      CODE     ---       #111
      00FF7C31H   LINE      CODE     ---       #112
      00FF7C34H   LINE      CODE     ---       #113
      00FF7C37H   LINE      CODE     ---       #114
      00FF7C3AH   LINE      CODE     ---       #115
      00FF7C3DH   LINE      CODE     ---       #116
      00FF7C40H   LINE      CODE     ---       #117
      ---         BLOCKEND  ---      ---       LVL=0

      00FF7D6CH   BLOCK     CODE     ---       LVL=0
      00FF7D6CH   LINE      CODE     ---       #120
      00FF7D6CH   LINE      CODE     ---       #122
      00FF7D6FH   LINE      CODE     ---       #123
      00FF7D72H   LINE      CODE     ---       #124
      00FF7D75H   LINE      CODE     ---       #125
      00FF7D78H   LINE      CODE     ---       #126
      00FF7D7BH   LINE      CODE     ---       #128
      00FF7D7EH   LINE      CODE     ---       #129
      00FF7D82H   LINE      CODE     ---       #130
      00FF7D82H   LINE      CODE     ---       #131
      00FF7D85H   LINE      CODE     ---       #132
      00FF7D88H   LINE      CODE     ---       #133
      00FF7D8CH   LINE      CODE     ---       #134
      ---         BLOCKEND  ---      ---       LVL=0

      00FF7900H   BLOCK     CODE     ---       LVL=0
      00000B37H   SYMBOL    EDATA    BYTE      c
      00FF7904H   BLOCK     CODE     NEAR LAB  LVL=1
      000106C8H   SYMBOL    XDATA    BYTE      i
      ---         BLOCKEND  ---      ---       LVL=1
      00FF7900H   LINE      CODE     ---       #140
      00FF7904H   LINE      CODE     ---       #141
      00FF7904H   LINE      CODE     ---       #142
      00FF790AH   LINE      CODE     ---       #143
      00FF790CH   LINE      CODE     ---       #145
      00FF7918H   LINE      CODE     ---       #146
      00FF791BH   LINE      CODE     ---       #147
      00FF7925H   LINE      CODE     ---       #148
      00FF7928H   LINE      CODE     ---       #149
      00FF792BH   LINE      CODE     ---       #150
      00FF792EH   LINE      CODE     ---       #151
      00FF7931H   LINE      CODE     ---       #152
      00FF7944H   LINE      CODE     ---       #153
      00FF7947H   LINE      CODE     ---       #154
      ---         BLOCKEND  ---      ---       LVL=0

      00FF6FF6H   BLOCK     CODE     ---       LVL=0
      00000B38H   SYMBOL    EDATA    BYTE      ack_x
      00FF6FFAH   BLOCK     CODE     NEAR LAB  LVL=1
      0001069FH   SYMBOL    XDATA    BYTE      i
      000106A0H   SYMBOL    XDATA    BYTE      c
      ---         BLOCKEND  ---      ---       LVL=1
      00FF6FF6H   LINE      CODE     ---       #160
      00FF6FFAH   LINE      CODE     ---       #161
      00FF6FFAH   LINE      CODE     ---       #164
      00FF6FFFH   LINE      CODE     ---       #165
      00FF7002H   LINE      CODE     ---       #166
      00FF7005H   LINE      CODE     ---       #167
      00FF7008H   LINE      CODE     ---       #168
      00FF700FH   LINE      CODE     ---       #170
      00FF7012H   LINE      CODE     ---       #171
      00FF7015H   LINE      CODE     ---       #172
L251 LINKER/LOCATER V4.66.93.0                                                        04/24/2024  12:31:03  PAGE 66


      00FF7018H   LINE      CODE     ---       #173
      00FF701BH   LINE      CODE     ---       #174
      00FF701EH   LINE      CODE     ---       #175
      00FF7025H   LINE      CODE     ---       #176
      00FF7028H   LINE      CODE     ---       #178
      00FF7032H   LINE      CODE     ---       #179
      00FF7049H   LINE      CODE     ---       #181
      00FF704CH   LINE      CODE     ---       #182
      00FF704FH   LINE      CODE     ---       #183
      00FF7056H   LINE      CODE     ---       #184
      00FF705AH   LINE      CODE     ---       #185
      ---         BLOCKEND  ---      ---       LVL=0
      00000669H   SYMBOL    EDATA    ---       write_data
      0000066DH   SYMBOL    EDATA    DWORD     write_len
      00000671H   SYMBOL    EDATA    ---       read_data
      00000675H   SYMBOL    EDATA    DWORD     read_len
      0001067AH   SYMBOL    XDATA    ---       data_buffer
      00000B01H   SYMBOL    EDATA    INT       dl1b_distance_temp
      000102E4H   SYMBOL    XDATA    BYTE      return_state
      000102E5H   SYMBOL    XDATA    ---       data_buffer
      0001036EH   SYMBOL    XDATA    WORD      time_out_count

      ---         MODULE    ---      ---       SEEKFREE_FONT
      00FF211DH   PUBLIC    CODE     ---       oled_8x16
      00FF270DH   PUBLIC    CODE     ---       tft_ascii
      00FF2CFDH   PUBLIC    CODE     ---       oled_6x8
      000000D0H   SFRSYM    DATA     BYTE      PSW
      0000009DH   SFRSYM    DATA     BYTE      IRCBAND
      00000097H   SFRSYM    DATA     BYTE      AUXR2
      000000EFH   SFRSYM    DATA     BYTE      AUXINTIF
      000000FDH   SFRSYM    DATA     BYTE      S4CON
      000000ACH   SFRSYM    DATA     BYTE      S3CON
      0000009AH   SFRSYM    DATA     BYTE      S2CON
      000000B7H   SFRSYM    DATA     BYTE      IPH
      000000CDH   SFRSYM    DATA     BYTE      SPSTAT
      000000DDH   SFRSYM    DATA     BYTE      T4T3M
      000000C1H   SFRSYM    DATA     BYTE      WDT_CONTR
      000000DFH   SFRSYM    DATA     BYTE      IP3
      000000F4H   SFRSYM    DATA     BYTE      USBCON
      000000B5H   SFRSYM    DATA     BYTE      IP2
      000000FFH   SFRSYM    DATA     BYTE      RSTCFG
      000000F9H   SFRSYM    DATA     BYTE      LINICR
      0000008EH   SFRSYM    DATA     BYTE      AUXR
      000000AFH   SFRSYM    DATA     BYTE      IE2
      00000088H   SFRSYM    DATA     BYTE      TCON
      00000098H   SFRSYM    DATA     BYTE      SCON
      000000F1H   SFRSYM    DATA     BYTE      CANICR
      00000087H   SFRSYM    DATA     BYTE      PCON
      000000BCH   SFRSYM    DATA     BYTE      ADC_CONTR
      000000E7H   SFRSYM    DATA     BYTE      CMPCR2
      000000E6H   SFRSYM    DATA     BYTE      CMPCR1
      000000B8H   SFRSYM    DATA     BYTE      IP
      0000008FH   SFRSYM    DATA     BYTE      INTCLKO
      000000EEH   SFRSYM    DATA     BYTE      IP3H
      000000B6H   SFRSYM    DATA     BYTE      IP2H
      000000A8H   SFRSYM    DATA     BYTE      IE
      000000BBH   SFRSYM    DATA     BYTE      P_SW3
      000000BAH   SFRSYM    DATA     BYTE      P_SW2
      000000A2H   SFRSYM    DATA     BYTE      P_SW1
      000000CEH   SFRSYM    DATA     BYTE      SPCTL
      000000F8H   SFRSYM    DATA     BYTE      P7
      000000E8H   SFRSYM    DATA     BYTE      P6
      000000C8H   SFRSYM    DATA     BYTE      P5
      000000C0H   SFRSYM    DATA     BYTE      P4
      000000B0H   SFRSYM    DATA     BYTE      P3
L251 LINKER/LOCATER V4.66.93.0                                                        04/24/2024  12:31:03  PAGE 67


      000000A0H   SFRSYM    DATA     BYTE      P2
      00000090H   SFRSYM    DATA     BYTE      P1
      00000080H   SFRSYM    DATA     BYTE      P0

      ---         MODULE    ---      ---       SEEKFREE_ICM20602
      00000738H   PUBLIC    EDATA    INT       icm20602_acc_x
      0000073AH   PUBLIC    EDATA    INT       icm20602_acc_y
      0000073CH   PUBLIC    EDATA    INT       icm20602_acc_z
      0000073EH   PUBLIC    EDATA    INT       icm20602_gyro_x
      00000740H   PUBLIC    EDATA    INT       icm20602_gyro_y
      00000742H   PUBLIC    EDATA    INT       icm20602_gyro_z
      000000D0H   SFRSYM    DATA     BYTE      PSW
      0000009DH   SFRSYM    DATA     BYTE      IRCBAND
      00000097H   SFRSYM    DATA     BYTE      AUXR2
      000000EFH   SFRSYM    DATA     BYTE      AUXINTIF
      000000FDH   SFRSYM    DATA     BYTE      S4CON
      000000ACH   SFRSYM    DATA     BYTE      S3CON
      0000009AH   SFRSYM    DATA     BYTE      S2CON
      000000B7H   SFRSYM    DATA     BYTE      IPH
      000000CDH   SFRSYM    DATA     BYTE      SPSTAT
      000000DDH   SFRSYM    DATA     BYTE      T4T3M
      000000C1H   SFRSYM    DATA     BYTE      WDT_CONTR
      000000DFH   SFRSYM    DATA     BYTE      IP3
      000000F4H   SFRSYM    DATA     BYTE      USBCON
      000000B5H   SFRSYM    DATA     BYTE      IP2
      000000FFH   SFRSYM    DATA     BYTE      RSTCFG
      000000F9H   SFRSYM    DATA     BYTE      LINICR
      0000008EH   SFRSYM    DATA     BYTE      AUXR
      000000AFH   SFRSYM    DATA     BYTE      IE2
      000000C0H.3 SFRSYM    DATA     BIT       P43
      000000C0H.2 SFRSYM    DATA     BIT       P42
      00000088H   SFRSYM    DATA     BYTE      TCON
      000000C0H.1 SFRSYM    DATA     BIT       P41
      00000098H   SFRSYM    DATA     BYTE      SCON
      000000C0H.0 SFRSYM    DATA     BIT       P40
      000000F1H   SFRSYM    DATA     BYTE      CANICR
      00000087H   SFRSYM    DATA     BYTE      PCON
      000000BCH   SFRSYM    DATA     BYTE      ADC_CONTR
      000000E7H   SFRSYM    DATA     BYTE      CMPCR2
      000000E6H   SFRSYM    DATA     BYTE      CMPCR1
      000000B8H   SFRSYM    DATA     BYTE      IP
      0000008FH   SFRSYM    DATA     BYTE      INTCLKO
      000000EEH   SFRSYM    DATA     BYTE      IP3H
      000000B6H   SFRSYM    DATA     BYTE      IP2H
      000000A8H   SFRSYM    DATA     BYTE      IE
      000000BBH   SFRSYM    DATA     BYTE      P_SW3
      000000BAH   SFRSYM    DATA     BYTE      P_SW2
      000000A2H   SFRSYM    DATA     BYTE      P_SW1
      000000CEH   SFRSYM    DATA     BYTE      SPCTL
      000000F8H   SFRSYM    DATA     BYTE      P7
      000000E8H   SFRSYM    DATA     BYTE      P6
      000000C8H   SFRSYM    DATA     BYTE      P5
      000000C0H   SFRSYM    DATA     BYTE      P4
      000000B0H   SFRSYM    DATA     BYTE      P3
      000000A0H   SFRSYM    DATA     BYTE      P2
      00000090H   SFRSYM    DATA     BYTE      P1
      00000080H   SFRSYM    DATA     BYTE      P0
      00FF7D29H   SYMBOL    CODE     ---       icm20602_read_register
      00FF72ABH   SYMBOL    CODE     ---       icm20602_simspi_wr_byte
      00FF740DH   SYMBOL    CODE     ---       icm20602_simspi_r_reg_bytes
      00FF7C69H   SYMBOL    CODE     ---       icm20602_simspi_r_reg_byte

      00FF72ABH   BLOCK     CODE     ---       LVL=0
      00000B39H   SYMBOL    EDATA    BYTE      byte
      00FF72AFH   BLOCK     CODE     NEAR LAB  LVL=1
L251 LINKER/LOCATER V4.66.93.0                                                        04/24/2024  12:31:03  PAGE 68


      000106C9H   SYMBOL    XDATA    BYTE      i
      ---         BLOCKEND  ---      ---       LVL=1
      00FF72ABH   LINE      CODE     ---       #264
      00FF72AFH   LINE      CODE     ---       #265
      00FF72AFH   LINE      CODE     ---       #267
      00FF72B6H   LINE      CODE     ---       #269
      00FF72C4H   LINE      CODE     ---       #270
      00FF72CEH   LINE      CODE     ---       #271
      00FF72D1H   LINE      CODE     ---       #272
      00FF72D4H   LINE      CODE     ---       #273
      00FF72D7H   LINE      CODE     ---       #274
      00FF72DAH   LINE      CODE     ---       #275
      00FF72E8H   LINE      CODE     ---       #276
      00FF72FFH   LINE      CODE     ---       #277
      00FF7303H   LINE      CODE     ---       #278
      ---         BLOCKEND  ---      ---       LVL=0
      00000B03H   SYMBOL    EDATA    BYTE      cmd
      00000B04H   SYMBOL    EDATA    BYTE      val

      00FF7C69H   BLOCK     CODE     ---       LVL=0
      00000A47H   SYMBOL    EDATA    BYTE      cmd
      00000A48H   SYMBOL    EDATA    ---       val
      00FF7C69H   LINE      CODE     ---       #322
      00FF7C71H   LINE      CODE     ---       #324
      00FF7C7DH   LINE      CODE     ---       #325
      00FF7C84H   LINE      CODE     ---       #326
      00FF7C8FH   LINE      CODE     ---       #327
      ---         BLOCKEND  ---      ---       LVL=0

      00FF740DH   BLOCK     CODE     ---       LVL=0
      0000081FH   SYMBOL    EDATA    BYTE      cmd
      00000820H   SYMBOL    EDATA    ---       val
      00000824H   SYMBOL    EDATA    DWORD     num
      00FF7419H   BLOCK     CODE     NEAR LAB  LVL=1
      00010653H   SYMBOL    XDATA    DWORD     i
      ---         BLOCKEND  ---      ---       LVL=1
      00FF740DH   LINE      CODE     ---       #337
      00FF7419H   LINE      CODE     ---       #338
      00FF7419H   LINE      CODE     ---       #339
      00FF7425H   LINE      CODE     ---       #340
      00FF7431H   LINE      CODE     ---       #341
      00FF7438H   LINE      CODE     ---       #342
      00FF743AH   LINE      CODE     ---       #344
      00FF744FH   LINE      CODE     ---       #345
      00FF7463H   LINE      CODE     ---       #346
      ---         BLOCKEND  ---      ---       LVL=0
      00000B05H   SYMBOL    EDATA    BYTE      reg
      00000B06H   SYMBOL    EDATA    BYTE      dat

      00FF7D29H   BLOCK     CODE     ---       LVL=0
      00000B3AH   SYMBOL    EDATA    BYTE      reg
      00FF7D2DH   BLOCK     CODE     NEAR LAB  LVL=1
      000106CAH   SYMBOL    XDATA    BYTE      dat
      ---         BLOCKEND  ---      ---       LVL=1
      00FF7D29H   LINE      CODE     ---       #386
      00FF7D2DH   LINE      CODE     ---       #387
      00FF7D2DH   LINE      CODE     ---       #389
      00FF7D30H   LINE      CODE     ---       #390
      00FF7D43H   LINE      CODE     ---       #391
      00FF7D46H   LINE      CODE     ---       #392
      00FF7D4AH   LINE      CODE     ---       #393
      ---         BLOCKEND  ---      ---       LVL=0
      00000828H   SYMBOL    EDATA    BYTE      reg
      00000829H   SYMBOL    EDATA    ---       dat
      0000082DH   SYMBOL    EDATA    DWORD     len
L251 LINKER/LOCATER V4.66.93.0                                                        04/24/2024  12:31:03  PAGE 69


      0001067DH   SYMBOL    XDATA    BYTE      dat
      00000B3BH   SYMBOL    EDATA    BYTE      return_state
      0001067EH   SYMBOL    XDATA    WORD      timeout_count
      000105EEH   SYMBOL    XDATA    ---       dat
      000105F4H   SYMBOL    XDATA    ---       dat
      000009B1H   SYMBOL    EDATA    INT       acc_value
      000009B3H   SYMBOL    EDATA    FLOAT     acc_data
      000009B7H   SYMBOL    EDATA    INT       gyro_value
      000009B9H   SYMBOL    EDATA    FLOAT     gyro_data
      00010680H   SYMBOL    XDATA    BYTE      val
      00000B3CH   SYMBOL    EDATA    BYTE      return_state
      00010681H   SYMBOL    XDATA    WORD      timeout_count

      ---         MODULE    ---      ---       SEEKFREE_IMU660RA
      00000744H   PUBLIC    EDATA    INT       imu660ra_acc_x
      00000746H   PUBLIC    EDATA    INT       imu660ra_acc_y
      00000748H   PUBLIC    EDATA    INT       imu660ra_acc_z
      0000074AH   PUBLIC    EDATA    INT       imu660ra_gyro_x
      0000074CH   PUBLIC    EDATA    INT       imu660ra_gyro_y
      0000074EH   PUBLIC    EDATA    INT       imu660ra_gyro_z
      000000D0H   SFRSYM    DATA     BYTE      PSW
      0000009DH   SFRSYM    DATA     BYTE      IRCBAND
      00000097H   SFRSYM    DATA     BYTE      AUXR2
      000000EFH   SFRSYM    DATA     BYTE      AUXINTIF
      000000FDH   SFRSYM    DATA     BYTE      S4CON
      000000ACH   SFRSYM    DATA     BYTE      S3CON
      0000009AH   SFRSYM    DATA     BYTE      S2CON
      000000B7H   SFRSYM    DATA     BYTE      IPH
      000000CDH   SFRSYM    DATA     BYTE      SPSTAT
      000000DDH   SFRSYM    DATA     BYTE      T4T3M
      000000C1H   SFRSYM    DATA     BYTE      WDT_CONTR
      000000DFH   SFRSYM    DATA     BYTE      IP3
      000000F4H   SFRSYM    DATA     BYTE      USBCON
      000000B5H   SFRSYM    DATA     BYTE      IP2
      000000FFH   SFRSYM    DATA     BYTE      RSTCFG
      000000F9H   SFRSYM    DATA     BYTE      LINICR
      0000008EH   SFRSYM    DATA     BYTE      AUXR
      000000AFH   SFRSYM    DATA     BYTE      IE2
      000000C0H.3 SFRSYM    DATA     BIT       P43
      000000C0H.2 SFRSYM    DATA     BIT       P42
      00000088H   SFRSYM    DATA     BYTE      TCON
      000000C0H.1 SFRSYM    DATA     BIT       P41
      00000098H   SFRSYM    DATA     BYTE      SCON
      000000C0H.0 SFRSYM    DATA     BIT       P40
      000000F1H   SFRSYM    DATA     BYTE      CANICR
      00000087H   SFRSYM    DATA     BYTE      PCON
      000000BCH   SFRSYM    DATA     BYTE      ADC_CONTR
      000000E7H   SFRSYM    DATA     BYTE      CMPCR2
      000000E6H   SFRSYM    DATA     BYTE      CMPCR1
      000000B8H   SFRSYM    DATA     BYTE      IP
      0000008FH   SFRSYM    DATA     BYTE      INTCLKO
      000000EEH   SFRSYM    DATA     BYTE      IP3H
      000000B6H   SFRSYM    DATA     BYTE      IP2H
      000000A8H   SFRSYM    DATA     BYTE      IE
      000000BBH   SFRSYM    DATA     BYTE      P_SW3
      000000BAH   SFRSYM    DATA     BYTE      P_SW2
      000000A2H   SFRSYM    DATA     BYTE      P_SW1
      000000CEH   SFRSYM    DATA     BYTE      SPCTL
      000000F8H   SFRSYM    DATA     BYTE      P7
      000000E8H   SFRSYM    DATA     BYTE      P6
      000000C8H   SFRSYM    DATA     BYTE      P5
      000000C0H   SFRSYM    DATA     BYTE      P4
      000000B0H   SFRSYM    DATA     BYTE      P3
      000000A0H   SFRSYM    DATA     BYTE      P2
      00000090H   SFRSYM    DATA     BYTE      P1
L251 LINKER/LOCATER V4.66.93.0                                                        04/24/2024  12:31:03  PAGE 70


      00000080H   SFRSYM    DATA     BYTE      P0
      00FF7CDEH   SYMBOL    CODE     ---       imu660ra_read_register
      00FF7304H   SYMBOL    CODE     ---       imu660ra_simspi_wr_byte
      00FF7743H   SYMBOL    CODE     ---       imu660ra_simspi_r_reg_bytes

      00FF7304H   BLOCK     CODE     ---       LVL=0
      00000B3DH   SYMBOL    EDATA    BYTE      byte
      00FF7308H   BLOCK     CODE     NEAR LAB  LVL=1
      000106CBH   SYMBOL    XDATA    BYTE      i
      ---         BLOCKEND  ---      ---       LVL=1
      00FF7304H   LINE      CODE     ---       #294
      00FF7308H   LINE      CODE     ---       #295
      00FF7308H   LINE      CODE     ---       #297
      00FF730FH   LINE      CODE     ---       #299
      00FF731DH   LINE      CODE     ---       #300
      00FF7327H   LINE      CODE     ---       #301
      00FF732AH   LINE      CODE     ---       #302
      00FF732DH   LINE      CODE     ---       #303
      00FF7330H   LINE      CODE     ---       #304
      00FF7333H   LINE      CODE     ---       #305
      00FF7341H   LINE      CODE     ---       #306
      00FF7358H   LINE      CODE     ---       #307
      00FF735CH   LINE      CODE     ---       #308
      ---         BLOCKEND  ---      ---       LVL=0
      00000B07H   SYMBOL    EDATA    BYTE      cmd
      00000B08H   SYMBOL    EDATA    BYTE      val
      00000831H   SYMBOL    EDATA    BYTE      cmd
      00000832H   SYMBOL    EDATA    ---       dat_addr
      00000836H   SYMBOL    EDATA    DWORD     len

      00FF7743H   BLOCK     CODE     ---       LVL=0
      0000083AH   SYMBOL    EDATA    BYTE      cmd
      0000083BH   SYMBOL    EDATA    ---       val
      0000083FH   SYMBOL    EDATA    DWORD     num
      00FF7743H   LINE      CODE     ---       #365
      00FF774FH   LINE      CODE     ---       #367
      00FF775BH   LINE      CODE     ---       #368
      00FF7762H   LINE      CODE     ---       #369
      00FF7764H   LINE      CODE     ---       #371
      00FF7779H   LINE      CODE     ---       #372
      00FF778DH   LINE      CODE     ---       #373
      ---         BLOCKEND  ---      ---       LVL=0
      00000B09H   SYMBOL    EDATA    BYTE      reg
      00000B0AH   SYMBOL    EDATA    BYTE      dat
      00000843H   SYMBOL    EDATA    BYTE      reg
      00000844H   SYMBOL    EDATA    ---       dat
      00000848H   SYMBOL    EDATA    DWORD     len

      00FF7CDEH   BLOCK     CODE     ---       LVL=0
      00000B3EH   SYMBOL    EDATA    BYTE      reg
      00FF7CE2H   BLOCK     CODE     NEAR LAB  LVL=1
      000106A1H   SYMBOL    XDATA    ---       dat
      ---         BLOCKEND  ---      ---       LVL=1
      00FF7CDEH   LINE      CODE     ---       #413
      00FF7CE2H   LINE      CODE     ---       #414
      00FF7CE2H   LINE      CODE     ---       #416
      00FF7CE5H   LINE      CODE     ---       #417
      00FF7CFCH   LINE      CODE     ---       #418
      00FF7CFFH   LINE      CODE     ---       #419
      00FF7D03H   LINE      CODE     ---       #420
      ---         BLOCKEND  ---      ---       LVL=0
      0000084CH   SYMBOL    EDATA    BYTE      reg
      0000084DH   SYMBOL    EDATA    ---       dat
      00000851H   SYMBOL    EDATA    DWORD     len
      00010683H   SYMBOL    XDATA    BYTE      dat
L251 LINKER/LOCATER V4.66.93.0                                                        04/24/2024  12:31:03  PAGE 71


      00000B3FH   SYMBOL    EDATA    BYTE      return_state
      00010684H   SYMBOL    XDATA    WORD      timeout_count
      000105C1H   SYMBOL    XDATA    ---       dat
      000105C8H   SYMBOL    XDATA    ---       dat
      000009BDH   SYMBOL    EDATA    INT       acc_value
      000009BFH   SYMBOL    EDATA    FLOAT     acc_dat
      000009C3H   SYMBOL    EDATA    INT       gyro_value
      000009C5H   SYMBOL    EDATA    FLOAT     gyro_dat
      000106CCH   SYMBOL    XDATA    BYTE      return_state

      ---         MODULE    ---      ---       SEEKFREE_IMU963RA
      00000647H   PUBLIC    EDATA    INT       imu963ra_acc_x
      00000649H   PUBLIC    EDATA    INT       imu963ra_acc_y
      0000064BH   PUBLIC    EDATA    INT       imu963ra_acc_z
      0000064DH   PUBLIC    EDATA    INT       imu963ra_mag_x
      0000064FH   PUBLIC    EDATA    INT       imu963ra_mag_y
      00000651H   PUBLIC    EDATA    INT       imu963ra_mag_z
      00000653H   PUBLIC    EDATA    INT       imu963ra_gyro_x
      00000655H   PUBLIC    EDATA    INT       imu963ra_gyro_y
      00000657H   PUBLIC    EDATA    INT       imu963ra_gyro_z
      000000D0H   SFRSYM    DATA     BYTE      PSW
      0000009DH   SFRSYM    DATA     BYTE      IRCBAND
      00000097H   SFRSYM    DATA     BYTE      AUXR2
      000000EFH   SFRSYM    DATA     BYTE      AUXINTIF
      000000FDH   SFRSYM    DATA     BYTE      S4CON
      000000ACH   SFRSYM    DATA     BYTE      S3CON
      0000009AH   SFRSYM    DATA     BYTE      S2CON
      000000B7H   SFRSYM    DATA     BYTE      IPH
      000000CDH   SFRSYM    DATA     BYTE      SPSTAT
      000000DDH   SFRSYM    DATA     BYTE      T4T3M
      000000C1H   SFRSYM    DATA     BYTE      WDT_CONTR
      000000DFH   SFRSYM    DATA     BYTE      IP3
      000000F4H   SFRSYM    DATA     BYTE      USBCON
      000000B5H   SFRSYM    DATA     BYTE      IP2
      000000FFH   SFRSYM    DATA     BYTE      RSTCFG
      000000F9H   SFRSYM    DATA     BYTE      LINICR
      0000008EH   SFRSYM    DATA     BYTE      AUXR
      000000AFH   SFRSYM    DATA     BYTE      IE2
      000000C0H.3 SFRSYM    DATA     BIT       P43
      000000C0H.2 SFRSYM    DATA     BIT       P42
      00000088H   SFRSYM    DATA     BYTE      TCON
      000000C0H.1 SFRSYM    DATA     BIT       P41
      00000098H   SFRSYM    DATA     BYTE      SCON
      000000C0H.0 SFRSYM    DATA     BIT       P40
      000000F1H   SFRSYM    DATA     BYTE      CANICR
      00000087H   SFRSYM    DATA     BYTE      PCON
      000000BCH   SFRSYM    DATA     BYTE      ADC_CONTR
      000000E7H   SFRSYM    DATA     BYTE      CMPCR2
      000000E6H   SFRSYM    DATA     BYTE      CMPCR1
      000000B8H   SFRSYM    DATA     BYTE      IP
      0000008FH   SFRSYM    DATA     BYTE      INTCLKO
      000000EEH   SFRSYM    DATA     BYTE      IP3H
      000000B6H   SFRSYM    DATA     BYTE      IP2H
      000000A8H   SFRSYM    DATA     BYTE      IE
      000000BBH   SFRSYM    DATA     BYTE      P_SW3
      000000BAH   SFRSYM    DATA     BYTE      P_SW2
      000000A2H   SFRSYM    DATA     BYTE      P_SW1
      000000CEH   SFRSYM    DATA     BYTE      SPCTL
      000000F8H   SFRSYM    DATA     BYTE      P7
      000000E8H   SFRSYM    DATA     BYTE      P6
      000000C8H   SFRSYM    DATA     BYTE      P5
      000000C0H   SFRSYM    DATA     BYTE      P4
      000000B0H   SFRSYM    DATA     BYTE      P3
      000000A0H   SFRSYM    DATA     BYTE      P2
      00000090H   SFRSYM    DATA     BYTE      P1
L251 LINKER/LOCATER V4.66.93.0                                                        04/24/2024  12:31:03  PAGE 72


      00000080H   SFRSYM    DATA     BYTE      P0
      00FF735DH   SYMBOL    CODE     ---       imu963ra_simspi_wr_byte
      00FF6D7DH   SYMBOL    CODE     ---       imu963ra_read_mag_register
      00FF7C90H   SYMBOL    CODE     ---       imu963ra_read_acc_gyro_register
      00FF7B42H   SYMBOL    CODE     ---       imu963ra_simspi_r_reg_byte
      00FF7E67H   SYMBOL    CODE     ---       imu963ra_write_acc_gyro_register
      00FF7D8DH   SYMBOL    CODE     ---       imu963ra_simspi_w_reg_byte

      00FF735DH   BLOCK     CODE     ---       LVL=0
      00000B40H   SYMBOL    EDATA    BYTE      byte
      00FF7361H   BLOCK     CODE     NEAR LAB  LVL=1
      000106CDH   SYMBOL    XDATA    BYTE      i
      ---         BLOCKEND  ---      ---       LVL=1
      00FF735DH   LINE      CODE     ---       #331
      00FF7361H   LINE      CODE     ---       #332
      00FF7361H   LINE      CODE     ---       #334
      00FF7368H   LINE      CODE     ---       #336
      00FF7376H   LINE      CODE     ---       #337
      00FF7380H   LINE      CODE     ---       #338
      00FF7383H   LINE      CODE     ---       #339
      00FF7386H   LINE      CODE     ---       #340
      00FF7389H   LINE      CODE     ---       #341
      00FF738CH   LINE      CODE     ---       #342
      00FF739AH   LINE      CODE     ---       #343
      00FF73B1H   LINE      CODE     ---       #344
      00FF73B5H   LINE      CODE     ---       #345
      ---         BLOCKEND  ---      ---       LVL=0

      00FF7D8DH   BLOCK     CODE     ---       LVL=0
      00000B0BH   SYMBOL    EDATA    BYTE      cmd
      00000B0CH   SYMBOL    EDATA    BYTE      val
      00FF7D8DH   LINE      CODE     ---       #353
      00FF7D95H   LINE      CODE     ---       #355
      00FF7D98H   LINE      CODE     ---       #356
      00FF7D9CH   LINE      CODE     ---       #357
      00FF7DA3H   LINE      CODE     ---       #358
      00FF7DAAH   LINE      CODE     ---       #359
      00FF7DADH   LINE      CODE     ---       #360
      ---         BLOCKEND  ---      ---       LVL=0

      00FF7B42H   BLOCK     CODE     ---       LVL=0
      00000A4CH   SYMBOL    EDATA    BYTE      cmd
      00000A4DH   SYMBOL    EDATA    ---       val
      00FF7B42H   LINE      CODE     ---       #391
      00FF7B4AH   LINE      CODE     ---       #393
      00FF7B4DH   LINE      CODE     ---       #394
      00FF7B59H   LINE      CODE     ---       #395
      00FF7B60H   LINE      CODE     ---       #396
      00FF7B6BH   LINE      CODE     ---       #397
      00FF7B6EH   LINE      CODE     ---       #398
      ---         BLOCKEND  ---      ---       LVL=0
      00000855H   SYMBOL    EDATA    BYTE      cmd
      00000856H   SYMBOL    EDATA    ---       val
      0000085AH   SYMBOL    EDATA    DWORD     num

      00FF7E67H   BLOCK     CODE     ---       LVL=0
      00000B0DH   SYMBOL    EDATA    BYTE      reg
      00000B0EH   SYMBOL    EDATA    BYTE      dat
      00FF7E67H   LINE      CODE     ---       #428
      00FF7E6FH   LINE      CODE     ---       #430
      00FF7E72H   LINE      CODE     ---       #431
      00FF7E7DH   LINE      CODE     ---       #432
      00FF7E80H   LINE      CODE     ---       #433
      ---         BLOCKEND  ---      ---       LVL=0

L251 LINKER/LOCATER V4.66.93.0                                                        04/24/2024  12:31:03  PAGE 73


      00FF7C90H   BLOCK     CODE     ---       LVL=0
      00000B41H   SYMBOL    EDATA    BYTE      reg
      00FF7C94H   BLOCK     CODE     NEAR LAB  LVL=1
      000106CEH   SYMBOL    XDATA    BYTE      dat
      ---         BLOCKEND  ---      ---       LVL=1
      00FF7C90H   LINE      CODE     ---       #442
      00FF7C94H   LINE      CODE     ---       #443
      00FF7C94H   LINE      CODE     ---       #444
      00FF7C99H   LINE      CODE     ---       #445
      00FF7C9CH   LINE      CODE     ---       #446
      00FF7CAFH   LINE      CODE     ---       #447
      00FF7CB2H   LINE      CODE     ---       #448
      00FF7CB6H   LINE      CODE     ---       #449
      ---         BLOCKEND  ---      ---       LVL=0
      0000085EH   SYMBOL    EDATA    BYTE      reg
      0000085FH   SYMBOL    EDATA    ---       dat
      00000863H   SYMBOL    EDATA    DWORD     len
      00000AD8H   SYMBOL    EDATA    BYTE      addr
      00000AD9H   SYMBOL    EDATA    BYTE      reg
      00000ADAH   SYMBOL    EDATA    BYTE      dat
      00010686H   SYMBOL    XDATA    BYTE      return_state
      00010687H   SYMBOL    XDATA    WORD      timeout_count

      00FF6D7DH   BLOCK     CODE     ---       LVL=0
      00000B0FH   SYMBOL    EDATA    BYTE      addr
      00000B10H   SYMBOL    EDATA    BYTE      reg
      00FF6D85H   BLOCK     CODE     NEAR LAB  LVL=1
      000106A3H   SYMBOL    XDATA    WORD      timeout_count
      ---         BLOCKEND  ---      ---       LVL=1
      00FF6D7DH   LINE      CODE     ---       #508
      00FF6D85H   LINE      CODE     ---       #509
      00FF6D85H   LINE      CODE     ---       #510
      00FF6D8DH   LINE      CODE     ---       #511
      00FF6D97H   LINE      CODE     ---       #512
      00FF6DA5H   LINE      CODE     ---       #513
      00FF6DAEH   LINE      CODE     ---       #514
      00FF6DB6H   LINE      CODE     ---       #515
      00FF6DBEH   LINE      CODE     ---       #517
      00FF6DC0H   LINE      CODE     ---       #519
      00FF6DD7H   LINE      CODE     ---       #521
      00FF6DD7H   LINE      CODE     ---       #522
      00FF6DD7H   LINE      CODE     ---       #523
      00FF6DDEH   LINE      CODE     ---       #524
      00FF6DE6H   LINE      CODE     ---       #525
      00FF6DEBH   LINE      CODE     ---       #526
      ---         BLOCKEND  ---      ---       LVL=0
      00000B11H   SYMBOL    EDATA    BYTE      addr
      00000B12H   SYMBOL    EDATA    BYTE      reg
      00010657H   SYMBOL    XDATA    BYTE      return_state
      00010658H   SYMBOL    XDATA    BYTE      dat
      00010659H   SYMBOL    XDATA    WORD      timeout_count
      0001065BH   SYMBOL    XDATA    BYTE      return_state
      0001065CH   SYMBOL    XDATA    BYTE      dat
      0001065DH   SYMBOL    XDATA    WORD      timeout_count
      000105FAH   SYMBOL    XDATA    ---       dat
      00010600H   SYMBOL    XDATA    ---       dat
      000105CFH   SYMBOL    XDATA    BYTE      temp_status
      000105D0H   SYMBOL    XDATA    ---       dat
      000009C9H   SYMBOL    EDATA    INT       acc_value
      000009CBH   SYMBOL    EDATA    FLOAT     acc_dat
      000009CFH   SYMBOL    EDATA    INT       gyro_value
      000009D1H   SYMBOL    EDATA    FLOAT     gyro_dat
      000009D5H   SYMBOL    EDATA    INT       mag_value
      000009D7H   SYMBOL    EDATA    FLOAT     mag_dat
      000106CFH   SYMBOL    XDATA    BYTE      return_state
L251 LINKER/LOCATER V4.66.93.0                                                        04/24/2024  12:31:03  PAGE 74



      ---         MODULE    ---      ---       SEEKFREE_IPS114_SPI
      00FF7B9BH   PUBLIC    CODE     ---       ips114_writedata_16bit
      00FF750FH   PUBLIC    CODE     ---       ips114_writeDatai_16bit_simspi
      00FF778EH   PUBLIC    CODE     ---       ips114_writeIndex_simspi
      00FF7EC2H   PUBLIC    CODE     ---       ips114_writeIndex
      00000750H   PUBLIC    EDATA    BYTE      ?ips114_showfloat_simspi?BYTE
      0000075CH   PUBLIC    EDATA    BYTE      ?ips114_showfloat?BYTE
      000000D0H   SFRSYM    DATA     BYTE      PSW
      0000009DH   SFRSYM    DATA     BYTE      IRCBAND
      00000097H   SFRSYM    DATA     BYTE      AUXR2
      000000EFH   SFRSYM    DATA     BYTE      AUXINTIF
      000000FDH   SFRSYM    DATA     BYTE      S4CON
      000000ACH   SFRSYM    DATA     BYTE      S3CON
      0000009AH   SFRSYM    DATA     BYTE      S2CON
      000000B7H   SFRSYM    DATA     BYTE      IPH
      000000CDH   SFRSYM    DATA     BYTE      SPSTAT
      000000DDH   SFRSYM    DATA     BYTE      T4T3M
      000000C1H   SFRSYM    DATA     BYTE      WDT_CONTR
      000000DFH   SFRSYM    DATA     BYTE      IP3
      000000F4H   SFRSYM    DATA     BYTE      USBCON
      000000B5H   SFRSYM    DATA     BYTE      IP2
      000000FFH   SFRSYM    DATA     BYTE      RSTCFG
      000000F9H   SFRSYM    DATA     BYTE      LINICR
      0000008EH   SFRSYM    DATA     BYTE      AUXR
      000000AFH   SFRSYM    DATA     BYTE      IE2
      000000A0H.7 SFRSYM    DATA     BIT       P27
      000000A0H.5 SFRSYM    DATA     BIT       P25
      00000088H   SFRSYM    DATA     BYTE      TCON
      000000A0H.3 SFRSYM    DATA     BIT       P23
      00000098H   SFRSYM    DATA     BYTE      SCON
      000000A0H.2 SFRSYM    DATA     BIT       P22
      000000A0H.1 SFRSYM    DATA     BIT       P21
      000000A0H.0 SFRSYM    DATA     BIT       P20
      000000F1H   SFRSYM    DATA     BYTE      CANICR
      00000087H   SFRSYM    DATA     BYTE      PCON
      000000BCH   SFRSYM    DATA     BYTE      ADC_CONTR
      000000E7H   SFRSYM    DATA     BYTE      CMPCR2
      000000E6H   SFRSYM    DATA     BYTE      CMPCR1
      000000B8H   SFRSYM    DATA     BYTE      IP
      0000008FH   SFRSYM    DATA     BYTE      INTCLKO
      000000EEH   SFRSYM    DATA     BYTE      IP3H
      000000B6H   SFRSYM    DATA     BYTE      IP2H
      000000A8H   SFRSYM    DATA     BYTE      IE
      000000BBH   SFRSYM    DATA     BYTE      P_SW3
      000000BAH   SFRSYM    DATA     BYTE      P_SW2
      000000A2H   SFRSYM    DATA     BYTE      P_SW1
      000000CEH   SFRSYM    DATA     BYTE      SPCTL
      000000F8H   SFRSYM    DATA     BYTE      P7
      000000E8H   SFRSYM    DATA     BYTE      P6
      000000C8H   SFRSYM    DATA     BYTE      P5
      000000C0H   SFRSYM    DATA     BYTE      P4
      000000B0H   SFRSYM    DATA     BYTE      P3
      000000A0H   SFRSYM    DATA     BYTE      P2
      00000090H   SFRSYM    DATA     BYTE      P1
      00000080H   SFRSYM    DATA     BYTE      P0

      00FF778EH   BLOCK     CODE     ---       LVL=0
      00000B42H   SYMBOL    EDATA    BYTE      dat
      00FF7792H   BLOCK     CODE     NEAR LAB  LVL=1
      000106D0H   SYMBOL    XDATA    BYTE      i
      ---         BLOCKEND  ---      ---       LVL=1
      00FF778EH   LINE      CODE     ---       #61
      00FF7792H   LINE      CODE     ---       #62
      00FF7792H   LINE      CODE     ---       #63
L251 LINKER/LOCATER V4.66.93.0                                                        04/24/2024  12:31:03  PAGE 75


      00FF7798H   LINE      CODE     ---       #64
      00FF779BH   LINE      CODE     ---       #65
      00FF779EH   LINE      CODE     ---       #67
      00FF77A1H   LINE      CODE     ---       #69
      00FF77A3H   LINE      CODE     ---       #71
      00FF77AFH   LINE      CODE     ---       #72
      00FF77B2H   LINE      CODE     ---       #73
      00FF77B5H   LINE      CODE     ---       #75
      00FF77B8H   LINE      CODE     ---       #76
      00FF77C2H   LINE      CODE     ---       #77
      00FF77D5H   LINE      CODE     ---       #78
      00FF77D8H   LINE      CODE     ---       #79
      ---         BLOCKEND  ---      ---       LVL=0
      00000B43H   SYMBOL    EDATA    BYTE      dat
      000106D1H   SYMBOL    XDATA    BYTE      i

      00FF750FH   BLOCK     CODE     ---       LVL=0
      00000B13H   SYMBOL    EDATA    WORD      dat
      00FF7513H   BLOCK     CODE     NEAR LAB  LVL=1
      000106D2H   SYMBOL    XDATA    BYTE      i
      ---         BLOCKEND  ---      ---       LVL=1
      00FF750FH   LINE      CODE     ---       #115
      00FF7513H   LINE      CODE     ---       #116
      00FF7513H   LINE      CODE     ---       #117
      00FF7519H   LINE      CODE     ---       #118
      00FF751CH   LINE      CODE     ---       #119
      00FF751FH   LINE      CODE     ---       #120
      00FF7522H   LINE      CODE     ---       #121
      00FF7524H   LINE      CODE     ---       #123
      00FF7539H   LINE      CODE     ---       #124
      00FF753CH   LINE      CODE     ---       #125
      00FF753FH   LINE      CODE     ---       #127
      00FF7542H   LINE      CODE     ---       #128
      00FF754CH   LINE      CODE     ---       #129
      00FF755FH   LINE      CODE     ---       #130
      00FF7562H   LINE      CODE     ---       #131
      ---         BLOCKEND  ---      ---       LVL=0
      000008DCH   SYMBOL    EDATA    WORD      x1
      000008DEH   SYMBOL    EDATA    WORD      y1
      000008E0H   SYMBOL    EDATA    WORD      x2
      000008E2H   SYMBOL    EDATA    WORD      y2
      00000AA3H   SYMBOL    EDATA    WORD      color
      000106A5H   SYMBOL    XDATA    WORD      i
      00000AA5H   SYMBOL    EDATA    WORD      j
      000009DBH   SYMBOL    EDATA    WORD      x
      000009DDH   SYMBOL    EDATA    WORD      y
      000009DFH   SYMBOL    EDATA    WORD      color
      000009E1H   SYMBOL    EDATA    WORD      x
      000009E3H   SYMBOL    EDATA    WORD      y
      000009E5H   SYMBOL    EDATA    CHAR      dat
      000106A7H   SYMBOL    XDATA    BYTE      i
      000009E6H   SYMBOL    EDATA    BYTE      j
      000106A8H   SYMBOL    XDATA    BYTE      temp
      000008E4H   SYMBOL    EDATA    WORD      x
      000008E6H   SYMBOL    EDATA    WORD      y
      000008E8H   SYMBOL    EDATA    ---       dat
      000106A9H   SYMBOL    XDATA    WORD      j
      00000A51H   SYMBOL    EDATA    WORD      x
      00000A53H   SYMBOL    EDATA    WORD      y
      00000A55H   SYMBOL    EDATA    CHAR      dat
      0001065FH   SYMBOL    XDATA    ---       a
      00010662H   SYMBOL    XDATA    BYTE      i
      00000A56H   SYMBOL    EDATA    WORD      x
      00000A58H   SYMBOL    EDATA    WORD      y
      00000A5AH   SYMBOL    EDATA    BYTE      dat
L251 LINKER/LOCATER V4.66.93.0                                                        04/24/2024  12:31:03  PAGE 76


      00010663H   SYMBOL    XDATA    ---       a
      00010666H   SYMBOL    XDATA    BYTE      i
      000009E7H   SYMBOL    EDATA    WORD      x
      000009E9H   SYMBOL    EDATA    WORD      y
      000009EBH   SYMBOL    EDATA    INT       dat
      00010606H   SYMBOL    XDATA    ---       a
      0001060BH   SYMBOL    XDATA    BYTE      i
      000009EDH   SYMBOL    EDATA    WORD      x
      000009EFH   SYMBOL    EDATA    WORD      y
      000009F1H   SYMBOL    EDATA    WORD      dat
      0001060CH   SYMBOL    XDATA    ---       a
      00010611H   SYMBOL    XDATA    BYTE      i
      00000867H   SYMBOL    EDATA    WORD      x
      00000869H   SYMBOL    EDATA    WORD      y
      0000086BH   SYMBOL    EDATA    LONG      dat
      0000086FH   SYMBOL    EDATA    BYTE      num
      0001054EH   SYMBOL    XDATA    ---       buff
      00010570H   SYMBOL    XDATA    BYTE      length
      00000750H   SYMBOL    EDATA    WORD      x
      00000752H   SYMBOL    EDATA    WORD      y
      00000754H   SYMBOL    EDATA    FLOAT     dat
      00000758H   SYMBOL    EDATA    BYTE      num
      00000759H   SYMBOL    EDATA    BYTE      pointnum
      000104C0H   SYMBOL    XDATA    BYTE      length
      000104C1H   SYMBOL    XDATA    ---       buff
      000104E3H   SYMBOL    XDATA    CHAR      start
      0000075AH   SYMBOL    EDATA    CHAR      end
      0000075BH   SYMBOL    EDATA    CHAR      point

      00FF7EC2H   BLOCK     CODE     ---       LVL=0
      00000B44H   SYMBOL    EDATA    BYTE      dat
      00FF7EC2H   LINE      CODE     ---       #594
      00FF7EC6H   LINE      CODE     ---       #596
      00FF7EC9H   LINE      CODE     ---       #597
      00FF7ECCH   LINE      CODE     ---       #599
      00FF7ED3H   LINE      CODE     ---       #600
      00FF7ED6H   LINE      CODE     ---       #601
      ---         BLOCKEND  ---      ---       LVL=0
      00000B45H   SYMBOL    EDATA    BYTE      dat

      00FF7B9BH   BLOCK     CODE     ---       LVL=0
      00000B15H   SYMBOL    EDATA    WORD      dat
      00FF7B9FH   BLOCK     CODE     NEAR LAB  LVL=1
      000106ABH   SYMBOL    XDATA    ---       dat1
      ---         BLOCKEND  ---      ---       LVL=1
      00FF7B9BH   LINE      CODE     ---       #626
      00FF7B9FH   LINE      CODE     ---       #627
      00FF7B9FH   LINE      CODE     ---       #629
      00FF7BA7H   LINE      CODE     ---       #630
      00FF7BAFH   LINE      CODE     ---       #631
      00FF7BB2H   LINE      CODE     ---       #632
      00FF7BB5H   LINE      CODE     ---       #633
      00FF7BBCH   LINE      CODE     ---       #634
      00FF7BC3H   LINE      CODE     ---       #635
      00FF7BC6H   LINE      CODE     ---       #636
      ---         BLOCKEND  ---      ---       LVL=0
      000008ECH   SYMBOL    EDATA    WORD      x1
      000008EEH   SYMBOL    EDATA    WORD      y1
      000008F0H   SYMBOL    EDATA    WORD      x2
      000008F2H   SYMBOL    EDATA    WORD      y2
      00000AA7H   SYMBOL    EDATA    WORD      color
      000106ADH   SYMBOL    XDATA    WORD      i
      00000AA9H   SYMBOL    EDATA    WORD      j
      000009F3H   SYMBOL    EDATA    WORD      x
      000009F5H   SYMBOL    EDATA    WORD      y
L251 LINKER/LOCATER V4.66.93.0                                                        04/24/2024  12:31:03  PAGE 77


      000009F7H   SYMBOL    EDATA    WORD      color
      000009F9H   SYMBOL    EDATA    WORD      x
      000009FBH   SYMBOL    EDATA    WORD      y
      000009FDH   SYMBOL    EDATA    CHAR      dat
      000106AFH   SYMBOL    XDATA    BYTE      i
      000009FEH   SYMBOL    EDATA    BYTE      j
      000106B0H   SYMBOL    XDATA    BYTE      temp
      000008F4H   SYMBOL    EDATA    WORD      x
      000008F6H   SYMBOL    EDATA    WORD      y
      000008F8H   SYMBOL    EDATA    ---       dat
      000106B1H   SYMBOL    XDATA    WORD      j
      00000A5BH   SYMBOL    EDATA    WORD      x
      00000A5DH   SYMBOL    EDATA    WORD      y
      00000A5FH   SYMBOL    EDATA    CHAR      dat
      00010667H   SYMBOL    XDATA    ---       a
      0001066AH   SYMBOL    XDATA    BYTE      i
      00000A60H   SYMBOL    EDATA    WORD      x
      00000A62H   SYMBOL    EDATA    WORD      y
      00000A64H   SYMBOL    EDATA    BYTE      dat
      0001066BH   SYMBOL    XDATA    ---       a
      0001066EH   SYMBOL    XDATA    BYTE      i
      000009FFH   SYMBOL    EDATA    WORD      x
      00000A01H   SYMBOL    EDATA    WORD      y
      00000A03H   SYMBOL    EDATA    INT       dat
      00010612H   SYMBOL    XDATA    ---       a
      00010617H   SYMBOL    XDATA    BYTE      i
      00000A05H   SYMBOL    EDATA    WORD      x
      00000A07H   SYMBOL    EDATA    WORD      y
      00000A09H   SYMBOL    EDATA    WORD      dat
      00010618H   SYMBOL    XDATA    ---       a
      0001061DH   SYMBOL    XDATA    BYTE      i
      00000870H   SYMBOL    EDATA    WORD      x
      00000872H   SYMBOL    EDATA    WORD      y
      00000874H   SYMBOL    EDATA    LONG      dat
      00000878H   SYMBOL    EDATA    BYTE      num
      00010571H   SYMBOL    XDATA    ---       buff
      00010593H   SYMBOL    XDATA    BYTE      length
      0000075CH   SYMBOL    EDATA    WORD      x
      0000075EH   SYMBOL    EDATA    WORD      y
      00000760H   SYMBOL    EDATA    FLOAT     dat
      00000764H   SYMBOL    EDATA    BYTE      num
      00000765H   SYMBOL    EDATA    BYTE      pointnum
      000104E4H   SYMBOL    XDATA    BYTE      length
      000104E5H   SYMBOL    XDATA    ---       buff
      00010507H   SYMBOL    XDATA    CHAR      start
      00000766H   SYMBOL    EDATA    CHAR      end
      00000767H   SYMBOL    EDATA    CHAR      point

      ---         MODULE    ---      ---       SEEKFREE_MPU6050
      00000768H   PUBLIC    EDATA    INT       mpu6050_acc_x
      0000076AH   PUBLIC    EDATA    INT       mpu6050_acc_y
      0000076CH   PUBLIC    EDATA    INT       mpu6050_acc_z
      0000076EH   PUBLIC    EDATA    INT       mpu6050_gyro_x
      00000770H   PUBLIC    EDATA    INT       mpu6050_gyro_y
      00000772H   PUBLIC    EDATA    INT       mpu6050_gyro_z
      000000D0H   SFRSYM    DATA     BYTE      PSW
      0000009DH   SFRSYM    DATA     BYTE      IRCBAND
      00000097H   SFRSYM    DATA     BYTE      AUXR2
      000000EFH   SFRSYM    DATA     BYTE      AUXINTIF
      000000FDH   SFRSYM    DATA     BYTE      S4CON
      000000ACH   SFRSYM    DATA     BYTE      S3CON
      0000009AH   SFRSYM    DATA     BYTE      S2CON
      000000B7H   SFRSYM    DATA     BYTE      IPH
      000000CDH   SFRSYM    DATA     BYTE      SPSTAT
      000000DDH   SFRSYM    DATA     BYTE      T4T3M
L251 LINKER/LOCATER V4.66.93.0                                                        04/24/2024  12:31:03  PAGE 78


      000000C1H   SFRSYM    DATA     BYTE      WDT_CONTR
      000000DFH   SFRSYM    DATA     BYTE      IP3
      000000F4H   SFRSYM    DATA     BYTE      USBCON
      000000B5H   SFRSYM    DATA     BYTE      IP2
      000000FFH   SFRSYM    DATA     BYTE      RSTCFG
      000000F9H   SFRSYM    DATA     BYTE      LINICR
      0000008EH   SFRSYM    DATA     BYTE      AUXR
      000000AFH   SFRSYM    DATA     BYTE      IE2
      00000088H   SFRSYM    DATA     BYTE      TCON
      000000C0H.1 SFRSYM    DATA     BIT       P41
      00000098H   SFRSYM    DATA     BYTE      SCON
      000000C0H.0 SFRSYM    DATA     BIT       P40
      000000F1H   SFRSYM    DATA     BYTE      CANICR
      00000087H   SFRSYM    DATA     BYTE      PCON
      000000BCH   SFRSYM    DATA     BYTE      ADC_CONTR
      000000E7H   SFRSYM    DATA     BYTE      CMPCR2
      000000E6H   SFRSYM    DATA     BYTE      CMPCR1
      000000B8H   SFRSYM    DATA     BYTE      IP
      0000008FH   SFRSYM    DATA     BYTE      INTCLKO
      000000EEH   SFRSYM    DATA     BYTE      IP3H
      000000B6H   SFRSYM    DATA     BYTE      IP2H
      000000A8H   SFRSYM    DATA     BYTE      IE
      000000BBH   SFRSYM    DATA     BYTE      P_SW3
      000000BAH   SFRSYM    DATA     BYTE      P_SW2
      000000A2H   SFRSYM    DATA     BYTE      P_SW1
      000000CEH   SFRSYM    DATA     BYTE      SPCTL
      000000F8H   SFRSYM    DATA     BYTE      P7
      000000E8H   SFRSYM    DATA     BYTE      P6
      000000C8H   SFRSYM    DATA     BYTE      P5
      000000C0H   SFRSYM    DATA     BYTE      P4
      000000B0H   SFRSYM    DATA     BYTE      P3
      000000A0H   SFRSYM    DATA     BYTE      P2
      00000090H   SFRSYM    DATA     BYTE      P1
      00000080H   SFRSYM    DATA     BYTE      P0
      00FF7F14H   SYMBOL    CODE     ---       mpu6050_simiic_start
      00FF7E97H   SYMBOL    CODE     ---       mpu6050_simiic_stop
      00FF7C41H   SYMBOL    CODE     ---       mpu6050_simiic_sendack
      00FF7DEEH   SYMBOL    CODE     ---       mpu6050_simiic_delay

      00FF7DEEH   BLOCK     CODE     ---       LVL=0
      000106B3H   SYMBOL    XDATA    WORD      j
      00FF7DEEH   LINE      CODE     ---       #52
      00FF7DEEH   LINE      CODE     ---       #53
      00FF7DEEH   LINE      CODE     ---       #54
      00FF7DF6H   LINE      CODE     ---       #55
      00FF7E0DH   LINE      CODE     ---       #56
      ---         BLOCKEND  ---      ---       LVL=0

      00FF7F14H   BLOCK     CODE     ---       LVL=0
      00FF7F14H   LINE      CODE     ---       #59
      00FF7F14H   LINE      CODE     ---       #61
      00FF7F17H   LINE      CODE     ---       #62
      00FF7F1AH   LINE      CODE     ---       #63
      00FF7F1DH   LINE      CODE     ---       #64
      00FF7F20H   LINE      CODE     ---       #65
      00FF7F23H   LINE      CODE     ---       #66
      00FF7F26H   LINE      CODE     ---       #67
      ---         BLOCKEND  ---      ---       LVL=0

      00FF7E97H   BLOCK     CODE     ---       LVL=0
      00FF7E97H   LINE      CODE     ---       #70
      00FF7E97H   LINE      CODE     ---       #72
      00FF7E9AH   LINE      CODE     ---       #73
      00FF7E9DH   LINE      CODE     ---       #74
      00FF7EA0H   LINE      CODE     ---       #75
L251 LINKER/LOCATER V4.66.93.0                                                        04/24/2024  12:31:03  PAGE 79


      00FF7EA3H   LINE      CODE     ---       #76
      00FF7EA6H   LINE      CODE     ---       #77
      00FF7EA9H   LINE      CODE     ---       #78
      00FF7EACH   LINE      CODE     ---       #79
      ---         BLOCKEND  ---      ---       LVL=0

      00FF7C41H   BLOCK     CODE     ---       LVL=0
      00000B46H   SYMBOL    EDATA    BYTE      ack_dat
      00FF7C41H   LINE      CODE     ---       #83
      00FF7C45H   LINE      CODE     ---       #85
      00FF7C48H   LINE      CODE     ---       #86
      00FF7C4BH   LINE      CODE     ---       #87
      00FF7C59H   LINE      CODE     ---       #88
      00FF7C5CH   LINE      CODE     ---       #89
      00FF7C5FH   LINE      CODE     ---       #90
      00FF7C62H   LINE      CODE     ---       #91
      00FF7C65H   LINE      CODE     ---       #92
      00FF7C68H   LINE      CODE     ---       #93
      ---         BLOCKEND  ---      ---       LVL=0
      00000B47H   SYMBOL    EDATA    BYTE      c
      000106D3H   SYMBOL    XDATA    BYTE      i
      00000B48H   SYMBOL    EDATA    BYTE      ack_x
      000106B5H   SYMBOL    XDATA    BYTE      i
      000106B6H   SYMBOL    XDATA    BYTE      c
      00000ADBH   SYMBOL    EDATA    BYTE      dev_add
      00000ADCH   SYMBOL    EDATA    BYTE      reg
      00000ADDH   SYMBOL    EDATA    BYTE      dat
      00000B17H   SYMBOL    EDATA    BYTE      dev_add
      00000B18H   SYMBOL    EDATA    BYTE      reg
      000106D4H   SYMBOL    XDATA    BYTE      dat
      0000093BH   SYMBOL    EDATA    BYTE      dev_add
      0000093CH   SYMBOL    EDATA    BYTE      reg
      0000093DH   SYMBOL    EDATA    ---       dat_add
      00000941H   SYMBOL    EDATA    BYTE      num
      0001061EH   SYMBOL    XDATA    ---       dat
      00010624H   SYMBOL    XDATA    ---       dat

      ---         MODULE    ---      ---       SEEKFREE_OLED
      00FF7AA9H   PUBLIC    CODE     ---       oled_set_pos
      00FF77D9H   PUBLIC    CODE     ---       oled_wrcmd
      00FF7824H   PUBLIC    CODE     ---       oled_wrdat
      00FF7A09H   PUBLIC    CODE     ---       oled_set_pos_spi
      00FF5F0EH   PUBLIC    CODE     ---       oled_printf_float_spi
      00FF7ED7H   PUBLIC    CODE     ---       oled_wrcmd_spi
      00FF7EECH   PUBLIC    CODE     ---       oled_wrdat_spi
      00FF724CH   PUBLIC    CODE     ---       oled_fill_spi
      00FF6597H   PUBLIC    CODE     ---       oled_p6x8str_spi
      00FF6737H   PUBLIC    CODE     ---       oled_init_spi
      00000490H   PUBLIC    EDATA    BYTE      ?oled_printf_float?BYTE
      000004C0H   PUBLIC    EDATA    BYTE      ?oled_printf_float_spi?BYTE
      000000D0H   SFRSYM    DATA     BYTE      PSW
      0000009DH   SFRSYM    DATA     BYTE      IRCBAND
      00000097H   SFRSYM    DATA     BYTE      AUXR2
      000000EFH   SFRSYM    DATA     BYTE      AUXINTIF
      000000FDH   SFRSYM    DATA     BYTE      S4CON
      000000ACH   SFRSYM    DATA     BYTE      S3CON
      0000009AH   SFRSYM    DATA     BYTE      S2CON
      000000B7H   SFRSYM    DATA     BYTE      IPH
      000000CDH   SFRSYM    DATA     BYTE      SPSTAT
      000000DDH   SFRSYM    DATA     BYTE      T4T3M
      000000C1H   SFRSYM    DATA     BYTE      WDT_CONTR
      000000DFH   SFRSYM    DATA     BYTE      IP3
      000000F4H   SFRSYM    DATA     BYTE      USBCON
      000000B5H   SFRSYM    DATA     BYTE      IP2
      000000FFH   SFRSYM    DATA     BYTE      RSTCFG
L251 LINKER/LOCATER V4.66.93.0                                                        04/24/2024  12:31:03  PAGE 80


      000000F9H   SFRSYM    DATA     BYTE      LINICR
      0000008EH   SFRSYM    DATA     BYTE      AUXR
      000000AFH   SFRSYM    DATA     BYTE      IE2
      000000A0H.5 SFRSYM    DATA     BIT       P25
      00000088H   SFRSYM    DATA     BYTE      TCON
      000000A0H.3 SFRSYM    DATA     BIT       P23
      00000098H   SFRSYM    DATA     BYTE      SCON
      000000A0H.2 SFRSYM    DATA     BIT       P22
      000000A0H.1 SFRSYM    DATA     BIT       P21
      000000A0H.0 SFRSYM    DATA     BIT       P20
      000000F1H   SFRSYM    DATA     BYTE      CANICR
      00000087H   SFRSYM    DATA     BYTE      PCON
      000000BCH   SFRSYM    DATA     BYTE      ADC_CONTR
      000000E7H   SFRSYM    DATA     BYTE      CMPCR2
      000000E6H   SFRSYM    DATA     BYTE      CMPCR1
      000000B8H   SFRSYM    DATA     BYTE      IP
      0000008FH   SFRSYM    DATA     BYTE      INTCLKO
      000000EEH   SFRSYM    DATA     BYTE      IP3H
      000000B6H   SFRSYM    DATA     BYTE      IP2H
      000000A8H   SFRSYM    DATA     BYTE      IE
      000000BBH   SFRSYM    DATA     BYTE      P_SW3
      000000BAH   SFRSYM    DATA     BYTE      P_SW2
      000000A2H   SFRSYM    DATA     BYTE      P_SW1
      000000CEH   SFRSYM    DATA     BYTE      SPCTL
      000000F8H   SFRSYM    DATA     BYTE      P7
      000000E8H   SFRSYM    DATA     BYTE      P6
      000000C8H   SFRSYM    DATA     BYTE      P5
      000000C0H   SFRSYM    DATA     BYTE      P4
      000000B0H   SFRSYM    DATA     BYTE      P3
      000000A0H   SFRSYM    DATA     BYTE      P2
      00000090H   SFRSYM    DATA     BYTE      P1
      00000080H   SFRSYM    DATA     BYTE      P0

      00FF7824H   BLOCK     CODE     ---       LVL=0
      00000B49H   SYMBOL    EDATA    BYTE      dat
      00FF7828H   BLOCK     CODE     NEAR LAB  LVL=1
      000106D5H   SYMBOL    XDATA    BYTE      i
      ---         BLOCKEND  ---      ---       LVL=1
      00FF7824H   LINE      CODE     ---       #47
      00FF7828H   LINE      CODE     ---       #48
      00FF7828H   LINE      CODE     ---       #49
      00FF782EH   LINE      CODE     ---       #51
      00FF7831H   LINE      CODE     ---       #52
      00FF7834H   LINE      CODE     ---       #53
      00FF7837H   LINE      CODE     ---       #54
      00FF7839H   LINE      CODE     ---       #56
      00FF7845H   LINE      CODE     ---       #57
      00FF7848H   LINE      CODE     ---       #58
      00FF784BH   LINE      CODE     ---       #60
      00FF784EH   LINE      CODE     ---       #61
      00FF7858H   LINE      CODE     ---       #62
      00FF786BH   LINE      CODE     ---       #63
      00FF786EH   LINE      CODE     ---       #64
      ---         BLOCKEND  ---      ---       LVL=0

      00FF77D9H   BLOCK     CODE     ---       LVL=0
      00000B4AH   SYMBOL    EDATA    BYTE      cmd
      00FF77DDH   BLOCK     CODE     NEAR LAB  LVL=1
      000106D6H   SYMBOL    XDATA    BYTE      i
      ---         BLOCKEND  ---      ---       LVL=1
      00FF77D9H   LINE      CODE     ---       #98
      00FF77DDH   LINE      CODE     ---       #99
      00FF77DDH   LINE      CODE     ---       #100
      00FF77E3H   LINE      CODE     ---       #102
      00FF77E6H   LINE      CODE     ---       #103
L251 LINKER/LOCATER V4.66.93.0                                                        04/24/2024  12:31:03  PAGE 81


      00FF77E9H   LINE      CODE     ---       #104
      00FF77ECH   LINE      CODE     ---       #106
      00FF77EEH   LINE      CODE     ---       #108
      00FF77FAH   LINE      CODE     ---       #109
      00FF77FDH   LINE      CODE     ---       #110
      00FF7800H   LINE      CODE     ---       #112
      00FF7803H   LINE      CODE     ---       #113
      00FF780DH   LINE      CODE     ---       #114
      00FF7820H   LINE      CODE     ---       #115
      00FF7823H   LINE      CODE     ---       #116
      ---         BLOCKEND  ---      ---       LVL=0
      00000A0BH   SYMBOL    EDATA    WORD      hex
      00000A0DH   SYMBOL    EDATA    ---       Print
      000106B7H   SYMBOL    XDATA    BYTE      hexcheck
      000106B8H   SYMBOL    XDATA    BYTE      TEMP

      00FF7AA9H   BLOCK     CODE     ---       LVL=0
      00000B19H   SYMBOL    EDATA    BYTE      x
      00000B1AH   SYMBOL    EDATA    BYTE      y
      00FF7AA9H   LINE      CODE     ---       #205
      00FF7AB1H   LINE      CODE     ---       #207
      00FF7ABCH   LINE      CODE     ---       #208
      00FF7AD2H   LINE      CODE     ---       #209
      00FF7ADDH   LINE      CODE     ---       #210
      ---         BLOCKEND  ---      ---       LVL=0
      00000B1BH   SYMBOL    EDATA    BYTE      bmp_data
      000106D7H   SYMBOL    XDATA    BYTE      y
      00000B1CH   SYMBOL    EDATA    BYTE      x
      00000ADEH   SYMBOL    EDATA    BYTE      x
      00000ADFH   SYMBOL    EDATA    BYTE      y
      00000AE0H   SYMBOL    EDATA    BYTE      data1
      00000B1DH   SYMBOL    EDATA    BYTE      x
      00000B1EH   SYMBOL    EDATA    BYTE      y
      000008FCH   SYMBOL    EDATA    BYTE      x
      000008FDH   SYMBOL    EDATA    BYTE      y
      000008FEH   SYMBOL    EDATA    ---       ch
      000106D8H   SYMBOL    XDATA    BYTE      c
      00000902H   SYMBOL    EDATA    BYTE      i
      00000903H   SYMBOL    EDATA    BYTE      j
      00000904H   SYMBOL    EDATA    BYTE      x
      00000905H   SYMBOL    EDATA    BYTE      y
      00000906H   SYMBOL    EDATA    ---       ch
      000106D9H   SYMBOL    XDATA    BYTE      c
      0000090AH   SYMBOL    EDATA    BYTE      i
      0000090BH   SYMBOL    EDATA    BYTE      j
      00000774H   SYMBOL    EDATA    BYTE      x
      00000775H   SYMBOL    EDATA    BYTE      y
      00000776H   SYMBOL    EDATA    WORD      num
      00000778H   SYMBOL    EDATA    ---       ch
      0000077FH   SYMBOL    EDATA    BYTE      x
      00000780H   SYMBOL    EDATA    BYTE      y
      00000781H   SYMBOL    EDATA    INT       num
      00000783H   SYMBOL    EDATA    ---       ch
      000004F0H   SYMBOL    EDATA    WORD      x
      000004F2H   SYMBOL    EDATA    WORD      y
      000004F4H   SYMBOL    EDATA    LONG      dat
      000004F8H   SYMBOL    EDATA    BYTE      num
      000004F9H   SYMBOL    EDATA    ---       buff
      0000051BH   SYMBOL    EDATA    BYTE      length
      00000490H   SYMBOL    EDATA    WORD      x
      00000492H   SYMBOL    EDATA    WORD      y
      00000494H   SYMBOL    EDATA    FLOAT     dat
      00000498H   SYMBOL    EDATA    BYTE      num
      00000499H   SYMBOL    EDATA    BYTE      pointnum
      0000049AH   SYMBOL    EDATA    BYTE      length
L251 LINKER/LOCATER V4.66.93.0                                                        04/24/2024  12:31:03  PAGE 82


      0000049BH   SYMBOL    EDATA    ---       buff
      000004BDH   SYMBOL    EDATA    CHAR      start
      000004BEH   SYMBOL    EDATA    CHAR      end
      000004BFH   SYMBOL    EDATA    CHAR      point
      00000679H   SYMBOL    EDATA    WORD      high
      0000067BH   SYMBOL    EDATA    WORD      width
      0000067DH   SYMBOL    EDATA    ---       p
      00000681H   SYMBOL    EDATA    BYTE      value
      00000682H   SYMBOL    EDATA    WORD      i
      000106B9H   SYMBOL    XDATA    WORD      j
      00000684H   SYMBOL    EDATA    WORD      temp
      00000686H   SYMBOL    EDATA    WORD      temp1
      00000688H   SYMBOL    EDATA    BYTE      dat
      000006C4H   SYMBOL    EDATA    BYTE      x
      000006C5H   SYMBOL    EDATA    BYTE      y
      000006C6H   SYMBOL    EDATA    BYTE      size
      000006C7H   SYMBOL    EDATA    ---       p
      000006CBH   SYMBOL    EDATA    BYTE      len
      000006CCH   SYMBOL    EDATA    WORD      i
      000006CEH   SYMBOL    EDATA    WORD      j
      000006D0H   SYMBOL    EDATA    WORD      k

      00FF7EECH   BLOCK     CODE     ---       LVL=0
      00000B4BH   SYMBOL    EDATA    BYTE      dat
      00FF7EECH   LINE      CODE     ---       #534
      00FF7EF0H   LINE      CODE     ---       #536
      00FF7EF3H   LINE      CODE     ---       #537
      00FF7EF6H   LINE      CODE     ---       #538
      00FF7EFDH   LINE      CODE     ---       #539
      00FF7F00H   LINE      CODE     ---       #542
      ---         BLOCKEND  ---      ---       LVL=0

      00FF7ED7H   BLOCK     CODE     ---       LVL=0
      00000B4CH   SYMBOL    EDATA    BYTE      cmd
      00FF7ED7H   LINE      CODE     ---       #576
      00FF7EDBH   LINE      CODE     ---       #578
      00FF7EDEH   LINE      CODE     ---       #579
      00FF7EE1H   LINE      CODE     ---       #580
      00FF7EE8H   LINE      CODE     ---       #581
      00FF7EEBH   LINE      CODE     ---       #582
      ---         BLOCKEND  ---      ---       LVL=0
      00000A11H   SYMBOL    EDATA    WORD      hex
      00000A13H   SYMBOL    EDATA    ---       Print
      000106BBH   SYMBOL    XDATA    BYTE      hexcheck
      000106BCH   SYMBOL    XDATA    BYTE      TEMP

      00FF6737H   BLOCK     CODE     ---       LVL=0
      00FF6737H   LINE      CODE     ---       #614
      00FF6737H   LINE      CODE     ---       #617
      00FF673AH   LINE      CODE     ---       #619
      00FF675AH   LINE      CODE     ---       #621
      00FF675DH   LINE      CODE     ---       #622
      00FF6764H   LINE      CODE     ---       #623
      00FF6767H   LINE      CODE     ---       #625
      00FF676CH   LINE      CODE     ---       #626
      00FF6770H   LINE      CODE     ---       #627
      00FF6775H   LINE      CODE     ---       #628
      00FF677AH   LINE      CODE     ---       #629
      00FF677FH   LINE      CODE     ---       #630
      00FF6784H   LINE      CODE     ---       #633
      00FF6789H   LINE      CODE     ---       #634
      00FF678EH   LINE      CODE     ---       #640
      00FF6793H   LINE      CODE     ---       #641
      00FF6798H   LINE      CODE     ---       #642
      00FF679DH   LINE      CODE     ---       #643
L251 LINKER/LOCATER V4.66.93.0                                                        04/24/2024  12:31:03  PAGE 83


      00FF67A2H   LINE      CODE     ---       #644
      00FF67A6H   LINE      CODE     ---       #645
      00FF67ABH   LINE      CODE     ---       #646
      00FF67B0H   LINE      CODE     ---       #647
      00FF67B5H   LINE      CODE     ---       #648
      00FF67BAH   LINE      CODE     ---       #649
      00FF67BFH   LINE      CODE     ---       #650
      00FF67C4H   LINE      CODE     ---       #651
      00FF67C9H   LINE      CODE     ---       #652
      00FF67CEH   LINE      CODE     ---       #653
      00FF67D3H   LINE      CODE     ---       #654
      00FF67D8H   LINE      CODE     ---       #655
      00FF67DDH   LINE      CODE     ---       #656
      00FF67E2H   LINE      CODE     ---       #657
      00FF67E7H   LINE      CODE     ---       #658
      00FF67ECH   LINE      CODE     ---       #659
      00FF67F1H   LINE      CODE     ---       #660
      00FF67F5H   LINE      CODE     ---       #661
      00FF67FBH   LINE      CODE     ---       #662
      ---         BLOCKEND  ---      ---       LVL=0

      00FF7A09H   BLOCK     CODE     ---       LVL=0
      00000B1FH   SYMBOL    EDATA    BYTE      x
      00000B20H   SYMBOL    EDATA    BYTE      y
      00FF7A09H   LINE      CODE     ---       #672
      00FF7A11H   LINE      CODE     ---       #676
      00FF7A1CH   LINE      CODE     ---       #677
      00FF7A33H   LINE      CODE     ---       #678
      00FF7A3EH   LINE      CODE     ---       #679
      ---         BLOCKEND  ---      ---       LVL=0

      00FF724CH   BLOCK     CODE     ---       LVL=0
      00000B21H   SYMBOL    EDATA    BYTE      bmp_data
      00FF7250H   BLOCK     CODE     NEAR LAB  LVL=1
      000106DAH   SYMBOL    XDATA    BYTE      y
      00000B22H   SYMBOL    EDATA    BYTE      x
      ---         BLOCKEND  ---      ---       LVL=1
      00FF724CH   LINE      CODE     ---       #688
      00FF7250H   LINE      CODE     ---       #689
      00FF7250H   LINE      CODE     ---       #692
      00FF7257H   LINE      CODE     ---       #694
      00FF7264H   LINE      CODE     ---       #695
      00FF7269H   LINE      CODE     ---       #696
      00FF726EH   LINE      CODE     ---       #697
      00FF7293H   LINE      CODE     ---       #698
      00FF72AAH   LINE      CODE     ---       #699
      ---         BLOCKEND  ---      ---       LVL=0
      00000AE1H   SYMBOL    EDATA    BYTE      x
      00000AE2H   SYMBOL    EDATA    BYTE      y
      00000AE3H   SYMBOL    EDATA    BYTE      data1
      00000B23H   SYMBOL    EDATA    BYTE      x
      00000B24H   SYMBOL    EDATA    BYTE      y

      00FF6597H   BLOCK     CODE     ---       LVL=0
      0000090CH   SYMBOL    EDATA    BYTE      x
      0000090DH   SYMBOL    EDATA    BYTE      y
      0000090EH   SYMBOL    EDATA    ---       ch
      00FF65A3H   BLOCK     CODE     NEAR LAB  LVL=1
      000106DBH   SYMBOL    XDATA    BYTE      c
      00000912H   SYMBOL    EDATA    BYTE      i
      00000913H   SYMBOL    EDATA    BYTE      j
      ---         BLOCKEND  ---      ---       LVL=1
      00FF6597H   LINE      CODE     ---       #748
      00FF65A3H   LINE      CODE     ---       #749
      00FF65A3H   LINE      CODE     ---       #750
L251 LINKER/LOCATER V4.66.93.0                                                        04/24/2024  12:31:03  PAGE 84


      00FF65B2H   LINE      CODE     ---       #751
      00FF65B5H   LINE      CODE     ---       #753
      00FF65D0H   LINE      CODE     ---       #754
      00FF65ECH   LINE      CODE     ---       #755
      00FF65F7H   LINE      CODE     ---       #756
      00FF6638H   LINE      CODE     ---       #757
      00FF6644H   LINE      CODE     ---       #758
      00FF6651H   LINE      CODE     ---       #759
      00FF6668H   LINE      CODE     ---       #760
      ---         BLOCKEND  ---      ---       LVL=0
      00000914H   SYMBOL    EDATA    BYTE      x
      00000915H   SYMBOL    EDATA    BYTE      y
      00000916H   SYMBOL    EDATA    ---       ch
      000106DCH   SYMBOL    XDATA    BYTE      c
      0000091AH   SYMBOL    EDATA    BYTE      i
      0000091BH   SYMBOL    EDATA    BYTE      j
      0000078AH   SYMBOL    EDATA    BYTE      x
      0000078BH   SYMBOL    EDATA    BYTE      y
      0000078CH   SYMBOL    EDATA    WORD      num
      0000078EH   SYMBOL    EDATA    ---       ch
      00000795H   SYMBOL    EDATA    BYTE      x
      00000796H   SYMBOL    EDATA    BYTE      y
      00000797H   SYMBOL    EDATA    INT       num
      00000799H   SYMBOL    EDATA    ---       ch
      0000051CH   SYMBOL    EDATA    WORD      x
      0000051EH   SYMBOL    EDATA    WORD      y
      00000520H   SYMBOL    EDATA    LONG      dat
      00000524H   SYMBOL    EDATA    BYTE      num
      00000525H   SYMBOL    EDATA    ---       buff
      00000547H   SYMBOL    EDATA    BYTE      length

      00FF5F0EH   BLOCK     CODE     ---       LVL=0
      000004C0H   SYMBOL    EDATA    WORD      x
      000004C2H   SYMBOL    EDATA    WORD      y
      000004C4H   SYMBOL    EDATA    FLOAT     dat
      000004C8H   SYMBOL    EDATA    BYTE      num
      000004C9H   SYMBOL    EDATA    BYTE      pointnum
      00FF5F1EH   BLOCK     CODE     NEAR LAB  LVL=1
      000004CAH   SYMBOL    EDATA    BYTE      length
      000004CBH   SYMBOL    EDATA    ---       buff
      000004EDH   SYMBOL    EDATA    CHAR      start
      000004EEH   SYMBOL    EDATA    CHAR      end
      000004EFH   SYMBOL    EDATA    CHAR      point
      ---         BLOCKEND  ---      ---       LVL=1
      00FF5F0EH   LINE      CODE     ---       #881
      00FF5F1EH   LINE      CODE     ---       #882
      00FF5F1EH   LINE      CODE     ---       #887
      00FF5F2EH   LINE      CODE     ---       #888
      00FF5F3EH   LINE      CODE     ---       #890
      00FF5F66H   LINE      CODE     ---       #893
      00FF5F81H   LINE      CODE     ---       #894
      00FF5F8EH   LINE      CODE     ---       #895
      00FF5F8EH   LINE      CODE     ---       #896
      00FF5F9EH   LINE      CODE     ---       #897
      00FF5FB6H   LINE      CODE     ---       #898
      00FF5FCEH   LINE      CODE     ---       #899
      00FF5FD0H   LINE      CODE     ---       #901
      00FF5FE1H   LINE      CODE     ---       #902
      00FF5FEEH   LINE      CODE     ---       #903
      00FF5FFBH   LINE      CODE     ---       #904
      00FF6004H   LINE      CODE     ---       #906
      00FF6022H   LINE      CODE     ---       #907
      00FF6033H   LINE      CODE     ---       #909
      00FF6043H   LINE      CODE     ---       #911
      00FF6052H   LINE      CODE     ---       #912
L251 LINKER/LOCATER V4.66.93.0                                                        04/24/2024  12:31:03  PAGE 85


      ---         BLOCKEND  ---      ---       LVL=0
      00000689H   SYMBOL    EDATA    WORD      high
      0000068BH   SYMBOL    EDATA    WORD      width
      0000068DH   SYMBOL    EDATA    ---       p
      00000691H   SYMBOL    EDATA    BYTE      value
      000106BDH   SYMBOL    XDATA    WORD      i
      00000692H   SYMBOL    EDATA    WORD      j
      00000694H   SYMBOL    EDATA    WORD      temp
      00000696H   SYMBOL    EDATA    WORD      temp1
      00000698H   SYMBOL    EDATA    BYTE      dat
      000006D2H   SYMBOL    EDATA    BYTE      x
      000006D3H   SYMBOL    EDATA    BYTE      y
      000006D4H   SYMBOL    EDATA    BYTE      size
      000006D5H   SYMBOL    EDATA    ---       p
      000006D9H   SYMBOL    EDATA    BYTE      len
      000006DAH   SYMBOL    EDATA    WORD      i
      000006DCH   SYMBOL    EDATA    WORD      j
      000006DEH   SYMBOL    EDATA    WORD      k

      ---         MODULE    ---      ---       SEEKFREE_PRINTF
      00FF616BH   PUBLIC    CODE     ---       number_conversion_ascii
      00FF42B6H   PUBLIC    CODE     ---       zf_sprintf
      00FF6A99H   PUBLIC    CODE     ---       printf_reverse_order
      00000621H   PUBLIC    EDATA    BYTE      ?number_conversion_ascii?BYTE
      000003BDH   PUBLIC    EDATA    BYTE      ?zf_sprintf?BYTE
      000000D0H   SFRSYM    DATA     BYTE      PSW
      0000009DH   SFRSYM    DATA     BYTE      IRCBAND
      00000097H   SFRSYM    DATA     BYTE      AUXR2
      000000EFH   SFRSYM    DATA     BYTE      AUXINTIF
      000000FDH   SFRSYM    DATA     BYTE      S4CON
      000000ACH   SFRSYM    DATA     BYTE      S3CON
      0000009AH   SFRSYM    DATA     BYTE      S2CON
      000000B7H   SFRSYM    DATA     BYTE      IPH
      000000CDH   SFRSYM    DATA     BYTE      SPSTAT
      000000DDH   SFRSYM    DATA     BYTE      T4T3M
      000000C1H   SFRSYM    DATA     BYTE      WDT_CONTR
      000000DFH   SFRSYM    DATA     BYTE      IP3
      000000F4H   SFRSYM    DATA     BYTE      USBCON
      000000B5H   SFRSYM    DATA     BYTE      IP2
      000000FFH   SFRSYM    DATA     BYTE      RSTCFG
      000000F9H   SFRSYM    DATA     BYTE      LINICR
      0000008EH   SFRSYM    DATA     BYTE      AUXR
      000000AFH   SFRSYM    DATA     BYTE      IE2
      00000088H   SFRSYM    DATA     BYTE      TCON
      00000098H   SFRSYM    DATA     BYTE      SCON
      000000F1H   SFRSYM    DATA     BYTE      CANICR
      00000087H   SFRSYM    DATA     BYTE      PCON
      000000BCH   SFRSYM    DATA     BYTE      ADC_CONTR
      000000E7H   SFRSYM    DATA     BYTE      CMPCR2
      000000E6H   SFRSYM    DATA     BYTE      CMPCR1
      000000B8H   SFRSYM    DATA     BYTE      IP
      0000008FH   SFRSYM    DATA     BYTE      INTCLKO
      000000EEH   SFRSYM    DATA     BYTE      IP3H
      000000B6H   SFRSYM    DATA     BYTE      IP2H
      000000A8H   SFRSYM    DATA     BYTE      IE
      000000BBH   SFRSYM    DATA     BYTE      P_SW3
      000000BAH   SFRSYM    DATA     BYTE      P_SW2
      000000A2H   SFRSYM    DATA     BYTE      P_SW1
      000000CEH   SFRSYM    DATA     BYTE      SPCTL
      000000F8H   SFRSYM    DATA     BYTE      P7
      000000E8H   SFRSYM    DATA     BYTE      P6
      000000C8H   SFRSYM    DATA     BYTE      P5
      000000C0H   SFRSYM    DATA     BYTE      P4
      000000B0H   SFRSYM    DATA     BYTE      P3
      000000A0H   SFRSYM    DATA     BYTE      P2
L251 LINKER/LOCATER V4.66.93.0                                                        04/24/2024  12:31:03  PAGE 86


      00000090H   SFRSYM    DATA     BYTE      P1
      00000080H   SFRSYM    DATA     BYTE      P0

      00FF616BH   BLOCK     CODE     ---       LVL=0
      00000621H   SYMBOL    EDATA    DWORD     dat
      00000625H   SYMBOL    EDATA    ---       p
      00000629H   SYMBOL    EDATA    BYTE      neg_type
      0000062AH   SYMBOL    EDATA    BYTE      radix
      00FF6177H   BLOCK     CODE     NEAR LAB  LVL=1
      0000062BH   SYMBOL    EDATA    LONG      neg_dat
      0000062FH   SYMBOL    EDATA    DWORD     pos_dat
      00000633H   SYMBOL    EDATA    BYTE      temp_data
      00000634H   SYMBOL    EDATA    BYTE      valid_num
      ---         BLOCKEND  ---      ---       LVL=1
      00FF616BH   LINE      CODE     ---       #29
      00FF6177H   LINE      CODE     ---       #30
      00FF6177H   LINE      CODE     ---       #33
      00FF617CH   LINE      CODE     ---       #34
      00FF6181H   LINE      CODE     ---       #36
      00FF618AH   LINE      CODE     ---       #38
      00FF6192H   LINE      CODE     ---       #39
      00FF61AAH   LINE      CODE     ---       #40
      00FF61AAH   LINE      CODE     ---       #42
      00FF61C6H   LINE      CODE     ---       #43
      00FF61D9H   LINE      CODE     ---       #44
      00FF61E6H   LINE      CODE     ---       #46
      00FF61EEH   LINE      CODE     ---       #47
      00FF61F8H   LINE      CODE     ---       #48
      00FF61FAH   LINE      CODE     ---       #49
      00FF61FDH   LINE      CODE     ---       #52
      00FF6205H   LINE      CODE     ---       #53
      00FF6205H   LINE      CODE     ---       #55
      00FF621AH   LINE      CODE     ---       #56
      00FF6232H   LINE      CODE     ---       #57
      00FF623EH   LINE      CODE     ---       #59
      00FF6249H   LINE      CODE     ---       #61
      00FF625CH   LINE      CODE     ---       #62
      00FF6269H   LINE      CODE     ---       #64
      00FF6271H   LINE      CODE     ---       #65
      00FF627BH   LINE      CODE     ---       #66
      00FF627DH   LINE      CODE     ---       #67
      00FF627DH   LINE      CODE     ---       #68
      00FF6281H   LINE      CODE     ---       #69
      ---         BLOCKEND  ---      ---       LVL=0

      00FF6A99H   BLOCK     CODE     ---       LVL=0
      000006FBH   SYMBOL    EDATA    ---       d_buff
      000006FFH   SYMBOL    EDATA    DWORD     len
      00FF6AA1H   BLOCK     CODE     NEAR LAB  LVL=1
      00000703H   SYMBOL    EDATA    DWORD     i
      00000707H   SYMBOL    EDATA    CHAR      temp_data
      ---         BLOCKEND  ---      ---       LVL=1
      00FF6A99H   LINE      CODE     ---       #71
      00FF6AA1H   LINE      CODE     ---       #72
      00FF6AA1H   LINE      CODE     ---       #75
      00FF6AA9H   LINE      CODE     ---       #77
      00FF6AC8H   LINE      CODE     ---       #78
      00FF6AF2H   LINE      CODE     ---       #79
      00FF6B05H   LINE      CODE     ---       #80
      00FF6B2DH   LINE      CODE     ---       #81
      ---         BLOCKEND  ---      ---       LVL=0

      00FF42B6H   BLOCK     CODE     ---       LVL=0
      000003BDH   SYMBOL    EDATA    ---       buff
      000003C1H   SYMBOL    EDATA    ---       format
L251 LINKER/LOCATER V4.66.93.0                                                        04/24/2024  12:31:03  PAGE 87


      00FF42BEH   BLOCK     CODE     NEAR LAB  LVL=1
      000003C5H   SYMBOL    EDATA    DWORD     buff_len
      000003C9H   SYMBOL    EDATA    ---       arg
      00FF42D3H   BLOCK     CODE     NEAR LAB  LVL=2
      000003CDH   SYMBOL    EDATA    CHAR      ret
      00FF4408H   BLOCK     CODE     NEAR LAB  LVL=3
      000003CEH   SYMBOL    EDATA    CHAR      ch
      ---         BLOCKEND  ---      ---       LVL=3
      00FF4447H   BLOCK     CODE     NEAR LAB  LVL=3
      000003CEH   SYMBOL    EDATA    ---       vstr
      000003EFH   SYMBOL    EDATA    LONG      ival
      000003F3H   SYMBOL    EDATA    BYTE      vlen
      ---         BLOCKEND  ---      ---       LVL=3
      00FF44E8H   BLOCK     CODE     NEAR LAB  LVL=3
      000003CEH   SYMBOL    EDATA    ---       vstr
      000003EFH   SYMBOL    EDATA    FLOAT     ival
      000003F3H   SYMBOL    EDATA    BYTE      vlen
      ---         BLOCKEND  ---      ---       LVL=3
      00FF4689H   BLOCK     CODE     NEAR LAB  LVL=3
      000003CEH   SYMBOL    EDATA    ---       vstr
      000003EFH   SYMBOL    EDATA    DWORD     ival
      000003F3H   SYMBOL    EDATA    BYTE      vlen
      ---         BLOCKEND  ---      ---       LVL=3
      00FF4701H   BLOCK     CODE     NEAR LAB  LVL=3
      000003CEH   SYMBOL    EDATA    ---       vstr
      000003EFH   SYMBOL    EDATA    DWORD     ival
      000003F3H   SYMBOL    EDATA    BYTE      vlen
      ---         BLOCKEND  ---      ---       LVL=3
      00FF4779H   BLOCK     CODE     NEAR LAB  LVL=3
      000003CEH   SYMBOL    EDATA    ---       vstr
      000003EFH   SYMBOL    EDATA    DWORD     ival
      000003F3H   SYMBOL    EDATA    BYTE      vlen
      ---         BLOCKEND  ---      ---       LVL=3
      00FF47F1H   BLOCK     CODE     NEAR LAB  LVL=3
      000003CEH   SYMBOL    EDATA    ---       pc
      ---         BLOCKEND  ---      ---       LVL=3
      00FF484BH   BLOCK     CODE     NEAR LAB  LVL=3
      000003CEH   SYMBOL    EDATA    ---       vstr
      000003EFH   SYMBOL    EDATA    DWORD     ival
      ---         BLOCKEND  ---      ---       LVL=3
      ---         BLOCKEND  ---      ---       LVL=2
      ---         BLOCKEND  ---      ---       LVL=1
      00FF42B6H   LINE      CODE     ---       #216
      00FF42BEH   LINE      CODE     ---       #217
      00FF42BEH   LINE      CODE     ---       #218
      00FF42C4H   LINE      CODE     ---       #220
      00FF42D0H   LINE      CODE     ---       #222
      00FF42D3H   LINE      CODE     ---       #223
      00FF42D3H   LINE      CODE     ---       #224
      00FF42DEH   LINE      CODE     ---       #225
      00FF42EAH   LINE      CODE     ---       #227
      00FF4405H   LINE      CODE     ---       #229
      00FF4405H   LINE      CODE     ---       #233
      00FF4408H   LINE      CODE     ---       #236
      00FF4408H   LINE      CODE     ---       #237
      00FF4408H   LINE      CODE     ---       #238
      00FF4421H   LINE      CODE     ---       #239
      00FF442CH   LINE      CODE     ---       #240
      00FF4436H   LINE      CODE     ---       #241
      00FF4444H   LINE      CODE     ---       #243
      00FF4447H   LINE      CODE     ---       #246
      00FF4447H   LINE      CODE     ---       #247
      00FF4447H   LINE      CODE     ---       #248
      00FF4447H   LINE      CODE     ---       #250
      00FF4460H   LINE      CODE     ---       #251
L251 LINKER/LOCATER V4.66.93.0                                                        04/24/2024  12:31:03  PAGE 88


      00FF4477H   LINE      CODE     ---       #253
      00FF4481H   LINE      CODE     ---       #255
      00FF4492H   LINE      CODE     ---       #256
      00FF449FH   LINE      CODE     ---       #257
      00FF449FH   LINE      CODE     ---       #258
      00FF44AEH   LINE      CODE     ---       #259
      00FF44C3H   LINE      CODE     ---       #260
      00FF44D3H   LINE      CODE     ---       #261
      00FF44E5H   LINE      CODE     ---       #264
      00FF44E8H   LINE      CODE     ---       #266
      00FF44E8H   LINE      CODE     ---       #267
      00FF44E8H   LINE      CODE     ---       #268
      00FF44E8H   LINE      CODE     ---       #270
      00FF4501H   LINE      CODE     ---       #271
      00FF451BH   LINE      CODE     ---       #273
      00FF4526H   LINE      CODE     ---       #275
      00FF4537H   LINE      CODE     ---       #276
      00FF4544H   LINE      CODE     ---       #277
      00FF4544H   LINE      CODE     ---       #278
      00FF4553H   LINE      CODE     ---       #279
      00FF4568H   LINE      CODE     ---       #280
      00FF4578H   LINE      CODE     ---       #281
      00FF458AH   LINE      CODE     ---       #283
      00FF45AEH   LINE      CODE     ---       #284
      00FF45B2H   LINE      CODE     ---       #286
      00FF45CCH   LINE      CODE     ---       #287
      00FF45CEH   LINE      CODE     ---       #290
      00FF45F2H   LINE      CODE     ---       #291
      00FF45F8H   LINE      CODE     ---       #292
      00FF45F8H   LINE      CODE     ---       #294
      00FF45FAH   LINE      CODE     ---       #296
      00FF460BH   LINE      CODE     ---       #297
      00FF4618H   LINE      CODE     ---       #298
      00FF4622H   LINE      CODE     ---       #300
      00FF4633H   LINE      CODE     ---       #301
      00FF4640H   LINE      CODE     ---       #303
      00FF464FH   LINE      CODE     ---       #304
      00FF4664H   LINE      CODE     ---       #305
      00FF4674H   LINE      CODE     ---       #306
      00FF4686H   LINE      CODE     ---       #308
      00FF4689H   LINE      CODE     ---       #311
      00FF4689H   LINE      CODE     ---       #312
      00FF4689H   LINE      CODE     ---       #314
      00FF46A2H   LINE      CODE     ---       #315
      00FF46B8H   LINE      CODE     ---       #317
      00FF46C7H   LINE      CODE     ---       #318
      00FF46DCH   LINE      CODE     ---       #319
      00FF46ECH   LINE      CODE     ---       #320
      00FF46FEH   LINE      CODE     ---       #321
      00FF4701H   LINE      CODE     ---       #323
      00FF4701H   LINE      CODE     ---       #324
      00FF4701H   LINE      CODE     ---       #326
      00FF471AH   LINE      CODE     ---       #327
      00FF4730H   LINE      CODE     ---       #329
      00FF473FH   LINE      CODE     ---       #330
      00FF4754H   LINE      CODE     ---       #331
      00FF4764H   LINE      CODE     ---       #332
      00FF4776H   LINE      CODE     ---       #334
      00FF4779H   LINE      CODE     ---       #336
      00FF4779H   LINE      CODE     ---       #337
      00FF4779H   LINE      CODE     ---       #338
      00FF4779H   LINE      CODE     ---       #340
      00FF4792H   LINE      CODE     ---       #341
      00FF47A8H   LINE      CODE     ---       #343
      00FF47B7H   LINE      CODE     ---       #344
L251 LINKER/LOCATER V4.66.93.0                                                        04/24/2024  12:31:03  PAGE 89


      00FF47CCH   LINE      CODE     ---       #345
      00FF47DCH   LINE      CODE     ---       #346
      00FF47EEH   LINE      CODE     ---       #347
      00FF47F1H   LINE      CODE     ---       #350
      00FF47F1H   LINE      CODE     ---       #351
      00FF47F1H   LINE      CODE     ---       #352
      00FF480AH   LINE      CODE     ---       #353
      00FF480CH   LINE      CODE     ---       #355
      00FF481AH   LINE      CODE     ---       #356
      00FF4824H   LINE      CODE     ---       #357
      00FF4832H   LINE      CODE     ---       #358
      00FF483CH   LINE      CODE     ---       #359
      00FF4848H   LINE      CODE     ---       #360
      00FF484BH   LINE      CODE     ---       #362
      00FF484BH   LINE      CODE     ---       #363
      00FF484BH   LINE      CODE     ---       #365
      00FF4864H   LINE      CODE     ---       #367
      00FF4876H   LINE      CODE     ---       #369
      00FF4881H   LINE      CODE     ---       #370
      00FF4894H   LINE      CODE     ---       #371
      00FF48A0H   LINE      CODE     ---       #372
      00FF48AEH   LINE      CODE     ---       #374
      00FF48B0H   LINE      CODE     ---       #377
      00FF48B0H   LINE      CODE     ---       #379
      00FF48B9H   LINE      CODE     ---       #380
      00FF48C3H   LINE      CODE     ---       #381
      00FF48D1H   LINE      CODE     ---       #382
      00FF48D3H   LINE      CODE     ---       #384
      00FF48D3H   LINE      CODE     ---       #385
      00FF48D3H   LINE      CODE     ---       #386
      00FF48D3H   LINE      CODE     ---       #389
      00FF48E1H   LINE      CODE     ---       #390
      00FF48EBH   LINE      CODE     ---       #391
      00FF48F9H   LINE      CODE     ---       #392
      00FF48F9H   LINE      CODE     ---       #393
      00FF4903H   LINE      CODE     ---       #394
      00FF4912H   LINE      CODE     ---       #397
      00FF4916H   LINE      CODE     ---       #398
      ---         BLOCKEND  ---      ---       LVL=0

      ---         MODULE    ---      ---       SEEKFREE_TSL1401
      00010000H   PUBLIC    XDATA    BYTE      tsl1401_finish_flag
      00010001H   PUBLIC    XDATA    ---       ccd_data_ch1
      00010101H   PUBLIC    XDATA    ---       ccd_data_ch2
      000000D0H   SFRSYM    DATA     BYTE      PSW
      0000009DH   SFRSYM    DATA     BYTE      IRCBAND
      00000097H   SFRSYM    DATA     BYTE      AUXR2
      000000EFH   SFRSYM    DATA     BYTE      AUXINTIF
      000000FDH   SFRSYM    DATA     BYTE      S4CON
      000000ACH   SFRSYM    DATA     BYTE      S3CON
      0000009AH   SFRSYM    DATA     BYTE      S2CON
      000000B7H   SFRSYM    DATA     BYTE      IPH
      000000CDH   SFRSYM    DATA     BYTE      SPSTAT
      000000DDH   SFRSYM    DATA     BYTE      T4T3M
      000000C1H   SFRSYM    DATA     BYTE      WDT_CONTR
      000000DFH   SFRSYM    DATA     BYTE      IP3
      000000F4H   SFRSYM    DATA     BYTE      USBCON
      000000B5H   SFRSYM    DATA     BYTE      IP2
      000000FFH   SFRSYM    DATA     BYTE      RSTCFG
      000000F9H   SFRSYM    DATA     BYTE      LINICR
      0000008EH   SFRSYM    DATA     BYTE      AUXR
      000000AFH   SFRSYM    DATA     BYTE      IE2
      000000B0H.7 SFRSYM    DATA     BIT       P37
      000000B0H.6 SFRSYM    DATA     BIT       P36
      00000088H   SFRSYM    DATA     BYTE      TCON
L251 LINKER/LOCATER V4.66.93.0                                                        04/24/2024  12:31:03  PAGE 90


      00000098H   SFRSYM    DATA     BYTE      SCON
      000000F1H   SFRSYM    DATA     BYTE      CANICR
      00000087H   SFRSYM    DATA     BYTE      PCON
      000000BCH   SFRSYM    DATA     BYTE      ADC_CONTR
      000000E7H   SFRSYM    DATA     BYTE      CMPCR2
      000000E6H   SFRSYM    DATA     BYTE      CMPCR1
      000000B8H   SFRSYM    DATA     BYTE      IP
      0000008FH   SFRSYM    DATA     BYTE      INTCLKO
      000000EEH   SFRSYM    DATA     BYTE      IP3H
      000000B6H   SFRSYM    DATA     BYTE      IP2H
      000000A8H   SFRSYM    DATA     BYTE      IE
      000000BBH   SFRSYM    DATA     BYTE      P_SW3
      000000BAH   SFRSYM    DATA     BYTE      P_SW2
      000000A2H   SFRSYM    DATA     BYTE      P_SW1
      000000CEH   SFRSYM    DATA     BYTE      SPCTL
      000000F8H   SFRSYM    DATA     BYTE      P7
      000000E8H   SFRSYM    DATA     BYTE      P6
      000000C8H   SFRSYM    DATA     BYTE      P5
      000000C0H   SFRSYM    DATA     BYTE      P4
      000000B0H   SFRSYM    DATA     BYTE      P3
      000000A0H   SFRSYM    DATA     BYTE      P2
      00000090H   SFRSYM    DATA     BYTE      P1
      00000080H   SFRSYM    DATA     BYTE      P0
      00000942H   SYMBOL    EDATA    INT       uart_n
      00000944H   SYMBOL    EDATA    ---       dat
      00000948H   SYMBOL    EDATA    BYTE      i
      00000B4DH   SYMBOL    EDATA    BYTE      i

      ---         MODULE    ---      ---       SEEKFREE_VIRSCO
      000007E6H   PUBLIC    EDATA    ---       virtual_scope_data
      000006E0H   PUBLIC    EDATA    BYTE      ?data_conversion?BYTE
      000000D0H   SFRSYM    DATA     BYTE      PSW
      0000009DH   SFRSYM    DATA     BYTE      IRCBAND
      00000097H   SFRSYM    DATA     BYTE      AUXR2
      000000EFH   SFRSYM    DATA     BYTE      AUXINTIF
      000000FDH   SFRSYM    DATA     BYTE      S4CON
      000000ACH   SFRSYM    DATA     BYTE      S3CON
      0000009AH   SFRSYM    DATA     BYTE      S2CON
      000000B7H   SFRSYM    DATA     BYTE      IPH
      000000CDH   SFRSYM    DATA     BYTE      SPSTAT
      000000DDH   SFRSYM    DATA     BYTE      T4T3M
      000000C1H   SFRSYM    DATA     BYTE      WDT_CONTR
      000000DFH   SFRSYM    DATA     BYTE      IP3
      000000F4H   SFRSYM    DATA     BYTE      USBCON
      000000B5H   SFRSYM    DATA     BYTE      IP2
      000000FFH   SFRSYM    DATA     BYTE      RSTCFG
      000000F9H   SFRSYM    DATA     BYTE      LINICR
      0000008EH   SFRSYM    DATA     BYTE      AUXR
      000000AFH   SFRSYM    DATA     BYTE      IE2
      00000088H   SFRSYM    DATA     BYTE      TCON
      00000098H   SFRSYM    DATA     BYTE      SCON
      000000F1H   SFRSYM    DATA     BYTE      CANICR
      00000087H   SFRSYM    DATA     BYTE      PCON
      000000BCH   SFRSYM    DATA     BYTE      ADC_CONTR
      000000E7H   SFRSYM    DATA     BYTE      CMPCR2
      000000E6H   SFRSYM    DATA     BYTE      CMPCR1
      000000B8H   SFRSYM    DATA     BYTE      IP
      0000008FH   SFRSYM    DATA     BYTE      INTCLKO
      000000EEH   SFRSYM    DATA     BYTE      IP3H
      000000B6H   SFRSYM    DATA     BYTE      IP2H
      000000A8H   SFRSYM    DATA     BYTE      IE
      000000BBH   SFRSYM    DATA     BYTE      P_SW3
      000000BAH   SFRSYM    DATA     BYTE      P_SW2
      000000A2H   SFRSYM    DATA     BYTE      P_SW1
      000000CEH   SFRSYM    DATA     BYTE      SPCTL
L251 LINKER/LOCATER V4.66.93.0                                                        04/24/2024  12:31:03  PAGE 91


      000000F8H   SFRSYM    DATA     BYTE      P7
      000000E8H   SFRSYM    DATA     BYTE      P6
      000000C8H   SFRSYM    DATA     BYTE      P5
      000000C0H   SFRSYM    DATA     BYTE      P4
      000000B0H   SFRSYM    DATA     BYTE      P3
      000000A0H   SFRSYM    DATA     BYTE      P2
      00000090H   SFRSYM    DATA     BYTE      P1
      00000080H   SFRSYM    DATA     BYTE      P0
      00000879H   SYMBOL    EDATA    ---       Buf
      0000087DH   SYMBOL    EDATA    BYTE      CRC_CNT
      0000087EH   SYMBOL    EDATA    WORD      CRC_Temp
      00000880H   SYMBOL    EDATA    BYTE      i
      00000881H   SYMBOL    EDATA    BYTE      j
      000006E0H   SYMBOL    EDATA    INT       data1
      000006E2H   SYMBOL    EDATA    INT       data2
      000006E4H   SYMBOL    EDATA    INT       data3
      000006E6H   SYMBOL    EDATA    INT       data4
      000006E8H   SYMBOL    EDATA    ---       dat
      000006ECH   SYMBOL    EDATA    WORD      CRC16

      ---         MODULE    ---      ---       SEEKFREE_WIRELESS
      000000D0H   SFRSYM    DATA     BYTE      PSW
      0000009DH   SFRSYM    DATA     BYTE      IRCBAND
      00000097H   SFRSYM    DATA     BYTE      AUXR2
      000000EFH   SFRSYM    DATA     BYTE      AUXINTIF
      000000FDH   SFRSYM    DATA     BYTE      S4CON
      000000ACH   SFRSYM    DATA     BYTE      S3CON
      0000009AH   SFRSYM    DATA     BYTE      S2CON
      000000FEH   SFRSYM    DATA     BYTE      S4BUF
      000000B7H   SFRSYM    DATA     BYTE      IPH
      000000CDH   SFRSYM    DATA     BYTE      SPSTAT
      000000DDH   SFRSYM    DATA     BYTE      T4T3M
      000000C1H   SFRSYM    DATA     BYTE      WDT_CONTR
      000000DFH   SFRSYM    DATA     BYTE      IP3
      000000F4H   SFRSYM    DATA     BYTE      USBCON
      000000B5H   SFRSYM    DATA     BYTE      IP2
      000000FFH   SFRSYM    DATA     BYTE      RSTCFG
      000000F9H   SFRSYM    DATA     BYTE      LINICR
      0000008EH   SFRSYM    DATA     BYTE      AUXR
      000000AFH   SFRSYM    DATA     BYTE      IE2
      00000080H.7 SFRSYM    DATA     BIT       P07
      00000088H   SFRSYM    DATA     BYTE      TCON
      00000098H   SFRSYM    DATA     BYTE      SCON
      000000F1H   SFRSYM    DATA     BYTE      CANICR
      00000087H   SFRSYM    DATA     BYTE      PCON
      000000BCH   SFRSYM    DATA     BYTE      ADC_CONTR
      000000E7H   SFRSYM    DATA     BYTE      CMPCR2
      000000E6H   SFRSYM    DATA     BYTE      CMPCR1
      000000B8H   SFRSYM    DATA     BYTE      IP
      0000008FH   SFRSYM    DATA     BYTE      INTCLKO
      000000EEH   SFRSYM    DATA     BYTE      IP3H
      000000B6H   SFRSYM    DATA     BYTE      IP2H
      000000A8H   SFRSYM    DATA     BYTE      IE
      000000BBH   SFRSYM    DATA     BYTE      P_SW3
      000000BAH   SFRSYM    DATA     BYTE      P_SW2
      000000A2H   SFRSYM    DATA     BYTE      P_SW1
      000000CEH   SFRSYM    DATA     BYTE      SPCTL
      000000F8H   SFRSYM    DATA     BYTE      P7
      000000E8H   SFRSYM    DATA     BYTE      P6
      000000C8H   SFRSYM    DATA     BYTE      P5
      000000C0H   SFRSYM    DATA     BYTE      P4
      000000B0H   SFRSYM    DATA     BYTE      P3
      000000A0H   SFRSYM    DATA     BYTE      P2
      00000090H   SFRSYM    DATA     BYTE      P1
      00000080H   SFRSYM    DATA     BYTE      P0
L251 LINKER/LOCATER V4.66.93.0                                                        04/24/2024  12:31:03  PAGE 92


      000103C8H   SYMBOL    XDATA    BYTE      wireless_uart_data
      000103C9H   SYMBOL    XDATA    ---       wireless_uart_fifo
      000103E0H   SYMBOL    XDATA    ---       wireless_uart_buffer
      0000091CH   SYMBOL    EDATA    ---       buff
      00000920H   SYMBOL    EDATA    DWORD     len
      00000924H   SYMBOL    EDATA    ---       buff
      00000928H   SYMBOL    EDATA    DWORD     len
      0001066FH   SYMBOL    XDATA    DWORD     data_len

      ---         MODULE    ---      ---       SEEKFREE_WIRELESS_CH573
      000000D0H   SFRSYM    DATA     BYTE      PSW
      0000009DH   SFRSYM    DATA     BYTE      IRCBAND
      00000097H   SFRSYM    DATA     BYTE      AUXR2
      000000EFH   SFRSYM    DATA     BYTE      AUXINTIF
      000000FDH   SFRSYM    DATA     BYTE      S4CON
      000000ACH   SFRSYM    DATA     BYTE      S3CON
      0000009AH   SFRSYM    DATA     BYTE      S2CON
      000000FEH   SFRSYM    DATA     BYTE      S4BUF
      000000B7H   SFRSYM    DATA     BYTE      IPH
      000000CDH   SFRSYM    DATA     BYTE      SPSTAT
      000000DDH   SFRSYM    DATA     BYTE      T4T3M
      000000C1H   SFRSYM    DATA     BYTE      WDT_CONTR
      000000DFH   SFRSYM    DATA     BYTE      IP3
      000000F4H   SFRSYM    DATA     BYTE      USBCON
      000000B5H   SFRSYM    DATA     BYTE      IP2
      000000FFH   SFRSYM    DATA     BYTE      RSTCFG
      000000F9H   SFRSYM    DATA     BYTE      LINICR
      0000008EH   SFRSYM    DATA     BYTE      AUXR
      000000AFH   SFRSYM    DATA     BYTE      IE2
      00000080H.7 SFRSYM    DATA     BIT       P07
      00000088H   SFRSYM    DATA     BYTE      TCON
      00000098H   SFRSYM    DATA     BYTE      SCON
      000000F1H   SFRSYM    DATA     BYTE      CANICR
      00000087H   SFRSYM    DATA     BYTE      PCON
      000000BCH   SFRSYM    DATA     BYTE      ADC_CONTR
      000000E7H   SFRSYM    DATA     BYTE      CMPCR2
      000000E6H   SFRSYM    DATA     BYTE      CMPCR1
      000000B8H   SFRSYM    DATA     BYTE      IP
      0000008FH   SFRSYM    DATA     BYTE      INTCLKO
      000000EEH   SFRSYM    DATA     BYTE      IP3H
      000000B6H   SFRSYM    DATA     BYTE      IP2H
      000000A8H   SFRSYM    DATA     BYTE      IE
      000000BBH   SFRSYM    DATA     BYTE      P_SW3
      000000BAH   SFRSYM    DATA     BYTE      P_SW2
      000000A2H   SFRSYM    DATA     BYTE      P_SW1
      000000CEH   SFRSYM    DATA     BYTE      SPCTL
      000000F8H   SFRSYM    DATA     BYTE      P7
      000000E8H   SFRSYM    DATA     BYTE      P6
      000000C8H   SFRSYM    DATA     BYTE      P5
      000000C0H   SFRSYM    DATA     BYTE      P4
      000000B0H   SFRSYM    DATA     BYTE      P3
      000000A0H   SFRSYM    DATA     BYTE      P2
      00000090H   SFRSYM    DATA     BYTE      P1
      00000080H   SFRSYM    DATA     BYTE      P0
      00010420H   SYMBOL    XDATA    ---       wireless_ch573_buffer
      00010460H   SYMBOL    XDATA    BYTE      wireless_ch573_data
      00010461H   SYMBOL    XDATA    ---       wireless_ch573_fifo
      00000A17H   SYMBOL    EDATA    ---       buff
      00000A1BH   SYMBOL    EDATA    WORD      len
      0000092CH   SYMBOL    EDATA    ---       buff
      00000930H   SYMBOL    EDATA    DWORD     len
      00010673H   SYMBOL    XDATA    DWORD     data_len

      ---         MODULE    ---      ---       main
      00FF6DECH   PUBLIC    CODE     ---       main
L251 LINKER/LOCATER V4.66.93.0                                                        04/24/2024  12:31:03  PAGE 93


      00FF7ADEH   PUBLIC    CODE     ---       qmc5883_init
      00FF0026H   PUBLIC    CODE     ---       gpio_init
      00FF7464H   PUBLIC    CODE     ---       motor_drivers_pwm_init
      000000D0H   SFRSYM    DATA     BYTE      PSW
      0000009DH   SFRSYM    DATA     BYTE      IRCBAND
      00000097H   SFRSYM    DATA     BYTE      AUXR2
      000000EFH   SFRSYM    DATA     BYTE      AUXINTIF
      000000FDH   SFRSYM    DATA     BYTE      S4CON
      000000ACH   SFRSYM    DATA     BYTE      S3CON
      0000009AH   SFRSYM    DATA     BYTE      S2CON
      000000B7H   SFRSYM    DATA     BYTE      IPH
      000000CDH   SFRSYM    DATA     BYTE      SPSTAT
      000000DDH   SFRSYM    DATA     BYTE      T4T3M
      000000C1H   SFRSYM    DATA     BYTE      WDT_CONTR
      000000DFH   SFRSYM    DATA     BYTE      IP3
      000000F4H   SFRSYM    DATA     BYTE      USBCON
      000000B5H   SFRSYM    DATA     BYTE      IP2
      000000FFH   SFRSYM    DATA     BYTE      RSTCFG
      000000E8H.6 SFRSYM    DATA     BIT       led_3
      00000090H.3 SFRSYM    DATA     BIT       led_2
      00000090H.7 SFRSYM    DATA     BIT       led_1
      000000F9H   SFRSYM    DATA     BYTE      LINICR
      0000008EH   SFRSYM    DATA     BYTE      AUXR
      000000AFH   SFRSYM    DATA     BYTE      IE2
      000000B0H.5 SFRSYM    DATA     BIT       P35
      00000088H   SFRSYM    DATA     BYTE      TCON
      000000B0H.2 SFRSYM    DATA     BIT       P32
      00000098H   SFRSYM    DATA     BYTE      SCON
      000000F1H   SFRSYM    DATA     BYTE      CANICR
      00000087H   SFRSYM    DATA     BYTE      PCON
      000000BCH   SFRSYM    DATA     BYTE      ADC_CONTR
      000000E7H   SFRSYM    DATA     BYTE      CMPCR2
      000000E6H   SFRSYM    DATA     BYTE      CMPCR1
      000000B8H   SFRSYM    DATA     BYTE      IP
      0000008FH   SFRSYM    DATA     BYTE      INTCLKO
      000000EEH   SFRSYM    DATA     BYTE      IP3H
      000000B6H   SFRSYM    DATA     BYTE      IP2H
      000000A8H   SFRSYM    DATA     BYTE      IE
      000000BBH   SFRSYM    DATA     BYTE      P_SW3
      000000BAH   SFRSYM    DATA     BYTE      P_SW2
      000000A2H   SFRSYM    DATA     BYTE      P_SW1
      000000CEH   SFRSYM    DATA     BYTE      SPCTL
      000000F8H   SFRSYM    DATA     BYTE      P7
      000000E8H   SFRSYM    DATA     BYTE      P6
      000000C8H   SFRSYM    DATA     BYTE      P5
      000000CBH   SFRSYM    DATA     BYTE      P6M1
      000000C0H   SFRSYM    DATA     BYTE      P4
      000000CCH   SFRSYM    DATA     BYTE      P6M0
      000000B0H   SFRSYM    DATA     BYTE      P3
      000000A0H   SFRSYM    DATA     BYTE      P2
      00000090H   SFRSYM    DATA     BYTE      P1
      00000080H   SFRSYM    DATA     BYTE      P0
      00000091H   SFRSYM    DATA     BYTE      P1M1
      00000092H   SFRSYM    DATA     BYTE      P1M0

      00FF0026H   BLOCK     CODE     ---       LVL=0
      00FF0026H   LINE      CODE     ---       #10
      00FF0026H   LINE      CODE     ---       #12
      00FF002DH   LINE      CODE     ---       #13
      00FF0034H   LINE      CODE     ---       #14
      00FF003BH   LINE      CODE     ---       #15
      00FF0042H   LINE      CODE     ---       #16
      ---         BLOCKEND  ---      ---       LVL=0

      00FF7464H   BLOCK     CODE     ---       LVL=0
L251 LINKER/LOCATER V4.66.93.0                                                        04/24/2024  12:31:03  PAGE 94


      00FF7464H   LINE      CODE     ---       #18
      00FF7464H   LINE      CODE     ---       #21
      00FF7475H   LINE      CODE     ---       #22
      00FF7486H   LINE      CODE     ---       #23
      00FF7497H   LINE      CODE     ---       #24
      00FF74A8H   LINE      CODE     ---       #25
      00FF74B1H   LINE      CODE     ---       #26
      00FF74BAH   LINE      CODE     ---       #27
      ---         BLOCKEND  ---      ---       LVL=0

      00FF7ADEH   BLOCK     CODE     ---       LVL=0
      00FF7ADEH   LINE      CODE     ---       #35
      00FF7ADEH   LINE      CODE     ---       #38
      00FF7AFDH   LINE      CODE     ---       #39
      00FF7B04H   LINE      CODE     ---       #40
      00FF7B11H   LINE      CODE     ---       #41
      ---         BLOCKEND  ---      ---       LVL=0

      00FF6DECH   BLOCK     CODE     ---       LVL=0
      00FF6DECH   LINE      CODE     ---       #64
      00FF6DECH   LINE      CODE     ---       #66
      00FF6DEFH   LINE      CODE     ---       #67
      00FF6DF2H   LINE      CODE     ---       #68
      00FF6DF5H   LINE      CODE     ---       #70
      00FF6DF8H   LINE      CODE     ---       #71
      00FF6DFBH   LINE      CODE     ---       #72
      00FF6DFEH   LINE      CODE     ---       #73
      00FF6E01H   LINE      CODE     ---       #74
      00FF6E04H   LINE      CODE     ---       #75
      00FF6E07H   LINE      CODE     ---       #76
      00FF6E16H   LINE      CODE     ---       #92
      00FF6E19H   LINE      CODE     ---       #93
      00FF6E1CH   LINE      CODE     ---       #94
      00FF6E2DH   LINE      CODE     ---       #95
      00FF6E38H   LINE      CODE     ---       #96
      00FF6E43H   LINE      CODE     ---       #98
      00FF6E46H   LINE      CODE     ---       #100
      00FF6E46H   LINE      CODE     ---       #102
      00FF6E49H   LINE      CODE     ---       #103
      00FF6E4CH   LINE      CODE     ---       #104
      00FF6E4FH   LINE      CODE     ---       #105
      00FF6E52H   LINE      CODE     ---       #107
      00FF6E55H   LINE      CODE     ---       #108
      00FF6E57H   LINE      CODE     ---       #109
      ---         BLOCKEND  ---      ---       LVL=0

      ---         MODULE    ---      ---       qmc5883
      00FF50A9H   PUBLIC    CODE     ---       qmc5883_data_parse
      00FF5A81H   PUBLIC    CODE     ---       atof
      00FF71EAH   PUBLIC    CODE     ---       qmc5883_irqhandler
      00FF6498H   PUBLIC    CODE     ---       atoi
      00000023H   PUBLIC    EDATA    ---       qmccmd_set_uart_baudrate_115200
      0000002DH   PUBLIC    EDATA    ---       qmccmd_set_uart_baudrate_460800
      00000037H   PUBLIC    EDATA    ---       qmccmd_set_measure_rate
      00000041H   PUBLIC    EDATA    ---       qmccmd_init_sensor
      00000049H   PUBLIC    EDATA    ---       qmccmd_set_filter_value
      00000052H   PUBLIC    EDATA    ---       qmccmd_stop_calibration
      0000005CH   PUBLIC    EDATA    ---       qmc5883_data
      0000009CH   PUBLIC    EDATA    ---       qmccmd_disable_filter
      000000A6H   PUBLIC    EDATA    ---       qmccmd_get_device_id
      000000AEH   PUBLIC    EDATA    ---       qmccmd_set_uart_baudrate_9600
      000000B8H   PUBLIC    EDATA    ---       qmccmd_set_device_id
      000000BFH   PUBLIC    EDATA    INT       qmc5883_magx
      000000C1H   PUBLIC    EDATA    ---       qmc5883_char_magx
      000000CBH   PUBLIC    EDATA    INT       qmc5883_magy
L251 LINKER/LOCATER V4.66.93.0                                                        04/24/2024  12:31:03  PAGE 95


      000000CDH   PUBLIC    EDATA    ---       qmc5883_char_magy
      000000D7H   PUBLIC    EDATA    INT       qmc5883_magz
      000000D9H   PUBLIC    EDATA    ---       qmc5883_char_magz
      000000E3H   PUBLIC    EDATA    FLOAT     qmc5883_yaw
      000000E7H   PUBLIC    EDATA    ---       qmc5883_char_yaw
      000000F1H   PUBLIC    EDATA    ---       qmc5883_cmd_buf
      00000111H   PUBLIC    EDATA    ---       qmccmd_clear_mag_offset
      0000011BH   PUBLIC    EDATA    ---       qmccmd_set_single_measure_mode
      00000126H   PUBLIC    EDATA    ---       qmccmd_check_connection
      00000129H   PUBLIC    EDATA    ---       qmccmd_start_calibration
      000000D0H   SFRSYM    DATA     BYTE      PSW
      0000009DH   SFRSYM    DATA     BYTE      IRCBAND
      00000097H   SFRSYM    DATA     BYTE      AUXR2
      000000EFH   SFRSYM    DATA     BYTE      AUXINTIF
      000000FDH   SFRSYM    DATA     BYTE      S4CON
      000000ACH   SFRSYM    DATA     BYTE      S3CON
      0000009AH   SFRSYM    DATA     BYTE      S2CON
      000000B7H   SFRSYM    DATA     BYTE      IPH
      000000CDH   SFRSYM    DATA     BYTE      SPSTAT
      000000DDH   SFRSYM    DATA     BYTE      T4T3M
      000000C1H   SFRSYM    DATA     BYTE      WDT_CONTR
      000000DFH   SFRSYM    DATA     BYTE      IP3
      000000F4H   SFRSYM    DATA     BYTE      USBCON
      000000B5H   SFRSYM    DATA     BYTE      IP2
      000000FFH   SFRSYM    DATA     BYTE      RSTCFG
      000000F9H   SFRSYM    DATA     BYTE      LINICR
      0000008EH   SFRSYM    DATA     BYTE      AUXR
      000000AFH   SFRSYM    DATA     BYTE      IE2
      00000088H   SFRSYM    DATA     BYTE      TCON
      00000098H   SFRSYM    DATA     BYTE      SCON
      000000F1H   SFRSYM    DATA     BYTE      CANICR
      00000087H   SFRSYM    DATA     BYTE      PCON
      000000BCH   SFRSYM    DATA     BYTE      ADC_CONTR
      000000E7H   SFRSYM    DATA     BYTE      CMPCR2
      000000E6H   SFRSYM    DATA     BYTE      CMPCR1
      000000B8H   SFRSYM    DATA     BYTE      IP
      0000008FH   SFRSYM    DATA     BYTE      INTCLKO
      000000EEH   SFRSYM    DATA     BYTE      IP3H
      000000B6H   SFRSYM    DATA     BYTE      IP2H
      000000A8H   SFRSYM    DATA     BYTE      IE
      000000BBH   SFRSYM    DATA     BYTE      P_SW3
      000000BAH   SFRSYM    DATA     BYTE      P_SW2
      000000A2H   SFRSYM    DATA     BYTE      P_SW1
      000000CEH   SFRSYM    DATA     BYTE      SPCTL
      000000F8H   SFRSYM    DATA     BYTE      P7
      000000E8H   SFRSYM    DATA     BYTE      P6
      000000C8H   SFRSYM    DATA     BYTE      P5
      000000C0H   SFRSYM    DATA     BYTE      P4
      000000B0H   SFRSYM    DATA     BYTE      P3
      000000A0H   SFRSYM    DATA     BYTE      P2
      00000090H   SFRSYM    DATA     BYTE      P1
      00000080H   SFRSYM    DATA     BYTE      P0

      00FF6498H   BLOCK     CODE     ---       LVL=0
      000007F0H   SYMBOL    EDATA    ---       str
      00FF649CH   BLOCK     CODE     NEAR LAB  LVL=1
      000007F4H   SYMBOL    EDATA    INT       result
      000007F6H   SYMBOL    EDATA    INT       sign
      000007F8H   SYMBOL    EDATA    INT       i
      ---         BLOCKEND  ---      ---       LVL=1
      00FF6498H   LINE      CODE     ---       #58
      00FF649CH   LINE      CODE     ---       #59
      00FF649CH   LINE      CODE     ---       #60
      00FF64A2H   LINE      CODE     ---       #61
      00FF64AAH   LINE      CODE     ---       #62
L251 LINKER/LOCATER V4.66.93.0                                                        04/24/2024  12:31:03  PAGE 96


      00FF64B0H   LINE      CODE     ---       #65
      00FF64BCH   LINE      CODE     ---       #67
      00FF64C1H   LINE      CODE     ---       #68
      00FF64C1H   LINE      CODE     ---       #71
      00FF64C3H   LINE      CODE     ---       #73
      00FF64D1H   LINE      CODE     ---       #74
      00FF64E1H   LINE      CODE     ---       #77
      00FF64F1H   LINE      CODE     ---       #79
      00FF64F9H   LINE      CODE     ---       #80
      00FF6507H   LINE      CODE     ---       #81
      00FF6519H   LINE      CODE     ---       #83
      00FF6527H   LINE      CODE     ---       #84
      00FF6527H   LINE      CODE     ---       #87
      00FF6529H   LINE      CODE     ---       #89
      00FF654BH   LINE      CODE     ---       #90
      00FF656EH   LINE      CODE     ---       #91
      00FF656EH   LINE      CODE     ---       #92
      00FF656EH   LINE      CODE     ---       #93
      00FF656EH   LINE      CODE     ---       #94
      00FF657CH   LINE      CODE     ---       #95
      00FF658CH   LINE      CODE     ---       #97
      00FF6596H   LINE      CODE     ---       #98
      ---         BLOCKEND  ---      ---       LVL=0

      00FF5A81H   BLOCK     CODE     ---       LVL=0
      000005E3H   SYMBOL    EDATA    ---       str
      00FF5A85H   BLOCK     CODE     NEAR LAB  LVL=1
      000005E7H   SYMBOL    EDATA    FLOAT     integerPart
      000005EBH   SYMBOL    EDATA    FLOAT     decimalPart
      000005EFH   SYMBOL    EDATA    FLOAT     decimalPlace
      000005F3H   SYMBOL    EDATA    INT       sign
      000005F5H   SYMBOL    EDATA    INT       i
      000005F7H   SYMBOL    EDATA    INT       state
      ---         BLOCKEND  ---      ---       LVL=1
      00FF5A81H   LINE      CODE     ---       #109
      00FF5A85H   LINE      CODE     ---       #110
      00FF5A85H   LINE      CODE     ---       #111
      00FF5A8BH   LINE      CODE     ---       #112
      00FF5A91H   LINE      CODE     ---       #113
      00FF5A9BH   LINE      CODE     ---       #114
      00FF5AA3H   LINE      CODE     ---       #115
      00FF5AA9H   LINE      CODE     ---       #116
      00FF5AAFH   LINE      CODE     ---       #118
      00FF5AB1H   LINE      CODE     ---       #119
      00FF5ABFH   LINE      CODE     ---       #120
      00FF5ACFH   LINE      CODE     ---       #122
      00FF5ADFH   LINE      CODE     ---       #123
      00FF5AE7H   LINE      CODE     ---       #124
      00FF5AF5H   LINE      CODE     ---       #125
      00FF5B07H   LINE      CODE     ---       #126
      00FF5B15H   LINE      CODE     ---       #127
      00FF5B15H   LINE      CODE     ---       #129
      00FF5B18H   LINE      CODE     ---       #130
      00FF5B40H   LINE      CODE     ---       #131
      00FF5B4AH   LINE      CODE     ---       #132
      00FF5B7CH   LINE      CODE     ---       #133
      00FF5B7EH   LINE      CODE     ---       #134
      00FF5BB0H   LINE      CODE     ---       #135
      00FF5BC1H   LINE      CODE     ---       #136
      00FF5BC1H   LINE      CODE     ---       #137
      00FF5BDDH   LINE      CODE     ---       #138
      00FF5BE5H   LINE      CODE     ---       #139
      00FF5BE5H   LINE      CODE     ---       #140
      00FF5BE5H   LINE      CODE     ---       #141
      00FF5BE5H   LINE      CODE     ---       #142
L251 LINKER/LOCATER V4.66.93.0                                                        04/24/2024  12:31:03  PAGE 97


      00FF5C06H   LINE      CODE     ---       #144
      00FF5C28H   LINE      CODE     ---       #145
      ---         BLOCKEND  ---      ---       LVL=0

      00FF50A9H   BLOCK     CODE     ---       LVL=0
      00000882H   SYMBOL    EDATA    ---       dat
      00FF50ADH   BLOCK     CODE     NEAR LAB  LVL=1
      00000886H   SYMBOL    EDATA    INT       i
      00000888H   SYMBOL    EDATA    INT       j
      0000088AH   SYMBOL    EDATA    CHAR      counter
      ---         BLOCKEND  ---      ---       LVL=1
      00FF50A9H   LINE      CODE     ---       #156
      00FF50ADH   LINE      CODE     ---       #157
      00FF50ADH   LINE      CODE     ---       #158
      00FF50B9H   LINE      CODE     ---       #159
      00FF50BEH   LINE      CODE     ---       #161
      00FF50C7H   LINE      CODE     ---       #163
      00FF50E6H   LINE      CODE     ---       #165
      00FF50F3H   LINE      CODE     ---       #166
      00FF5103H   LINE      CODE     ---       #168
      00FF5113H   LINE      CODE     ---       #170
      00FF5127H   LINE      CODE     ---       #171
      00FF5132H   LINE      CODE     ---       #172
      00FF5134H   LINE      CODE     ---       #173
      00FF5134H   LINE      CODE     ---       #174
      00FF5152H   LINE      CODE     ---       #175
      00FF516CH   LINE      CODE     ---       #176
      00FF516FH   LINE      CODE     ---       #177
      00FF518EH   LINE      CODE     ---       #179
      00FF519BH   LINE      CODE     ---       #180
      00FF51ABH   LINE      CODE     ---       #182
      00FF51BBH   LINE      CODE     ---       #184
      00FF51CFH   LINE      CODE     ---       #185
      00FF51DAH   LINE      CODE     ---       #186
      00FF51DCH   LINE      CODE     ---       #187
      00FF51DCH   LINE      CODE     ---       #188
      00FF51FAH   LINE      CODE     ---       #189
      00FF5214H   LINE      CODE     ---       #190
      00FF5217H   LINE      CODE     ---       #191
      00FF5236H   LINE      CODE     ---       #193
      00FF5243H   LINE      CODE     ---       #194
      00FF5253H   LINE      CODE     ---       #196
      00FF5263H   LINE      CODE     ---       #198
      00FF5277H   LINE      CODE     ---       #199
      00FF5282H   LINE      CODE     ---       #200
      00FF5284H   LINE      CODE     ---       #201
      00FF5284H   LINE      CODE     ---       #202
      00FF52A2H   LINE      CODE     ---       #203
      00FF52BCH   LINE      CODE     ---       #204
      00FF52BFH   LINE      CODE     ---       #205
      00FF52DEH   LINE      CODE     ---       #207
      00FF52EBH   LINE      CODE     ---       #208
      00FF52FBH   LINE      CODE     ---       #210
      00FF530BH   LINE      CODE     ---       #212
      00FF531FH   LINE      CODE     ---       #213
      00FF532AH   LINE      CODE     ---       #214
      00FF532CH   LINE      CODE     ---       #215
      00FF532CH   LINE      CODE     ---       #216
      00FF534AH   LINE      CODE     ---       #217
      00FF5364H   LINE      CODE     ---       #218
      00FF5381H   LINE      CODE     ---       #220
      ---         BLOCKEND  ---      ---       LVL=0

      00FF71EAH   BLOCK     CODE     ---       LVL=0
      00FF71EAH   LINE      CODE     ---       #222
L251 LINKER/LOCATER V4.66.93.0                                                        04/24/2024  12:31:03  PAGE 98


      00FF71EAH   LINE      CODE     ---       #224
      00FF7212H   LINE      CODE     ---       #227
      00FF7225H   LINE      CODE     ---       #228
      00FF722AH   LINE      CODE     ---       #229
      00FF7231H   LINE      CODE     ---       #237
      00FF7248H   LINE      CODE     ---       #238
      00FF724BH   LINE      CODE     ---       #239
      ---         BLOCKEND  ---      ---       LVL=0

      ---         MODULE    ---      ---       uart
      00FF6391H   PUBLIC    CODE     ---       uart_sendcmd
      00FF6C9BH   PUBLIC    CODE     ---       uart1_isr
      00FF7989H   PUBLIC    CODE     ---       uart2_isr
      00FF6E58H   PUBLIC    CODE     ---       uart3_isr
      00FF786FH   PUBLIC    CODE     ---       uart4_isr
      00FF67FCH   PUBLIC    CODE     ---       uart_sendstring
      00000133H   PUBLIC    EDATA    ---       uart1_rx_buffer
      00000173H   PUBLIC    EDATA    ---       uart2_rx_buffer
      000001B3H   PUBLIC    EDATA    ---       uart3_rx_buffer
      000001F3H   PUBLIC    EDATA    ---       uart4_rx_buffer
      00000233H   PUBLIC    EDATA    BYTE      uart1_rx_counter
      00000234H   PUBLIC    EDATA    BYTE      uart2_rx_counter
      00000235H   PUBLIC    EDATA    BYTE      uart3_rx_counter
      00000236H   PUBLIC    EDATA    BYTE      uart1_tx_counter
      00000237H   PUBLIC    EDATA    BYTE      uart4_rx_counter
      00000238H   PUBLIC    EDATA    BYTE      uart2_tx_counter
      00000239H   PUBLIC    EDATA    BYTE      uart3_tx_counter
      0000023AH   PUBLIC    EDATA    BYTE      uart4_tx_counter
      00000020H.0 PUBLIC    BIT      BIT       uart1_lf
      00000020H.1 PUBLIC    BIT      BIT       uart2_lf
      00000020H.2 PUBLIC    BIT      BIT       uart3_lf
      00000020H.3 PUBLIC    BIT      BIT       uart4_lf
      00000020H.4 PUBLIC    BIT      BIT       uart1_cr
      00000020H.5 PUBLIC    BIT      BIT       uart2_cr
      00000020H.6 PUBLIC    BIT      BIT       uart3_cr
      00000020H.7 PUBLIC    BIT      BIT       uart4_cr
      00000021H.0 PUBLIC    BIT      BIT       uart1_tx_busy
      00000021H.1 PUBLIC    BIT      BIT       uart2_tx_busy
      00000021H.2 PUBLIC    BIT      BIT       uart3_tx_busy
      00000021H.3 PUBLIC    BIT      BIT       uart4_tx_busy
      00000021H.4 PUBLIC    BIT      BIT       uart1_rx_rdy
      00000021H.5 PUBLIC    BIT      BIT       uart2_rx_rdy
      00000021H.6 PUBLIC    BIT      BIT       uart3_rx_rdy
      00000021H.7 PUBLIC    BIT      BIT       uart4_rx_rdy
      000000D0H   SFRSYM    DATA     BYTE      PSW
      0000009DH   SFRSYM    DATA     BYTE      IRCBAND
      00000097H   SFRSYM    DATA     BYTE      AUXR2
      000000EFH   SFRSYM    DATA     BYTE      AUXINTIF
      000000FDH   SFRSYM    DATA     BYTE      S4CON
      000000ACH   SFRSYM    DATA     BYTE      S3CON
      0000009AH   SFRSYM    DATA     BYTE      S2CON
      000000FEH   SFRSYM    DATA     BYTE      S4BUF
      000000ADH   SFRSYM    DATA     BYTE      S3BUF
      0000009BH   SFRSYM    DATA     BYTE      S2BUF
      000000B7H   SFRSYM    DATA     BYTE      IPH
      000000CDH   SFRSYM    DATA     BYTE      SPSTAT
      000000DDH   SFRSYM    DATA     BYTE      T4T3M
      000000C1H   SFRSYM    DATA     BYTE      WDT_CONTR
      000000D7H   SFRSYM    DATA     BYTE      T2L
      000000D6H   SFRSYM    DATA     BYTE      T2H
      000000DFH   SFRSYM    DATA     BYTE      IP3
      000000F4H   SFRSYM    DATA     BYTE      USBCON
      000000B5H   SFRSYM    DATA     BYTE      IP2
      000000FFH   SFRSYM    DATA     BYTE      RSTCFG
      000000F9H   SFRSYM    DATA     BYTE      LINICR
L251 LINKER/LOCATER V4.66.93.0                                                        04/24/2024  12:31:03  PAGE 99


      0000008EH   SFRSYM    DATA     BYTE      AUXR
      000000AFH   SFRSYM    DATA     BYTE      IE2
      00000088H   SFRSYM    DATA     BYTE      TCON
      00000098H   SFRSYM    DATA     BYTE      SCON
      000000F1H   SFRSYM    DATA     BYTE      CANICR
      00000087H   SFRSYM    DATA     BYTE      PCON
      00000099H   SFRSYM    DATA     BYTE      SBUF
      000000BCH   SFRSYM    DATA     BYTE      ADC_CONTR
      000000E7H   SFRSYM    DATA     BYTE      CMPCR2
      000000E6H   SFRSYM    DATA     BYTE      CMPCR1
      00000098H.1 SFRSYM    DATA     BIT       TI
      00000098H.0 SFRSYM    DATA     BIT       RI
      000000B8H   SFRSYM    DATA     BYTE      IP
      000000A8H.4 SFRSYM    DATA     BIT       ES
      0000008FH   SFRSYM    DATA     BYTE      INTCLKO
      000000EEH   SFRSYM    DATA     BYTE      IP3H
      000000B6H   SFRSYM    DATA     BYTE      IP2H
      000000A8H   SFRSYM    DATA     BYTE      IE
      000000BBH   SFRSYM    DATA     BYTE      P_SW3
      000000BAH   SFRSYM    DATA     BYTE      P_SW2
      000000A2H   SFRSYM    DATA     BYTE      P_SW1
      000000CEH   SFRSYM    DATA     BYTE      SPCTL
      000000F8H   SFRSYM    DATA     BYTE      P7
      000000E8H   SFRSYM    DATA     BYTE      P6
      000000C8H   SFRSYM    DATA     BYTE      P5
      000000C0H   SFRSYM    DATA     BYTE      P4
      000000B0H   SFRSYM    DATA     BYTE      P3
      000000A0H   SFRSYM    DATA     BYTE      P2
      00000090H   SFRSYM    DATA     BYTE      P1
      00000080H   SFRSYM    DATA     BYTE      P0
      00000B4EH   SYMBOL    EDATA    BYTE      uart_num

      00FF67FCH   BLOCK     CODE     ---       LVL=0
      00000A65H   SYMBOL    EDATA    BYTE      uart_num
      00000A66H   SYMBOL    EDATA    ---       puts
      00FF67FCH   LINE      CODE     ---       #52
      00FF6804H   LINE      CODE     ---       #54
      00FF6818H   LINE      CODE     ---       #56
      00FF6818H   LINE      CODE     ---       #57
      00FF681AH   LINE      CODE     ---       #59
      00FF6823H   LINE      CODE     ---       #60
      00FF6826H   LINE      CODE     ---       #61
      00FF6829H   LINE      CODE     ---       #62
      00FF683FH   LINE      CODE     ---       #63
      00FF6841H   LINE      CODE     ---       #64
      00FF6841H   LINE      CODE     ---       #65
      00FF6843H   LINE      CODE     ---       #67
      00FF684CH   LINE      CODE     ---       #68
      00FF684FH   LINE      CODE     ---       #69
      00FF6852H   LINE      CODE     ---       #70
      00FF6868H   LINE      CODE     ---       #71
      00FF686AH   LINE      CODE     ---       #72
      00FF686AH   LINE      CODE     ---       #73
      00FF686CH   LINE      CODE     ---       #75
      00FF6875H   LINE      CODE     ---       #76
      00FF6878H   LINE      CODE     ---       #77
      00FF687BH   LINE      CODE     ---       #78
      00FF6891H   LINE      CODE     ---       #79
      00FF6893H   LINE      CODE     ---       #80
      00FF6893H   LINE      CODE     ---       #81
      00FF6895H   LINE      CODE     ---       #83
      00FF689EH   LINE      CODE     ---       #84
      00FF68A1H   LINE      CODE     ---       #85
      00FF68A4H   LINE      CODE     ---       #86
      00FF68BAH   LINE      CODE     ---       #87
L251 LINKER/LOCATER V4.66.93.0                                                        04/24/2024  12:31:03  PAGE 100


      00FF68BAH   LINE      CODE     ---       #88
      00FF68BAH   LINE      CODE     ---       #89
      00FF68BAH   LINE      CODE     ---       #90
      00FF68BAH   LINE      CODE     ---       #91
      ---         BLOCKEND  ---      ---       LVL=0

      00FF6391H   BLOCK     CODE     ---       LVL=0
      00000949H   SYMBOL    EDATA    BYTE      uart_num
      0000094AH   SYMBOL    EDATA    ---       bytes
      0000094EH   SYMBOL    EDATA    BYTE      length
      00FF639DH   BLOCK     CODE     NEAR LAB  LVL=1
      0000094FH   SYMBOL    EDATA    BYTE      i
      ---         BLOCKEND  ---      ---       LVL=1
      00FF6391H   LINE      CODE     ---       #93
      00FF639DH   LINE      CODE     ---       #94
      00FF639DH   LINE      CODE     ---       #96
      00FF63B4H   LINE      CODE     ---       #98
      00FF63B4H   LINE      CODE     ---       #99
      00FF63BBH   LINE      CODE     ---       #101
      00FF63CCH   LINE      CODE     ---       #102
      00FF63CFH   LINE      CODE     ---       #103
      00FF63D2H   LINE      CODE     ---       #104
      00FF63EBH   LINE      CODE     ---       #105
      00FF63EEH   LINE      CODE     ---       #106
      00FF63EEH   LINE      CODE     ---       #107
      00FF63F5H   LINE      CODE     ---       #109
      00FF6406H   LINE      CODE     ---       #110
      00FF6409H   LINE      CODE     ---       #111
      00FF640CH   LINE      CODE     ---       #112
      00FF6425H   LINE      CODE     ---       #113
      00FF6427H   LINE      CODE     ---       #114
      00FF6427H   LINE      CODE     ---       #115
      00FF642EH   LINE      CODE     ---       #117
      00FF643FH   LINE      CODE     ---       #118
      00FF6442H   LINE      CODE     ---       #119
      00FF6445H   LINE      CODE     ---       #120
      00FF645EH   LINE      CODE     ---       #121
      00FF6460H   LINE      CODE     ---       #122
      00FF6460H   LINE      CODE     ---       #123
      00FF6467H   LINE      CODE     ---       #125
      00FF6478H   LINE      CODE     ---       #126
      00FF647BH   LINE      CODE     ---       #127
      00FF647EH   LINE      CODE     ---       #128
      00FF6497H   LINE      CODE     ---       #129
      00FF6497H   LINE      CODE     ---       #130
      00FF6497H   LINE      CODE     ---       #131
      00FF6497H   LINE      CODE     ---       #132
      00FF6497H   LINE      CODE     ---       #133
      ---         BLOCKEND  ---      ---       LVL=0
      00000B25H   SYMBOL    EDATA    BYTE      uart_num
      00000B26H   SYMBOL    EDATA    BYTE      byte

      00FF6C9BH   BLOCK     CODE     ---       LVL=0
      00FF6C9BH   LINE      CODE     ---       #164
      00FF6CB1H   LINE      CODE     ---       #166
      00FF6CB4H   LINE      CODE     ---       #168
      00FF6CB7H   LINE      CODE     ---       #169
      00FF6CBAH   LINE      CODE     ---       #170
      00FF6CBAH   LINE      CODE     ---       #171
      00FF6CBDH   LINE      CODE     ---       #173
      00FF6CC0H   LINE      CODE     ---       #174
      00FF6CDBH   LINE      CODE     ---       #177
      00FF6CDEH   LINE      CODE     ---       #180
      00FF6CF6H   LINE      CODE     ---       #181
      00FF6CF6H   LINE      CODE     ---       #182
L251 LINKER/LOCATER V4.66.93.0                                                        04/24/2024  12:31:03  PAGE 101


      ---         BLOCKEND  ---      ---       LVL=0

      00FF7989H   BLOCK     CODE     ---       LVL=0
      00FF7989H   LINE      CODE     ---       #185
      00FF798FH   LINE      CODE     ---       #187
      00FF7994H   LINE      CODE     ---       #189
      00FF7997H   LINE      CODE     ---       #190
      00FF799AH   LINE      CODE     ---       #191
      00FF799AH   LINE      CODE     ---       #192
      00FF799FH   LINE      CODE     ---       #194
      00FF79A2H   LINE      CODE     ---       #195
      00FF79B3H   LINE      CODE     ---       #196
      00FF79C2H   LINE      CODE     ---       #199
      00FF79C2H   LINE      CODE     ---       #200
      ---         BLOCKEND  ---      ---       LVL=0

      00FF6E58H   BLOCK     CODE     ---       LVL=0
      00FF6E58H   LINE      CODE     ---       #202
      00FF6E6EH   LINE      CODE     ---       #204
      00FF6E73H   LINE      CODE     ---       #206
      00FF6E76H   LINE      CODE     ---       #207
      00FF6E79H   LINE      CODE     ---       #208
      00FF6E79H   LINE      CODE     ---       #209
      00FF6E7EH   LINE      CODE     ---       #211
      00FF6E81H   LINE      CODE     ---       #212
      00FF6E92H   LINE      CODE     ---       #215
      00FF6E95H   LINE      CODE     ---       #218
      00FF6EADH   LINE      CODE     ---       #219
      00FF6EADH   LINE      CODE     ---       #220
      ---         BLOCKEND  ---      ---       LVL=0

      00FF786FH   BLOCK     CODE     ---       LVL=0
      00FF786FH   LINE      CODE     ---       #222
      00FF7875H   LINE      CODE     ---       #224
      00FF787AH   LINE      CODE     ---       #226
      00FF787DH   LINE      CODE     ---       #227
      00FF7880H   LINE      CODE     ---       #228
      00FF7880H   LINE      CODE     ---       #229
      00FF7885H   LINE      CODE     ---       #231
      00FF7888H   LINE      CODE     ---       #232
      00FF7899H   LINE      CODE     ---       #237
      00FF78B1H   LINE      CODE     ---       #239
      00FF78B1H   LINE      CODE     ---       #240
      ---         BLOCKEND  ---      ---       LVL=0
      00000B4FH   SYMBOL    EDATA    BYTE      uart_num

      ---         MODULE    ---      ---       isr
      000000D0H   SFRSYM    DATA     BYTE      PSW
      0000009DH   SFRSYM    DATA     BYTE      IRCBAND
      00000097H   SFRSYM    DATA     BYTE      AUXR2
      000000EFH   SFRSYM    DATA     BYTE      AUXINTIF
      000000FDH   SFRSYM    DATA     BYTE      S4CON
      000000ACH   SFRSYM    DATA     BYTE      S3CON
      0000009AH   SFRSYM    DATA     BYTE      S2CON
      000000B7H   SFRSYM    DATA     BYTE      IPH
      000000CDH   SFRSYM    DATA     BYTE      SPSTAT
      000000DDH   SFRSYM    DATA     BYTE      T4T3M
      000000C1H   SFRSYM    DATA     BYTE      WDT_CONTR
      000000DFH   SFRSYM    DATA     BYTE      IP3
      000000F4H   SFRSYM    DATA     BYTE      USBCON
      000000B5H   SFRSYM    DATA     BYTE      IP2
      000000FFH   SFRSYM    DATA     BYTE      RSTCFG
      000000F9H   SFRSYM    DATA     BYTE      LINICR
      0000008EH   SFRSYM    DATA     BYTE      AUXR
      000000AFH   SFRSYM    DATA     BYTE      IE2
L251 LINKER/LOCATER V4.66.93.0                                                        04/24/2024  12:31:03  PAGE 102


      00000088H   SFRSYM    DATA     BYTE      TCON
      00000098H   SFRSYM    DATA     BYTE      SCON
      000000F1H   SFRSYM    DATA     BYTE      CANICR
      00000087H   SFRSYM    DATA     BYTE      PCON
      000000BCH   SFRSYM    DATA     BYTE      ADC_CONTR
      000000E7H   SFRSYM    DATA     BYTE      CMPCR2
      000000E6H   SFRSYM    DATA     BYTE      CMPCR1
      000000B8H   SFRSYM    DATA     BYTE      IP
      0000008FH   SFRSYM    DATA     BYTE      INTCLKO
      000000EEH   SFRSYM    DATA     BYTE      IP3H
      000000B6H   SFRSYM    DATA     BYTE      IP2H
      000000A8H   SFRSYM    DATA     BYTE      IE
      000000BBH   SFRSYM    DATA     BYTE      P_SW3
      000000BAH   SFRSYM    DATA     BYTE      P_SW2
      000000A2H   SFRSYM    DATA     BYTE      P_SW1
      000000CEH   SFRSYM    DATA     BYTE      SPCTL
      000000F8H   SFRSYM    DATA     BYTE      P7
      000000E8H   SFRSYM    DATA     BYTE      P6
      000000C8H   SFRSYM    DATA     BYTE      P5
      000000C0H   SFRSYM    DATA     BYTE      P4
      000000B0H   SFRSYM    DATA     BYTE      P3
      000000A0H   SFRSYM    DATA     BYTE      P2
      00000090H   SFRSYM    DATA     BYTE      P1
      00000080H   SFRSYM    DATA     BYTE      P0

      ---         MODULE    ---      ---       key
      00FF7E4BH   PUBLIC    CODE     ---       key1_short_press
      00FF7F5BH   PUBLIC    CODE     ---       key2_short_press
      00FF7F67H   PUBLIC    CODE     ---       key3_short_press
      00FF7F73H   PUBLIC    CODE     ---       key4_short_press
      00FF765CH   PUBLIC    CODE     ---       key1_check
      00FF7563H   PUBLIC    CODE     ---       key2_check
      00FF75B6H   PUBLIC    CODE     ---       key3_check
      00FF7609H   PUBLIC    CODE     ---       key4_check
      00000022H.2 PUBLIC    BIT      BIT       LaserRanging_State
      00000AABH   PUBLIC    EDATA    BYTE      key1_up_store
      00000AACH   PUBLIC    EDATA    BYTE      key2_up_store
      00000AADH   PUBLIC    EDATA    BYTE      key3_up_store
      00000AAEH   PUBLIC    EDATA    BYTE      key4_up_store
      000000C0H.1 SFRSYM    DATA     BIT       key3
      000000C0H.2 SFRSYM    DATA     BIT       key2
      000000C0H.5 SFRSYM    DATA     BIT       key1
      000000D0H   SFRSYM    DATA     BYTE      PSW
      0000009DH   SFRSYM    DATA     BYTE      IRCBAND
      00000097H   SFRSYM    DATA     BYTE      AUXR2
      000000EFH   SFRSYM    DATA     BYTE      AUXINTIF
      000000FDH   SFRSYM    DATA     BYTE      S4CON
      000000ACH   SFRSYM    DATA     BYTE      S3CON
      0000009AH   SFRSYM    DATA     BYTE      S2CON
      000000B7H   SFRSYM    DATA     BYTE      IPH
      000000CDH   SFRSYM    DATA     BYTE      SPSTAT
      000000DDH   SFRSYM    DATA     BYTE      T4T3M
      000000C1H   SFRSYM    DATA     BYTE      WDT_CONTR
      000000DFH   SFRSYM    DATA     BYTE      IP3
      000000F4H   SFRSYM    DATA     BYTE      USBCON
      000000B5H   SFRSYM    DATA     BYTE      IP2
      000000FFH   SFRSYM    DATA     BYTE      RSTCFG
      00000090H.7 SFRSYM    DATA     BIT       led_1
      000000F9H   SFRSYM    DATA     BYTE      LINICR
      0000008EH   SFRSYM    DATA     BYTE      AUXR
      000000AFH   SFRSYM    DATA     BYTE      IE2
      000000B0H.5 SFRSYM    DATA     BIT       P35
      00000088H   SFRSYM    DATA     BYTE      TCON
      00000098H   SFRSYM    DATA     BYTE      SCON
      000000F1H   SFRSYM    DATA     BYTE      CANICR
L251 LINKER/LOCATER V4.66.93.0                                                        04/24/2024  12:31:03  PAGE 103


      00000087H   SFRSYM    DATA     BYTE      PCON
      000000BCH   SFRSYM    DATA     BYTE      ADC_CONTR
      000000E7H   SFRSYM    DATA     BYTE      CMPCR2
      000000E6H   SFRSYM    DATA     BYTE      CMPCR1
      000000B8H   SFRSYM    DATA     BYTE      IP
      0000008FH   SFRSYM    DATA     BYTE      INTCLKO
      000000EEH   SFRSYM    DATA     BYTE      IP3H
      000000B6H   SFRSYM    DATA     BYTE      IP2H
      000000A8H   SFRSYM    DATA     BYTE      IE
      000000BBH   SFRSYM    DATA     BYTE      P_SW3
      000000BAH   SFRSYM    DATA     BYTE      P_SW2
      000000A2H   SFRSYM    DATA     BYTE      P_SW1
      000000CEH   SFRSYM    DATA     BYTE      SPCTL
      000000F8H   SFRSYM    DATA     BYTE      P7
      000000E8H   SFRSYM    DATA     BYTE      P6
      000000C8H   SFRSYM    DATA     BYTE      P5
      000000C0H   SFRSYM    DATA     BYTE      P4
      000000B0H   SFRSYM    DATA     BYTE      P3
      000000A0H   SFRSYM    DATA     BYTE      P2
      00000090H   SFRSYM    DATA     BYTE      P1
      00000080H   SFRSYM    DATA     BYTE      P0
      000000C0H.0 SFRSYM    DATA     BIT       key4

      00FF7E4BH   BLOCK     CODE     ---       LVL=0
      00FF7E4BH   LINE      CODE     ---       #19
      00FF7E4BH   LINE      CODE     ---       #22
      00FF7E54H   LINE      CODE     ---       #23
      00FF7E5DH   LINE      CODE     ---       #24
      00FF7E66H   LINE      CODE     ---       #25
      ---         BLOCKEND  ---      ---       LVL=0

      00FF7F5BH   BLOCK     CODE     ---       LVL=0
      00FF7F5BH   LINE      CODE     ---       #27
      00FF7F5BH   LINE      CODE     ---       #30
      00FF7F66H   LINE      CODE     ---       #31
      ---         BLOCKEND  ---      ---       LVL=0

      00FF7F67H   BLOCK     CODE     ---       LVL=0
      00FF7F67H   LINE      CODE     ---       #33
      00FF7F67H   LINE      CODE     ---       #36
      00FF7F72H   LINE      CODE     ---       #37
      ---         BLOCKEND  ---      ---       LVL=0

      00FF7F73H   BLOCK     CODE     ---       LVL=0
      00FF7F73H   LINE      CODE     ---       #39
      00FF7F73H   LINE      CODE     ---       #42
      00FF7F7EH   LINE      CODE     ---       #43
      ---         BLOCKEND  ---      ---       LVL=0

      00FF765CH   BLOCK     CODE     ---       LVL=0
      00FF765CH   LINE      CODE     ---       #45
      00FF765CH   LINE      CODE     ---       #47
      00FF766EH   LINE      CODE     ---       #49
      00FF7673H   LINE      CODE     ---       #50
      00FF7682H   LINE      CODE     ---       #51
      00FF7682H   LINE      CODE     ---       #52
      00FF7694H   LINE      CODE     ---       #54
      00FF769AH   LINE      CODE     ---       #55
      00FF769DH   LINE      CODE     ---       #56
      00FF76ACH   LINE      CODE     ---       #57
      ---         BLOCKEND  ---      ---       LVL=0

      00FF7563H   BLOCK     CODE     ---       LVL=0
      00FF7563H   LINE      CODE     ---       #60
      00FF7563H   LINE      CODE     ---       #62
L251 LINKER/LOCATER V4.66.93.0                                                        04/24/2024  12:31:03  PAGE 104


      00FF7575H   LINE      CODE     ---       #64
      00FF757AH   LINE      CODE     ---       #65
      00FF758AH   LINE      CODE     ---       #66
      00FF758AH   LINE      CODE     ---       #67
      00FF759CH   LINE      CODE     ---       #69
      00FF75A2H   LINE      CODE     ---       #70
      00FF75A5H   LINE      CODE     ---       #71
      00FF75B5H   LINE      CODE     ---       #72
      ---         BLOCKEND  ---      ---       LVL=0

      00FF75B6H   BLOCK     CODE     ---       LVL=0
      00FF75B6H   LINE      CODE     ---       #75
      00FF75B6H   LINE      CODE     ---       #77
      00FF75C8H   LINE      CODE     ---       #79
      00FF75CDH   LINE      CODE     ---       #80
      00FF75DDH   LINE      CODE     ---       #81
      00FF75DDH   LINE      CODE     ---       #82
      00FF75EFH   LINE      CODE     ---       #84
      00FF75F5H   LINE      CODE     ---       #85
      00FF75F8H   LINE      CODE     ---       #86
      00FF7608H   LINE      CODE     ---       #87
      ---         BLOCKEND  ---      ---       LVL=0

      00FF7609H   BLOCK     CODE     ---       LVL=0
      00FF7609H   LINE      CODE     ---       #90
      00FF7609H   LINE      CODE     ---       #92
      00FF761BH   LINE      CODE     ---       #94
      00FF7620H   LINE      CODE     ---       #95
      00FF7630H   LINE      CODE     ---       #96
      00FF7630H   LINE      CODE     ---       #97
      00FF7642H   LINE      CODE     ---       #99
      00FF7648H   LINE      CODE     ---       #100
      00FF764BH   LINE      CODE     ---       #101
      00FF765BH   LINE      CODE     ---       #102
      ---         BLOCKEND  ---      ---       LVL=0

      ---         MODULE    ---      ---       host_comm
      00FF7E0EH   PUBLIC    CODE     ---       host_comm_uart_init
      00FF7CB7H   PUBLIC    CODE     ---       host_comm_sender
      00FF6282H   PUBLIC    CODE     ---       host_comm_irqhandler
      00000022H.0 PUBLIC    BIT      BIT       sendok
      00000022H.1 PUBLIC    BIT      BIT       senderr
      000000D0H   SFRSYM    DATA     BYTE      PSW
      0000009DH   SFRSYM    DATA     BYTE      IRCBAND
      00000097H   SFRSYM    DATA     BYTE      AUXR2
      000000EFH   SFRSYM    DATA     BYTE      AUXINTIF
      000000FDH   SFRSYM    DATA     BYTE      S4CON
      000000ACH   SFRSYM    DATA     BYTE      S3CON
      0000009AH   SFRSYM    DATA     BYTE      S2CON
      000000B7H   SFRSYM    DATA     BYTE      IPH
      000000CDH   SFRSYM    DATA     BYTE      SPSTAT
      000000DDH   SFRSYM    DATA     BYTE      T4T3M
      000000C1H   SFRSYM    DATA     BYTE      WDT_CONTR
      00000088H.6 SFRSYM    DATA     BIT       TR1
      0000008BH   SFRSYM    DATA     BYTE      TL1
      0000008DH   SFRSYM    DATA     BYTE      TH1
      000000DFH   SFRSYM    DATA     BYTE      IP3
      000000F4H   SFRSYM    DATA     BYTE      USBCON
      000000B5H   SFRSYM    DATA     BYTE      IP2
      000000FFH   SFRSYM    DATA     BYTE      RSTCFG
      000000A8H.3 SFRSYM    DATA     BIT       ET1
      00000090H.7 SFRSYM    DATA     BIT       led_1
      000000F9H   SFRSYM    DATA     BYTE      LINICR
      0000008EH   SFRSYM    DATA     BYTE      AUXR
      000000AFH   SFRSYM    DATA     BYTE      IE2
L251 LINKER/LOCATER V4.66.93.0                                                        04/24/2024  12:31:03  PAGE 105


      00000088H   SFRSYM    DATA     BYTE      TCON
      00000089H   SFRSYM    DATA     BYTE      TMOD
      00000098H   SFRSYM    DATA     BYTE      SCON
      000000F1H   SFRSYM    DATA     BYTE      CANICR
      00000087H   SFRSYM    DATA     BYTE      PCON
      000000BCH   SFRSYM    DATA     BYTE      ADC_CONTR
      000000E7H   SFRSYM    DATA     BYTE      CMPCR2
      000000E6H   SFRSYM    DATA     BYTE      CMPCR1
      000000B8H   SFRSYM    DATA     BYTE      IP
      000000A8H.4 SFRSYM    DATA     BIT       ES
      0000008FH   SFRSYM    DATA     BYTE      INTCLKO
      000000EEH   SFRSYM    DATA     BYTE      IP3H
      000000B6H   SFRSYM    DATA     BYTE      IP2H
      000000A8H   SFRSYM    DATA     BYTE      IE
      000000BBH   SFRSYM    DATA     BYTE      P_SW3
      000000BAH   SFRSYM    DATA     BYTE      P_SW2
      000000A2H   SFRSYM    DATA     BYTE      P_SW1
      000000CEH   SFRSYM    DATA     BYTE      SPCTL
      000000F8H   SFRSYM    DATA     BYTE      P7
      000000E8H   SFRSYM    DATA     BYTE      P6
      000000C8H   SFRSYM    DATA     BYTE      P5
      000000C0H   SFRSYM    DATA     BYTE      P4
      000000B0H   SFRSYM    DATA     BYTE      P3
      000000A0H   SFRSYM    DATA     BYTE      P2
      00000090H   SFRSYM    DATA     BYTE      P1
      00000080H   SFRSYM    DATA     BYTE      P0

      00FF7E0EH   BLOCK     CODE     ---       LVL=0
      00FF7E0EH   LINE      CODE     ---       #12
      00FF7E0EH   LINE      CODE     ---       #16
      00FF7E12H   LINE      CODE     ---       #17
      00FF7E15H   LINE      CODE     ---       #18
      00FF7E18H   LINE      CODE     ---       #19
      00FF7E1BH   LINE      CODE     ---       #20
      00FF7E1FH   LINE      CODE     ---       #21
      00FF7E23H   LINE      CODE     ---       #22
      00FF7E26H   LINE      CODE     ---       #23
      00FF7E29H   LINE      CODE     ---       #24
      00FF7E2CH   LINE      CODE     ---       #25
      ---         BLOCKEND  ---      ---       LVL=0

      00FF6282H   BLOCK     CODE     ---       LVL=0
      0000044EH   SYMBOL    EDATA    BYTE      i
      0000044FH   SYMBOL    EDATA    BYTE      oled_row
      00000450H   SYMBOL    EDATA    ---       oled_txt
      00FF6282H   LINE      CODE     ---       #27
      00FF6282H   LINE      CODE     ---       #28
      00FF6282H   LINE      CODE     ---       #33
      00FF629AH   LINE      CODE     ---       #35
      00FF62A3H   LINE      CODE     ---       #36
      00FF62BEH   LINE      CODE     ---       #38
      00FF62C7H   LINE      CODE     ---       #40
      00FF62CAH   LINE      CODE     ---       #41
      00FF62CDH   LINE      CODE     ---       #42
      00FF62D0H   LINE      CODE     ---       #43
      00FF62D3H   LINE      CODE     ---       #44
      00FF6303H   LINE      CODE     ---       #46
      00FF631EH   LINE      CODE     ---       #49
      00FF6326H   LINE      CODE     ---       #51
      00FF6331H   LINE      CODE     ---       #53
      00FF634FH   LINE      CODE     ---       #54
      00FF6372H   LINE      CODE     ---       #56
      00FF637EH   LINE      CODE     ---       #58
      00FF6381H   LINE      CODE     ---       #59
      00FF6383H   LINE      CODE     ---       #60
L251 LINKER/LOCATER V4.66.93.0                                                        04/24/2024  12:31:03  PAGE 106


      00FF6386H   LINE      CODE     ---       #61
      00FF6388H   LINE      CODE     ---       #62
      00FF6388H   LINE      CODE     ---       #63
      00FF638BH   LINE      CODE     ---       #64
      00FF638DH   LINE      CODE     ---       #65
      00FF6390H   LINE      CODE     ---       #66
      ---         BLOCKEND  ---      ---       LVL=0

      00FF7CB7H   BLOCK     CODE     ---       LVL=0
      00FF7CB7H   LINE      CODE     ---       #68
      00FF7CB7H   LINE      CODE     ---       #70
      00FF7CBAH   LINE      CODE     ---       #72
      00FF7CC7H   LINE      CODE     ---       #73
      00FF7CCAH   LINE      CODE     ---       #74
      00FF7CCAH   LINE      CODE     ---       #75
      00FF7CCDH   LINE      CODE     ---       #77
      00FF7CDAH   LINE      CODE     ---       #78
      00FF7CDDH   LINE      CODE     ---       #79
      ---         BLOCKEND  ---      ---       LVL=0

      ---         MODULE    ---      ---       laser_ranging
      00FF7E2DH   PUBLIC    CODE     ---       laser_ranging_get_uart_value
      0000023BH   PUBLIC    EDATA    ---       lrcmd_setrange_10m
      00000240H   PUBLIC    EDATA    ---       laser_ranging_cmd_arr_shutdown
      00000244H   PUBLIC    EDATA    ---       lrcmd_setrange_30m
      00000249H   PUBLIC    EDATA    ---       lrcmd_setrange_50m
      0000024EH   PUBLIC    EDATA    ---       laser_ranging_cmd_arr_single
      00000252H   PUBLIC    EDATA    ---       lrcmd_setrange_80m
      00000257H   PUBLIC    EDATA    ---       lrcmd_readcache
      0000025CH   PUBLIC    EDATA    ---       lrcmd_setresolution_1mm
      00000261H   PUBLIC    EDATA    ---       laser_ranging_cmd_arr_setrange_10m
      00000266H   PUBLIC    EDATA    ---       laser_ranging_cmd_arr_setrange_30m
      0000026BH   PUBLIC    EDATA    ---       laser_ranging_cmd_arr_setrange_50m
      00000270H   PUBLIC    EDATA    ---       lrcmd_single_broadcast
      00000275H   PUBLIC    EDATA    ---       laser_ranging_cmd_arr_setrange_80m
      0000027AH   PUBLIC    EDATA    ---       laser_ranging_cmd_arr_readcache
      0000027EH   PUBLIC    EDATA    ---       lrcmd_setfreq_10hz
      00000283H   PUBLIC    EDATA    ---       laser_ranging_cmd_arr_setresolution_1mm
      00000288H   PUBLIC    EDATA    ---       lrcmd_setfreq_20hz
      0000028DH   PUBLIC    EDATA    ---       lrcmd_setresolution_0_1mm
      00000292H   PUBLIC    EDATA    ---       laser_ranging_cmd_arr_single_broadcast
      00000296H   PUBLIC    EDATA    ---       laser_ranging_cmd_arr_setfreq_10hz
      0000029BH   PUBLIC    EDATA    ---       laser_ranging_cmd_arr_setfreq_20hz
      000002A0H   PUBLIC    EDATA    ---       laser_ranging_cmd_arr_setresolution_0_1mm
      000002A5H   PUBLIC    EDATA    ---       lrcmd_laseroff
      000002AAH   PUBLIC    EDATA    ---       lrcmd_setrange_5m
      000002AFH   PUBLIC    EDATA    ---       laser_ranging_cmd_arr_laseroff
      000002B4H   PUBLIC    EDATA    ---       lrcmd_continous
      000002B9H   PUBLIC    EDATA    ---       laser_ranging_cmd_arr_setrange_5m
      000002BEH   PUBLIC    EDATA    ---       laser_ranging_cmd_arr_continous
      000002C2H   PUBLIC    EDATA    ---       lrcmd_setfreq_5hz
      000002C7H   PUBLIC    EDATA    ---       lrcmd_laseron
      000002CCH   PUBLIC    EDATA    ---       lrcmd_shutdown
      000002D1H   PUBLIC    EDATA    ---       laser_ranging_cmd_arr_setfreq_5hz
      000002D6H   PUBLIC    EDATA    ---       lrdata
      000002FEH   PUBLIC    EDATA    ---       lrcmd_single
      00000303H   PUBLIC    EDATA    ---       laser_ranging_cmd_arr_laseron
      000000D0H   SFRSYM    DATA     BYTE      PSW
      0000009DH   SFRSYM    DATA     BYTE      IRCBAND
      00000097H   SFRSYM    DATA     BYTE      AUXR2
      000000EFH   SFRSYM    DATA     BYTE      AUXINTIF
      000000FDH   SFRSYM    DATA     BYTE      S4CON
      000000ACH   SFRSYM    DATA     BYTE      S3CON
      0000009AH   SFRSYM    DATA     BYTE      S2CON
      000000B7H   SFRSYM    DATA     BYTE      IPH
L251 LINKER/LOCATER V4.66.93.0                                                        04/24/2024  12:31:03  PAGE 107


      000000CDH   SFRSYM    DATA     BYTE      SPSTAT
      000000DDH   SFRSYM    DATA     BYTE      T4T3M
      000000C1H   SFRSYM    DATA     BYTE      WDT_CONTR
      000000DFH   SFRSYM    DATA     BYTE      IP3
      000000F4H   SFRSYM    DATA     BYTE      USBCON
      000000B5H   SFRSYM    DATA     BYTE      IP2
      000000FFH   SFRSYM    DATA     BYTE      RSTCFG
      000000F9H   SFRSYM    DATA     BYTE      LINICR
      0000008EH   SFRSYM    DATA     BYTE      AUXR
      000000AFH   SFRSYM    DATA     BYTE      IE2
      00000088H   SFRSYM    DATA     BYTE      TCON
      00000098H   SFRSYM    DATA     BYTE      SCON
      000000F1H   SFRSYM    DATA     BYTE      CANICR
      00000087H   SFRSYM    DATA     BYTE      PCON
      000000BCH   SFRSYM    DATA     BYTE      ADC_CONTR
      000000E7H   SFRSYM    DATA     BYTE      CMPCR2
      000000E6H   SFRSYM    DATA     BYTE      CMPCR1
      000000B8H   SFRSYM    DATA     BYTE      IP
      0000008FH   SFRSYM    DATA     BYTE      INTCLKO
      000000EEH   SFRSYM    DATA     BYTE      IP3H
      000000B6H   SFRSYM    DATA     BYTE      IP2H
      000000A8H   SFRSYM    DATA     BYTE      IE
      000000BBH   SFRSYM    DATA     BYTE      P_SW3
      000000BAH   SFRSYM    DATA     BYTE      P_SW2
      000000A2H   SFRSYM    DATA     BYTE      P_SW1
      000000CEH   SFRSYM    DATA     BYTE      SPCTL
      000000F8H   SFRSYM    DATA     BYTE      P7
      000000E8H   SFRSYM    DATA     BYTE      P6
      000000C8H   SFRSYM    DATA     BYTE      P5
      000000C0H   SFRSYM    DATA     BYTE      P4
      000000B0H   SFRSYM    DATA     BYTE      P3
      000000A0H   SFRSYM    DATA     BYTE      P2
      00000090H   SFRSYM    DATA     BYTE      P1
      00000080H   SFRSYM    DATA     BYTE      P0
      00000AE4H   SYMBOL    EDATA    BYTE      lr_axis
      00000AE5H   SYMBOL    EDATA    WORD      i

      00FF7E2DH   BLOCK     CODE     ---       LVL=0
      00000B50H   SYMBOL    EDATA    BYTE      lr_axis
      00FF7E2DH   LINE      CODE     ---       #132
      00FF7E31H   LINE      CODE     ---       #134
      00FF7E3CH   LINE      CODE     ---       #136
      00FF7E3CH   LINE      CODE     ---       #137
      00FF7E40H   LINE      CODE     ---       #138
      00FF7E40H   LINE      CODE     ---       #140
      00FF7E40H   LINE      CODE     ---       #141
      00FF7E44H   LINE      CODE     ---       #142
      00FF7E44H   LINE      CODE     ---       #144
      00FF7E44H   LINE      CODE     ---       #145
      00FF7E48H   LINE      CODE     ---       #146
      00FF7E48H   LINE      CODE     ---       #148
      00FF7E48H   LINE      CODE     ---       #149
      00FF7E4AH   LINE      CODE     ---       #150
      00FF7E4AH   LINE      CODE     ---       #151
      00FF7E4AH   LINE      CODE     ---       #152
      ---         BLOCKEND  ---      ---       LVL=0
      00000A6AH   SYMBOL    EDATA    BYTE      lr_axis
      00000A6BH   SYMBOL    EDATA    ---       specific_cmd

      ---         MODULE    ---      ---       motor_driver_boards
      00FF5DB0H   PUBLIC    CODE     ---       wheel_adjust
      00FF5634H   PUBLIC    CODE     ---       wheel_direction
      000000D0H   SFRSYM    DATA     BYTE      PSW
      0000009DH   SFRSYM    DATA     BYTE      IRCBAND
      00000097H   SFRSYM    DATA     BYTE      AUXR2
L251 LINKER/LOCATER V4.66.93.0                                                        04/24/2024  12:31:03  PAGE 108


      000000EFH   SFRSYM    DATA     BYTE      AUXINTIF
      00000090H.0 SFRSYM    DATA     BIT       gpio_wheel_y_front_forward
      00000090H.6 SFRSYM    DATA     BIT       gpio_wheel_y_rear_forward
      000000E8H.1 SFRSYM    DATA     BIT       gpio_wheel_x_front_forward
      000000E8H.4 SFRSYM    DATA     BIT       gpio_wheel_x_rear_forward
      000000FDH   SFRSYM    DATA     BYTE      S4CON
      000000ACH   SFRSYM    DATA     BYTE      S3CON
      0000009AH   SFRSYM    DATA     BYTE      S2CON
      000000B7H   SFRSYM    DATA     BYTE      IPH
      000000CDH   SFRSYM    DATA     BYTE      SPSTAT
      000000DDH   SFRSYM    DATA     BYTE      T4T3M
      000000C1H   SFRSYM    DATA     BYTE      WDT_CONTR
      000000DFH   SFRSYM    DATA     BYTE      IP3
      000000F4H   SFRSYM    DATA     BYTE      USBCON
      000000B5H   SFRSYM    DATA     BYTE      IP2
      000000FFH   SFRSYM    DATA     BYTE      RSTCFG
      000000F9H   SFRSYM    DATA     BYTE      LINICR
      0000008EH   SFRSYM    DATA     BYTE      AUXR
      000000AFH   SFRSYM    DATA     BYTE      IE2
      00000090H.1 SFRSYM    DATA     BIT       gpio_wheel_y_front_backward
      00000090H.5 SFRSYM    DATA     BIT       gpio_wheel_y_rear_backward
      00000088H   SFRSYM    DATA     BYTE      TCON
      000000E8H.2 SFRSYM    DATA     BIT       gpio_wheel_x_front_backward
      000000E8H.5 SFRSYM    DATA     BIT       gpio_wheel_x_rear_backward
      00000098H   SFRSYM    DATA     BYTE      SCON
      000000F1H   SFRSYM    DATA     BYTE      CANICR
      00000087H   SFRSYM    DATA     BYTE      PCON
      000000BCH   SFRSYM    DATA     BYTE      ADC_CONTR
      000000E7H   SFRSYM    DATA     BYTE      CMPCR2
      000000E6H   SFRSYM    DATA     BYTE      CMPCR1
      000000B8H   SFRSYM    DATA     BYTE      IP
      0000008FH   SFRSYM    DATA     BYTE      INTCLKO
      000000EEH   SFRSYM    DATA     BYTE      IP3H
      000000B6H   SFRSYM    DATA     BYTE      IP2H
      000000A8H   SFRSYM    DATA     BYTE      IE
      000000BBH   SFRSYM    DATA     BYTE      P_SW3
      000000BAH   SFRSYM    DATA     BYTE      P_SW2
      000000A2H   SFRSYM    DATA     BYTE      P_SW1
      000000CEH   SFRSYM    DATA     BYTE      SPCTL
      000000F8H   SFRSYM    DATA     BYTE      P7
      000000E8H   SFRSYM    DATA     BYTE      P6
      000000C8H   SFRSYM    DATA     BYTE      P5
      000000C0H   SFRSYM    DATA     BYTE      P4
      000000B0H   SFRSYM    DATA     BYTE      P3
      000000A0H   SFRSYM    DATA     BYTE      P2
      00000090H   SFRSYM    DATA     BYTE      P1
      00000080H   SFRSYM    DATA     BYTE      P0

      00FF5634H   BLOCK     CODE     ---       LVL=0
      00000AAFH   SYMBOL    EDATA    INT       wheel_select
      00000AB1H   SYMBOL    EDATA    INT       wheel_direction
      00FF5634H   LINE      CODE     ---       #21
      00FF563CH   LINE      CODE     ---       #23
      00FF566CH   LINE      CODE     ---       #25
      00FF566CH   LINE      CODE     ---       #26
      00FF5676H   LINE      CODE     ---       #28
      00FF5679H   LINE      CODE     ---       #29
      00FF567CH   LINE      CODE     ---       #30
      00FF567FH   LINE      CODE     ---       #31
      00FF568BH   LINE      CODE     ---       #33
      00FF568EH   LINE      CODE     ---       #34
      00FF5691H   LINE      CODE     ---       #35
      00FF5694H   LINE      CODE     ---       #36
      00FF56A3H   LINE      CODE     ---       #38
      00FF56A6H   LINE      CODE     ---       #39
L251 LINKER/LOCATER V4.66.93.0                                                        04/24/2024  12:31:03  PAGE 109


      00FF56A9H   LINE      CODE     ---       #40
      00FF56A9H   LINE      CODE     ---       #41
      00FF56ACH   LINE      CODE     ---       #42
      00FF56ACH   LINE      CODE     ---       #43
      00FF56B6H   LINE      CODE     ---       #45
      00FF56B9H   LINE      CODE     ---       #46
      00FF56BCH   LINE      CODE     ---       #47
      00FF56BFH   LINE      CODE     ---       #48
      00FF56CBH   LINE      CODE     ---       #50
      00FF56CEH   LINE      CODE     ---       #51
      00FF56D1H   LINE      CODE     ---       #52
      00FF56D4H   LINE      CODE     ---       #53
      00FF56E3H   LINE      CODE     ---       #55
      00FF56E6H   LINE      CODE     ---       #56
      00FF56E9H   LINE      CODE     ---       #57
      00FF56E9H   LINE      CODE     ---       #58
      00FF56ECH   LINE      CODE     ---       #59
      00FF56ECH   LINE      CODE     ---       #60
      00FF56F6H   LINE      CODE     ---       #62
      00FF56F9H   LINE      CODE     ---       #63
      00FF56FCH   LINE      CODE     ---       #64
      00FF56FFH   LINE      CODE     ---       #65
      00FF5702H   LINE      CODE     ---       #66
      00FF5705H   LINE      CODE     ---       #67
      00FF5711H   LINE      CODE     ---       #69
      00FF5714H   LINE      CODE     ---       #70
      00FF5717H   LINE      CODE     ---       #71
      00FF571AH   LINE      CODE     ---       #72
      00FF571DH   LINE      CODE     ---       #73
      00FF5720H   LINE      CODE     ---       #74
      00FF572FH   LINE      CODE     ---       #76
      00FF5732H   LINE      CODE     ---       #77
      00FF5735H   LINE      CODE     ---       #78
      00FF5738H   LINE      CODE     ---       #79
      00FF573BH   LINE      CODE     ---       #80
      00FF573BH   LINE      CODE     ---       #81
      00FF573EH   LINE      CODE     ---       #82
      00FF573EH   LINE      CODE     ---       #83
      00FF5748H   LINE      CODE     ---       #85
      00FF574BH   LINE      CODE     ---       #86
      00FF574EH   LINE      CODE     ---       #87
      00FF5751H   LINE      CODE     ---       #88
      00FF575DH   LINE      CODE     ---       #90
      00FF5760H   LINE      CODE     ---       #91
      00FF5763H   LINE      CODE     ---       #92
      00FF5766H   LINE      CODE     ---       #93
      00FF5775H   LINE      CODE     ---       #95
      00FF5778H   LINE      CODE     ---       #96
      00FF577BH   LINE      CODE     ---       #97
      00FF577BH   LINE      CODE     ---       #98
      00FF577EH   LINE      CODE     ---       #99
      00FF577EH   LINE      CODE     ---       #100
      00FF5788H   LINE      CODE     ---       #102
      00FF578BH   LINE      CODE     ---       #103
      00FF578EH   LINE      CODE     ---       #104
      00FF5791H   LINE      CODE     ---       #105
      00FF579DH   LINE      CODE     ---       #107
      00FF57A0H   LINE      CODE     ---       #108
      00FF57A3H   LINE      CODE     ---       #109
      00FF57A6H   LINE      CODE     ---       #110
      00FF57B5H   LINE      CODE     ---       #112
      00FF57B8H   LINE      CODE     ---       #113
      00FF57BBH   LINE      CODE     ---       #114
      00FF57BBH   LINE      CODE     ---       #115
      00FF57BEH   LINE      CODE     ---       #116
L251 LINKER/LOCATER V4.66.93.0                                                        04/24/2024  12:31:03  PAGE 110


      00FF57BEH   LINE      CODE     ---       #117
      00FF57C8H   LINE      CODE     ---       #119
      00FF57CBH   LINE      CODE     ---       #120
      00FF57CEH   LINE      CODE     ---       #121
      00FF57D1H   LINE      CODE     ---       #122
      00FF57D4H   LINE      CODE     ---       #123
      00FF57D7H   LINE      CODE     ---       #124
      00FF57E3H   LINE      CODE     ---       #126
      00FF57E6H   LINE      CODE     ---       #127
      00FF57E9H   LINE      CODE     ---       #128
      00FF57ECH   LINE      CODE     ---       #129
      00FF57EFH   LINE      CODE     ---       #130
      00FF57F2H   LINE      CODE     ---       #131
      00FF57FEH   LINE      CODE     ---       #133
      00FF5801H   LINE      CODE     ---       #134
      00FF5804H   LINE      CODE     ---       #135
      00FF5807H   LINE      CODE     ---       #136
      00FF580AH   LINE      CODE     ---       #137
      00FF580AH   LINE      CODE     ---       #138
      00FF580CH   LINE      CODE     ---       #139
      00FF580CH   LINE      CODE     ---       #140
      00FF5816H   LINE      CODE     ---       #142
      00FF5819H   LINE      CODE     ---       #143
      00FF581CH   LINE      CODE     ---       #144
      00FF581FH   LINE      CODE     ---       #145
      00FF5822H   LINE      CODE     ---       #146
      00FF5825H   LINE      CODE     ---       #147
      00FF5828H   LINE      CODE     ---       #148
      00FF582BH   LINE      CODE     ---       #149
      00FF582EH   LINE      CODE     ---       #150
      00FF5830H   LINE      CODE     ---       #151
      00FF583CH   LINE      CODE     ---       #153
      00FF583FH   LINE      CODE     ---       #154
      00FF5842H   LINE      CODE     ---       #155
      00FF5845H   LINE      CODE     ---       #156
      00FF5848H   LINE      CODE     ---       #157
      00FF584BH   LINE      CODE     ---       #158
      00FF584EH   LINE      CODE     ---       #159
      00FF5851H   LINE      CODE     ---       #160
      00FF5854H   LINE      CODE     ---       #161
      00FF5856H   LINE      CODE     ---       #162
      00FF5862H   LINE      CODE     ---       #164
      00FF5865H   LINE      CODE     ---       #165
      00FF5868H   LINE      CODE     ---       #166
      00FF586BH   LINE      CODE     ---       #167
      00FF586EH   LINE      CODE     ---       #168
      00FF5871H   LINE      CODE     ---       #169
      00FF5874H   LINE      CODE     ---       #170
      00FF5877H   LINE      CODE     ---       #171
      00FF587AH   LINE      CODE     ---       #172
      00FF587AH   LINE      CODE     ---       #173
      00FF587AH   LINE      CODE     ---       #174
      00FF587AH   LINE      CODE     ---       #175
      00FF587AH   LINE      CODE     ---       #176
      00FF587AH   LINE      CODE     ---       #177
      ---         BLOCKEND  ---      ---       LVL=0

      00FF5DB0H   BLOCK     CODE     ---       LVL=0
      00000A1DH   SYMBOL    EDATA    INT       wheel_select
      00000A1FH   SYMBOL    EDATA    INT       speed
      00FF5DB8H   BLOCK     CODE     NEAR LAB  LVL=1
      00000A21H   SYMBOL    EDATA    WORD      pwm_duty_value
      ---         BLOCKEND  ---      ---       LVL=1
      00FF5DB0H   LINE      CODE     ---       #188
      00FF5DB8H   LINE      CODE     ---       #189
L251 LINKER/LOCATER V4.66.93.0                                                        04/24/2024  12:31:03  PAGE 111


      00FF5DB8H   LINE      CODE     ---       #193
      00FF5DCDH   LINE      CODE     ---       #194
      00FF5DE4H   LINE      CODE     ---       #195
      00FF5DEFH   LINE      CODE     ---       #198
      00FF5E03H   LINE      CODE     ---       #199
      00FF5E11H   LINE      CODE     ---       #202
      00FF5E27H   LINE      CODE     ---       #203
      00FF5E3BH   LINE      CODE     ---       #205
      00FF5E63H   LINE      CODE     ---       #207
      00FF5E63H   LINE      CODE     ---       #208
      00FF5E70H   LINE      CODE     ---       #209
      00FF5E73H   LINE      CODE     ---       #210
      00FF5E73H   LINE      CODE     ---       #211
      00FF5E80H   LINE      CODE     ---       #212
      00FF5E83H   LINE      CODE     ---       #213
      00FF5E83H   LINE      CODE     ---       #214
      00FF5E90H   LINE      CODE     ---       #215
      00FF5E9DH   LINE      CODE     ---       #216
      00FF5E9FH   LINE      CODE     ---       #217
      00FF5E9FH   LINE      CODE     ---       #218
      00FF5EACH   LINE      CODE     ---       #219
      00FF5EAEH   LINE      CODE     ---       #220
      00FF5EAEH   LINE      CODE     ---       #221
      00FF5EBBH   LINE      CODE     ---       #222
      00FF5EBDH   LINE      CODE     ---       #223
      00FF5EBDH   LINE      CODE     ---       #224
      00FF5ECAH   LINE      CODE     ---       #225
      00FF5ED7H   LINE      CODE     ---       #226
      00FF5ED9H   LINE      CODE     ---       #227
      00FF5ED9H   LINE      CODE     ---       #228
      00FF5EE6H   LINE      CODE     ---       #229
      00FF5EF3H   LINE      CODE     ---       #230
      00FF5F00H   LINE      CODE     ---       #231
      00FF5F0DH   LINE      CODE     ---       #232
      00FF5F0DH   LINE      CODE     ---       #233
      00FF5F0DH   LINE      CODE     ---       #234
      00FF5F0DH   LINE      CODE     ---       #235
      00FF5F0DH   LINE      CODE     ---       #236
      ---         BLOCKEND  ---      ---       LVL=0
      00000A23H   SYMBOL    EDATA    INT       wheel_select
      00000A25H   SYMBOL    EDATA    WORD      speed
      00000A27H   SYMBOL    EDATA    WORD      pwm_duty_value

      ---         MODULE    ---      ---       ui
      00FF7F4BH   PUBLIC    CODE     ---       ui_keys_init
      00FF7123H   PUBLIC    CODE     ---       ui_running
      00FF79C9H   PUBLIC    CODE     ---       ui_init
      00FF7B12H   PUBLIC    CODE     ---       ui_running_timer_isr
      00000B51H   PUBLIC    EDATA    BYTE      ui_loading_index
      000000D0H   SFRSYM    DATA     BYTE      PSW
      0000009DH   SFRSYM    DATA     BYTE      IRCBAND
      00000097H   SFRSYM    DATA     BYTE      AUXR2
      000000EFH   SFRSYM    DATA     BYTE      AUXINTIF
      000000FDH   SFRSYM    DATA     BYTE      S4CON
      000000ACH   SFRSYM    DATA     BYTE      S3CON
      0000009AH   SFRSYM    DATA     BYTE      S2CON
      000000B7H   SFRSYM    DATA     BYTE      IPH
      000000CDH   SFRSYM    DATA     BYTE      SPSTAT
      000000DDH   SFRSYM    DATA     BYTE      T4T3M
      000000C1H   SFRSYM    DATA     BYTE      WDT_CONTR
      00000088H.4 SFRSYM    DATA     BIT       TR0
      0000008AH   SFRSYM    DATA     BYTE      TL0
      0000008CH   SFRSYM    DATA     BYTE      TH0
      000000DFH   SFRSYM    DATA     BYTE      IP3
      000000F4H   SFRSYM    DATA     BYTE      USBCON
L251 LINKER/LOCATER V4.66.93.0                                                        04/24/2024  12:31:03  PAGE 112


      000000B5H   SFRSYM    DATA     BYTE      IP2
      000000FFH   SFRSYM    DATA     BYTE      RSTCFG
      00000088H.5 SFRSYM    DATA     BIT       TF0
      000000A8H.1 SFRSYM    DATA     BIT       ET0
      000000F9H   SFRSYM    DATA     BYTE      LINICR
      0000008EH   SFRSYM    DATA     BYTE      AUXR
      000000AFH   SFRSYM    DATA     BYTE      IE2
      00000088H   SFRSYM    DATA     BYTE      TCON
      00000089H   SFRSYM    DATA     BYTE      TMOD
      00000098H   SFRSYM    DATA     BYTE      SCON
      000000F1H   SFRSYM    DATA     BYTE      CANICR
      00000087H   SFRSYM    DATA     BYTE      PCON
      000000BCH   SFRSYM    DATA     BYTE      ADC_CONTR
      000000E7H   SFRSYM    DATA     BYTE      CMPCR2
      000000E6H   SFRSYM    DATA     BYTE      CMPCR1
      000000B8H   SFRSYM    DATA     BYTE      IP
      0000008FH   SFRSYM    DATA     BYTE      INTCLKO
      000000EEH   SFRSYM    DATA     BYTE      IP3H
      000000B6H   SFRSYM    DATA     BYTE      IP2H
      000000A8H   SFRSYM    DATA     BYTE      IE
      000000BBH   SFRSYM    DATA     BYTE      P_SW3
      000000BAH   SFRSYM    DATA     BYTE      P_SW2
      000000A2H   SFRSYM    DATA     BYTE      P_SW1
      000000CEH   SFRSYM    DATA     BYTE      SPCTL
      000000F8H   SFRSYM    DATA     BYTE      P7
      000000E8H   SFRSYM    DATA     BYTE      P6
      000000C8H   SFRSYM    DATA     BYTE      P5
      000000C0H   SFRSYM    DATA     BYTE      P4
      000000B0H   SFRSYM    DATA     BYTE      P3
      000000A0H   SFRSYM    DATA     BYTE      P2
      00000090H   SFRSYM    DATA     BYTE      P1
      00000080H   SFRSYM    DATA     BYTE      P0

      00FF79C9H   BLOCK     CODE     ---       LVL=0
      00FF79C9H   LINE      CODE     ---       #6
      00FF79C9H   LINE      CODE     ---       #8
      00FF79D7H   LINE      CODE     ---       #9
      00FF79E6H   LINE      CODE     ---       #10
      00FF79F5H   LINE      CODE     ---       #11
      00FF7A05H   LINE      CODE     ---       #13
      00FF7A08H   LINE      CODE     ---       #14
      ---         BLOCKEND  ---      ---       LVL=0

      00FF7F4BH   BLOCK     CODE     ---       LVL=0
      00FF7F4BH   LINE      CODE     ---       #16
      00FF7F4BH   LINE      CODE     ---       #19
      00FF7F5AH   LINE      CODE     ---       #20
      ---         BLOCKEND  ---      ---       LVL=0

      00FF7B12H   BLOCK     CODE     ---       LVL=0
      00FF7B12H   LINE      CODE     ---       #35
      00FF7B28H   LINE      CODE     ---       #37
      00FF7B2BH   LINE      CODE     ---       #38
      ---         BLOCKEND  ---      ---       LVL=0

      00FF7123H   BLOCK     CODE     ---       LVL=0
      00FF7123H   LINE      CODE     ---       #40
      00FF7123H   LINE      CODE     ---       #42
      00FF7130H   LINE      CODE     ---       #43
      00FF713FH   LINE      CODE     ---       #44
      00FF7150H   LINE      CODE     ---       #46
      00FF7150H   LINE      CODE     ---       #47
      00FF715CH   LINE      CODE     ---       #48
      00FF715EH   LINE      CODE     ---       #49
      00FF715EH   LINE      CODE     ---       #50
L251 LINKER/LOCATER V4.66.93.0                                                        04/24/2024  12:31:03  PAGE 113


      00FF716AH   LINE      CODE     ---       #51
      00FF716CH   LINE      CODE     ---       #52
      00FF716CH   LINE      CODE     ---       #53
      00FF7178H   LINE      CODE     ---       #54
      00FF717AH   LINE      CODE     ---       #55
      00FF717AH   LINE      CODE     ---       #56
      00FF7186H   LINE      CODE     ---       #57
      00FF7186H   LINE      CODE     ---       #58
      00FF7186H   LINE      CODE     ---       #59
      00FF7186H   LINE      CODE     ---       #60
      00FF7186H   LINE      CODE     ---       #61
      ---         BLOCKEND  ---      ---       LVL=0

      ---         MODULE    ---      ---       seekfree_assistant
      00010201H   PUBLIC    XDATA    ---       seekfree_assistant_oscilloscope_data
      0001023CH   PUBLIC    XDATA    ---       seekfree_assistant_parameter_update_flag
      00010244H   PUBLIC    XDATA    ---       seekfree_assistant_parameter
      00000699H   PUBLIC    EDATA    BYTE      ?seekfree_assistant_camera_data_send?BYTE
      000007FAH   PUBLIC    EDATA    BYTE      ?seekfree_assistant_camera_information_config?BYTE
      00000591H   PUBLIC    EDATA    BYTE      ?seekfree_assistant_camera_boundary_config?BYTE
      000000D0H   SFRSYM    DATA     BYTE      PSW
      0000009DH   SFRSYM    DATA     BYTE      IRCBAND
      00000097H   SFRSYM    DATA     BYTE      AUXR2
      000000EFH   SFRSYM    DATA     BYTE      AUXINTIF
      000000FDH   SFRSYM    DATA     BYTE      S4CON
      000000ACH   SFRSYM    DATA     BYTE      S3CON
      0000009AH   SFRSYM    DATA     BYTE      S2CON
      000000B7H   SFRSYM    DATA     BYTE      IPH
      000000CDH   SFRSYM    DATA     BYTE      SPSTAT
      000000DDH   SFRSYM    DATA     BYTE      T4T3M
      000000C1H   SFRSYM    DATA     BYTE      WDT_CONTR
      000000DFH   SFRSYM    DATA     BYTE      IP3
      000000F4H   SFRSYM    DATA     BYTE      USBCON
      000000B5H   SFRSYM    DATA     BYTE      IP2
      000000FFH   SFRSYM    DATA     BYTE      RSTCFG
      000000F9H   SFRSYM    DATA     BYTE      LINICR
      0000008EH   SFRSYM    DATA     BYTE      AUXR
      000000AFH   SFRSYM    DATA     BYTE      IE2
      00000088H   SFRSYM    DATA     BYTE      TCON
      00000098H   SFRSYM    DATA     BYTE      SCON
      000000F1H   SFRSYM    DATA     BYTE      CANICR
      00000087H   SFRSYM    DATA     BYTE      PCON
      000000BCH   SFRSYM    DATA     BYTE      ADC_CONTR
      000000E7H   SFRSYM    DATA     BYTE      CMPCR2
      000000E6H   SFRSYM    DATA     BYTE      CMPCR1
      000000B8H   SFRSYM    DATA     BYTE      IP
      0000008FH   SFRSYM    DATA     BYTE      INTCLKO
      000000EEH   SFRSYM    DATA     BYTE      IP3H
      000000B6H   SFRSYM    DATA     BYTE      IP2H
      000000A8H   SFRSYM    DATA     BYTE      IE
      000000BBH   SFRSYM    DATA     BYTE      P_SW3
      000000BAH   SFRSYM    DATA     BYTE      P_SW2
      000000A2H   SFRSYM    DATA     BYTE      P_SW1
      000000CEH   SFRSYM    DATA     BYTE      SPCTL
      000000F8H   SFRSYM    DATA     BYTE      P7
      000000E8H   SFRSYM    DATA     BYTE      P6
      000000C8H   SFRSYM    DATA     BYTE      P5
      000000C0H   SFRSYM    DATA     BYTE      P4
      000000B0H   SFRSYM    DATA     BYTE      P3
      000000A0H   SFRSYM    DATA     BYTE      P2
      00000090H   SFRSYM    DATA     BYTE      P1
      00000080H   SFRSYM    DATA     BYTE      P0
      000003F4H   SYMBOL    EDATA    ---       seekfree_assistant_camera_dot_data
      000003FCH   SYMBOL    EDATA    ---       seekfree_assistant_camera_buffer
      00000446H   SYMBOL    EDATA    ---       seekfree_assistant_camera_data
L251 LINKER/LOCATER V4.66.93.0                                                        04/24/2024  12:31:03  PAGE 114


      00010225H   SYMBOL    XDATA    ---       seekfree_assistant_fifo
      00010264H   SYMBOL    XDATA    ---       seekfree_assistant_buffer
      0000088BH   SYMBOL    EDATA    ---       buffer
      0000088FH   SYMBOL    EDATA    DWORD     length
      00000893H   SYMBOL    EDATA    BYTE      temp_sum
      00000699H   SYMBOL    EDATA    INT       camera_type
      0000069BH   SYMBOL    EDATA    ---       image_addr
      0000069FH   SYMBOL    EDATA    BYTE      boundary_num
      000006A0H   SYMBOL    EDATA    WORD      width
      000006A2H   SYMBOL    EDATA    WORD      height
      000006A4H   SYMBOL    EDATA    DWORD     image_size
      000007FAH   SYMBOL    EDATA    INT       camera_type
      000007FCH   SYMBOL    EDATA    ---       image_addr
      00000800H   SYMBOL    EDATA    WORD      width
      00000802H   SYMBOL    EDATA    WORD      height
      00000548H   SYMBOL    EDATA    ---       seekfree_assistant_oscilloscope
      0000054CH   SYMBOL    EDATA    BYTE      packet_size
      0000054DH   SYMBOL    EDATA    BYTE      i
      0000054EH   SYMBOL    EDATA    ---       temp_oscilloscope
      00000950H   SYMBOL    EDATA    ---       buffer
      00000954H   SYMBOL    EDATA    BYTE      i
      00000955H   SYMBOL    EDATA    WORD      dot_bytes
      00000591H   SYMBOL    EDATA    INT       boundary_type
      00000593H   SYMBOL    EDATA    WORD      dot_num
      00000595H   SYMBOL    EDATA    ---       dot_x1
      00000599H   SYMBOL    EDATA    ---       dot_x2
      0000059DH   SYMBOL    EDATA    ---       dot_x3
      000005A1H   SYMBOL    EDATA    ---       dot_y1
      000005A5H   SYMBOL    EDATA    ---       dot_y2
      000005A9H   SYMBOL    EDATA    ---       dot_y3
      000005ADH   SYMBOL    EDATA    BYTE      i
      000005AEH   SYMBOL    EDATA    BYTE      boundary_num
      000005AFH   SYMBOL    EDATA    BYTE      boundary_data_type
      00000308H   SYMBOL    EDATA    BYTE      temp_sum
      00000309H   SYMBOL    EDATA    DWORD     read_length
      0000030DH   SYMBOL    EDATA    ---       receive_packet
      00000311H   SYMBOL    EDATA    ---       temp_buffer
      00000391H   SYMBOL    EDATA    DWORD     i

      ---         MODULE    ---      ---       seekfree_assistant_inface
      00000AB3H   PUBLIC    EDATA    ---       seekfree_assistant_receive
      00000AB5H   PUBLIC    EDATA    ---       seekfree_assistant_transfer
      000000D0H   SFRSYM    DATA     BYTE      PSW
      0000009DH   SFRSYM    DATA     BYTE      IRCBAND
      00000097H   SFRSYM    DATA     BYTE      AUXR2
      000000EFH   SFRSYM    DATA     BYTE      AUXINTIF
      000000FDH   SFRSYM    DATA     BYTE      S4CON
      000000ACH   SFRSYM    DATA     BYTE      S3CON
      0000009AH   SFRSYM    DATA     BYTE      S2CON
      000000B7H   SFRSYM    DATA     BYTE      IPH
      000000CDH   SFRSYM    DATA     BYTE      SPSTAT
      000000DDH   SFRSYM    DATA     BYTE      T4T3M
      000000C1H   SFRSYM    DATA     BYTE      WDT_CONTR
      000000DFH   SFRSYM    DATA     BYTE      IP3
      000000F4H   SFRSYM    DATA     BYTE      USBCON
      000000B5H   SFRSYM    DATA     BYTE      IP2
      000000FFH   SFRSYM    DATA     BYTE      RSTCFG
      000000F9H   SFRSYM    DATA     BYTE      LINICR
      0000008EH   SFRSYM    DATA     BYTE      AUXR
      000000AFH   SFRSYM    DATA     BYTE      IE2
      00000088H   SFRSYM    DATA     BYTE      TCON
      00000098H   SFRSYM    DATA     BYTE      SCON
      000000F1H   SFRSYM    DATA     BYTE      CANICR
      00000087H   SFRSYM    DATA     BYTE      PCON
      000000BCH   SFRSYM    DATA     BYTE      ADC_CONTR
L251 LINKER/LOCATER V4.66.93.0                                                        04/24/2024  12:31:03  PAGE 115


      000000E7H   SFRSYM    DATA     BYTE      CMPCR2
      000000E6H   SFRSYM    DATA     BYTE      CMPCR1
      000000B8H   SFRSYM    DATA     BYTE      IP
      0000008FH   SFRSYM    DATA     BYTE      INTCLKO
      000000EEH   SFRSYM    DATA     BYTE      IP3H
      000000B6H   SFRSYM    DATA     BYTE      IP2H
      000000A8H   SFRSYM    DATA     BYTE      IE
      000000BBH   SFRSYM    DATA     BYTE      P_SW3
      000000BAH   SFRSYM    DATA     BYTE      P_SW2
      000000A2H   SFRSYM    DATA     BYTE      P_SW1
      000000CEH   SFRSYM    DATA     BYTE      SPCTL
      000000F8H   SFRSYM    DATA     BYTE      P7
      000000E8H   SFRSYM    DATA     BYTE      P6
      000000C8H   SFRSYM    DATA     BYTE      P5
      000000C0H   SFRSYM    DATA     BYTE      P4
      000000B0H   SFRSYM    DATA     BYTE      P3
      000000A0H   SFRSYM    DATA     BYTE      P2
      00000090H   SFRSYM    DATA     BYTE      P1
      00000080H   SFRSYM    DATA     BYTE      P0

      ---         MODULE    ---      ---       SEEKFREE_CONFIG
      00FF0096H   PUBLIC    CODE     ---       dl1b_default_configuration
      00FF011DH   PUBLIC    CODE     ---       imu660ra_config_file

      ---         MODULE    ---      ---       ?C?FPADD
      00FF2F2BH   PUBLIC    CODE     ---       ?C?FPADD
      00FF2F28H   PUBLIC    CODE     ---       ?C?FPSUB

      ---         MODULE    ---      ---       ?C?FPMUL
      00FF2FE3H   PUBLIC    CODE     ---       ?C?FPMUL

      ---         MODULE    ---      ---       ?C?FPDIV
      00FF3083H   PUBLIC    CODE     ---       ?C?FPDIV

      ---         MODULE    ---      ---       ?C?FPCMP
      00FF3106H   PUBLIC    CODE     ---       ?C?FPCMP
      00FF3104H   PUBLIC    CODE     ---       ?C?FPCMP3

      ---         MODULE    ---      ---       ?C?FCAST
      00FF3154H   PUBLIC    CODE     NEAR LAB  ?C?FCASTC
      00FF314FH   PUBLIC    CODE     NEAR LAB  ?C?FCASTI
      00FF314AH   PUBLIC    CODE     NEAR LAB  ?C?FCASTL

      ---         MODULE    ---      ---       ?C?CASTF
      00FF3187H   PUBLIC    CODE     NEAR LAB  ?C?CASTF

      ---         MODULE    ---      ---       PRINTF
      00FF31C4H   PUBLIC    CODE     NEAR LAB  PRINTF

      ---         MODULE    ---      ---       ATOF?_
      00FF31F0H   PUBLIC    CODE     NEAR LAB  ATOF?_

      ---         MODULE    ---      ---       ?C?FPGETOPN
      00FF320FH   PUBLIC    CODE     ---       ?C?FPGETOPN2
      00FF324CH   PUBLIC    CODE     ---       ?C?FPNANRESULT
      00FF3254H   PUBLIC    CODE     ---       ?C?FPOVERFLOW
      00FF3228H   PUBLIC    CODE     ---       ?C?FPRESULT
      00FF323EH   PUBLIC    CODE     ---       ?C?FPRESULT2
      00FF3251H   PUBLIC    CODE     ---       ?C?FPUNDERFLOW

      ---         MODULE    ---      ---       ?C?ATOF
      00FF3260H   PUBLIC    CODE     NEAR LAB  ?C?FPATOF

      ---         MODULE    ---      ---       ?C?PRNFMT
      00FF3349H   PUBLIC    CODE     ---       ?C?PRNFMT
L251 LINKER/LOCATER V4.66.93.0                                                        04/24/2024  12:31:03  PAGE 116



      ---         MODULE    ---      ---       ?C?FPNEG
      00FF3758H   PUBLIC    CODE     ---       ?C?FPNEG

      ---         MODULE    ---      ---       ?C?FTNPWR
      00FF3796H   PUBLIC    CODE     ---       ?C?FTNPWR

      ---         MODULE    ---      ---       ?C?FPCONVERT
      00FF37DBH   PUBLIC    CODE     ---       ?C?FPCONVERT
      00FF3893H   PUBLIC    CODE     ---       ?C?FPROUND

      ---         MODULE    ---      ---       ?C_START
      00FF0000H   PUBLIC    CODE     ---       ?C?STARTUP
      00FF0000H   PUBLIC    CODE     ---       ?C_STARTUP

      ---         MODULE    ---      ---       ?C?INITEDATA
      00FF6BC9H   PUBLIC    CODE     ---       ?C?INITEDATA

      ---         MODULE    ---      ---       ?C?INITHDATA
      00FF6BF2H   PUBLIC    CODE     ---       ?C?INITHDATA

      ---         MODULE    ---      ---       ?C?SIDIV
      00FF38D6H   PUBLIC    CODE     ---       ?C?SIDIV

      ---         MODULE    ---      ---       ?C?LMUL
      00FF3908H   PUBLIC    CODE     ---       ?C?LMUL

      ---         MODULE    ---      ---       ?C?LIMUL
      00FF3919H   PUBLIC    CODE     ---       ?C?LIMUL

      ---         MODULE    ---      ---       ?C?ULDIV
      00FF3924H   PUBLIC    CODE     NEAR LAB  ?C?ULDIV
      00FF3922H   PUBLIC    CODE     NEAR LAB  ?C?ULIDIV

      ---         MODULE    ---      ---       ?C?SLDIV
      00FF3975H   PUBLIC    CODE     NEAR LAB  ?C?SLDIV

      ---         MODULE    ---      ---       ISSPACE

      ---         MODULE    ---      ---       memcpy
      00FF7D04H   PUBLIC    CODE     ---       memcpy?_

      ---         MODULE    ---      ---       memset

      ---         MODULE    ---      ---       ?C?INITEDATA_END
      00FF81FFH   PUBLIC    HCONST   WORD      ?C?INITEDATA_END

      ---         MODULE    ---      ---       ?C?INITHDATA_END
      00FF830AH   PUBLIC    HCONST   WORD      ?C?INITHDATA_END

Program Size: data=10.3 edata+hdata=3143 xdata=1757 const=1141 code=32627
L251 RUN COMPLETE.  0 WARNING(S),  0 ERROR(S)
