L251 LINKER/LOCATER V4.66.93.0                                                          05/04/2024  19:25:53  PAGE 1


L251 LINKER/LOCATER V4.66.93.0, INVOKED BY:
C:\KEIL_V5\C251\BIN\L251.EXE .\Out_File\board.obj, .\Out_File\common.obj, .\Out_File\zf_adc.obj, .\Out_File\zf_delay.obj
>> , .\Out_File\zf_eeprom.obj, .\Out_File\zf_exti.obj, .\Out_File\zf_gpio.obj, .\Out_File\zf_nvic.obj, .\Out_File\zf_pwm
>> .obj, .\Out_File\zf_spi.obj, .\Out_File\zf_tim.obj, .\Out_File\zf_uart.obj, .\Out_File\zf_fifo.obj, .\Out_File\zf_iic
>> .obj, .\Out_File\SEEKFREE_BLUETOOTH_CH9141.obj, Libraries\seekfree_peripheral\SEEKFREE_CONFIG.LIB, .\Out_File\SEEKFRE
>> E_FONT.obj, .\Out_File\SEEKFREE_OLED.obj, .\Out_File\SEEKFREE_PRINTF.obj, .\Out_File\SEEKFREE_WIRELESS.obj, .\Out_Fil
>> e\SEEKFREE_WIRELESS_CH573.obj, .\Out_File\main.obj, .\Out_File\uart.obj, .\Out_File\isr.obj, .\Out_File\key.obj, .\Ou
>> t_File\ui.obj, .\Out_File\host_comm.obj, .\Out_File\laser_ranging.obj, .\Out_File\motor_driver_boards.obj, .\Out_File
>> \servo.obj, .\Out_File\stepper.obj, .\Out_File\wt61.obj TO .\Out_File\SEEKFREE PRINT (.\Out_File\SEEKFREE.map) CASE D
>> ISABLEWARNING (15, 16, 57) REMOVEUNUSED CLASSES (EDATA (0X0-0XFFF), HDATA (0X0-0XFFF))


CPU MODE:     251 SOURCE MODE
INTR FRAME:   2 BYTES SAVED ON INTERRUPT
MEMORY MODEL: XSMALL WITH FLOATING POINT ARITHMETIC


INPUT MODULES INCLUDED:
  .\Out_File\board.obj (board)
         COMMENT TYPE 0: C251 V5.60.0
  .\Out_File\common.obj (common)
         COMMENT TYPE 0: C251 V5.60.0
  .\Out_File\zf_adc.obj (zf_adc)
         COMMENT TYPE 0: C251 V5.60.0
  .\Out_File\zf_delay.obj (zf_delay)
         COMMENT TYPE 0: C251 V5.60.0
  .\Out_File\zf_eeprom.obj (zf_eeprom)
         COMMENT TYPE 0: C251 V5.60.0
  .\Out_File\zf_exti.obj (zf_exti)
         COMMENT TYPE 0: C251 V5.60.0
  .\Out_File\zf_gpio.obj (zf_gpio)
         COMMENT TYPE 0: C251 V5.60.0
  .\Out_File\zf_nvic.obj (zf_nvic)
         COMMENT TYPE 0: C251 V5.60.0
  .\Out_File\zf_pwm.obj (zf_pwm)
         COMMENT TYPE 0: C251 V5.60.0
  .\Out_File\zf_spi.obj (zf_spi)
         COMMENT TYPE 0: C251 V5.60.0
  .\Out_File\zf_tim.obj (zf_tim)
         COMMENT TYPE 0: C251 V5.60.0
  .\Out_File\zf_uart.obj (zf_uart)
         COMMENT TYPE 0: C251 V5.60.0
  .\Out_File\zf_fifo.obj (zf_fifo)
         COMMENT TYPE 0: C251 V5.60.0
  .\Out_File\zf_iic.obj (zf_iic)
         COMMENT TYPE 0: C251 V5.60.0
  .\Out_File\SEEKFREE_BLUETOOTH_CH9141.obj (SEEKFREE_BLUETOOTH_CH9141)
         COMMENT TYPE 0: C251 V5.60.0
  .\Out_File\SEEKFREE_FONT.obj (SEEKFREE_FONT)
         COMMENT TYPE 0: C251 V5.60.0
  .\Out_File\SEEKFREE_OLED.obj (SEEKFREE_OLED)
         COMMENT TYPE 0: C251 V5.60.0
  .\Out_File\SEEKFREE_PRINTF.obj (SEEKFREE_PRINTF)
         COMMENT TYPE 0: C251 V5.60.0
  .\Out_File\SEEKFREE_WIRELESS.obj (SEEKFREE_WIRELESS)
         COMMENT TYPE 0: C251 V5.60.0
  .\Out_File\SEEKFREE_WIRELESS_CH573.obj (SEEKFREE_WIRELESS_CH573)
         COMMENT TYPE 0: C251 V5.60.0
  .\Out_File\main.obj (main)
         COMMENT TYPE 0: C251 V5.60.0
  .\Out_File\uart.obj (uart)
         COMMENT TYPE 0: C251 V5.60.0
  .\Out_File\isr.obj (isr)
         COMMENT TYPE 0: C251 V5.60.0
  .\Out_File\key.obj (key)
         COMMENT TYPE 0: C251 V5.60.0
L251 LINKER/LOCATER V4.66.93.0                                                        05/04/2024  19:25:53  PAGE 2


  .\Out_File\ui.obj (ui)
         COMMENT TYPE 0: C251 V5.60.0
  .\Out_File\host_comm.obj (host_comm)
         COMMENT TYPE 0: C251 V5.60.0
  .\Out_File\laser_ranging.obj (laser_ranging)
         COMMENT TYPE 0: C251 V5.60.0
  .\Out_File\motor_driver_boards.obj (motor_driver_boards)
         COMMENT TYPE 0: C251 V5.60.0
  .\Out_File\servo.obj (servo)
         COMMENT TYPE 0: C251 V5.60.0
  .\Out_File\stepper.obj (stepper)
         COMMENT TYPE 0: C251 V5.60.0
  .\Out_File\wt61.obj (wt61)
         COMMENT TYPE 0: C251 V5.60.0
  C:\KEIL_V5\C251\LIB\C2SFPXS.LIB (?C?FPADD)
         COMMENT TYPE 0: A251 V4.69.6.0
  C:\KEIL_V5\C251\LIB\C2SFPXS.LIB (?C?FPMUL)
         COMMENT TYPE 0: A251 V4.69.6.0
  C:\KEIL_V5\C251\LIB\C2SFPXS.LIB (?C?FPDIV)
         COMMENT TYPE 0: A251 V4.69.6.0
  C:\KEIL_V5\C251\LIB\C2SFPXS.LIB (?C?FPCMP)
         COMMENT TYPE 0: A251 V4.69.6.0
  C:\KEIL_V5\C251\LIB\C2SFPXS.LIB (?C?FCAST)
         COMMENT TYPE 0: A251 V4.69.6.0
  C:\KEIL_V5\C251\LIB\C2SFPXS.LIB (?C?CASTF)
         COMMENT TYPE 0: A251 V4.69.6.0
  C:\KEIL_V5\C251\LIB\C2SFPXS.LIB (ATOF?_)
         COMMENT TYPE 0: A251 V4.69.6.0
  C:\KEIL_V5\C251\LIB\C2SFPXS.LIB (?C?FPGETOPN)
         COMMENT TYPE 0: A251 V4.69.6.0
  C:\KEIL_V5\C251\LIB\C2SFPXS.LIB (?C?ATOF)
         COMMENT TYPE 0: A251 V4.69.6.0
  C:\KEIL_V5\C251\LIB\C2SFPXS.LIB (?C?FPNEG)
         COMMENT TYPE 0: A251 V4.69.6.0
  C:\KEIL_V5\C251\LIB\C2SFPXS.LIB (?C?FTNPWR)
         COMMENT TYPE 0: A251 V4.69.6.0
  C:\KEIL_V5\C251\LIB\C2SXS.LIB (?C_START)
         COMMENT TYPE 0: A251 V4.69.6.0
  C:\KEIL_V5\C251\LIB\C2SXS.LIB (?C?INITEDATA)
         COMMENT TYPE 0: A251 V4.69.6.0
  C:\KEIL_V5\C251\LIB\C2SXS.LIB (?C?LIMUL)
         COMMENT TYPE 0: A251 V4.69.6.0
  C:\KEIL_V5\C251\LIB\C2SXS.LIB (?C?ULDIV)
         COMMENT TYPE 0: A251 V4.69.6.0
  C:\KEIL_V5\C251\LIB\C2SXS.LIB (?C?SLDIV)
         COMMENT TYPE 0: A251 V4.69.6.0
  C:\KEIL_V5\C251\LIB\C2SXS.LIB (ISSPACE)
         COMMENT TYPE 0: C251 V5.58.7
  C:\KEIL_V5\C251\LIB\C2SXS.LIB (ABS)
         COMMENT TYPE 0: C251 V5.58.7
  C:\KEIL_V5\C251\LIB\C2SXS.LIB (memcpy)
         COMMENT TYPE 0: C251 V5.58.7
  C:\KEIL_V5\C251\LIB\C2SXS.LIB (memset)
         COMMENT TYPE 0: C251 V5.58.7
  C:\KEIL_V5\C251\LIB\C2SXS.LIB (?C?INITEDATA_END)
         COMMENT TYPE 0: A251 V4.69.6.0


ACTIVE MEMORY CLASSES OF MODULE:  .\Out_File\SEEKFREE (board)

BASE        START       END         USED      MEMORY CLASS
==========================================================
000000H     000000H     000FFFH     00088DH   EDATA
000000H     000000H     000FFFH               HDATA
FF0000H     FF0000H     FFFFFFH     004D35H   CODE
L251 LINKER/LOCATER V4.66.93.0                                                        05/04/2024  19:25:53  PAGE 3


000000H     FF0000H     FFFFFFH     000333H   HCONST
010000H     010000H     01FFFFH     000126H   XDATA
000020H.0   000020H.0   00002FH.7   000002H.7 BIT
000000H     000000H     00007FH     000008H   DATA


MEMORY MAP OF MODULE:  .\Out_File\SEEKFREE (board)


START     STOP      LENGTH    ALIGN  RELOC    MEMORY CLASS   SEGMENT NAME
=========================================================================
000000H   000007H   000008H   ---    AT..     DATA           "REG BANK 0"
000008H   00001FH   000018H   BYTE   UNIT     EDATA          ?ED?FIFO_READ_BUFFER?ZF_FIFO
000020H.0 000021H.7 000002H.0 BIT    UNIT     BIT            ?BI?UART
000022H.0 000022H.4 000000H.5 BIT    UNIT     BIT            ?BI?HOST_COMM
000022H.5 000022H.5 000000H.1 BIT    UNIT     BIT            ?BI?MOTOR_DRIVER_BOARDS
000022H.6 000022H.6 000000H.1 BIT    UNIT     BIT            ?BI?WT61
000022H.7 000022H   000000H.1 ---    ---      **GAP**
000023H   00025DH   00023BH   BYTE   UNIT     EDATA          ?ED?UART
00025EH   00032AH   0000CDH   BYTE   UNIT     EDATA          ?ED?LASER_RANGING
00032BH   000389H   00005FH   BYTE   UNIT     EDATA          ?ED?ZF_SPRINTF?SEEKFREE_PRINTF
00038AH   0003E1H   000058H   BYTE   UNIT     EDATA          ?ED?WT61
0003E2H   000411H   000030H   BYTE   UNIT     EDATA          ?ED?OLED_PRINTF_FLOAT?SEEKFREE_OLED
000412H   000441H   000030H   BYTE   UNIT     EDATA          ?ED?OLED_PRINTF_FLOAT_SPI?SEEKFREE_OLED
000442H   00046DH   00002CH   BYTE   UNIT     EDATA          ?ED?OLED_PRINTF_INT32?SEEKFREE_OLED
00046EH   000499H   00002CH   BYTE   UNIT     EDATA          ?ED?OLED_PRINTF_INT32_SPI?SEEKFREE_OLED
00049AH   0004B1H   000018H   BYTE   UNIT     EDATA          ?ED?FIFO_READ_TAIL_BUFFER?ZF_FIFO
0004B2H   0004C8H   000017H   BYTE   UNIT     EDATA          ?ED?HOST_COMM_IRQHANDLER?HOST_COMM
0004C9H   0004DCH   000014H   BYTE   UNIT     EDATA          ?ED?PWM_INIT?ZF_PWM
0004DDH   0004F0H   000014H   BYTE   UNIT     EDATA          ?ED?PWM_FREQ?ZF_PWM
0004F1H   000504H   000014H   BYTE   UNIT     EDATA          ?ED?NUMBER_CONVERSION_ASCII?SEEKFREE_PRINTF
000505H   000516H   000012H   BYTE   UNIT     EDATA          ?ED?FIFO_WRITE_BUFFER?ZF_FIFO
000517H   000526H   000010H   BYTE   UNIT     EDATA          ?ED?FIFO_INIT?ZF_FIFO
000527H   000536H   000010H   BYTE   UNIT     EDATA          ?ED?OLED_DIS_BMP?SEEKFREE_OLED
000537H   000546H   000010H   BYTE   UNIT     EDATA          ?ED?OLED_DIS_BMP_SPI?SEEKFREE_OLED
000547H   000556H   000010H   BYTE   UNIT     EDATA          ?ED?HOST_COMM
000557H   000564H   00000EH   BYTE   UNIT     EDATA          ?ED?PWM_DUTY?ZF_PWM
000565H   000572H   00000EH   BYTE   UNIT     EDATA          ?ED?UART_INIT?ZF_UART
000573H   000580H   00000EH   BYTE   UNIT     EDATA          ?ED?OLED_PRINT_CHINESE?SEEKFREE_OLED
000581H   00058EH   00000EH   BYTE   UNIT     EDATA          ?ED?OLED_PRINT_CHINESE_SPI?SEEKFREE_OLED
00058FH   00059BH   00000DH   BYTE   UNIT     EDATA          ?ED?SPI_INIT?ZF_SPI
00059CH   0005A8H   00000DH   BYTE   UNIT     EDATA          ?ED?PRINTF_REVERSE_ORDER?SEEKFREE_PRINTF
0005A9H   0005B4H   00000CH   BYTE   UNIT     EDATA          ?ED?FIFO_READ_ELEMENT?ZF_FIFO
0005B5H   0005C0H   00000CH   BYTE   UNIT     EDATA          ?ED?MOTOR_DRIVER_BOARDS
0005C1H   0005CBH   00000BH   BYTE   UNIT     EDATA          ?ED?OLED_UINT16?SEEKFREE_OLED
0005CCH   0005D6H   00000BH   BYTE   UNIT     EDATA          ?ED?OLED_INT16?SEEKFREE_OLED
0005D7H   0005E1H   00000BH   BYTE   UNIT     EDATA          ?ED?OLED_UINT16_SPI?SEEKFREE_OLED
0005E2H   0005ECH   00000BH   BYTE   UNIT     EDATA          ?ED?OLED_INT16_SPI?SEEKFREE_OLED
0005EDH   0005F6H   00000AH   BYTE   UNIT     EDATA          ?ED?IAP_READ_BYTES?ZF_EEPROM
0005F7H   000600H   00000AH   BYTE   UNIT     EDATA          ?ED?IAP_WRITE_BYTES?ZF_EEPROM
000601H   00060AH   00000AH   BYTE   UNIT     EDATA          ?ED?UART_PUTBUFF?ZF_UART
00060BH   000614H   00000AH   BYTE   UNIT     EDATA          ?ED?FIFO_WRITE_ELEMENT?ZF_FIFO
000615H   00061EH   00000AH   BYTE   UNIT     EDATA          ?ED?INTERNAL_CHAR_TO_INT?HOST_COMM
00061FH   000627H   000009H   BYTE   UNIT     EDATA          ?ED?STEPPER
000628H   00062FH   000008H   BYTE   UNIT     EDATA          ?ED?FIFO_HEAD_OFFSET?ZF_FIFO
000630H   000637H   000008H   BYTE   UNIT     EDATA          ?ED?FIFO_END_OFFSET?ZF_FIFO
000638H   00063FH   000008H   BYTE   UNIT     EDATA          ?ED?BLUETOOTH_CH9141_SEND_BUFF?SEEKFREE_BLUETOOTH_CH9141
000640H   000647H   000008H   BYTE   UNIT     EDATA          ?ED?BLUETOOTH_CH9141_READ_BUFF?SEEKFREE_BLUETOOTH_CH9141
000648H   00064FH   000008H   BYTE   UNIT     EDATA          ?ED?OLED_P6X8STR?SEEKFREE_OLED
000650H   000657H   000008H   BYTE   UNIT     EDATA          ?ED?OLED_P8X16STR?SEEKFREE_OLED
000658H   00065FH   000008H   BYTE   UNIT     EDATA          ?ED?OLED_P6X8STR_SPI?SEEKFREE_OLED
000660H   000667H   000008H   BYTE   UNIT     EDATA          ?ED?OLED_P8X16STR_SPI?SEEKFREE_OLED
000668H   00066FH   000008H   BYTE   UNIT     EDATA          ?ED?WIRELESS_UART_SEND_BUFF?SEEKFREE_WIRELESS
000670H   000677H   000008H   BYTE   UNIT     EDATA          ?ED?WIRELESS_UART_READ_BUFF?SEEKFREE_WIRELESS
000678H   00067FH   000008H   BYTE   UNIT     EDATA          ?ED?WIRELESS_CH573_READ_BUFF?SEEKFREE_WIRELESS_CH573
L251 LINKER/LOCATER V4.66.93.0                                                        05/04/2024  19:25:53  PAGE 4


000680H   000687H   000008H   BYTE   UNIT     EDATA          ?ED?UART_CHECKSUM?UART
000688H   00068EH   000007H   BYTE   UNIT     EDATA          ?ED?IIC_READ_REG_BYTES?ZF_IIC
00068FH   000695H   000007H   BYTE   UNIT     EDATA          ?ED?UART_SENDCMD?UART
000696H   00069BH   000006H   BYTE   UNIT     EDATA          ?ED?ADC_ONCE?ZF_ADC
00069CH   0006A1H   000006H   BYTE   UNIT     EDATA          ?ED?DELAY_US?ZF_DELAY
0006A2H   0006A7H   000006H   BYTE   UNIT     EDATA          ?ED?PIT_TIMER_MS?ZF_TIM
0006A8H   0006ADH   000006H   BYTE   UNIT     EDATA          ?ED?UART_PUTSTR?ZF_UART
0006AEH   0006B3H   000006H   BYTE   UNIT     EDATA          ?ED?FIFO_CLEAR?ZF_FIFO
0006B4H   0006B9H   000006H   BYTE   UNIT     EDATA          ?ED?IIC_INIT?ZF_IIC
0006BAH   0006BFH   000006H   BYTE   UNIT     EDATA          ?ED?IIC_READ_REG?ZF_IIC
0006C0H   0006C5H   000006H   BYTE   UNIT     EDATA          ?ED?OLED_HEXASCII?SEEKFREE_OLED
0006C6H   0006CBH   000006H   BYTE   UNIT     EDATA          ?ED?OLED_HEXASCII_SPI?SEEKFREE_OLED
0006CCH   0006D1H   000006H   BYTE   UNIT     EDATA          ?ED?WIRELESS_CH573_SEND_BUFF?SEEKFREE_WIRELESS_CH573
0006D2H   0006D7H   000006H   BYTE   UNIT     EDATA          ?ED?HOST_COMM_SEND_DATA?HOST_COMM
0006D8H   0006DDH   000006H   BYTE   UNIT     EDATA          ?ED?WHEEL_ADJUST?MOTOR_DRIVER_BOARDS
0006DEH   0006E3H   000006H   BYTE   UNIT     EDATA          ?ED?WHEEL_SPEED?MOTOR_DRIVER_BOARDS
0006E4H   0006E9H   000006H   BYTE   UNIT     EDATA          ?ED?SERVO_CLAW_GET_DUTY?SERVO
0006EAH   0006EFH   000006H   BYTE   UNIT     EDATA          ?ED?SERVO_PITCH_GET_DUTY?SERVO
0006F0H   0006F5H   000006H   BYTE   UNIT     EDATA          ?ED?SERVO_PAN_GET_DUTY?SERVO
0006F6H   0006FBH   000006H   BYTE   UNIT     EDATA          ?ED?SERVO_CLAW_SET_ANGLE?SERVO
0006FCH   000701H   000006H   BYTE   UNIT     EDATA          ?ED?SERVO_PITCH_SET_ANGLE?SERVO
000702H   000707H   000006H   BYTE   UNIT     EDATA          ?ED?SERVO_PAN_SET_ANGLE?SERVO
000708H   00070CH   000005H   BYTE   UNIT     EDATA          ?ED?ZF_UART
00070DH   000711H   000005H   BYTE   UNIT     EDATA          ?ED?UART_SENDSTRING?UART
000712H   000716H   000005H   BYTE   UNIT     EDATA          ?ED?KEY
000717H   00071BH   000005H   BYTE   UNIT     EDATA          ?ED?LASER_RANGING?LASER_RANGING
00071CH   00071FH   000004H   BYTE   UNIT     EDATA          ?ED?BOARD
000720H   000723H   000004H   BYTE   UNIT     EDATA          ?ED?ADC_INIT?ZF_ADC
000724H   000727H   000004H   BYTE   UNIT     EDATA          ?ED?ZF_DELAY
000728H   00072BH   000004H   BYTE   UNIT     EDATA          ?ED?DELAY_MS?ZF_DELAY
00072CH   00072FH   000004H   BYTE   UNIT     EDATA          ?ED?IAP_ERASE_PAGE?ZF_EEPROM
000730H   000733H   000004H   BYTE   UNIT     EDATA          ?ED?EXIT_INIT?ZF_EXTI
000734H   000737H   000004H   BYTE   UNIT     EDATA          ?ED?GPIO_PULL_SET?ZF_GPIO
000738H   00073BH   000004H   BYTE   UNIT     EDATA          ?ED?GPIO_MODE?ZF_GPIO
00073CH   00073FH   000004H   BYTE   UNIT     EDATA          ?ED?CTIMER_COUNT_READ?ZF_TIM
000740H   000743H   000004H   BYTE   UNIT     EDATA          ?ED?FIFO_USED?ZF_FIFO
000744H   000747H   000004H   BYTE   UNIT     EDATA          ?ED?WHEEL_DIRECTION?MOTOR_DRIVER_BOARDS
000748H   00074BH   000004H   BYTE   UNIT     EDATA          ?ED?TIMER0_ISR?STEPPER
00074CH   00074FH   000004H   BYTE   UNIT     EDATA          ?ED?WT61_DATA_PARSE?WT61
000750H   000752H   000003H   BYTE   UNIT     EDATA          ?ED?NVIC_SETPRIORITY?ZF_NVIC
000753H   000755H   000003H   BYTE   UNIT     EDATA          ?ED?UART_PUTCHAR?ZF_UART
000756H   000758H   000003H   BYTE   UNIT     EDATA          ?ED?IIC_DELAY_US?ZF_IIC
000759H   00075BH   000003H   BYTE   UNIT     EDATA          ?ED?WAIT?ZF_IIC
00075CH   00075EH   000003H   BYTE   UNIT     EDATA          ?ED?IIC_WRITE_REG?ZF_IIC
00075FH   000761H   000003H   BYTE   UNIT     EDATA          ?ED?OLED_PUTPIXEL?SEEKFREE_OLED
000762H   000764H   000003H   BYTE   UNIT     EDATA          ?ED?OLED_PUTPIXEL_SPI?SEEKFREE_OLED
000765H   000767H   000003H   BYTE   UNIT     EDATA          ?ED?LASER_RANGING_IRQHANDLER?LASER_RANGING
000768H   000769H   000002H   BYTE   UNIT     EDATA          ?ED?COMMON
00076AH   00076BH   000002H   BYTE   UNIT     EDATA          ?ED?PWM_SET_GPIO?ZF_PWM
00076CH   00076DH   000002H   BYTE   UNIT     EDATA          ?ED?SPI_CHANGE_PIN?ZF_SPI
00076EH   00076FH   000002H   BYTE   UNIT     EDATA          ?ED?CTIMER_COUNT_INIT?ZF_TIM
000770H   000771H   000002H   BYTE   UNIT     EDATA          ?ED?CTIMER_COUNT_CLEAN?ZF_TIM
000772H   000773H   000002H   BYTE   UNIT     EDATA          ?ED?SEND_DATA?ZF_IIC
000774H   000775H   000002H   BYTE   UNIT     EDATA          ?ED?IIC_CHANGE_PIN?ZF_IIC
000776H   000777H   000002H   BYTE   UNIT     EDATA          ?ED?OLED_SET_POS?SEEKFREE_OLED
000778H   000779H   000002H   BYTE   UNIT     EDATA          ?ED?OLED_FILL?SEEKFREE_OLED
00077AH   00077BH   000002H   BYTE   UNIT     EDATA          ?ED?OLED_CLRPIXEL?SEEKFREE_OLED
00077CH   00077DH   000002H   BYTE   UNIT     EDATA          ?ED?OLED_SET_POS_SPI?SEEKFREE_OLED
00077EH   00077FH   000002H   BYTE   UNIT     EDATA          ?ED?OLED_FILL_SPI?SEEKFREE_OLED
000780H   000781H   000002H   BYTE   UNIT     EDATA          ?ED?OLED_CLRPIXEL_SPI?SEEKFREE_OLED
000782H   000783H   000002H   BYTE   UNIT     EDATA          ?ED?UART_SENDBYTE?UART
000784H   000785H   000002H   BYTE   UNIT     EDATA          ?ED?UART1_ISR?UART
000786H   000787H   000002H   BYTE   UNIT     EDATA          ?ED?STEPPER_ADJUST?STEPPER
000788H   000788H   000001H   BYTE   UNIT     EDATA          ?ED?PUTCHAR?BOARD
000789H   000789H   000001H   BYTE   UNIT     EDATA          ?ED?IAP_SET_TPS?ZF_EEPROM
L251 LINKER/LOCATER V4.66.93.0                                                        05/04/2024  19:25:53  PAGE 5


00078AH   00078AH   000001H   BYTE   UNIT     EDATA          ?ED?SPI_MOSI?ZF_SPI
00078BH   00078BH   000001H   BYTE   UNIT     EDATA          ?ED?SPI_CHANGE_MODE?ZF_SPI
00078CH   00078CH   000001H   BYTE   UNIT     EDATA          ?ED?START?ZF_IIC
00078DH   00078DH   000001H   BYTE   UNIT     EDATA          ?ED?RECV_ACK?ZF_IIC
00078EH   00078EH   000001H   BYTE   UNIT     EDATA          ?ED?SEND_ACK?ZF_IIC
00078FH   00078FH   000001H   BYTE   UNIT     EDATA          ?ED?STOP?ZF_IIC
000790H   000790H   000001H   BYTE   UNIT     EDATA          ?ED?OLED_WRDAT?SEEKFREE_OLED
000791H   000791H   000001H   BYTE   UNIT     EDATA          ?ED?OLED_WRCMD?SEEKFREE_OLED
000792H   000792H   000001H   BYTE   UNIT     EDATA          ?ED?OLED_WRDAT_SPI?SEEKFREE_OLED
000793H   000793H   000001H   BYTE   UNIT     EDATA          ?ED?OLED_WRCMD_SPI?SEEKFREE_OLED
000794H   000794H   000001H   BYTE   UNIT     EDATA          ?ED?UART_INITIALIZE?UART
000795H   000795H   000001H   BYTE   UNIT     EDATA          ?ED?UART_RUNNING?UART
000796H   000796H   000001H   BYTE   UNIT     EDATA          ?ED?UI
000797H   000797H   000001H   BYTE   UNIT     EDATA          ?ED?LASER_RANGING_GET_UART_VALUE?LASER_RANGING
000798H   000897H   000100H   BYTE   UNIT     EDATA          ?STACK
000898H   00FFFFH   00F768H   ---    ---      **GAP**
010000H   010057H   000058H   BYTE   INSEG    XDATA          ?XD?SEEKFREE_BLUETOOTH_CH9141
010058H   0100AFH   000058H   BYTE   INSEG    XDATA          ?XD?SEEKFREE_WIRELESS
0100B0H   010107H   000058H   BYTE   INSEG    XDATA          ?XD?SEEKFREE_WIRELESS_CH573
010108H   01010BH   000004H   BYTE   UNIT     XDATA          ?XD?BLUETOOTH_CH9141_READ_BUFF?SEEKFREE_BLUETOOTH_CH9141
01010CH   01010FH   000004H   BYTE   UNIT     XDATA          ?XD?WIRELESS_UART_READ_BUFF?SEEKFREE_WIRELESS
010110H   010113H   000004H   BYTE   UNIT     XDATA          ?XD?WIRELESS_CH573_READ_BUFF?SEEKFREE_WIRELESS_CH573
010114H   010115H   000002H   BYTE   UNIT     XDATA          ?XD?BLUETOOTH_CH9141_SEND_BUFF?SEEKFREE_BLUETOOTH_CH9141
010116H   010117H   000002H   BYTE   UNIT     XDATA          ?XD?OLED_HEXASCII?SEEKFREE_OLED
010118H   010119H   000002H   BYTE   UNIT     XDATA          ?XD?OLED_DIS_BMP?SEEKFREE_OLED
01011AH   01011BH   000002H   BYTE   UNIT     XDATA          ?XD?OLED_HEXASCII_SPI?SEEKFREE_OLED
01011CH   01011DH   000002H   BYTE   UNIT     XDATA          ?XD?OLED_DIS_BMP_SPI?SEEKFREE_OLED
01011EH   01011EH   000001H   BYTE   UNIT     XDATA          ?XD?OLED_WRDAT?SEEKFREE_OLED
01011FH   01011FH   000001H   BYTE   UNIT     XDATA          ?XD?OLED_WRCMD?SEEKFREE_OLED
010120H   010120H   000001H   BYTE   UNIT     XDATA          ?XD?OLED_FILL?SEEKFREE_OLED
010121H   010121H   000001H   BYTE   UNIT     XDATA          ?XD?OLED_P6X8STR?SEEKFREE_OLED
010122H   010122H   000001H   BYTE   UNIT     XDATA          ?XD?OLED_P8X16STR?SEEKFREE_OLED
010123H   010123H   000001H   BYTE   UNIT     XDATA          ?XD?OLED_FILL_SPI?SEEKFREE_OLED
010124H   010124H   000001H   BYTE   UNIT     XDATA          ?XD?OLED_P6X8STR_SPI?SEEKFREE_OLED
010125H   010125H   000001H   BYTE   UNIT     XDATA          ?XD?OLED_P8X16STR_SPI?SEEKFREE_OLED
010126H   FEFFFFH   FDFEDAH   ---    ---      **GAP**
FF0000H   FF0002H   000003H   ---    OFFS..   CODE           ?CO?start251?4
FF0003H   FF0009H   000007H   BYTE   INSEG    CODE           ?PR?STEPPER_INIT?STEPPER
FF000AH   FF000AH   000001H   ---    ---      **GAP**
FF000BH   FF000DH   000003H   ---    OFFS..   CODE           ?PR?IV?1
FF000EH   FF0022H   000015H   BYTE   INSEG    CODE           ?PR?OLED_WRCMD_SPI?SEEKFREE_OLED
FF0023H   FF0025H   000003H   ---    OFFS..   CODE           ?PR?IV?4
FF0026H   FF003FH   00001AH   BYTE   INSEG    CODE           ?PR?MEMSET?_?MEMSET
FF0040H   FF0042H   000003H   ---    ---      **GAP**
FF0043H   FF0045H   000003H   ---    OFFS..   CODE           ?PR?IV?8
FF0046H   FF0086H   000041H   BYTE   INSEG    CODE           ?PR?DELAY_INIT?ZF_DELAY
FF0087H   FF008AH   000004H   BYTE   INSEG    CODE           ?PR?ENABLEGLOBALIRQ?BOARD
FF008BH   FF008DH   000003H   ---    OFFS..   CODE           ?PR?IV?17
FF008EH   FF0091H   000004H   BYTE   INSEG    CODE           ?PR?HOST_COMM_SEND_CHECKSUM_ERR?HOST_COMM
FF0092H   FF0092H   000001H   ---    ---      **GAP**
FF0093H   FF0095H   000003H   ---    OFFS..   CODE           ?PR?IV?18
FF0096H   FF0E9DH   000E08H   BYTE   UNIT     CODE           ?CO?SEEKFREE_FONT
FF0E9EH   FF17AAH   00090DH   BYTE   INSEG    CODE           ?PR?GPIO_MODE?ZF_GPIO
FF17ABH   FF1E0BH   000661H   BYTE   INSEG    CODE           ?PR?ZF_SPRINTF?SEEKFREE_PRINTF
FF1E0CH   FF22DBH   0004D0H   BYTE   UNIT     CODE           ?C?LIB_CODE
FF22DCH   FF26B5H   0003DAH   BYTE   INSEG    CODE           ?PR?PWM_INIT?ZF_PWM
FF26B6H   FF2A6DH   0003B8H   BYTE   INSEG    CODE           ?PR?PWM_SET_GPIO?ZF_PWM
FF2A6EH   FF2E0BH   00039EH   BYTE   INSEG    CODE           ?PR?HOST_COMM_IRQHANDLER?HOST_COMM
FF2E0CH   FF30BDH   0002B2H   BYTE   INSEG    CODE           ?PR?UART_INIT?ZF_UART
FF30BEH   FF3304H   000247H   BYTE   INSEG    CODE           ?PR?WHEEL_DIRECTION?MOTOR_DRIVER_BOARDS
FF3305H   FF350AH   000206H   BYTE   INSEG    CODE           ?PR?SET_CLK?BOARD
FF350BH   FF3668H   00015EH   BYTE   INSEG    CODE           ?PR?WHEEL_ADJUST?MOTOR_DRIVER_BOARDS
FF3669H   FF3781H   000119H   BYTE   INSEG    CODE           ?PR?UART1_ISR?UART
FF3782H   FF3899H   000118H   BYTE   INSEG    CODE           ?PR?PWM_DUTY?ZF_PWM
FF389AH   FF39B0H   000117H   BYTE   INSEG    CODE           ?PR?NUMBER_CONVERSION_ASCII?SEEKFREE_PRINTF
L251 LINKER/LOCATER V4.66.93.0                                                        05/04/2024  19:25:53  PAGE 6


FF39B1H   FF3AC6H   000116H   BYTE   INSEG    CODE           ?PR?INTERNAL_CHAR_TO_INT?HOST_COMM
FF3AC7H   FF3BCDH   000107H   BYTE   INSEG    CODE           ?PR?UART_SENDCMD?UART
FF3BCEH   FF3C9FH   0000D2H   BYTE   INSEG    CODE           ?PR?OLED_P6X8STR_SPI?SEEKFREE_OLED
FF3CA0H   FF3D6DH   0000CEH   BYTE   INSEG    CODE           ?PR?SPI_INIT?ZF_SPI
FF3D6EH   FF3E3BH   0000CEH   BYTE   INSEG    CODE           ?PR?OLED_PRINTF_INT32_SPI?SEEKFREE_OLED
FF3E3CH   FF3F09H   0000CEH   BYTE   INSEG    CODE           ?PR?TIMER0_ISR?STEPPER
FF3F0AH   FF3FCEH   0000C5H   BYTE   INSEG    CODE           ?PR?OLED_INIT_SPI?SEEKFREE_OLED
FF3FCFH   FF408DH   0000BFH   BYTE   INSEG    CODE           ?PR?UART_SENDSTRING?UART
FF408EH   FF4124H   000097H   BYTE   INSEG    CODE           ?PR?BOARD_INIT?BOARD
FF4125H   FF41B9H   000095H   BYTE   INSEG    CODE           ?PR?PRINTF_REVERSE_ORDER?SEEKFREE_PRINTF
FF41BAH   FF424AH   000091H   BYTE   INSEG    CODE           ?PR?HOST_COMM_SENDER?HOST_COMM
FF424BH   FF42BFH   000075H   BYTE   INSEG    CODE           ?PR?UART_PUTCHAR?ZF_UART
FF42C0H   FF432FH   000070H   BYTE   INSEG    CODE           ?PR?FIFO_HEAD_OFFSET?ZF_FIFO
FF4330H   FF439AH   00006BH   BYTE   INSEG    CODE           ?PR?UART_CHECKSUM?UART
FF439BH   FF43F9H   00005FH   BYTE   INSEG    CODE           ?PR?OLED_FILL_SPI?SEEKFREE_OLED
FF43FAH   FF4450H   000057H   BYTE   INSEG    CODE           ?PR?WAIT?ZF_IIC
FF4451H   FF44A7H   000057H   BYTE   INSEG    CODE           ?PR?MOTOR_DRIVERS_PWM_INIT?MAIN
FF44A8H   FF44FEH   000057H   BYTE   INSEG    CODE           ?PR?SERVO_CLAW_GET_DUTY?SERVO
FF44FFH   FF4555H   000057H   BYTE   INSEG    CODE           ?PR?SERVO_PITCH_GET_DUTY?SERVO
FF4556H   FF45AAH   000055H   BYTE   INSEG    CODE           ?PR?WHEEL_OLED_UPDATE?MOTOR_DRIVER_BOARDS
FF45ABH   FF45FDH   000053H   BYTE   INSEG    CODE           ?PR?KEY2_CHECK?KEY
FF45FEH   FF4650H   000053H   BYTE   INSEG    CODE           ?PR?KEY3_CHECK?KEY
FF4651H   FF46A3H   000053H   BYTE   INSEG    CODE           ?PR?KEY4_CHECK?KEY
FF46A4H   FF46F5H   000052H   BYTE   INSEG    CODE           ?PR?MAIN?MAIN
FF46F6H   FF4746H   000051H   BYTE   INSEG    CODE           ?PR?KEY1_CHECK?KEY
FF4747H   FF4796H   000050H   BYTE   INSEG    CODE           ?PR?KEY5_CHECK?KEY
FF4797H   FF47A9H   000013H   BYTE   UNIT     CODE           ?C_C51STARTUP
FF47AAH   FF47B7H   00000EH   BYTE   UNIT     CODE           ?C_C51STARTUP?1
FF47B8H   FF47E0H   000029H   BYTE   UNIT     CODE           ?C_C51STARTUP?2
FF47E1H   FF47E3H   000003H   BYTE   UNIT     CODE           ?C_C51STARTUP?3
FF47E4H   FF482EH   00004BH   BYTE   INSEG    CODE           ?PR?OLED_WRCMD?SEEKFREE_OLED
FF482FH   FF4879H   00004BH   BYTE   INSEG    CODE           ?PR?OLED_WRDAT?SEEKFREE_OLED
FF487AH   FF48C2H   000049H   BYTE   INSEG    CODE           ?PR?UART2_ISR?UART
FF48C3H   FF490BH   000049H   BYTE   INSEG    CODE           ?PR?UART3_ISR?UART
FF490CH   FF4954H   000049H   BYTE   INSEG    CODE           ?PR?UART4_ISR?UART
FF4955H   FF4994H   000040H   BYTE   INSEG    CODE           ?PR?UI_INIT?UI
FF4995H   FF49D3H   00003FH   BYTE   INSEG    CODE           ?PR?WHEEL_OLED_INIT?MOTOR_DRIVER_BOARDS
FF49D4H   FF4A0FH   00003CH   BYTE   INSEG    CODE           ?PR?STEPPER_ADJUST?STEPPER
FF4A10H   FF4A49H   00003AH   BYTE   INSEG    CODE           ?PR?SERVO_INIT?SERVO
FF4A4AH   FF4A7FH   000036H   BYTE   INSEG    CODE           ?PR?OLED_SET_POS_SPI?SEEKFREE_OLED
FF4A80H   FF4AB4H   000035H   BYTE   INSEG    CODE           ?PR?DELAY_MS?ZF_DELAY
FF4AB5H   FF4AE9H   000035H   BYTE   INSEG    CODE           ?PR?IIC_DELAY_US?ZF_IIC
FF4AEAH   FF4B1EH   000035H   BYTE   INSEG    CODE           ?PR?OLED_SET_POS?SEEKFREE_OLED
FF4B1FH   FF4B51H   000033H   BYTE   INSEG    CODE           ?PR?DELAY_US?ZF_DELAY
FF4B52H   FF4B7DH   00002CH   BYTE   INSEG    CODE           ?PR?HOST_COMM_UART_INIT?HOST_COMM
FF4B7EH   FF4BA8H   00002BH   BYTE   INSEG    CODE           ?PR?WHEEL_DYNAMIC_ADJUSTING?MOTOR_DRIVER_BOARDS
FF4BA9H   FF4BCFH   000027H   BYTE   INSEG    CODE           ?PR?UART_TX_SEND_BUFFER?UART
FF4BD0H   FF4BF4H   000025H   BYTE   INSEG    CODE           ?PR?MEMCPY?_?MEMCPY
FF4BF5H   FF4C0DH   000019H   BYTE   INSEG    CODE           ?PR?KEY1_SHORT_PRESS?KEY
FF4C0EH   FF4C26H   000019H   BYTE   INSEG    CODE           ?PR?SERVO_PITCH_SET_ANGLE?SERVO
FF4C27H   FF4C3FH   000019H   BYTE   INSEG    CODE           ?PR?SERVO_CLAW_SET_ANGLE?SERVO
FF4C40H   FF4C58H   000019H   BYTE   INSEG    CODE           ?PR?SERVO_PAN_SET_ANGLE?SERVO
FF4C59H   FF4C70H   000018H   BYTE   INSEG    CODE           ?PR?TIMER0_INIT?STEPPER
FF4C71H   FF4C87H   000017H   BYTE   INSEG    CODE           ?PR?KEY3_SHORT_PRESS?KEY
FF4C88H   FF4C9DH   000016H   BYTE   INSEG    CODE           ?PR?GPIO_INIT?MAIN
FF4C9EH   FF4CB3H   000016H   BYTE   INSEG    CODE           ?PR?LASER_RANGING_GET_UART_VALUE?LASER_RANGING
FF4CB4H   FF4CC8H   000015H   BYTE   INSEG    CODE           ?PR?OLED_WRDAT_SPI?SEEKFREE_OLED
FF4CC9H   FF4CDCH   000014H   BYTE   INSEG    CODE           ?PR?STEPPER_OLED_UPDATE?STEPPER
FF4CDDH   FF4CEEH   000012H   BYTE   INSEG    CODE           ?PR?SPI_MOSI?ZF_SPI
FF4CEFH   FF4CFFH   000011H   BYTE   INSEG    CODE           ?PR?KEY2_SHORT_PRESS?KEY
FF4D00H   FF4D0FH   000010H   BYTE   INSEG    CODE           ?PR?UI_KEYS_INIT?UI
FF4D10H   FF4D1FH   000010H   BYTE   INSEG    CODE           ?PR?STEPPER_OLED_INIT?STEPPER
FF4D20H   FF4D2FH   000010H   BYTE   INSEG    CODE           ?PR?ABS?_?ABS
FF4D30H   FF4D39H   00000AH   BYTE   INSEG    CODE           ?PR?KEY4_SHORT_PRESS?KEY
FF4D3AH   FF4F45H   00020CH   BYTE   UNIT     HCONST         ?C_INITEDATA
L251 LINKER/LOCATER V4.66.93.0                                                        05/04/2024  19:25:53  PAGE 7


FF4F46H   FF4F9DH   000058H   BYTE   UNIT     HCONST         ?HC?ZF_PWM
FF4F9EH   FF4FECH   00004FH   BYTE   UNIT     HCONST         ?HC?HOST_COMM
FF4FEDH   FF5024H   000038H   BYTE   UNIT     HCONST         ?HC?KEY
FF5025H   FF5049H   000025H   BYTE   UNIT     HCONST         ?HC?UI
FF504AH   FF5055H   00000CH   BYTE   UNIT     HCONST         ?HC?MOTOR_DRIVER_BOARDS
FF5056H   FF505FH   00000AH   BYTE   UNIT     HCONST         ?HC?SEEKFREE_OLED
FF5060H   FF5068H   000009H   BYTE   UNIT     HCONST         ?HC?WT61
FF5069H   FF506CH   000004H   BYTE   UNIT     HCONST         ?HC?STEPPER

* * * * * * * * *   R E M O V E D     S E G M E N T S   * * * * * * * *
   *DEL*:           000004H   BYTE   INSEG    CODE           ?PR?DISABLEGLOBALIRQ?BOARD
   *DEL*:           000012H   BYTE   INSEG    CODE           ?PR?PUTCHAR?BOARD
   *DEL*:           000056H   BYTE   INSEG    CODE           ?PR?ADC_ONCE?ZF_ADC
   *DEL*:           0000B5H   BYTE   INSEG    CODE           ?PR?ADC_INIT?ZF_ADC
   *DEL*:           00001AH   BYTE   INSEG    CODE           ?PR?IAP_SET_TPS?ZF_EEPROM
   *DEL*:           000015H   BYTE   INSEG    CODE           ?PR?EEPROM_TRIG?ZF_EEPROM
   *DEL*:           000029H   BYTE   INSEG    CODE           ?PR?IAP_ERASE_PAGE?ZF_EEPROM
   *DEL*:           000004H   BYTE   INSEG    CODE           ?PR?IAP_IDLE?ZF_EEPROM
   *DEL*:           000062H   BYTE   INSEG    CODE           ?PR?IAP_READ_BYTES?ZF_EEPROM
   *DEL*:           000008H   BYTE   INSEG    CODE           ?PR?IAP_INIT?ZF_EEPROM
   *DEL*:           00005EH   BYTE   INSEG    CODE           ?PR?IAP_WRITE_BYTES?ZF_EEPROM
   *DEL*:           000012H   BYTE   INSEG    CODE           ?PR?IAP_GET_CMD_STATE?ZF_EEPROM
   *DEL*:           000066H   BYTE   INSEG    CODE           ?PR?EXIT_INIT?ZF_EXTI
   *DEL*:           000095H   BYTE   INSEG    CODE           ?PR?GPIO_PULL_SET?ZF_GPIO
   *DEL*:           0000B9H   BYTE   INSEG    CODE           ?PR?NVIC_SETPRIORITY?ZF_NVIC
   *DEL*:           0001ABH   BYTE   INSEG    CODE           ?PR?PWM_FREQ?ZF_PWM
   *DEL*:           000026H   BYTE   INSEG    CODE           ?PR?SPI_CHANGE_MODE?ZF_SPI
   *DEL*:           0000CCH   BYTE   INSEG    CODE           ?PR?SPI_CHANGE_PIN?ZF_SPI
   *DEL*:           0000B4H   BYTE   INSEG    CODE           ?PR?CTIMER_COUNT_READ?ZF_TIM
   *DEL*:           0000E5H   BYTE   INSEG    CODE           ?PR?PIT_TIMER_MS?ZF_TIM
   *DEL*:           000054H   BYTE   INSEG    CODE           ?PR?CTIMER_COUNT_INIT?ZF_TIM
   *DEL*:           00005DH   BYTE   INSEG    CODE           ?PR?CTIMER_COUNT_CLEAN?ZF_TIM
   *DEL*:           000033H   BYTE   INSEG    CODE           ?PR?UART_PUTBUFF?ZF_UART
   *DEL*:           00002BH   BYTE   INSEG    CODE           ?PR?UART_PUTSTR?ZF_UART
   *DEL*:           0003ACH   BYTE   INSEG    CODE           ?PR?FIFO_READ_BUFFER?ZF_FIFO
   *DEL*:           00013BH   BYTE   INSEG    CODE           ?PR?FIFO_WRITE_ELEMENT?ZF_FIFO
   *DEL*:           000434H   BYTE   INSEG    CODE           ?PR?FIFO_READ_TAIL_BUFFER?ZF_FIFO
   *DEL*:           0000EAH   BYTE   INSEG    CODE           ?PR?FIFO_CLEAR?ZF_FIFO
   *DEL*:           000392H   BYTE   INSEG    CODE           ?PR?FIFO_WRITE_BUFFER?ZF_FIFO
   *DEL*:           000070H   BYTE   INSEG    CODE           ?PR?FIFO_END_OFFSET?ZF_FIFO
   *DEL*:           000025H   BYTE   INSEG    CODE           ?PR?FIFO_USED?ZF_FIFO
   *DEL*:           000083H   BYTE   INSEG    CODE           ?PR?FIFO_INIT?ZF_FIFO
   *DEL*:           00018BH   BYTE   INSEG    CODE           ?PR?FIFO_READ_ELEMENT?ZF_FIFO
   *DEL*:           000028H   BYTE   INSEG    CODE           ?PR?SEND_DATA?ZF_IIC
   *DEL*:           000037H   BYTE   INSEG    CODE           ?PR?IIC_CHANGE_PIN?ZF_IIC
   *DEL*:           00001CH   BYTE   INSEG    CODE           ?PR?RECV_DATA?ZF_IIC
   *DEL*:           000015H   BYTE   INSEG    CODE           ?PR?START?ZF_IIC
   *DEL*:           000021H   BYTE   INSEG    CODE           ?PR?SEND_ACK?ZF_IIC
   *DEL*:           000015H   BYTE   INSEG    CODE           ?PR?RECV_ACK?ZF_IIC
   *DEL*:           000015H   BYTE   INSEG    CODE           ?PR?STOP?ZF_IIC
   *DEL*:           00001EH   BYTE   INSEG    CODE           ?PR?SEND_NAK?ZF_IIC
   *DEL*:           00007AH   BYTE   INSEG    CODE           ?PR?IIC_INIT?ZF_IIC
   *DEL*:           000099H   BYTE   INSEG    CODE           ?PR?IIC_READ_REG?ZF_IIC
   *DEL*:           0000D4H   BYTE   INSEG    CODE           ?PR?IIC_READ_REG_BYTES?ZF_IIC
   *DEL*:           00007CH   BYTE   INSEG    CODE           ?PR?IIC_WRITE_REG?ZF_IIC
   *DEL*:           000022H   BYTE   INSEG    CODE           ?PR?BLUETOOTH_CH9141_UART_CALLBACK?SEEKFREE_BLUETOOTH_CH91
                                                             -41
   *DEL*:           000042H   BYTE   INSEG    CODE           ?PR?BLUETOOTH_CH9141_READ_BUFF?SEEKFREE_BLUETOOTH_CH9141
   *DEL*:           0000E0H   BYTE   INSEG    CODE           ?PR?BLUETOOTH_CH9141_SEND_BUFF?SEEKFREE_BLUETOOTH_CH9141
   *DEL*:           00004AH   BYTE   INSEG    CODE           ?PR?BLUETOOTH_CH9141_INIT?SEEKFREE_BLUETOOTH_CH9141
   *DEL*:           000047H   BYTE   INSEG    CODE           ?PR?OLED_PUTPIXEL?SEEKFREE_OLED
   *DEL*:           000074H   BYTE   INSEG    CODE           ?PR?OLED_HEXASCII_SPI?SEEKFREE_OLED
   *DEL*:           000474H   BYTE   INSEG    CODE           ?PR?OLED_DIS_BMP_SPI?SEEKFREE_OLED
   *DEL*:           000145H   BYTE   INSEG    CODE           ?PR?OLED_PRINTF_FLOAT?SEEKFREE_OLED
   *DEL*:           000123H   BYTE   INSEG    CODE           ?PR?OLED_P8X16STR_SPI?SEEKFREE_OLED
L251 LINKER/LOCATER V4.66.93.0                                                        05/04/2024  19:25:53  PAGE 8


   *DEL*:           000041H   BYTE   INSEG    CODE           ?PR?OLED_CLRPIXEL_SPI?SEEKFREE_OLED
   *DEL*:           0000C0H   BYTE   INSEG    CODE           ?PR?OLED_PRINT_CHINESE_SPI?SEEKFREE_OLED
   *DEL*:           00005FH   BYTE   INSEG    CODE           ?PR?OLED_FILL?SEEKFREE_OLED
   *DEL*:           0000CEH   BYTE   INSEG    CODE           ?PR?OLED_PRINTF_INT32?SEEKFREE_OLED
   *DEL*:           000027H   BYTE   INSEG    CODE           ?PR?OLED_UINT16?SEEKFREE_OLED
   *DEL*:           000048H   BYTE   INSEG    CODE           ?PR?OLED_PUTPIXEL_SPI?SEEKFREE_OLED
   *DEL*:           0000D2H   BYTE   INSEG    CODE           ?PR?OLED_P6X8STR?SEEKFREE_OLED
   *DEL*:           000073H   BYTE   INSEG    CODE           ?PR?OLED_INT16?SEEKFREE_OLED
   *DEL*:           0000A8H   BYTE   INSEG    CODE           ?PR?OLED_INIT?SEEKFREE_OLED
   *DEL*:           000145H   BYTE   INSEG    CODE           ?PR?OLED_PRINTF_FLOAT_SPI?SEEKFREE_OLED
   *DEL*:           000074H   BYTE   INSEG    CODE           ?PR?OLED_HEXASCII?SEEKFREE_OLED
   *DEL*:           000027H   BYTE   INSEG    CODE           ?PR?OLED_UINT16_SPI?SEEKFREE_OLED
   *DEL*:           000073H   BYTE   INSEG    CODE           ?PR?OLED_INT16_SPI?SEEKFREE_OLED
   *DEL*:           000481H   BYTE   INSEG    CODE           ?PR?OLED_DIS_BMP?SEEKFREE_OLED
   *DEL*:           000123H   BYTE   INSEG    CODE           ?PR?OLED_P8X16STR?SEEKFREE_OLED
   *DEL*:           000040H   BYTE   INSEG    CODE           ?PR?OLED_CLRPIXEL?SEEKFREE_OLED
   *DEL*:           0000C0H   BYTE   INSEG    CODE           ?PR?OLED_PRINT_CHINESE?SEEKFREE_OLED
   *DEL*:           000042H   BYTE   INSEG    CODE           ?PR?WIRELESS_UART_READ_BUFF?SEEKFREE_WIRELESS
   *DEL*:           000075H   BYTE   INSEG    CODE           ?PR?WIRELESS_UART_SEND_BUFF?SEEKFREE_WIRELESS
   *DEL*:           000022H   BYTE   INSEG    CODE           ?PR?WIRELESS_UART_CALLBACK?SEEKFREE_WIRELESS
   *DEL*:           00004CH   BYTE   INSEG    CODE           ?PR?WIRELESS_UART_INIT?SEEKFREE_WIRELESS
   *DEL*:           000042H   BYTE   INSEG    CODE           ?PR?WIRELESS_CH573_READ_BUFF?SEEKFREE_WIRELESS_CH573
   *DEL*:           00007DH   BYTE   INSEG    CODE           ?PR?WIRELESS_CH573_SEND_BUFF?SEEKFREE_WIRELESS_CH573
   *DEL*:           000022H   BYTE   INSEG    CODE           ?PR?WIRELESS_CH573_CALLBACK?SEEKFREE_WIRELESS_CH573
   *DEL*:           00004CH   BYTE   INSEG    CODE           ?PR?WIRELESS_CH573_INIT?SEEKFREE_WIRELESS_CH573
   *DEL*:           00004DH   BYTE   INSEG    CODE           ?PR?UART_SENDBYTE?UART
   *DEL*:           000121H   BYTE   INSEG    CODE           ?PR?UART_RUNNING?UART
   *DEL*:           00003BH   BYTE   INSEG    CODE           ?PR?UART_INITIALIZE?UART
   *DEL*:           000007H   BYTE   INSEG    CODE           ?PR?UART_PORT_INIT?UART
   *DEL*:           000010H   BYTE   INSEG    CODE           ?PR?KEYS_UI_INIT?KEY
   *DEL*:           00000AH   BYTE   INSEG    CODE           ?PR?KEY5_SHORT_PRESS?KEY
   *DEL*:           000064H   BYTE   INSEG    CODE           ?PR?UI_RUNNING?UI
   *DEL*:           00003FH   BYTE   INSEG    CODE           ?PR?HOST_COMM_SEND_DATA?HOST_COMM
   *DEL*:           000023H   BYTE   INSEG    CODE           ?PR?LASER_RANGING?LASER_RANGING
   *DEL*:           00029AH   BYTE   INSEG    CODE           ?PR?LASER_RANGING_IRQHANDLER?LASER_RANGING
   *DEL*:           0000B0H   BYTE   INSEG    CODE           ?PR?LASER_RANGING_INIT?LASER_RANGING
   *DEL*:           0000EFH   BYTE   INSEG    CODE           ?PR?WHEEL_SPEED?MOTOR_DRIVER_BOARDS
   *DEL*:           000001H   BYTE   INSEG    CODE           ?PR?WHEEL_DYNAMIC_CALIBRATING?MOTOR_DRIVER_BOARDS
   *DEL*:           000057H   BYTE   INSEG    CODE           ?PR?SERVO_PAN_GET_DUTY?SERVO
   *DEL*:           0002FAH   BYTE   INSEG    CODE           ?PR?WT61_DATA_PARSE?WT61
   *DEL*:           00004DH   BYTE   INSEG    CODE           ?PR?WT61_INIT?WT61
   *DEL*:           000001H   BYTE   INSEG    CODE           ?PR?WT61_OLED_DISP?WT61
   *DEL*:           00002EH   BYTE   INSEG    CODE           ?PR?WT61_OLED_INIT?WT61
   *DEL*:           000014H   BYTE   INSEG    CODE           ?PR?ISSPACE?_?ISSPACE



OVERLAY MAP OF MODULE:   .\Out_File\SEEKFREE (board)


FUNCTION/MODULE                                BIT_GROUP   DATA_GROUP 
--> CALLED FUNCTION/MODULE                    START  STOP  START  STOP
======================================================================
uart1_isr/uart                                ----- -----  ----- -----
  +--> memset?_/memset
  +--> uart_checksum/uart
  +--> host_comm_irqhandler/host_comm
  +--> host_comm_send_checksum_err/host_comm

memset?_/memset                               ----- -----  ----- -----

uart_checksum/uart                            ----- -----  ----- -----

host_comm_irqhandler/host_comm                ----- -----  ----- -----
  +--> internal_char_to_int/host_comm
L251 LINKER/LOCATER V4.66.93.0                                                        05/04/2024  19:25:53  PAGE 9


  +--> servo_claw_set_angle/servo
  +--> servo_pitch_set_angle/servo
  +--> servo_pan_set_angle/servo
  +--> stepper_adjust/stepper

internal_char_to_int/host_comm                ----- -----  ----- -----

servo_claw_set_angle/servo                    ----- -----  ----- -----
  +--> servo_claw_get_duty/servo
  +--> pwm_duty/zf_pwm

servo_claw_get_duty/servo                     ----- -----  ----- -----

pwm_duty/zf_pwm                               ----- -----  ----- -----

servo_pitch_set_angle/servo                   ----- -----  ----- -----
  +--> servo_pitch_get_duty/servo
  +--> pwm_duty/zf_pwm

servo_pitch_get_duty/servo                    ----- -----  ----- -----

servo_pan_set_angle/servo                     ----- -----  ----- -----
  +--> servo_pitch_get_duty/servo
  +--> pwm_duty/zf_pwm

stepper_adjust/stepper                        ----- -----  ----- -----
  +--> abs?_/ABS

abs?_/ABS                                     ----- -----  ----- -----

host_comm_send_checksum_err/host_comm         ----- -----  ----- -----

*** NEW ROOT ********************************

uart2_isr/uart                                ----- -----  ----- -----

*** NEW ROOT ********************************

uart3_isr/uart                                ----- -----  ----- -----

*** NEW ROOT ********************************

uart4_isr/uart                                ----- -----  ----- -----

*** NEW ROOT ********************************

?C_C51STARTUP?1                               ----- -----  ----- -----

*** NEW ROOT ********************************

Timer0_Isr/stepper                            ----- -----  ----- -----

*** NEW ROOT ********************************

?C_C51STARTUP                                 ----- -----  ----- -----

*** NEW ROOT ********************************

?C_C51STARTUP?3                               ----- -----  ----- -----
  +--> main/main

main/main                                     ----- -----  ----- -----
  +--> board_init/board
  +--> motor_drivers_pwm_init/main
  +--> gpio_init/main
L251 LINKER/LOCATER V4.66.93.0                                                        05/04/2024  19:25:53  PAGE 10


  +--> oled_init_spi/SEEKFREE_OLED
  +--> wheel_oled_init/motor_driver_boards
  +--> ui_init/ui
  +--> delay_ms/zf_delay
  +--> host_comm_uart_init/host_comm
  +--> servo_init/servo
  +--> stepper_init/stepper
  +--> stepper_oled_init/stepper
  +--> key1_check/key
  +--> key2_check/key
  +--> key3_check/key
  +--> key4_check/key
  +--> key5_check/key
  +--> stepper_oled_update/stepper
  +--> host_comm_sender/host_comm
  +--> wheel_dynamic_adjusting/motor_driver_boards
  +--> uart_tx_send_buffer/uart
  +--> wheel_oled_update/motor_driver_boards

board_init/board                              ----- -----  ----- -----
  +--> set_clk/board
  +--> delay_init/zf_delay
  +--> uart_init/zf_uart
  +--> EnableGlobalIRQ/board

set_clk/board                                 ----- -----  ----- -----

delay_init/zf_delay                           ----- -----  ----- -----
  +--> ?C?SLDIV/?C?SLDIV

?C?SLDIV/?C?SLDIV                             ----- -----  ----- -----
  +--> ?C?ULIDIV/?C?ULDIV

?C?ULIDIV/?C?ULDIV                            ----- -----  ----- -----

uart_init/zf_uart                             ----- -----  ----- -----
  +--> ?C?ULIDIV/?C?ULDIV

EnableGlobalIRQ/board                         ----- -----  ----- -----

motor_drivers_pwm_init/main                   ----- -----  ----- -----
  +--> pwm_init/zf_pwm
  +--> wheel_adjust/motor_driver_boards

pwm_init/zf_pwm                               ----- -----  ----- -----
  +--> pwm_set_gpio/zf_pwm
  +--> ?C?ULIDIV/?C?ULDIV

pwm_set_gpio/zf_pwm                           ----- -----  ----- -----
  +--> gpio_mode/zf_gpio

gpio_mode/zf_gpio                             ----- -----  ----- -----

wheel_adjust/motor_driver_boards              ----- -----  ----- -----
  +--> wheel_direction/motor_driver_boards
  +--> pwm_duty/zf_pwm

wheel_direction/motor_driver_boards           ----- -----  ----- -----

gpio_init/main                                ----- -----  ----- -----

oled_init_spi/SEEKFREE_OLED                   ----- -----  ----- -----
  +--> spi_init/zf_spi
  +--> delay_ms/zf_delay
  +--> oled_wrcmd_spi/SEEKFREE_OLED
L251 LINKER/LOCATER V4.66.93.0                                                        05/04/2024  19:25:53  PAGE 11


  +--> oled_fill_spi/SEEKFREE_OLED
  +--> oled_set_pos_spi/SEEKFREE_OLED

spi_init/zf_spi                               ----- -----  ----- -----
  +--> gpio_mode/zf_gpio

delay_ms/zf_delay                             ----- -----  ----- -----

oled_wrcmd_spi/SEEKFREE_OLED                  ----- -----  ----- -----
  +--> spi_mosi/zf_spi

spi_mosi/zf_spi                               ----- -----  ----- -----

oled_fill_spi/SEEKFREE_OLED                   ----- -----  ----- -----
  +--> oled_wrcmd_spi/SEEKFREE_OLED
  +--> oled_wrdat_spi/SEEKFREE_OLED

oled_wrdat_spi/SEEKFREE_OLED                  ----- -----  ----- -----
  +--> spi_mosi/zf_spi

oled_set_pos_spi/SEEKFREE_OLED                ----- -----  ----- -----
  +--> oled_wrcmd_spi/SEEKFREE_OLED

wheel_oled_init/motor_driver_boards           ----- -----  ----- -----
  +--> oled_p6x8str_spi/SEEKFREE_OLED

oled_p6x8str_spi/SEEKFREE_OLED                ----- -----  ----- -----
  +--> oled_set_pos_spi/SEEKFREE_OLED
  +--> oled_wrdat_spi/SEEKFREE_OLED

ui_init/ui                                    ----- -----  ----- -----
  +--> oled_p6x8str_spi/SEEKFREE_OLED
  +--> ui_keys_init/ui

ui_keys_init/ui                               ----- -----  ----- -----
  +--> oled_p6x8str_spi/SEEKFREE_OLED

host_comm_uart_init/host_comm                 ----- -----  ----- -----
  +--> uart_sendstring/uart

uart_sendstring/uart                          ----- -----  ----- -----

servo_init/servo                              ----- -----  ----- -----
  +--> pwm_init/zf_pwm

stepper_init/stepper                          ----- -----  ----- -----
  +--> Timer0_Init/stepper

Timer0_Init/stepper                           ----- -----  ----- -----

stepper_oled_init/stepper                     ----- -----  ----- -----
  +--> oled_p6x8str_spi/SEEKFREE_OLED

key1_check/key                                ----- -----  ----- -----
  +--> oled_p6x8str_spi/SEEKFREE_OLED
  +--> key1_short_press/key

key1_short_press/key                          ----- -----  ----- -----
  +--> stepper_adjust/stepper

key2_check/key                                ----- -----  ----- -----
  +--> oled_p6x8str_spi/SEEKFREE_OLED
  +--> key2_short_press/key

key2_short_press/key                          ----- -----  ----- -----
L251 LINKER/LOCATER V4.66.93.0                                                        05/04/2024  19:25:53  PAGE 12


  +--> stepper_adjust/stepper

key3_check/key                                ----- -----  ----- -----
  +--> oled_p6x8str_spi/SEEKFREE_OLED
  +--> key3_short_press/key

key3_short_press/key                          ----- -----  ----- -----
  +--> delay_us/zf_delay

delay_us/zf_delay                             ----- -----  ----- -----

key4_check/key                                ----- -----  ----- -----
  +--> oled_p6x8str_spi/SEEKFREE_OLED
  +--> key4_short_press/key

key4_short_press/key                          ----- -----  ----- -----

key5_check/key                                ----- -----  ----- -----
  +--> oled_p6x8str_spi/SEEKFREE_OLED

stepper_oled_update/stepper                   ----- -----  ----- -----
  +--> oled_printf_int32_spi/SEEKFREE_OLED

oled_printf_int32_spi/SEEKFREE_OLED           ----- -----  ----- -----
  +--> zf_sprintf/SEEKFREE_PRINTF
  +--> oled_p6x8str_spi/SEEKFREE_OLED

zf_sprintf/SEEKFREE_PRINTF                    ----- -----  ----- -----
  +--> number_conversion_ascii/SEEKFREE_PRINTF
  +--> printf_reverse_order/SEEKFREE_PRINTF
  +--> memcpy?_/memcpy

number_conversion_ascii/SEEKFREE_PRINTF       ----- -----  ----- -----
  +--> ?C?SLDIV/?C?SLDIV
  +--> ?C?ULIDIV/?C?ULDIV

printf_reverse_order/SEEKFREE_PRINTF          ----- -----  ----- -----

memcpy?_/memcpy                               ----- -----  ----- -----

host_comm_sender/host_comm                    ----- -----  ----- -----
  +--> uart_sendstring/uart

wheel_dynamic_adjusting/motor_driver_boa+     ----- -----  ----- -----
... rds
  +--> wheel_adjust/motor_driver_boards

uart_tx_send_buffer/uart                      ----- -----  ----- -----
  +--> uart_sendstring/uart

wheel_oled_update/motor_driver_boards         ----- -----  ----- -----
  +--> oled_printf_int32_spi/SEEKFREE_OLED

*** NEW ROOT ********************************

?C_C51STARTUP?2                               ----- -----  ----- -----



PUBLIC SYMBOLS OF MODULE:  .\Out_File\SEEKFREE (board)


      VALUE       CLASS    TYPE      PUBLIC SYMBOL NAME
      =================================================
      00FF206EH   CODE     NEAR LAB  ?C?CASTF
L251 LINKER/LOCATER V4.66.93.0                                                        05/04/2024  19:25:53  PAGE 13


      000000FFH   NUMBER   ---       ?C?CODESEG
      00FF203BH   CODE     NEAR LAB  ?C?FCASTC
      00FF2036H   CODE     NEAR LAB  ?C?FCASTI
      00FF2031H   CODE     NEAR LAB  ?C?FCASTL
      00FF1E12H   CODE     ---       ?C?FPADD
      00FF211BH   CODE     NEAR LAB  ?C?FPATOF
      00FF1FEDH   CODE     ---       ?C?FPCMP
      00FF1FEBH   CODE     ---       ?C?FPCMP3
      00FF1F6AH   CODE     ---       ?C?FPDIV
      00FF20CAH   CODE     ---       ?C?FPGETOPN2
      00FF1ECAH   CODE     ---       ?C?FPMUL
      00FF2107H   CODE     ---       ?C?FPNANRESULT
      00FF21D7H   CODE     ---       ?C?FPNEG
      00FF210FH   CODE     ---       ?C?FPOVERFLOW
      00FF20E3H   CODE     ---       ?C?FPRESULT
      00FF20F9H   CODE     ---       ?C?FPRESULT2
      00FF1E0FH   CODE     ---       ?C?FPSUB
      00FF210CH   CODE     ---       ?C?FPUNDERFLOW
      00FF2215H   CODE     ---       ?C?FTNPWR
      00FF47B8H   CODE     ---       ?C?INITEDATA
      00FF4F44H   HCONST   WORD      ?C?INITEDATA_END
      00FF224CH   CODE     ---       ?C?LIMUL
      00FF22A8H   CODE     NEAR LAB  ?C?SLDIV
      00FF0000H   CODE     ---       ?C?STARTUP
      00FF2257H   CODE     NEAR LAB  ?C?ULDIV
      00FF2255H   CODE     NEAR LAB  ?C?ULIDIV
      00000001H   NUMBER   ---       ?C?XDATASEG
      00FF0000H   CODE     ---       ?C_STARTUP
      00000517H   EDATA    BYTE      ?fifo_init?BYTE
      00000008H   EDATA    BYTE      ?fifo_read_buffer?BYTE
      000005A9H   EDATA    BYTE      ?fifo_read_element?BYTE
      0000049AH   EDATA    BYTE      ?fifo_read_tail_buffer?BYTE
      00000505H   EDATA    BYTE      ?fifo_write_buffer?BYTE
      000005EDH   EDATA    BYTE      ?iap_read_bytes?BYTE
      000005F7H   EDATA    BYTE      ?iap_write_bytes?BYTE
      000006B0H   EDATA    BYTE      ?iic_init?BYTE
      000004F1H   EDATA    BYTE      ?number_conversion_ascii?BYTE
      000003E2H   EDATA    BYTE      ?oled_printf_float?BYTE
      00000412H   EDATA    BYTE      ?oled_printf_float_spi?BYTE
      000004DDH   EDATA    BYTE      ?pwm_freq?BYTE
      000004C9H   EDATA    BYTE      ?pwm_init?BYTE
      0000058FH   EDATA    BYTE      ?spi_init?BYTE
      00000565H   EDATA    BYTE      ?uart_init?BYTE
      00000601H   EDATA    BYTE      ?uart_putbuff?BYTE
      00000353H   EDATA    BYTE      ?zf_sprintf?BYTE
      00FF4D20H   CODE     ---       abs?_
      0000038AH   EDATA    FLOAT     acc_x
      00000391H   EDATA    FLOAT     acc_y
      00000395H   EDATA    FLOAT     acc_z
*SFR* 000000BCH   DATA     BYTE      ADC_CONTR
*DEL*:00000000H   CODE     ---       adc_init
*DEL*:00000000H   CODE     ---       adc_once
*SFR* 000000BDH   DATA     BYTE      ADC_RES
*SFR* 000000BEH   DATA     BYTE      ADC_RESL
*SFR* 000000DEH   DATA     BYTE      ADCCFG
      00FF20ABH   CODE     NEAR LAB  atof?_
*SFR* 000000EFH   DATA     BYTE      AUXINTIF
*SFR* 0000008EH   DATA     BYTE      AUXR
*SFR* 00000097H   DATA     BYTE      AUXR2
*DEL*:00000000H   CODE     ---       bluetooth_ch9141_init
*DEL*:00000000H   CODE     ---       bluetooth_ch9141_read_buff
*DEL*:00000000H   CODE     ---       bluetooth_ch9141_send_buff
*DEL*:00000000H   CODE     ---       bluetooth_ch9141_uart_callback
      00FF408EH   CODE     ---       board_init
      00000708H   EDATA    ---       busy
L251 LINKER/LOCATER V4.66.93.0                                                        05/04/2024  19:25:53  PAGE 14


*SFR* 000000F1H   DATA     BYTE      CANICR
*SFR* 000000EAH   DATA     BYTE      CKCON
*SFR* 000000E6H   DATA     BYTE      CMPCR1
*SFR* 000000E7H   DATA     BYTE      CMPCR2
*DEL*:00000000H   CODE     ---       ctimer_count_clean
*DEL*:00000000H   CODE     ---       ctimer_count_init
*DEL*:00000000H   CODE     ---       ctimer_count_read
      00FF0046H   CODE     ---       delay_init
      00FF4A80H   CODE     ---       delay_ms
      00FF4B1FH   CODE     ---       delay_us
*DEL*:00000000H   CODE     ---       DisableGlobalIRQ
*SFR* 000000A8H.7 DATA     BIT       EA
*SFR* 000000BAH.7 DATA     BIT       EAXFR
*DEL*:00000000H   CODE     ---       eeprom_trig
      00FF0087H   CODE     ---       EnableGlobalIRQ
*SFR* 000000A8H.4 DATA     BIT       ES
*SFR* 000000A8H.1 DATA     BIT       ET0
*SFR* 000000A8H.3 DATA     BIT       ET1
*SFR* 000000A8H.0 DATA     BIT       EX0
*SFR* 000000A8H.2 DATA     BIT       EX1
*DEL*:00000000H   CODE     ---       exit_init
*SFR* 000000D0H.5 DATA     BIT       F0
*DEL*:00000000H   CODE     ---       fifo_clear
*DEL*:00000000H   CODE     ---       fifo_init
*DEL*:00000000H   CODE     ---       fifo_read_buffer
*DEL*:00000000H   CODE     ---       fifo_read_element
*DEL*:00000000H   CODE     ---       fifo_read_tail_buffer
*DEL*:00000000H   CODE     ---       fifo_used
*DEL*:00000000H   CODE     ---       fifo_write_buffer
*DEL*:00000000H   CODE     ---       fifo_write_element
      00FF4C88H   CODE     ---       gpio_init
      00FF0E9EH   CODE     ---       gpio_mode
*DEL*:00000000H   CODE     ---       gpio_pull_set
*SFR* 000000E8H.2 DATA     BIT       gpio_wheel_x_front_backward
*SFR* 000000E8H.1 DATA     BIT       gpio_wheel_x_front_forward
*SFR* 000000E8H.4 DATA     BIT       gpio_wheel_x_rear_backward
*SFR* 000000E8H.5 DATA     BIT       gpio_wheel_x_rear_forward
*SFR* 00000090H.1 DATA     BIT       gpio_wheel_y_front_backward
*SFR* 00000090H.0 DATA     BIT       gpio_wheel_y_front_forward
*SFR* 00000090H.5 DATA     BIT       gpio_wheel_y_rear_backward
*SFR* 00000090H.6 DATA     BIT       gpio_wheel_y_rear_forward
      000003A6H   EDATA    FLOAT     gyro_x
      000003AAH   EDATA    FLOAT     gyro_y
      000003AEH   EDATA    FLOAT     gyro_z
      00FF2A6EH   CODE     ---       host_comm_irqhandler
      00FF008EH   CODE     ---       host_comm_send_checksum_err
*DEL*:00000000H   CODE     ---       host_comm_send_data
      00FF41BAH   CODE     ---       host_comm_sender
      00000547H   EDATA    ---       host_comm_tx_buffer
      00FF4B52H   CODE     ---       host_comm_uart_init
*SFR* 000000F6H   DATA     BYTE      IAP_ADDRE
*SFR* 000000C3H   DATA     BYTE      IAP_ADDRH
*SFR* 000000C4H   DATA     BYTE      IAP_ADDRL
*SFR* 000000C5H   DATA     BYTE      IAP_CMD
*SFR* 000000C7H   DATA     BYTE      IAP_CONTR
*SFR* 000000C2H   DATA     BYTE      IAP_DATA
*DEL*:00000000H   CODE     ---       iap_erase_page
*DEL*:00000000H   CODE     ---       iap_get_cmd_state
*DEL*:00000000H   CODE     ---       iap_idle
*DEL*:00000000H   CODE     ---       iap_init
*DEL*:00000000H   CODE     ---       iap_read_bytes
*DEL*:00000000H   CODE     ---       iap_set_tps
*SFR* 000000F5H   DATA     BYTE      IAP_TPS
*SFR* 000000C6H   DATA     BYTE      IAP_TRIG
*DEL*:00000000H   CODE     ---       iap_write_bytes
L251 LINKER/LOCATER V4.66.93.0                                                        05/04/2024  19:25:53  PAGE 15


*SFR* 000000A8H   DATA     BYTE      IE
*SFR* 000000AFH   DATA     BYTE      IE2
*DEL*:00000000H   CODE     ---       iic_change_pin
      00FF4AB5H   CODE     ---       iic_delay_us
*DEL*:00000000H   CODE     ---       iic_init
*DEL*:00000000H   CODE     ---       iic_read_reg
*DEL*:00000000H   CODE     ---       iic_read_reg_bytes
*DEL*:00000000H   CODE     ---       iic_write_reg
*SFR* 0000008FH   DATA     BYTE      INTCLKO
      00FF39B1H   CODE     ---       internal_char_to_int
*SFR* 000000B8H   DATA     BYTE      IP
*SFR* 000000B5H   DATA     BYTE      IP2
*SFR* 000000B6H   DATA     BYTE      IP2H
*SFR* 000000DFH   DATA     BYTE      IP3
*SFR* 000000EEH   DATA     BYTE      IP3H
*SFR* 000000B7H   DATA     BYTE      IPH
*SFR* 0000009DH   DATA     BYTE      IRCBAND
*SFR* 0000009FH   DATA     BYTE      IRTRIM
*DEL*:00000000H   CODE     ---       ISSPACE?_
*SFR* 00000088H.0 DATA     BIT       IT0
*SFR* 00000088H.2 DATA     BIT       IT1
*SFR* 000000C0H.1 DATA     BIT       key1
      00FF46F6H   CODE     ---       key1_check
      00FF4BF5H   CODE     ---       key1_short_press
      00000712H   EDATA    BYTE      key1_up_store
*SFR* 000000F8H.3 DATA     BIT       key2
      00FF45ABH   CODE     ---       key2_check
      00FF4CEFH   CODE     ---       key2_short_press
      00000713H   EDATA    BYTE      key2_up_store
*SFR* 000000C0H.3 DATA     BIT       key3
      00FF45FEH   CODE     ---       key3_check
      00FF4C71H   CODE     ---       key3_short_press
      00000714H   EDATA    BYTE      key3_up_store
*SFR* 000000C0H.2 DATA     BIT       key4
      00FF4651H   CODE     ---       key4_check
      00FF4D30H   CODE     ---       key4_short_press
      00000715H   EDATA    BYTE      key4_up_store
*SFR* 000000C0H.4 DATA     BIT       key5
      00FF4747H   CODE     ---       key5_check
*DEL*:00000000H   CODE     ---       key5_short_press
      00000716H   EDATA    BYTE      key5_up_store
*DEL*:00000000H   CODE     ---       keys_ui_init
*DEL*:00000000H   CODE     ---       laser_ranging
      000002E1H   EDATA    ---       laser_ranging_cmd_arr_continous
      000002D2H   EDATA    ---       laser_ranging_cmd_arr_laseroff
      00000326H   EDATA    ---       laser_ranging_cmd_arr_laseron
      0000029DH   EDATA    ---       laser_ranging_cmd_arr_readcache
      000002B9H   EDATA    ---       laser_ranging_cmd_arr_setfreq_10hz
      000002BEH   EDATA    ---       laser_ranging_cmd_arr_setfreq_20hz
      000002F4H   EDATA    ---       laser_ranging_cmd_arr_setfreq_5hz
      00000284H   EDATA    ---       laser_ranging_cmd_arr_setrange_10m
      00000289H   EDATA    ---       laser_ranging_cmd_arr_setrange_30m
      0000028EH   EDATA    ---       laser_ranging_cmd_arr_setrange_50m
      000002DCH   EDATA    ---       laser_ranging_cmd_arr_setrange_5m
      00000298H   EDATA    ---       laser_ranging_cmd_arr_setrange_80m
      000002C3H   EDATA    ---       laser_ranging_cmd_arr_setresolution_0_1mm
      000002A6H   EDATA    ---       laser_ranging_cmd_arr_setresolution_1mm
      00000263H   EDATA    ---       laser_ranging_cmd_arr_shutdown
      00000271H   EDATA    ---       laser_ranging_cmd_arr_single
      000002B5H   EDATA    ---       laser_ranging_cmd_arr_single_broadcast
      00FF4C9EH   CODE     ---       laser_ranging_get_uart_value
*DEL*:00000000H   CODE     ---       laser_ranging_init
*DEL*:00000000H   CODE     ---       laser_ranging_irqhandler
*SFR* 000000C0H.5 DATA     BIT       led_1
*SFR* 000000F8H.7 DATA     BIT       led_2
L251 LINKER/LOCATER V4.66.93.0                                                        05/04/2024  19:25:53  PAGE 16


*SFR* 000000F8H.6 DATA     BIT       led_3
*SFR* 000000F8H.5 DATA     BIT       led_4
*SFR* 000000F9H   DATA     BYTE      LINICR
      000002D7H   EDATA    ---       lrcmd_continous
      000002C8H   EDATA    ---       lrcmd_laseroff
      000002EAH   EDATA    ---       lrcmd_laseron
      0000027AH   EDATA    ---       lrcmd_readcache
      000002A1H   EDATA    ---       lrcmd_setfreq_10hz
      000002ABH   EDATA    ---       lrcmd_setfreq_20hz
      000002E5H   EDATA    ---       lrcmd_setfreq_5hz
      0000025EH   EDATA    ---       lrcmd_setrange_10m
      00000267H   EDATA    ---       lrcmd_setrange_30m
      0000026CH   EDATA    ---       lrcmd_setrange_50m
      000002CDH   EDATA    ---       lrcmd_setrange_5m
      00000275H   EDATA    ---       lrcmd_setrange_80m
      000002B0H   EDATA    ---       lrcmd_setresolution_0_1mm
      0000027FH   EDATA    ---       lrcmd_setresolution_1mm
      000002EFH   EDATA    ---       lrcmd_shutdown
      00000321H   EDATA    ---       lrcmd_single
      00000293H   EDATA    ---       lrcmd_single_broadcast
      000002F9H   EDATA    ---       lrdata
      00FF46A4H   CODE     ---       main
      00FF4BD0H   CODE     ---       memcpy?_
      00FF0026H   CODE     ---       memset?_
      00FF4451H   CODE     ---       motor_drivers_pwm_init
      00FF389AH   CODE     ---       number_conversion_ascii
*DEL*:00000000H   CODE     ---       NVIC_SetPriority
      00FF0C76H   CODE     ---       oled_6x8
      00FF0096H   CODE     ---       oled_8x16
*DEL*:00000000H   CODE     ---       oled_clrpixel
*DEL*:00000000H   CODE     ---       oled_clrpixel_spi
*DEL*:00000000H   CODE     ---       oled_dis_bmp
*DEL*:00000000H   CODE     ---       oled_dis_bmp_spi
*DEL*:00000000H   CODE     ---       oled_fill
      00FF439BH   CODE     ---       oled_fill_spi
*DEL*:00000000H   CODE     ---       oled_hexascii
*DEL*:00000000H   CODE     ---       oled_hexascii_spi
*DEL*:00000000H   CODE     ---       oled_init
      00FF3F0AH   CODE     ---       oled_init_spi
*DEL*:00000000H   CODE     ---       oled_int16
*DEL*:00000000H   CODE     ---       oled_int16_spi
*DEL*:00000000H   CODE     ---       oled_p6x8str
      00FF3BCEH   CODE     ---       oled_p6x8str_spi
*DEL*:00000000H   CODE     ---       oled_p8x16str
*DEL*:00000000H   CODE     ---       oled_p8x16str_spi
*DEL*:00000000H   CODE     ---       oled_print_chinese
*DEL*:00000000H   CODE     ---       oled_print_chinese_spi
*DEL*:00000000H   CODE     ---       oled_printf_float
*DEL*:00000000H   CODE     ---       oled_printf_float_spi
*DEL*:00000000H   CODE     ---       oled_printf_int32
      00FF3D6EH   CODE     ---       oled_printf_int32_spi
*DEL*:00000000H   CODE     ---       oled_putpixel
*DEL*:00000000H   CODE     ---       oled_putpixel_spi
      00FF4AEAH   CODE     ---       oled_set_pos
      00FF4A4AH   CODE     ---       oled_set_pos_spi
*DEL*:00000000H   CODE     ---       oled_uint16
*DEL*:00000000H   CODE     ---       oled_uint16_spi
      00FF47E4H   CODE     ---       oled_wrcmd
      00FF000EH   CODE     ---       oled_wrcmd_spi
      00FF482FH   CODE     ---       oled_wrdat
      00FF4CB4H   CODE     ---       oled_wrdat_spi
*SFR* 00000080H   DATA     BYTE      P0
*SFR* 00000080H.7 DATA     BIT       P07
*SFR* 00000094H   DATA     BYTE      P0M0
*SFR* 00000093H   DATA     BYTE      P0M1
L251 LINKER/LOCATER V4.66.93.0                                                        05/04/2024  19:25:53  PAGE 17


*SFR* 00000090H   DATA     BYTE      P1
*SFR* 00000092H   DATA     BYTE      P1M0
*SFR* 00000091H   DATA     BYTE      P1M1
*SFR* 000000A0H   DATA     BYTE      P2
*SFR* 000000A0H.0 DATA     BIT       P20
*SFR* 000000A0H.1 DATA     BIT       P21
*SFR* 000000A0H.2 DATA     BIT       P22
*SFR* 000000A0H.3 DATA     BIT       P23
*SFR* 000000A0H.5 DATA     BIT       P25
*SFR* 00000096H   DATA     BYTE      P2M0
*SFR* 00000095H   DATA     BYTE      P2M1
*SFR* 000000B0H   DATA     BYTE      P3
*SFR* 000000B2H   DATA     BYTE      P3M0
*SFR* 000000B1H   DATA     BYTE      P3M1
*SFR* 000000C0H   DATA     BYTE      P4
*SFR* 000000B4H   DATA     BYTE      P4M0
*SFR* 000000B3H   DATA     BYTE      P4M1
*SFR* 000000C8H   DATA     BYTE      P5
*SFR* 000000CAH   DATA     BYTE      P5M0
*SFR* 000000C9H   DATA     BYTE      P5M1
*SFR* 000000E8H   DATA     BYTE      P6
*SFR* 000000CCH   DATA     BYTE      P6M0
*SFR* 000000CBH   DATA     BYTE      P6M1
*SFR* 000000F8H   DATA     BYTE      P7
*SFR* 000000E2H   DATA     BYTE      P7M0
*SFR* 000000E1H   DATA     BYTE      P7M1
*SFR* 000000A2H   DATA     BYTE      P_SW1
*SFR* 000000BAH   DATA     BYTE      P_SW2
*SFR* 000000BBH   DATA     BYTE      P_SW3
*SFR* 00000087H   DATA     BYTE      PCON
*DEL*:00000000H   CODE     ---       pit_timer_ms
      00FF4125H   CODE     ---       printf_reverse_order
*SFR* 000000D0H   DATA     BYTE      PSW
*DEL*:00000000H   CODE     ---       putchar
      00FF4F66H   HCONST   ---       PWM_ARR_ADDR
      00FF4F6EH   HCONST   ---       PWM_CCER_ADDR
      00FF4F7EH   HCONST   ---       PWM_CCMR_ADDR
      00FF4F46H   HCONST   ---       PWM_CCR_ADDR
      00FF3782H   CODE     ---       pwm_duty
*DEL*:00000000H   CODE     ---       pwm_freq
      00FF22DCH   CODE     ---       pwm_init
      00FF26B6H   CODE     ---       pwm_set_gpio
*DEL*:00000000H   CODE     ---       recv_ack
*DEL*:00000000H   CODE     ---       recv_data
*SFR* 00000098H.0 DATA     BIT       RI
*SFR* 000000FFH   DATA     BYTE      RSTCFG
*SFR* 0000009BH   DATA     BYTE      S2BUF
*SFR* 0000009AH   DATA     BYTE      S2CON
*SFR* 000000ADH   DATA     BYTE      S3BUF
*SFR* 000000ACH   DATA     BYTE      S3CON
*SFR* 000000FEH   DATA     BYTE      S4BUF
*SFR* 000000FDH   DATA     BYTE      S4CON
*SFR* 00000099H   DATA     BYTE      SBUF
*SFR* 00000098H   DATA     BYTE      SCON
*DEL*:00000000H   CODE     ---       send_ack
*DEL*:00000000H   CODE     ---       send_data
*DEL*:00000000H   CODE     ---       send_nak
      00000022H.4 BIT      BIT       senderr
      00000022H.0 BIT      BIT       sendok
      00000022H.2 BIT      BIT       sendwheelok
      00000022H.3 BIT      BIT       sendwheelwarnexceed
      00000022H.1 BIT      BIT       sendwrongcmd
      00FF44A8H   CODE     ---       servo_claw_get_duty
      00FF4C27H   CODE     ---       servo_claw_set_angle
      00FF4A10H   CODE     ---       servo_init
L251 LINKER/LOCATER V4.66.93.0                                                        05/04/2024  19:25:53  PAGE 18


*DEL*:00000000H   CODE     ---       servo_pan_get_duty
      00FF4C40H   CODE     ---       servo_pan_set_angle
      00FF44FFH   CODE     ---       servo_pitch_get_duty
      00FF4C0EH   CODE     ---       servo_pitch_set_angle
      00FF3305H   CODE     ---       set_clk
*SFR* 000000CEH   DATA     BYTE      SPCTL
*SFR* 000000CFH   DATA     BYTE      SPDAT
*DEL*:00000000H   CODE     ---       spi_change_mode
*DEL*:00000000H   CODE     ---       spi_change_pin
      00FF3CA0H   CODE     ---       spi_init
      00FF4CDDH   CODE     ---       spi_mosi
*SFR* 000000CDH   DATA     BYTE      SPSTAT
*DEL*:00000000H   CODE     ---       start
      00FF49D4H   CODE     ---       stepper_adjust
*SFR* 00000080H.3 DATA     BIT       stepper_dir
*SFR* 00000080H.5 DATA     BIT       stepper_en
      00FF0003H   CODE     ---       stepper_init
      00FF4D10H   CODE     ---       stepper_oled_init
      00FF4CC9H   CODE     ---       stepper_oled_update
      00000627H   EDATA    BYTE      stepper_pulses_counter
      00000621H   EDATA    WORD      stepper_pulses_remaining
      00000625H   EDATA    WORD      stepper_steps_remaining
      0000061FH   EDATA    WORD      stepper_steps_setted
*SFR* 00000080H.4 DATA     BIT       stepper_stp
*DEL*:00000000H   CODE     ---       stop
      0000071CH   EDATA    LONG      sys_clk
*SFR* 000000D6H   DATA     BYTE      T2H
*SFR* 000000D7H   DATA     BYTE      T2L
*SFR* 000000D4H   DATA     BYTE      T3H
*SFR* 000000D5H   DATA     BYTE      T3L
*SFR* 000000D2H   DATA     BYTE      T4H
*SFR* 000000D3H   DATA     BYTE      T4L
*SFR* 000000DDH   DATA     BYTE      T4T3M
*SFR* 00000088H   DATA     BYTE      TCON
      000003BCH   EDATA    FLOAT     temperature
*SFR* 00000088H.5 DATA     BIT       TF0
      00FF0686H   CODE     ---       tft_ascii
*SFR* 0000008CH   DATA     BYTE      TH0
*SFR* 0000008DH   DATA     BYTE      TH1
*SFR* 00000098H.1 DATA     BIT       TI
      00000623H   EDATA    WORD      timer0_counter
      00FF4C59H   CODE     ---       Timer0_Init
      00FF3E3CH   CODE     ---       Timer0_Isr
*SFR* 0000008AH   DATA     BYTE      TL0
*SFR* 0000008BH   DATA     BYTE      TL1
*SFR* 00000089H   DATA     BYTE      TMOD
*SFR* 00000088H.4 DATA     BIT       TR0
*SFR* 00000088H.6 DATA     BIT       TR1
      00000020H.4 BIT      BIT       uart1_cr
      00FF3669H   CODE     ---       uart1_isr
      00000020H.0 BIT      BIT       uart1_lf
      00000056H   EDATA    ---       uart1_rx_buffer
      00000256H   EDATA    BYTE      uart1_rx_counter
      00000021H.4 BIT      BIT       uart1_rx_rdy
      00000026H   EDATA    ---       uart1_tx_buffer_from_uart2
      00000023H   EDATA    BYTE      uart1_tx_buffer_from_uart2_index
      00000036H   EDATA    ---       uart1_tx_buffer_from_uart3
      00000024H   EDATA    BYTE      uart1_tx_buffer_from_uart3_index
      00000046H   EDATA    ---       uart1_tx_buffer_from_uart4
      00000025H   EDATA    BYTE      uart1_tx_buffer_from_uart4_index
      00000021H.0 BIT      BIT       uart1_tx_busy
      00000259H   EDATA    BYTE      uart1_tx_counter
      00000020H.5 BIT      BIT       uart2_cr
      00FF487AH   CODE     ---       uart2_isr
      00000020H.1 BIT      BIT       uart2_lf
L251 LINKER/LOCATER V4.66.93.0                                                        05/04/2024  19:25:53  PAGE 19


      000000D6H   EDATA    ---       uart2_rx_buffer
      00000257H   EDATA    BYTE      uart2_rx_counter
      00000021H.5 BIT      BIT       uart2_rx_rdy
      00000021H.1 BIT      BIT       uart2_tx_busy
      0000025BH   EDATA    BYTE      uart2_tx_counter
      00000020H.6 BIT      BIT       uart3_cr
      00FF48C3H   CODE     ---       uart3_isr
      00000020H.2 BIT      BIT       uart3_lf
      00000156H   EDATA    ---       uart3_rx_buffer
      00000258H   EDATA    BYTE      uart3_rx_counter
      00000021H.6 BIT      BIT       uart3_rx_rdy
      00000021H.2 BIT      BIT       uart3_tx_busy
      0000025CH   EDATA    BYTE      uart3_tx_counter
      00000020H.7 BIT      BIT       uart4_cr
      00FF490CH   CODE     ---       uart4_isr
      00000020H.3 BIT      BIT       uart4_lf
      000001D6H   EDATA    ---       uart4_rx_buffer
      0000025AH   EDATA    BYTE      uart4_rx_counter
      00000021H.7 BIT      BIT       uart4_rx_rdy
      00000021H.3 BIT      BIT       uart4_tx_busy
      0000025DH   EDATA    BYTE      uart4_tx_counter
      00FF4330H   CODE     ---       uart_checksum
      00FF2E0CH   CODE     ---       uart_init
*DEL*:00000000H   CODE     ---       uart_initialize
*DEL*:00000000H   CODE     ---       uart_port_init
*DEL*:00000000H   CODE     ---       uart_putbuff
      00FF424BH   CODE     ---       uart_putchar
*DEL*:00000000H   CODE     ---       uart_putstr
*DEL*:00000000H   CODE     ---       uart_running
*DEL*:00000000H   CODE     ---       uart_sendbyte
      00FF3AC7H   CODE     ---       uart_sendcmd
      00FF3FCFH   CODE     ---       uart_sendstring
      00FF4BA9H   CODE     ---       uart_tx_send_buffer
      00FF4955H   CODE     ---       ui_init
      00FF4D00H   CODE     ---       ui_keys_init
      00000796H   EDATA    BYTE      ui_loading_index
*DEL*:00000000H   CODE     ---       ui_running
*SFR* 000000F4H   DATA     BYTE      USBCON
*SFR* 000000A6H   DATA     BYTE      VRTRIM
      00FF43FAH   CODE     ---       wait
*SFR* 000000C1H   DATA     BYTE      WDT_CONTR
      00FF350BH   CODE     ---       wheel_adjust
      00FF30BEH   CODE     ---       wheel_direction
      00FF4B7EH   CODE     ---       wheel_dynamic_adjusting
*DEL*:00000000H   CODE     ---       wheel_dynamic_calibrating
      00FF4995H   CODE     ---       wheel_oled_init
      00FF4556H   CODE     ---       wheel_oled_update
*DEL*:00000000H   CODE     ---       wheel_speed
      000005B5H   EDATA    FLOAT     wheel_target_yaw
      000005BBH   EDATA    INT       wheel_x_front_speed
      000005B9H   EDATA    INT       wheel_x_rear_speed
      000005BFH   EDATA    INT       wheel_y_front_speed
      000005BDH   EDATA    INT       wheel_y_rear_speed
      00000022H.5 BIT      BIT       wheel_yaw_calibrating_flag
*DEL*:00000000H   CODE     ---       wireless_ch573_callback
*DEL*:00000000H   CODE     ---       wireless_ch573_init
*DEL*:00000000H   CODE     ---       wireless_ch573_read_buff
*DEL*:00000000H   CODE     ---       wireless_ch573_send_buff
      00000768H   EDATA    INT       wireless_type
*DEL*:00000000H   CODE     ---       wireless_uart_callback
*DEL*:00000000H   CODE     ---       wireless_uart_init
*DEL*:00000000H   CODE     ---       wireless_uart_read_buff
*DEL*:00000000H   CODE     ---       wireless_uart_send_buff
      0000038EH   EDATA    ---       wt61_cmd_calibrate_acc
      000003B9H   EDATA    ---       wt61_cmd_set_axis_z_zero
L251 LINKER/LOCATER V4.66.93.0                                                        05/04/2024  19:25:53  PAGE 20


      0000039DH   EDATA    ---       wt61_cmd_set_band_10Hz
      000003CFH   EDATA    ---       wt61_cmd_set_band_188Hz
      000003A0H   EDATA    ---       wt61_cmd_set_band_20Hz
      000003CCH   EDATA    ---       wt61_cmd_set_band_265Hz
      000003A3H   EDATA    ---       wt61_cmd_set_band_42Hz
      000003D8H   EDATA    ---       wt61_cmd_set_band_5Hz
      000003B2H   EDATA    ---       wt61_cmd_set_band_98Hz
      000003C9H   EDATA    ---       wt61_cmd_set_horizontal
      000003C0H   EDATA    ---       wt61_cmd_set_iic_mode
      000003C6H   EDATA    ---       wt61_cmd_set_uart_115200
      000003D5H   EDATA    ---       wt61_cmd_set_uart_9600
      000003C3H   EDATA    ---       wt61_cmd_set_uart_mode
      000003D2H   EDATA    ---       wt61_cmd_set_vertical
      000003DBH   EDATA    ---       wt61_cmd_switch_power
*DEL*:00000000H   CODE     ---       wt61_data_parse
*DEL*:00000000H   CODE     ---       wt61_init
*DEL*:00000000H   CODE     ---       wt61_oled_disp
      00000022H.6 BIT      BIT       wt61_oled_disp_flag
*DEL*:00000000H   CODE     ---       wt61_oled_init
*SFR* 000000E9H   DATA     BYTE      WTST
      00000399H   EDATA    FLOAT     x_roll
      000003DEH   EDATA    FLOAT     y_pitch
      000003B5H   EDATA    FLOAT     z_yaw
      00000724H   EDATA    WORD      zf_delay_ms
      00000726H   EDATA    WORD      zf_delay_us
      00FF17ABH   CODE     ---       zf_sprintf



SYMBOL TABLE OF MODULE:  .\Out_File\SEEKFREE (board)

      VALUE       REP       CLASS    TYPE      SYMBOL NAME
      ====================================================
      ---         MODULE    ---      ---       board
      00FF0087H   PUBLIC    CODE     ---       EnableGlobalIRQ
      00FF408EH   PUBLIC    CODE     ---       board_init
      00FF3305H   PUBLIC    CODE     ---       set_clk
      0000071CH   PUBLIC    EDATA    LONG      sys_clk
      00000094H   SFRSYM    DATA     BYTE      P0M0
      000000D0H   SFRSYM    DATA     BYTE      PSW
      000000BAH.7 SFRSYM    DATA     BIT       EAXFR
      0000009DH   SFRSYM    DATA     BYTE      IRCBAND
      00000097H   SFRSYM    DATA     BYTE      AUXR2
      000000EAH   SFRSYM    DATA     BYTE      CKCON
      000000EFH   SFRSYM    DATA     BYTE      AUXINTIF
      000000FDH   SFRSYM    DATA     BYTE      S4CON
      000000ACH   SFRSYM    DATA     BYTE      S3CON
      0000009AH   SFRSYM    DATA     BYTE      S2CON
      000000A6H   SFRSYM    DATA     BYTE      VRTRIM
      000000B7H   SFRSYM    DATA     BYTE      IPH
      000000CDH   SFRSYM    DATA     BYTE      SPSTAT
      000000DDH   SFRSYM    DATA     BYTE      T4T3M
      0000009FH   SFRSYM    DATA     BYTE      IRTRIM
      000000C1H   SFRSYM    DATA     BYTE      WDT_CONTR
      000000E9H   SFRSYM    DATA     BYTE      WTST
      000000DFH   SFRSYM    DATA     BYTE      IP3
      000000F4H   SFRSYM    DATA     BYTE      USBCON
      000000B5H   SFRSYM    DATA     BYTE      IP2
      000000FFH   SFRSYM    DATA     BYTE      RSTCFG
      000000F9H   SFRSYM    DATA     BYTE      LINICR
      0000008EH   SFRSYM    DATA     BYTE      AUXR
      000000AFH   SFRSYM    DATA     BYTE      IE2
      00000088H   SFRSYM    DATA     BYTE      TCON
      00000089H   SFRSYM    DATA     BYTE      TMOD
      00000098H   SFRSYM    DATA     BYTE      SCON
L251 LINKER/LOCATER V4.66.93.0                                                        05/04/2024  19:25:53  PAGE 21


      000000F1H   SFRSYM    DATA     BYTE      CANICR
      00000087H   SFRSYM    DATA     BYTE      PCON
      000000BCH   SFRSYM    DATA     BYTE      ADC_CONTR
      000000E7H   SFRSYM    DATA     BYTE      CMPCR2
      000000E6H   SFRSYM    DATA     BYTE      CMPCR1
      000000DEH   SFRSYM    DATA     BYTE      ADCCFG
      000000B8H   SFRSYM    DATA     BYTE      IP
      0000008FH   SFRSYM    DATA     BYTE      INTCLKO
      000000EEH   SFRSYM    DATA     BYTE      IP3H
      000000B6H   SFRSYM    DATA     BYTE      IP2H
      000000A8H   SFRSYM    DATA     BYTE      IE
      000000BBH   SFRSYM    DATA     BYTE      P_SW3
      000000BAH   SFRSYM    DATA     BYTE      P_SW2
      000000A2H   SFRSYM    DATA     BYTE      P_SW1
      000000CEH   SFRSYM    DATA     BYTE      SPCTL
      000000F8H   SFRSYM    DATA     BYTE      P7
      000000A8H.7 SFRSYM    DATA     BIT       EA
      000000E1H   SFRSYM    DATA     BYTE      P7M1
      000000E8H   SFRSYM    DATA     BYTE      P6
      000000C8H   SFRSYM    DATA     BYTE      P5
      000000CBH   SFRSYM    DATA     BYTE      P6M1
      000000E2H   SFRSYM    DATA     BYTE      P7M0
      000000C0H   SFRSYM    DATA     BYTE      P4
      000000C9H   SFRSYM    DATA     BYTE      P5M1
      000000CCH   SFRSYM    DATA     BYTE      P6M0
      000000B0H   SFRSYM    DATA     BYTE      P3
      000000B3H   SFRSYM    DATA     BYTE      P4M1
      000000CAH   SFRSYM    DATA     BYTE      P5M0
      000000A0H   SFRSYM    DATA     BYTE      P2
      000000B1H   SFRSYM    DATA     BYTE      P3M1
      000000B4H   SFRSYM    DATA     BYTE      P4M0
      00000090H   SFRSYM    DATA     BYTE      P1
      00000095H   SFRSYM    DATA     BYTE      P2M1
      000000B2H   SFRSYM    DATA     BYTE      P3M0
      00000080H   SFRSYM    DATA     BYTE      P0
      00000091H   SFRSYM    DATA     BYTE      P1M1
      00000096H   SFRSYM    DATA     BYTE      P2M0
      00000092H   SFRSYM    DATA     BYTE      P1M0
      00000093H   SFRSYM    DATA     BYTE      P0M1

      00FF3305H   BLOCK     CODE     ---       LVL=0
      00FF3305H   LINE      CODE     ---       #43
      00FF3305H   LINE      CODE     ---       #46
      00FF3308H   LINE      CODE     ---       #48
      00FF3318H   LINE      CODE     ---       #51
      00FF3325H   LINE      CODE     ---       #52
      00FF3332H   LINE      CODE     ---       #53
      00FF333FH   LINE      CODE     ---       #54
      00FF3343H   LINE      CODE     ---       #55
      00FF334FH   LINE      CODE     ---       #56
      00FF3352H   LINE      CODE     ---       #57
      00FF3362H   LINE      CODE     ---       #60
      00FF336FH   LINE      CODE     ---       #61
      00FF337CH   LINE      CODE     ---       #62
      00FF3389H   LINE      CODE     ---       #63
      00FF338DH   LINE      CODE     ---       #64
      00FF3399H   LINE      CODE     ---       #65
      00FF339CH   LINE      CODE     ---       #66
      00FF33ACH   LINE      CODE     ---       #69
      00FF33B9H   LINE      CODE     ---       #70
      00FF33C6H   LINE      CODE     ---       #71
      00FF33D3H   LINE      CODE     ---       #72
      00FF33D7H   LINE      CODE     ---       #73
      00FF33E3H   LINE      CODE     ---       #74
      00FF33E6H   LINE      CODE     ---       #75
L251 LINKER/LOCATER V4.66.93.0                                                        05/04/2024  19:25:53  PAGE 22


      00FF33F6H   LINE      CODE     ---       #79
      00FF3403H   LINE      CODE     ---       #80
      00FF3410H   LINE      CODE     ---       #81
      00FF341DH   LINE      CODE     ---       #82
      00FF3421H   LINE      CODE     ---       #83
      00FF342DH   LINE      CODE     ---       #84
      00FF3430H   LINE      CODE     ---       #85
      00FF3440H   LINE      CODE     ---       #88
      00FF344DH   LINE      CODE     ---       #89
      00FF345AH   LINE      CODE     ---       #90
      00FF3467H   LINE      CODE     ---       #91
      00FF346BH   LINE      CODE     ---       #92
      00FF3477H   LINE      CODE     ---       #93
      00FF347AH   LINE      CODE     ---       #94
      00FF348AH   LINE      CODE     ---       #97
      00FF3497H   LINE      CODE     ---       #98
      00FF34A4H   LINE      CODE     ---       #99
      00FF34B1H   LINE      CODE     ---       #100
      00FF34B5H   LINE      CODE     ---       #101
      00FF34C1H   LINE      CODE     ---       #102
      00FF34C3H   LINE      CODE     ---       #105
      00FF34CFH   LINE      CODE     ---       #107
      00FF34DCH   LINE      CODE     ---       #108
      00FF34E9H   LINE      CODE     ---       #109
      00FF34F6H   LINE      CODE     ---       #110
      00FF34FAH   LINE      CODE     ---       #111
      00FF3506H   LINE      CODE     ---       #112
      00FF3506H   LINE      CODE     ---       #114
      00FF350AH   LINE      CODE     ---       #115
      ---         BLOCKEND  ---      ---       LVL=0

      00FF408EH   BLOCK     CODE     ---       LVL=0
      00FF408EH   LINE      CODE     ---       #121
      00FF408EH   LINE      CODE     ---       #123
      00FF4092H   LINE      CODE     ---       #124
      00FF4095H   LINE      CODE     ---       #125
      00FF4098H   LINE      CODE     ---       #126
      00FF409BH   LINE      CODE     ---       #127
      00FF409FH   LINE      CODE     ---       #137
      00FF40A6H   LINE      CODE     ---       #143
      00FF40A9H   LINE      CODE     ---       #145
      00FF40ACH   LINE      CODE     ---       #146
      00FF40AFH   LINE      CODE     ---       #147
      00FF40BBH   LINE      CODE     ---       #149
      00FF40BEH   LINE      CODE     ---       #150
      00FF40C1H   LINE      CODE     ---       #151
      00FF40C4H   LINE      CODE     ---       #152
      00FF40C7H   LINE      CODE     ---       #153
      00FF40CAH   LINE      CODE     ---       #154
      00FF40CDH   LINE      CODE     ---       #155
      00FF40D0H   LINE      CODE     ---       #156
      00FF40D3H   LINE      CODE     ---       #157
      00FF40D6H   LINE      CODE     ---       #158
      00FF40D9H   LINE      CODE     ---       #159
      00FF40DCH   LINE      CODE     ---       #160
      00FF40DFH   LINE      CODE     ---       #161
      00FF40E2H   LINE      CODE     ---       #162
      00FF40E5H   LINE      CODE     ---       #163
      00FF40E8H   LINE      CODE     ---       #164
      00FF40EBH   LINE      CODE     ---       #166
      00FF40EEH   LINE      CODE     ---       #167
      00FF40F1H   LINE      CODE     ---       #168
      00FF40F4H   LINE      CODE     ---       #169
      00FF40F7H   LINE      CODE     ---       #170
      00FF40FAH   LINE      CODE     ---       #171
L251 LINKER/LOCATER V4.66.93.0                                                        05/04/2024  19:25:53  PAGE 23


      00FF40FDH   LINE      CODE     ---       #172
      00FF4100H   LINE      CODE     ---       #173
      00FF4103H   LINE      CODE     ---       #174
      00FF4106H   LINE      CODE     ---       #176
      00FF4121H   LINE      CODE     ---       #177
      00FF4124H   LINE      CODE     ---       #178
      ---         BLOCKEND  ---      ---       LVL=0
      00000788H   SYMBOL    EDATA    CHAR      c

      00FF0087H   BLOCK     CODE     ---       LVL=0
      00FF0087H   LINE      CODE     ---       #197
      00FF0087H   LINE      CODE     ---       #199
      00FF008AH   LINE      CODE     ---       #200
      ---         BLOCKEND  ---      ---       LVL=0

      ---         MODULE    ---      ---       common
      00000768H   PUBLIC    EDATA    INT       wireless_type
      000000D0H   SFRSYM    DATA     BYTE      PSW
      0000009DH   SFRSYM    DATA     BYTE      IRCBAND
      00000097H   SFRSYM    DATA     BYTE      AUXR2
      000000EFH   SFRSYM    DATA     BYTE      AUXINTIF
      000000FDH   SFRSYM    DATA     BYTE      S4CON
      000000ACH   SFRSYM    DATA     BYTE      S3CON
      0000009AH   SFRSYM    DATA     BYTE      S2CON
      000000B7H   SFRSYM    DATA     BYTE      IPH
      000000CDH   SFRSYM    DATA     BYTE      SPSTAT
      000000DDH   SFRSYM    DATA     BYTE      T4T3M
      000000C1H   SFRSYM    DATA     BYTE      WDT_CONTR
      000000DFH   SFRSYM    DATA     BYTE      IP3
      000000F4H   SFRSYM    DATA     BYTE      USBCON
      000000B5H   SFRSYM    DATA     BYTE      IP2
      000000FFH   SFRSYM    DATA     BYTE      RSTCFG
      000000F9H   SFRSYM    DATA     BYTE      LINICR
      0000008EH   SFRSYM    DATA     BYTE      AUXR
      000000AFH   SFRSYM    DATA     BYTE      IE2
      00000088H   SFRSYM    DATA     BYTE      TCON
      00000098H   SFRSYM    DATA     BYTE      SCON
      000000F1H   SFRSYM    DATA     BYTE      CANICR
      00000087H   SFRSYM    DATA     BYTE      PCON
      000000BCH   SFRSYM    DATA     BYTE      ADC_CONTR
      000000E7H   SFRSYM    DATA     BYTE      CMPCR2
      000000E6H   SFRSYM    DATA     BYTE      CMPCR1
      000000B8H   SFRSYM    DATA     BYTE      IP
      0000008FH   SFRSYM    DATA     BYTE      INTCLKO
      000000EEH   SFRSYM    DATA     BYTE      IP3H
      000000B6H   SFRSYM    DATA     BYTE      IP2H
      000000A8H   SFRSYM    DATA     BYTE      IE
      000000BBH   SFRSYM    DATA     BYTE      P_SW3
      000000BAH   SFRSYM    DATA     BYTE      P_SW2
      000000A2H   SFRSYM    DATA     BYTE      P_SW1
      000000CEH   SFRSYM    DATA     BYTE      SPCTL
      000000F8H   SFRSYM    DATA     BYTE      P7
      000000E8H   SFRSYM    DATA     BYTE      P6
      000000C8H   SFRSYM    DATA     BYTE      P5
      000000C0H   SFRSYM    DATA     BYTE      P4
      000000B0H   SFRSYM    DATA     BYTE      P3
      000000A0H   SFRSYM    DATA     BYTE      P2
      00000090H   SFRSYM    DATA     BYTE      P1
      00000080H   SFRSYM    DATA     BYTE      P0

      ---         MODULE    ---      ---       zf_adc
      00000094H   SFRSYM    DATA     BYTE      P0M0
      000000D0H   SFRSYM    DATA     BYTE      PSW
      0000009DH   SFRSYM    DATA     BYTE      IRCBAND
      00000097H   SFRSYM    DATA     BYTE      AUXR2
L251 LINKER/LOCATER V4.66.93.0                                                        05/04/2024  19:25:53  PAGE 24


      000000EFH   SFRSYM    DATA     BYTE      AUXINTIF
      000000FDH   SFRSYM    DATA     BYTE      S4CON
      000000ACH   SFRSYM    DATA     BYTE      S3CON
      0000009AH   SFRSYM    DATA     BYTE      S2CON
      000000B7H   SFRSYM    DATA     BYTE      IPH
      000000CDH   SFRSYM    DATA     BYTE      SPSTAT
      000000BEH   SFRSYM    DATA     BYTE      ADC_RESL
      000000DDH   SFRSYM    DATA     BYTE      T4T3M
      000000C1H   SFRSYM    DATA     BYTE      WDT_CONTR
      000000DFH   SFRSYM    DATA     BYTE      IP3
      000000F4H   SFRSYM    DATA     BYTE      USBCON
      000000B5H   SFRSYM    DATA     BYTE      IP2
      000000FFH   SFRSYM    DATA     BYTE      RSTCFG
      000000F9H   SFRSYM    DATA     BYTE      LINICR
      0000008EH   SFRSYM    DATA     BYTE      AUXR
      000000AFH   SFRSYM    DATA     BYTE      IE2
      00000088H   SFRSYM    DATA     BYTE      TCON
      00000098H   SFRSYM    DATA     BYTE      SCON
      000000F1H   SFRSYM    DATA     BYTE      CANICR
      00000087H   SFRSYM    DATA     BYTE      PCON
      000000BCH   SFRSYM    DATA     BYTE      ADC_CONTR
      000000E7H   SFRSYM    DATA     BYTE      CMPCR2
      000000E6H   SFRSYM    DATA     BYTE      CMPCR1
      000000DEH   SFRSYM    DATA     BYTE      ADCCFG
      000000B8H   SFRSYM    DATA     BYTE      IP
      0000008FH   SFRSYM    DATA     BYTE      INTCLKO
      000000EEH   SFRSYM    DATA     BYTE      IP3H
      000000B6H   SFRSYM    DATA     BYTE      IP2H
      000000BDH   SFRSYM    DATA     BYTE      ADC_RES
      000000A8H   SFRSYM    DATA     BYTE      IE
      000000BBH   SFRSYM    DATA     BYTE      P_SW3
      000000BAH   SFRSYM    DATA     BYTE      P_SW2
      000000A2H   SFRSYM    DATA     BYTE      P_SW1
      000000CEH   SFRSYM    DATA     BYTE      SPCTL
      000000F8H   SFRSYM    DATA     BYTE      P7
      000000E8H   SFRSYM    DATA     BYTE      P6
      000000C8H   SFRSYM    DATA     BYTE      P5
      000000C0H   SFRSYM    DATA     BYTE      P4
      000000B0H   SFRSYM    DATA     BYTE      P3
      000000A0H   SFRSYM    DATA     BYTE      P2
      00000090H   SFRSYM    DATA     BYTE      P1
      00000080H   SFRSYM    DATA     BYTE      P0
      00000091H   SFRSYM    DATA     BYTE      P1M1
      00000092H   SFRSYM    DATA     BYTE      P1M0
      00000093H   SFRSYM    DATA     BYTE      P0M1
      00000720H   SYMBOL    EDATA    INT       adcn
      00000722H   SYMBOL    EDATA    INT       speed
      00000696H   SYMBOL    EDATA    INT       adcn
      00000698H   SYMBOL    EDATA    INT       resolution
      0000069AH   SYMBOL    EDATA    WORD      adc_value

      ---         MODULE    ---      ---       zf_delay
      00FF0046H   PUBLIC    CODE     ---       delay_init
      00FF4A80H   PUBLIC    CODE     ---       delay_ms
      00FF4B1FH   PUBLIC    CODE     ---       delay_us
      00000724H   PUBLIC    EDATA    WORD      zf_delay_ms
      00000726H   PUBLIC    EDATA    WORD      zf_delay_us
      000000D0H   SFRSYM    DATA     BYTE      PSW
      0000009DH   SFRSYM    DATA     BYTE      IRCBAND
      00000097H   SFRSYM    DATA     BYTE      AUXR2
      000000EFH   SFRSYM    DATA     BYTE      AUXINTIF
      000000FDH   SFRSYM    DATA     BYTE      S4CON
      000000ACH   SFRSYM    DATA     BYTE      S3CON
      0000009AH   SFRSYM    DATA     BYTE      S2CON
      000000B7H   SFRSYM    DATA     BYTE      IPH
L251 LINKER/LOCATER V4.66.93.0                                                        05/04/2024  19:25:53  PAGE 25


      000000CDH   SFRSYM    DATA     BYTE      SPSTAT
      000000DDH   SFRSYM    DATA     BYTE      T4T3M
      000000C1H   SFRSYM    DATA     BYTE      WDT_CONTR
      000000DFH   SFRSYM    DATA     BYTE      IP3
      000000F4H   SFRSYM    DATA     BYTE      USBCON
      000000B5H   SFRSYM    DATA     BYTE      IP2
      000000FFH   SFRSYM    DATA     BYTE      RSTCFG
      000000F9H   SFRSYM    DATA     BYTE      LINICR
      0000008EH   SFRSYM    DATA     BYTE      AUXR
      000000AFH   SFRSYM    DATA     BYTE      IE2
      00000088H   SFRSYM    DATA     BYTE      TCON
      00000098H   SFRSYM    DATA     BYTE      SCON
      000000F1H   SFRSYM    DATA     BYTE      CANICR
      00000087H   SFRSYM    DATA     BYTE      PCON
      000000BCH   SFRSYM    DATA     BYTE      ADC_CONTR
      000000E7H   SFRSYM    DATA     BYTE      CMPCR2
      000000E6H   SFRSYM    DATA     BYTE      CMPCR1
      000000B8H   SFRSYM    DATA     BYTE      IP
      0000008FH   SFRSYM    DATA     BYTE      INTCLKO
      000000EEH   SFRSYM    DATA     BYTE      IP3H
      000000B6H   SFRSYM    DATA     BYTE      IP2H
      000000A8H   SFRSYM    DATA     BYTE      IE
      000000BBH   SFRSYM    DATA     BYTE      P_SW3
      000000BAH   SFRSYM    DATA     BYTE      P_SW2
      000000A2H   SFRSYM    DATA     BYTE      P_SW1
      000000CEH   SFRSYM    DATA     BYTE      SPCTL
      000000F8H   SFRSYM    DATA     BYTE      P7
      000000E8H   SFRSYM    DATA     BYTE      P6
      000000C8H   SFRSYM    DATA     BYTE      P5
      000000C0H   SFRSYM    DATA     BYTE      P4
      000000B0H   SFRSYM    DATA     BYTE      P3
      000000A0H   SFRSYM    DATA     BYTE      P2
      00000090H   SFRSYM    DATA     BYTE      P1
      00000080H   SFRSYM    DATA     BYTE      P0

      00FF0046H   BLOCK     CODE     ---       LVL=0
      00FF0046H   LINE      CODE     ---       #34
      00FF0046H   LINE      CODE     ---       #36
      00FF0055H   LINE      CODE     ---       #37
      00FF0068H   LINE      CODE     ---       #38
      00FF0086H   LINE      CODE     ---       #40
      ---         BLOCKEND  ---      ---       LVL=0

      00FF4A80H   BLOCK     CODE     ---       LVL=0
      00000728H   SYMBOL    EDATA    WORD      ms
      00FF4A84H   BLOCK     CODE     NEAR LAB  LVL=1
      0000072AH   SYMBOL    EDATA    WORD      i
      ---         BLOCKEND  ---      ---       LVL=1
      00FF4A80H   LINE      CODE     ---       #48
      00FF4A84H   LINE      CODE     ---       #49
      00FF4A84H   LINE      CODE     ---       #51
      00FF4A84H   LINE      CODE     ---       #52
      00FF4A8CH   LINE      CODE     ---       #54
      00FF4AA0H   LINE      CODE     ---       #55
      00FF4AB4H   LINE      CODE     ---       #56
      ---         BLOCKEND  ---      ---       LVL=0

      00FF4B1FH   BLOCK     CODE     ---       LVL=0
      0000069CH   SYMBOL    EDATA    DWORD     us
      00FF4B23H   BLOCK     CODE     NEAR LAB  LVL=1
      000006A0H   SYMBOL    EDATA    WORD      i
      ---         BLOCKEND  ---      ---       LVL=1
      00FF4B1FH   LINE      CODE     ---       #64
      00FF4B23H   LINE      CODE     ---       #65
      00FF4B23H   LINE      CODE     ---       #67
L251 LINKER/LOCATER V4.66.93.0                                                        05/04/2024  19:25:53  PAGE 26


      00FF4B23H   LINE      CODE     ---       #68
      00FF4B2BH   LINE      CODE     ---       #70
      00FF4B3FH   LINE      CODE     ---       #71
      00FF4B51H   LINE      CODE     ---       #72
      ---         BLOCKEND  ---      ---       LVL=0

      ---         MODULE    ---      ---       zf_eeprom
      000005EDH   PUBLIC    EDATA    BYTE      ?iap_read_bytes?BYTE
      000005F7H   PUBLIC    EDATA    BYTE      ?iap_write_bytes?BYTE
      000000D0H   SFRSYM    DATA     BYTE      PSW
      0000009DH   SFRSYM    DATA     BYTE      IRCBAND
      000000D0H.5 SFRSYM    DATA     BIT       F0
      00000097H   SFRSYM    DATA     BYTE      AUXR2
      000000C6H   SFRSYM    DATA     BYTE      IAP_TRIG
      000000EFH   SFRSYM    DATA     BYTE      AUXINTIF
      000000FDH   SFRSYM    DATA     BYTE      S4CON
      000000ACH   SFRSYM    DATA     BYTE      S3CON
      0000009AH   SFRSYM    DATA     BYTE      S2CON
      000000B7H   SFRSYM    DATA     BYTE      IPH
      000000CDH   SFRSYM    DATA     BYTE      SPSTAT
      000000DDH   SFRSYM    DATA     BYTE      T4T3M
      000000C1H   SFRSYM    DATA     BYTE      WDT_CONTR
      000000C2H   SFRSYM    DATA     BYTE      IAP_DATA
      000000DFH   SFRSYM    DATA     BYTE      IP3
      000000F4H   SFRSYM    DATA     BYTE      USBCON
      000000B5H   SFRSYM    DATA     BYTE      IP2
      000000FFH   SFRSYM    DATA     BYTE      RSTCFG
      000000C7H   SFRSYM    DATA     BYTE      IAP_CONTR
      000000F9H   SFRSYM    DATA     BYTE      LINICR
      0000008EH   SFRSYM    DATA     BYTE      AUXR
      000000AFH   SFRSYM    DATA     BYTE      IE2
      00000088H   SFRSYM    DATA     BYTE      TCON
      00000098H   SFRSYM    DATA     BYTE      SCON
      000000F5H   SFRSYM    DATA     BYTE      IAP_TPS
      000000F1H   SFRSYM    DATA     BYTE      CANICR
      00000087H   SFRSYM    DATA     BYTE      PCON
      000000BCH   SFRSYM    DATA     BYTE      ADC_CONTR
      000000E7H   SFRSYM    DATA     BYTE      CMPCR2
      000000E6H   SFRSYM    DATA     BYTE      CMPCR1
      000000C4H   SFRSYM    DATA     BYTE      IAP_ADDRL
      000000C3H   SFRSYM    DATA     BYTE      IAP_ADDRH
      000000F6H   SFRSYM    DATA     BYTE      IAP_ADDRE
      000000B8H   SFRSYM    DATA     BYTE      IP
      0000008FH   SFRSYM    DATA     BYTE      INTCLKO
      000000EEH   SFRSYM    DATA     BYTE      IP3H
      000000B6H   SFRSYM    DATA     BYTE      IP2H
      000000C5H   SFRSYM    DATA     BYTE      IAP_CMD
      000000A8H   SFRSYM    DATA     BYTE      IE
      000000BBH   SFRSYM    DATA     BYTE      P_SW3
      000000BAH   SFRSYM    DATA     BYTE      P_SW2
      000000A2H   SFRSYM    DATA     BYTE      P_SW1
      000000CEH   SFRSYM    DATA     BYTE      SPCTL
      000000F8H   SFRSYM    DATA     BYTE      P7
      000000A8H.7 SFRSYM    DATA     BIT       EA
      000000E8H   SFRSYM    DATA     BYTE      P6
      000000C8H   SFRSYM    DATA     BYTE      P5
      000000C0H   SFRSYM    DATA     BYTE      P4
      000000B0H   SFRSYM    DATA     BYTE      P3
      000000A0H   SFRSYM    DATA     BYTE      P2
      00000090H   SFRSYM    DATA     BYTE      P1
      00000080H   SFRSYM    DATA     BYTE      P0
      00000789H   SYMBOL    EDATA    BYTE      write_time
      000005EDH   SYMBOL    EDATA    DWORD     addr
      000005F1H   SYMBOL    EDATA    ---       buf
      000005F5H   SYMBOL    EDATA    WORD      len
L251 LINKER/LOCATER V4.66.93.0                                                        05/04/2024  19:25:53  PAGE 27


      000005F7H   SYMBOL    EDATA    DWORD     addr
      000005FBH   SYMBOL    EDATA    ---       buf
      000005FFH   SYMBOL    EDATA    WORD      len
      0000072CH   SYMBOL    EDATA    DWORD     addr

      ---         MODULE    ---      ---       zf_exti
      000000D0H   SFRSYM    DATA     BYTE      PSW
      0000009DH   SFRSYM    DATA     BYTE      IRCBAND
      00000097H   SFRSYM    DATA     BYTE      AUXR2
      000000EFH   SFRSYM    DATA     BYTE      AUXINTIF
      000000FDH   SFRSYM    DATA     BYTE      S4CON
      000000ACH   SFRSYM    DATA     BYTE      S3CON
      0000009AH   SFRSYM    DATA     BYTE      S2CON
      000000B7H   SFRSYM    DATA     BYTE      IPH
      000000CDH   SFRSYM    DATA     BYTE      SPSTAT
      000000DDH   SFRSYM    DATA     BYTE      T4T3M
      000000C1H   SFRSYM    DATA     BYTE      WDT_CONTR
      00000088H.2 SFRSYM    DATA     BIT       IT1
      000000A8H.2 SFRSYM    DATA     BIT       EX1
      00000088H.0 SFRSYM    DATA     BIT       IT0
      000000A8H.0 SFRSYM    DATA     BIT       EX0
      000000DFH   SFRSYM    DATA     BYTE      IP3
      000000F4H   SFRSYM    DATA     BYTE      USBCON
      000000B5H   SFRSYM    DATA     BYTE      IP2
      000000FFH   SFRSYM    DATA     BYTE      RSTCFG
      000000F9H   SFRSYM    DATA     BYTE      LINICR
      0000008EH   SFRSYM    DATA     BYTE      AUXR
      000000AFH   SFRSYM    DATA     BYTE      IE2
      00000088H   SFRSYM    DATA     BYTE      TCON
      00000098H   SFRSYM    DATA     BYTE      SCON
      000000F1H   SFRSYM    DATA     BYTE      CANICR
      00000087H   SFRSYM    DATA     BYTE      PCON
      000000BCH   SFRSYM    DATA     BYTE      ADC_CONTR
      000000E7H   SFRSYM    DATA     BYTE      CMPCR2
      000000E6H   SFRSYM    DATA     BYTE      CMPCR1
      000000B8H   SFRSYM    DATA     BYTE      IP
      0000008FH   SFRSYM    DATA     BYTE      INTCLKO
      000000EEH   SFRSYM    DATA     BYTE      IP3H
      000000B6H   SFRSYM    DATA     BYTE      IP2H
      000000A8H   SFRSYM    DATA     BYTE      IE
      000000BBH   SFRSYM    DATA     BYTE      P_SW3
      000000BAH   SFRSYM    DATA     BYTE      P_SW2
      000000A2H   SFRSYM    DATA     BYTE      P_SW1
      000000CEH   SFRSYM    DATA     BYTE      SPCTL
      000000F8H   SFRSYM    DATA     BYTE      P7
      000000E8H   SFRSYM    DATA     BYTE      P6
      000000C8H   SFRSYM    DATA     BYTE      P5
      000000C0H   SFRSYM    DATA     BYTE      P4
      000000B0H   SFRSYM    DATA     BYTE      P3
      000000A0H   SFRSYM    DATA     BYTE      P2
      00000090H   SFRSYM    DATA     BYTE      P1
      00000080H   SFRSYM    DATA     BYTE      P0
      00000730H   SYMBOL    EDATA    INT       int_n
      00000732H   SYMBOL    EDATA    INT       mode

      ---         MODULE    ---      ---       zf_gpio
      00FF0E9EH   PUBLIC    CODE     ---       gpio_mode
      00000094H   SFRSYM    DATA     BYTE      P0M0
      000000D0H   SFRSYM    DATA     BYTE      PSW
      0000009DH   SFRSYM    DATA     BYTE      IRCBAND
      00000097H   SFRSYM    DATA     BYTE      AUXR2
      000000EFH   SFRSYM    DATA     BYTE      AUXINTIF
      000000FDH   SFRSYM    DATA     BYTE      S4CON
      000000ACH   SFRSYM    DATA     BYTE      S3CON
      0000009AH   SFRSYM    DATA     BYTE      S2CON
L251 LINKER/LOCATER V4.66.93.0                                                        05/04/2024  19:25:53  PAGE 28


      000000B7H   SFRSYM    DATA     BYTE      IPH
      000000CDH   SFRSYM    DATA     BYTE      SPSTAT
      000000DDH   SFRSYM    DATA     BYTE      T4T3M
      000000C1H   SFRSYM    DATA     BYTE      WDT_CONTR
      000000DFH   SFRSYM    DATA     BYTE      IP3
      000000F4H   SFRSYM    DATA     BYTE      USBCON
      000000B5H   SFRSYM    DATA     BYTE      IP2
      000000FFH   SFRSYM    DATA     BYTE      RSTCFG
      000000F9H   SFRSYM    DATA     BYTE      LINICR
      0000008EH   SFRSYM    DATA     BYTE      AUXR
      000000AFH   SFRSYM    DATA     BYTE      IE2
      00000088H   SFRSYM    DATA     BYTE      TCON
      00000098H   SFRSYM    DATA     BYTE      SCON
      000000F1H   SFRSYM    DATA     BYTE      CANICR
      00000087H   SFRSYM    DATA     BYTE      PCON
      000000BCH   SFRSYM    DATA     BYTE      ADC_CONTR
      000000E7H   SFRSYM    DATA     BYTE      CMPCR2
      000000E6H   SFRSYM    DATA     BYTE      CMPCR1
      000000B8H   SFRSYM    DATA     BYTE      IP
      0000008FH   SFRSYM    DATA     BYTE      INTCLKO
      000000EEH   SFRSYM    DATA     BYTE      IP3H
      000000B6H   SFRSYM    DATA     BYTE      IP2H
      000000A8H   SFRSYM    DATA     BYTE      IE
      000000BBH   SFRSYM    DATA     BYTE      P_SW3
      000000BAH   SFRSYM    DATA     BYTE      P_SW2
      000000A2H   SFRSYM    DATA     BYTE      P_SW1
      000000CEH   SFRSYM    DATA     BYTE      SPCTL
      000000F8H   SFRSYM    DATA     BYTE      P7
      000000E1H   SFRSYM    DATA     BYTE      P7M1
      000000E8H   SFRSYM    DATA     BYTE      P6
      000000C8H   SFRSYM    DATA     BYTE      P5
      000000CBH   SFRSYM    DATA     BYTE      P6M1
      000000E2H   SFRSYM    DATA     BYTE      P7M0
      000000C0H   SFRSYM    DATA     BYTE      P4
      000000C9H   SFRSYM    DATA     BYTE      P5M1
      000000CCH   SFRSYM    DATA     BYTE      P6M0
      000000B0H   SFRSYM    DATA     BYTE      P3
      000000B3H   SFRSYM    DATA     BYTE      P4M1
      000000CAH   SFRSYM    DATA     BYTE      P5M0
      000000A0H   SFRSYM    DATA     BYTE      P2
      000000B1H   SFRSYM    DATA     BYTE      P3M1
      000000B4H   SFRSYM    DATA     BYTE      P4M0
      00000090H   SFRSYM    DATA     BYTE      P1
      00000095H   SFRSYM    DATA     BYTE      P2M1
      000000B2H   SFRSYM    DATA     BYTE      P3M0
      00000080H   SFRSYM    DATA     BYTE      P0
      00000091H   SFRSYM    DATA     BYTE      P1M1
      00000096H   SFRSYM    DATA     BYTE      P2M0
      00000092H   SFRSYM    DATA     BYTE      P1M0
      00000093H   SFRSYM    DATA     BYTE      P0M1
      00000734H   SYMBOL    EDATA    INT       pin
      00000736H   SYMBOL    EDATA    INT       pull

      00FF0E9EH   BLOCK     CODE     ---       LVL=0
      00000738H   SYMBOL    EDATA    INT       pin
      0000073AH   SYMBOL    EDATA    INT       mode
      00FF0E9EH   LINE      CODE     ---       #54
      00FF0EA6H   LINE      CODE     ---       #56
      00FF0EB3H   LINE      CODE     ---       #58
      00FF0EC3H   LINE      CODE     ---       #60
      00FF0EDEH   LINE      CODE     ---       #61
      00FF0EF9H   LINE      CODE     ---       #62
      00FF0EF9H   LINE      CODE     ---       #63
      00FF0F0BH   LINE      CODE     ---       #65
      00FF0F26H   LINE      CODE     ---       #66
L251 LINKER/LOCATER V4.66.93.0                                                        05/04/2024  19:25:53  PAGE 29


      00FF0F41H   LINE      CODE     ---       #67
      00FF0F41H   LINE      CODE     ---       #68
      00FF0F53H   LINE      CODE     ---       #70
      00FF0F6EH   LINE      CODE     ---       #71
      00FF0F89H   LINE      CODE     ---       #72
      00FF0F89H   LINE      CODE     ---       #74
      00FF0F9BH   LINE      CODE     ---       #76
      00FF0FB6H   LINE      CODE     ---       #77
      00FF0FD1H   LINE      CODE     ---       #78
      00FF0FD1H   LINE      CODE     ---       #79
      00FF0FE3H   LINE      CODE     ---       #81
      00FF0FFEH   LINE      CODE     ---       #82
      00FF1019H   LINE      CODE     ---       #83
      00FF1019H   LINE      CODE     ---       #84
      00FF102BH   LINE      CODE     ---       #86
      00FF1046H   LINE      CODE     ---       #87
      00FF1061H   LINE      CODE     ---       #88
      00FF1061H   LINE      CODE     ---       #89
      00FF1073H   LINE      CODE     ---       #91
      00FF108EH   LINE      CODE     ---       #92
      00FF10A9H   LINE      CODE     ---       #93
      00FF10A9H   LINE      CODE     ---       #94
      00FF10BEH   LINE      CODE     ---       #96
      00FF10D9H   LINE      CODE     ---       #97
      00FF10F4H   LINE      CODE     ---       #98
      00FF10F7H   LINE      CODE     ---       #100
      00FF1106H   LINE      CODE     ---       #102
      00FF1116H   LINE      CODE     ---       #104
      00FF1131H   LINE      CODE     ---       #105
      00FF114AH   LINE      CODE     ---       #106
      00FF114AH   LINE      CODE     ---       #107
      00FF115CH   LINE      CODE     ---       #109
      00FF1177H   LINE      CODE     ---       #110
      00FF1190H   LINE      CODE     ---       #111
      00FF1190H   LINE      CODE     ---       #112
      00FF11A2H   LINE      CODE     ---       #114
      00FF11BDH   LINE      CODE     ---       #115
      00FF11D6H   LINE      CODE     ---       #116
      00FF11D6H   LINE      CODE     ---       #118
      00FF11E8H   LINE      CODE     ---       #120
      00FF1203H   LINE      CODE     ---       #121
      00FF121CH   LINE      CODE     ---       #122
      00FF121CH   LINE      CODE     ---       #123
      00FF122EH   LINE      CODE     ---       #125
      00FF1249H   LINE      CODE     ---       #126
      00FF1262H   LINE      CODE     ---       #127
      00FF1262H   LINE      CODE     ---       #128
      00FF1274H   LINE      CODE     ---       #130
      00FF128FH   LINE      CODE     ---       #131
      00FF12A8H   LINE      CODE     ---       #132
      00FF12A8H   LINE      CODE     ---       #133
      00FF12BAH   LINE      CODE     ---       #135
      00FF12D5H   LINE      CODE     ---       #136
      00FF12EEH   LINE      CODE     ---       #137
      00FF12EEH   LINE      CODE     ---       #138
      00FF1303H   LINE      CODE     ---       #140
      00FF131EH   LINE      CODE     ---       #141
      00FF1337H   LINE      CODE     ---       #142
      00FF133AH   LINE      CODE     ---       #145
      00FF1349H   LINE      CODE     ---       #147
      00FF1359H   LINE      CODE     ---       #149
      00FF1372H   LINE      CODE     ---       #150
      00FF138DH   LINE      CODE     ---       #151
      00FF138DH   LINE      CODE     ---       #152
      00FF139FH   LINE      CODE     ---       #154
L251 LINKER/LOCATER V4.66.93.0                                                        05/04/2024  19:25:53  PAGE 30


      00FF13B8H   LINE      CODE     ---       #155
      00FF13D3H   LINE      CODE     ---       #156
      00FF13D3H   LINE      CODE     ---       #157
      00FF13E5H   LINE      CODE     ---       #159
      00FF13FEH   LINE      CODE     ---       #160
      00FF1419H   LINE      CODE     ---       #161
      00FF1419H   LINE      CODE     ---       #163
      00FF142BH   LINE      CODE     ---       #165
      00FF1444H   LINE      CODE     ---       #166
      00FF145FH   LINE      CODE     ---       #167
      00FF145FH   LINE      CODE     ---       #168
      00FF1471H   LINE      CODE     ---       #170
      00FF148AH   LINE      CODE     ---       #171
      00FF14A5H   LINE      CODE     ---       #172
      00FF14A5H   LINE      CODE     ---       #173
      00FF14B7H   LINE      CODE     ---       #175
      00FF14D0H   LINE      CODE     ---       #176
      00FF14EBH   LINE      CODE     ---       #177
      00FF14EBH   LINE      CODE     ---       #178
      00FF14FDH   LINE      CODE     ---       #180
      00FF1516H   LINE      CODE     ---       #181
      00FF1531H   LINE      CODE     ---       #182
      00FF1531H   LINE      CODE     ---       #183
      00FF1546H   LINE      CODE     ---       #185
      00FF155FH   LINE      CODE     ---       #186
      00FF157AH   LINE      CODE     ---       #187
      00FF157DH   LINE      CODE     ---       #189
      00FF158CH   LINE      CODE     ---       #191
      00FF159CH   LINE      CODE     ---       #193
      00FF15B5H   LINE      CODE     ---       #194
      00FF15CEH   LINE      CODE     ---       #195
      00FF15CEH   LINE      CODE     ---       #196
      00FF15E0H   LINE      CODE     ---       #198
      00FF15F9H   LINE      CODE     ---       #199
      00FF1612H   LINE      CODE     ---       #200
      00FF1612H   LINE      CODE     ---       #201
      00FF1624H   LINE      CODE     ---       #203
      00FF163DH   LINE      CODE     ---       #204
      00FF1656H   LINE      CODE     ---       #205
      00FF1656H   LINE      CODE     ---       #207
      00FF1668H   LINE      CODE     ---       #209
      00FF1681H   LINE      CODE     ---       #210
      00FF169AH   LINE      CODE     ---       #211
      00FF169AH   LINE      CODE     ---       #212
      00FF16ACH   LINE      CODE     ---       #214
      00FF16C5H   LINE      CODE     ---       #215
      00FF16DEH   LINE      CODE     ---       #216
      00FF16DEH   LINE      CODE     ---       #217
      00FF16F0H   LINE      CODE     ---       #219
      00FF1709H   LINE      CODE     ---       #220
      00FF1722H   LINE      CODE     ---       #221
      00FF1722H   LINE      CODE     ---       #222
      00FF1734H   LINE      CODE     ---       #224
      00FF174DH   LINE      CODE     ---       #225
      00FF1766H   LINE      CODE     ---       #226
      00FF1766H   LINE      CODE     ---       #227
      00FF1778H   LINE      CODE     ---       #229
      00FF1791H   LINE      CODE     ---       #230
      00FF17AAH   LINE      CODE     ---       #231
      00FF17AAH   LINE      CODE     ---       #233
      ---         BLOCKEND  ---      ---       LVL=0

      ---         MODULE    ---      ---       zf_nvic
      000000D0H   SFRSYM    DATA     BYTE      PSW
      0000009DH   SFRSYM    DATA     BYTE      IRCBAND
L251 LINKER/LOCATER V4.66.93.0                                                        05/04/2024  19:25:53  PAGE 31


      00000097H   SFRSYM    DATA     BYTE      AUXR2
      000000EFH   SFRSYM    DATA     BYTE      AUXINTIF
      000000FDH   SFRSYM    DATA     BYTE      S4CON
      000000ACH   SFRSYM    DATA     BYTE      S3CON
      0000009AH   SFRSYM    DATA     BYTE      S2CON
      000000B7H   SFRSYM    DATA     BYTE      IPH
      000000CDH   SFRSYM    DATA     BYTE      SPSTAT
      000000DDH   SFRSYM    DATA     BYTE      T4T3M
      000000C1H   SFRSYM    DATA     BYTE      WDT_CONTR
      000000DFH   SFRSYM    DATA     BYTE      IP3
      000000F4H   SFRSYM    DATA     BYTE      USBCON
      000000B5H   SFRSYM    DATA     BYTE      IP2
      000000FFH   SFRSYM    DATA     BYTE      RSTCFG
      000000F9H   SFRSYM    DATA     BYTE      LINICR
      0000008EH   SFRSYM    DATA     BYTE      AUXR
      000000AFH   SFRSYM    DATA     BYTE      IE2
      00000088H   SFRSYM    DATA     BYTE      TCON
      00000098H   SFRSYM    DATA     BYTE      SCON
      000000F1H   SFRSYM    DATA     BYTE      CANICR
      00000087H   SFRSYM    DATA     BYTE      PCON
      000000BCH   SFRSYM    DATA     BYTE      ADC_CONTR
      000000E7H   SFRSYM    DATA     BYTE      CMPCR2
      000000E6H   SFRSYM    DATA     BYTE      CMPCR1
      000000B8H   SFRSYM    DATA     BYTE      IP
      0000008FH   SFRSYM    DATA     BYTE      INTCLKO
      000000EEH   SFRSYM    DATA     BYTE      IP3H
      000000B6H   SFRSYM    DATA     BYTE      IP2H
      000000A8H   SFRSYM    DATA     BYTE      IE
      000000BBH   SFRSYM    DATA     BYTE      P_SW3
      000000BAH   SFRSYM    DATA     BYTE      P_SW2
      000000A2H   SFRSYM    DATA     BYTE      P_SW1
      000000CEH   SFRSYM    DATA     BYTE      SPCTL
      000000F8H   SFRSYM    DATA     BYTE      P7
      000000E8H   SFRSYM    DATA     BYTE      P6
      000000C8H   SFRSYM    DATA     BYTE      P5
      000000C0H   SFRSYM    DATA     BYTE      P4
      000000B0H   SFRSYM    DATA     BYTE      P3
      000000A0H   SFRSYM    DATA     BYTE      P2
      00000090H   SFRSYM    DATA     BYTE      P1
      00000080H   SFRSYM    DATA     BYTE      P0
      00000750H   SYMBOL    EDATA    INT       irqn
      00000752H   SYMBOL    EDATA    BYTE      priority

      ---         MODULE    ---      ---       zf_pwm
      00FF3782H   PUBLIC    CODE     ---       pwm_duty
      00FF26B6H   PUBLIC    CODE     ---       pwm_set_gpio
      00FF22DCH   PUBLIC    CODE     ---       pwm_init
      00FF4F46H   PUBLIC    HCONST   ---       PWM_CCR_ADDR
      00FF4F66H   PUBLIC    HCONST   ---       PWM_ARR_ADDR
      00FF4F6EH   PUBLIC    HCONST   ---       PWM_CCER_ADDR
      00FF4F7EH   PUBLIC    HCONST   ---       PWM_CCMR_ADDR
      000004C9H   PUBLIC    EDATA    BYTE      ?pwm_init?BYTE
      000004DDH   PUBLIC    EDATA    BYTE      ?pwm_freq?BYTE
      000000D0H   SFRSYM    DATA     BYTE      PSW
      0000009DH   SFRSYM    DATA     BYTE      IRCBAND
      00000097H   SFRSYM    DATA     BYTE      AUXR2
      000000EFH   SFRSYM    DATA     BYTE      AUXINTIF
      000000FDH   SFRSYM    DATA     BYTE      S4CON
      000000ACH   SFRSYM    DATA     BYTE      S3CON
      0000009AH   SFRSYM    DATA     BYTE      S2CON
      000000B7H   SFRSYM    DATA     BYTE      IPH
      000000CDH   SFRSYM    DATA     BYTE      SPSTAT
      000000DDH   SFRSYM    DATA     BYTE      T4T3M
      000000C1H   SFRSYM    DATA     BYTE      WDT_CONTR
      000000DFH   SFRSYM    DATA     BYTE      IP3
L251 LINKER/LOCATER V4.66.93.0                                                        05/04/2024  19:25:53  PAGE 32


      000000F4H   SFRSYM    DATA     BYTE      USBCON
      000000B5H   SFRSYM    DATA     BYTE      IP2
      000000FFH   SFRSYM    DATA     BYTE      RSTCFG
      000000F9H   SFRSYM    DATA     BYTE      LINICR
      0000008EH   SFRSYM    DATA     BYTE      AUXR
      000000AFH   SFRSYM    DATA     BYTE      IE2
      00000088H   SFRSYM    DATA     BYTE      TCON
      00000098H   SFRSYM    DATA     BYTE      SCON
      000000F1H   SFRSYM    DATA     BYTE      CANICR
      00000087H   SFRSYM    DATA     BYTE      PCON
      000000BCH   SFRSYM    DATA     BYTE      ADC_CONTR
      000000E7H   SFRSYM    DATA     BYTE      CMPCR2
      000000E6H   SFRSYM    DATA     BYTE      CMPCR1
      000000B8H   SFRSYM    DATA     BYTE      IP
      0000008FH   SFRSYM    DATA     BYTE      INTCLKO
      000000EEH   SFRSYM    DATA     BYTE      IP3H
      000000B6H   SFRSYM    DATA     BYTE      IP2H
      000000A8H   SFRSYM    DATA     BYTE      IE
      000000BBH   SFRSYM    DATA     BYTE      P_SW3
      000000BAH   SFRSYM    DATA     BYTE      P_SW2
      000000A2H   SFRSYM    DATA     BYTE      P_SW1
      000000CEH   SFRSYM    DATA     BYTE      SPCTL
      000000F8H   SFRSYM    DATA     BYTE      P7
      000000E8H   SFRSYM    DATA     BYTE      P6
      000000C8H   SFRSYM    DATA     BYTE      P5
      000000C0H   SFRSYM    DATA     BYTE      P4
      000000B0H   SFRSYM    DATA     BYTE      P3
      000000A0H   SFRSYM    DATA     BYTE      P2
      00000090H   SFRSYM    DATA     BYTE      P1
      00000080H   SFRSYM    DATA     BYTE      P0

      00FF26B6H   BLOCK     CODE     ---       LVL=0
      0000076AH   SYMBOL    EDATA    INT       pwmch
      00FF26B6H   LINE      CODE     ---       #49
      00FF26BAH   LINE      CODE     ---       #51
      00FF282FH   LINE      CODE     ---       #53
      00FF282FH   LINE      CODE     ---       #55
      00FF283AH   LINE      CODE     ---       #56
      00FF283DH   LINE      CODE     ---       #58
      00FF283DH   LINE      CODE     ---       #60
      00FF2848H   LINE      CODE     ---       #61
      00FF284BH   LINE      CODE     ---       #63
      00FF284BH   LINE      CODE     ---       #65
      00FF2856H   LINE      CODE     ---       #66
      00FF2859H   LINE      CODE     ---       #68
      00FF2859H   LINE      CODE     ---       #70
      00FF2864H   LINE      CODE     ---       #71
      00FF2867H   LINE      CODE     ---       #73
      00FF2867H   LINE      CODE     ---       #75
      00FF2872H   LINE      CODE     ---       #76
      00FF2875H   LINE      CODE     ---       #78
      00FF2875H   LINE      CODE     ---       #80
      00FF2880H   LINE      CODE     ---       #81
      00FF2883H   LINE      CODE     ---       #84
      00FF2883H   LINE      CODE     ---       #86
      00FF288EH   LINE      CODE     ---       #87
      00FF2891H   LINE      CODE     ---       #89
      00FF2891H   LINE      CODE     ---       #91
      00FF289CH   LINE      CODE     ---       #92
      00FF289FH   LINE      CODE     ---       #94
      00FF289FH   LINE      CODE     ---       #96
      00FF28AAH   LINE      CODE     ---       #97
      00FF28ADH   LINE      CODE     ---       #99
      00FF28ADH   LINE      CODE     ---       #101
      00FF28B8H   LINE      CODE     ---       #102
L251 LINKER/LOCATER V4.66.93.0                                                        05/04/2024  19:25:53  PAGE 33


      00FF28BBH   LINE      CODE     ---       #104
      00FF28BBH   LINE      CODE     ---       #106
      00FF28C6H   LINE      CODE     ---       #107
      00FF28C9H   LINE      CODE     ---       #109
      00FF28C9H   LINE      CODE     ---       #111
      00FF28D4H   LINE      CODE     ---       #112
      00FF28D7H   LINE      CODE     ---       #115
      00FF28D7H   LINE      CODE     ---       #117
      00FF28E2H   LINE      CODE     ---       #118
      00FF28E5H   LINE      CODE     ---       #120
      00FF28E5H   LINE      CODE     ---       #122
      00FF28F0H   LINE      CODE     ---       #123
      00FF28F3H   LINE      CODE     ---       #125
      00FF28F3H   LINE      CODE     ---       #127
      00FF28FEH   LINE      CODE     ---       #128
      00FF2901H   LINE      CODE     ---       #130
      00FF2901H   LINE      CODE     ---       #132
      00FF290CH   LINE      CODE     ---       #133
      00FF290FH   LINE      CODE     ---       #135
      00FF290FH   LINE      CODE     ---       #137
      00FF291AH   LINE      CODE     ---       #138
      00FF291DH   LINE      CODE     ---       #140
      00FF291DH   LINE      CODE     ---       #142
      00FF2928H   LINE      CODE     ---       #143
      00FF292BH   LINE      CODE     ---       #147
      00FF292BH   LINE      CODE     ---       #149
      00FF2936H   LINE      CODE     ---       #150
      00FF2939H   LINE      CODE     ---       #152
      00FF2939H   LINE      CODE     ---       #154
      00FF2944H   LINE      CODE     ---       #155
      00FF2947H   LINE      CODE     ---       #157
      00FF2947H   LINE      CODE     ---       #159
      00FF2952H   LINE      CODE     ---       #160
      00FF2955H   LINE      CODE     ---       #162
      00FF2955H   LINE      CODE     ---       #164
      00FF2960H   LINE      CODE     ---       #165
      00FF2963H   LINE      CODE     ---       #167
      00FF2963H   LINE      CODE     ---       #169
      00FF296EH   LINE      CODE     ---       #170
      00FF2971H   LINE      CODE     ---       #172
      00FF2971H   LINE      CODE     ---       #174
      00FF297CH   LINE      CODE     ---       #175
      00FF297FH   LINE      CODE     ---       #177
      00FF297FH   LINE      CODE     ---       #179
      00FF298AH   LINE      CODE     ---       #180
      00FF298DH   LINE      CODE     ---       #182
      00FF298DH   LINE      CODE     ---       #184
      00FF2998H   LINE      CODE     ---       #185
      00FF299BH   LINE      CODE     ---       #189
      00FF299BH   LINE      CODE     ---       #191
      00FF29A6H   LINE      CODE     ---       #192
      00FF29A9H   LINE      CODE     ---       #194
      00FF29A9H   LINE      CODE     ---       #196
      00FF29B4H   LINE      CODE     ---       #197
      00FF29B7H   LINE      CODE     ---       #199
      00FF29B7H   LINE      CODE     ---       #201
      00FF29C0H   LINE      CODE     ---       #202
      00FF29C3H   LINE      CODE     ---       #204
      00FF29C3H   LINE      CODE     ---       #206
      00FF29CEH   LINE      CODE     ---       #207
      00FF29D1H   LINE      CODE     ---       #210
      00FF29D1H   LINE      CODE     ---       #212
      00FF29DCH   LINE      CODE     ---       #213
      00FF29DFH   LINE      CODE     ---       #215
      00FF29DFH   LINE      CODE     ---       #217
L251 LINKER/LOCATER V4.66.93.0                                                        05/04/2024  19:25:53  PAGE 34


      00FF29EAH   LINE      CODE     ---       #218
      00FF29EDH   LINE      CODE     ---       #220
      00FF29EDH   LINE      CODE     ---       #222
      00FF29F8H   LINE      CODE     ---       #223
      00FF29FAH   LINE      CODE     ---       #225
      00FF29FAH   LINE      CODE     ---       #227
      00FF2A05H   LINE      CODE     ---       #228
      00FF2A07H   LINE      CODE     ---       #232
      00FF2A07H   LINE      CODE     ---       #234
      00FF2A12H   LINE      CODE     ---       #235
      00FF2A14H   LINE      CODE     ---       #237
      00FF2A14H   LINE      CODE     ---       #239
      00FF2A1FH   LINE      CODE     ---       #240
      00FF2A21H   LINE      CODE     ---       #242
      00FF2A21H   LINE      CODE     ---       #244
      00FF2A2CH   LINE      CODE     ---       #245
      00FF2A2EH   LINE      CODE     ---       #247
      00FF2A2EH   LINE      CODE     ---       #249
      00FF2A39H   LINE      CODE     ---       #250
      00FF2A3BH   LINE      CODE     ---       #254
      00FF2A3BH   LINE      CODE     ---       #256
      00FF2A46H   LINE      CODE     ---       #257
      00FF2A48H   LINE      CODE     ---       #259
      00FF2A48H   LINE      CODE     ---       #261
      00FF2A53H   LINE      CODE     ---       #262
      00FF2A55H   LINE      CODE     ---       #264
      00FF2A55H   LINE      CODE     ---       #266
      00FF2A60H   LINE      CODE     ---       #267
      00FF2A62H   LINE      CODE     ---       #269
      00FF2A62H   LINE      CODE     ---       #271
      00FF2A6DH   LINE      CODE     ---       #272
      00FF2A6DH   LINE      CODE     ---       #275
      00FF2A6DH   LINE      CODE     ---       #277
      ---         BLOCKEND  ---      ---       LVL=0

      00FF22DCH   BLOCK     CODE     ---       LVL=0
      000004C9H   SYMBOL    EDATA    INT       pwmch
      000004CBH   SYMBOL    EDATA    DWORD     freq
      000004CFH   SYMBOL    EDATA    DWORD     duty
      00FF22E4H   BLOCK     CODE     NEAR LAB  LVL=1
      000004D3H   SYMBOL    EDATA    DWORD     match_temp
      000004D7H   SYMBOL    EDATA    DWORD     period_temp
      000004DBH   SYMBOL    EDATA    WORD      freq_div
      ---         BLOCKEND  ---      ---       LVL=1
      00FF22DCH   LINE      CODE     ---       #290
      00FF22E4H   LINE      CODE     ---       #291
      00FF22E4H   LINE      CODE     ---       #295
      00FF22EAH   LINE      CODE     ---       #298
      00FF22EDH   LINE      CODE     ---       #301
      00FF22F4H   LINE      CODE     ---       #305
      00FF2307H   LINE      CODE     ---       #306
      00FF2316H   LINE      CODE     ---       #307
      00FF2331H   LINE      CODE     ---       #309
      00FF233BH   LINE      CODE     ---       #311
      00FF2362H   LINE      CODE     ---       #312
      00FF2364H   LINE      CODE     ---       #315
      00FF2372H   LINE      CODE     ---       #316
      00FF2372H   LINE      CODE     ---       #319
      00FF2381H   LINE      CODE     ---       #322
      00FF23B2H   LINE      CODE     ---       #323
      00FF23E9H   LINE      CODE     ---       #326
      00FF243BH   LINE      CODE     ---       #329
      00FF244EH   LINE      CODE     ---       #330
      00FF245DH   LINE      CODE     ---       #332
      00FF246AH   LINE      CODE     ---       #333
L251 LINKER/LOCATER V4.66.93.0                                                        05/04/2024  19:25:53  PAGE 35


      00FF2477H   LINE      CODE     ---       #334
      00FF247AH   LINE      CODE     ---       #337
      00FF24B8H   LINE      CODE     ---       #338
      00FF24EBH   LINE      CODE     ---       #341
      00FF254BH   LINE      CODE     ---       #345
      00FF255EH   LINE      CODE     ---       #346
      00FF256DH   LINE      CODE     ---       #348
      00FF257AH   LINE      CODE     ---       #349
      00FF2587H   LINE      CODE     ---       #350
      00FF2587H   LINE      CODE     ---       #353
      00FF25B9H   LINE      CODE     ---       #354
      00FF25F1H   LINE      CODE     ---       #357
      00FF261FH   LINE      CODE     ---       #358
      00FF2653H   LINE      CODE     ---       #361
      00FF2684H   LINE      CODE     ---       #362
      00FF26B5H   LINE      CODE     ---       #367
      ---         BLOCKEND  ---      ---       LVL=0

      00FF3782H   BLOCK     CODE     ---       LVL=0
      00000557H   SYMBOL    EDATA    INT       pwmch
      00000559H   SYMBOL    EDATA    DWORD     duty
      00FF378AH   BLOCK     CODE     NEAR LAB  LVL=1
      0000055DH   SYMBOL    EDATA    DWORD     match_temp
      00000561H   SYMBOL    EDATA    DWORD     arr
      ---         BLOCKEND  ---      ---       LVL=1
      00FF3782H   LINE      CODE     ---       #377
      00FF378AH   LINE      CODE     ---       #378
      00FF378AH   LINE      CODE     ---       #380
      00FF37F6H   LINE      CODE     ---       #384
      00FF3800H   LINE      CODE     ---       #386
      00FF3827H   LINE      CODE     ---       #387
      00FF3829H   LINE      CODE     ---       #390
      00FF3837H   LINE      CODE     ---       #391
      00FF3837H   LINE      CODE     ---       #396
      00FF3865H   LINE      CODE     ---       #397
      00FF3899H   LINE      CODE     ---       #401
      ---         BLOCKEND  ---      ---       LVL=0
      000004DDH   SYMBOL    EDATA    INT       pwmch
      000004DFH   SYMBOL    EDATA    DWORD     freq
      000004E3H   SYMBOL    EDATA    DWORD     duty
      000004E7H   SYMBOL    EDATA    DWORD     match_temp
      000004EBH   SYMBOL    EDATA    DWORD     period_temp
      000004EFH   SYMBOL    EDATA    WORD      freq_div

      ---         MODULE    ---      ---       zf_spi
      00FF3CA0H   PUBLIC    CODE     ---       spi_init
      00FF4CDDH   PUBLIC    CODE     ---       spi_mosi
      0000058FH   PUBLIC    EDATA    BYTE      ?spi_init?BYTE
      000000CFH   SFRSYM    DATA     BYTE      SPDAT
      000000D0H   SFRSYM    DATA     BYTE      PSW
      0000009DH   SFRSYM    DATA     BYTE      IRCBAND
      00000097H   SFRSYM    DATA     BYTE      AUXR2
      000000EFH   SFRSYM    DATA     BYTE      AUXINTIF
      000000FDH   SFRSYM    DATA     BYTE      S4CON
      000000ACH   SFRSYM    DATA     BYTE      S3CON
      0000009AH   SFRSYM    DATA     BYTE      S2CON
      000000B7H   SFRSYM    DATA     BYTE      IPH
      000000CDH   SFRSYM    DATA     BYTE      SPSTAT
      000000DDH   SFRSYM    DATA     BYTE      T4T3M
      000000C1H   SFRSYM    DATA     BYTE      WDT_CONTR
      000000DFH   SFRSYM    DATA     BYTE      IP3
      000000F4H   SFRSYM    DATA     BYTE      USBCON
      000000B5H   SFRSYM    DATA     BYTE      IP2
      000000FFH   SFRSYM    DATA     BYTE      RSTCFG
      000000F9H   SFRSYM    DATA     BYTE      LINICR
L251 LINKER/LOCATER V4.66.93.0                                                        05/04/2024  19:25:53  PAGE 36


      0000008EH   SFRSYM    DATA     BYTE      AUXR
      000000AFH   SFRSYM    DATA     BYTE      IE2
      00000088H   SFRSYM    DATA     BYTE      TCON
      00000098H   SFRSYM    DATA     BYTE      SCON
      000000F1H   SFRSYM    DATA     BYTE      CANICR
      00000087H   SFRSYM    DATA     BYTE      PCON
      000000BCH   SFRSYM    DATA     BYTE      ADC_CONTR
      000000E7H   SFRSYM    DATA     BYTE      CMPCR2
      000000E6H   SFRSYM    DATA     BYTE      CMPCR1
      000000B8H   SFRSYM    DATA     BYTE      IP
      0000008FH   SFRSYM    DATA     BYTE      INTCLKO
      000000EEH   SFRSYM    DATA     BYTE      IP3H
      000000B6H   SFRSYM    DATA     BYTE      IP2H
      000000A8H   SFRSYM    DATA     BYTE      IE
      000000BBH   SFRSYM    DATA     BYTE      P_SW3
      000000BAH   SFRSYM    DATA     BYTE      P_SW2
      000000A2H   SFRSYM    DATA     BYTE      P_SW1
      000000CEH   SFRSYM    DATA     BYTE      SPCTL
      000000F8H   SFRSYM    DATA     BYTE      P7
      000000E8H   SFRSYM    DATA     BYTE      P6
      000000C8H   SFRSYM    DATA     BYTE      P5
      000000C0H   SFRSYM    DATA     BYTE      P4
      000000B0H   SFRSYM    DATA     BYTE      P3
      000000A0H   SFRSYM    DATA     BYTE      P2
      00000090H   SFRSYM    DATA     BYTE      P1
      00000080H   SFRSYM    DATA     BYTE      P0

      00FF3CA0H   BLOCK     CODE     ---       LVL=0
      0000058FH   SYMBOL    EDATA    INT       spi_n
      00000591H   SYMBOL    EDATA    INT       sck_pin
      00000593H   SYMBOL    EDATA    INT       mosi_pin
      00000595H   SYMBOL    EDATA    INT       miso_pin
      00000597H   SYMBOL    EDATA    BYTE      mode
      00000598H   SYMBOL    EDATA    INT       mstr
      0000059AH   SYMBOL    EDATA    INT       baud
      00FF3CA0H   LINE      CODE     ---       #39
      00FF3CB4H   LINE      CODE     ---       #48
      00FF3CC0H   LINE      CODE     ---       #50
      00FF3CCFH   LINE      CODE     ---       #51
      00FF3CCFH   LINE      CODE     ---       #53
      00FF3CDBH   LINE      CODE     ---       #55
      00FF3CEAH   LINE      CODE     ---       #56
      00FF3CEAH   LINE      CODE     ---       #58
      00FF3CF6H   LINE      CODE     ---       #60
      00FF3D05H   LINE      CODE     ---       #61
      00FF3D05H   LINE      CODE     ---       #64
      00FF3D08H   LINE      CODE     ---       #65
      00FF3D1EH   LINE      CODE     ---       #67
      00FF3D1EH   LINE      CODE     ---       #68
      00FF3D22H   LINE      CODE     ---       #69
      00FF3D24H   LINE      CODE     ---       #70
      00FF3D24H   LINE      CODE     ---       #71
      00FF3D27H   LINE      CODE     ---       #72
      00FF3D29H   LINE      CODE     ---       #73
      00FF3D29H   LINE      CODE     ---       #74
      00FF3D2CH   LINE      CODE     ---       #75
      00FF3D2EH   LINE      CODE     ---       #76
      00FF3D2EH   LINE      CODE     ---       #77
      00FF3D31H   LINE      CODE     ---       #78
      00FF3D31H   LINE      CODE     ---       #79
      00FF3D31H   LINE      CODE     ---       #81
      00FF3D34H   LINE      CODE     ---       #82
      00FF3D43H   LINE      CODE     ---       #84
      00FF3D43H   LINE      CODE     ---       #86
      00FF3D45H   LINE      CODE     ---       #87
L251 LINKER/LOCATER V4.66.93.0                                                        05/04/2024  19:25:53  PAGE 37


      00FF3D45H   LINE      CODE     ---       #88
      00FF3D48H   LINE      CODE     ---       #89
      00FF3D4AH   LINE      CODE     ---       #90
      00FF3D4AH   LINE      CODE     ---       #91
      00FF3D4DH   LINE      CODE     ---       #92
      00FF3D4FH   LINE      CODE     ---       #93
      00FF3D4FH   LINE      CODE     ---       #94
      00FF3D52H   LINE      CODE     ---       #95
      00FF3D52H   LINE      CODE     ---       #96
      00FF3D52H   LINE      CODE     ---       #99
      00FF3D5AH   LINE      CODE     ---       #101
      00FF3D64H   LINE      CODE     ---       #103
      00FF3D67H   LINE      CODE     ---       #104
      00FF3D6AH   LINE      CODE     ---       #105
      00FF3D6AH   LINE      CODE     ---       #109
      00FF3D6AH   LINE      CODE     ---       #110
      00FF3D6DH   LINE      CODE     ---       #111
      ---         BLOCKEND  ---      ---       LVL=0

      00FF4CDDH   BLOCK     CODE     ---       LVL=0
      0000078AH   SYMBOL    EDATA    BYTE      dat
      00FF4CDDH   LINE      CODE     ---       #121
      00FF4CE1H   LINE      CODE     ---       #123
      00FF4CE3H   LINE      CODE     ---       #124
      00FF4CE8H   LINE      CODE     ---       #125
      00FF4CECH   LINE      CODE     ---       #126
      00FF4CEEH   LINE      CODE     ---       #127
      ---         BLOCKEND  ---      ---       LVL=0
      0000076CH   SYMBOL    EDATA    INT       spi_n
      0000078BH   SYMBOL    EDATA    BYTE      mode

      ---         MODULE    ---      ---       zf_tim
      000000D0H   SFRSYM    DATA     BYTE      PSW
      0000009DH   SFRSYM    DATA     BYTE      IRCBAND
      00000097H   SFRSYM    DATA     BYTE      AUXR2
      000000EFH   SFRSYM    DATA     BYTE      AUXINTIF
      000000FDH   SFRSYM    DATA     BYTE      S4CON
      000000ACH   SFRSYM    DATA     BYTE      S3CON
      0000009AH   SFRSYM    DATA     BYTE      S2CON
      000000B7H   SFRSYM    DATA     BYTE      IPH
      000000CDH   SFRSYM    DATA     BYTE      SPSTAT
      000000DDH   SFRSYM    DATA     BYTE      T4T3M
      000000C1H   SFRSYM    DATA     BYTE      WDT_CONTR
      00000088H.6 SFRSYM    DATA     BIT       TR1
      00000088H.4 SFRSYM    DATA     BIT       TR0
      000000D3H   SFRSYM    DATA     BYTE      T4L
      000000D5H   SFRSYM    DATA     BYTE      T3L
      000000D7H   SFRSYM    DATA     BYTE      T2L
      0000008BH   SFRSYM    DATA     BYTE      TL1
      0000008AH   SFRSYM    DATA     BYTE      TL0
      000000D2H   SFRSYM    DATA     BYTE      T4H
      000000D4H   SFRSYM    DATA     BYTE      T3H
      000000D6H   SFRSYM    DATA     BYTE      T2H
      0000008DH   SFRSYM    DATA     BYTE      TH1
      0000008CH   SFRSYM    DATA     BYTE      TH0
      000000DFH   SFRSYM    DATA     BYTE      IP3
      000000F4H   SFRSYM    DATA     BYTE      USBCON
      000000B5H   SFRSYM    DATA     BYTE      IP2
      000000FFH   SFRSYM    DATA     BYTE      RSTCFG
      000000A8H.3 SFRSYM    DATA     BIT       ET1
      000000A8H.1 SFRSYM    DATA     BIT       ET0
      000000F9H   SFRSYM    DATA     BYTE      LINICR
      0000008EH   SFRSYM    DATA     BYTE      AUXR
      000000AFH   SFRSYM    DATA     BYTE      IE2
      00000088H   SFRSYM    DATA     BYTE      TCON
L251 LINKER/LOCATER V4.66.93.0                                                        05/04/2024  19:25:53  PAGE 38


      00000089H   SFRSYM    DATA     BYTE      TMOD
      00000098H   SFRSYM    DATA     BYTE      SCON
      000000F1H   SFRSYM    DATA     BYTE      CANICR
      00000087H   SFRSYM    DATA     BYTE      PCON
      000000BCH   SFRSYM    DATA     BYTE      ADC_CONTR
      000000E7H   SFRSYM    DATA     BYTE      CMPCR2
      000000E6H   SFRSYM    DATA     BYTE      CMPCR1
      000000B8H   SFRSYM    DATA     BYTE      IP
      0000008FH   SFRSYM    DATA     BYTE      INTCLKO
      000000EEH   SFRSYM    DATA     BYTE      IP3H
      000000B6H   SFRSYM    DATA     BYTE      IP2H
      000000A8H   SFRSYM    DATA     BYTE      IE
      000000BBH   SFRSYM    DATA     BYTE      P_SW3
      000000BAH   SFRSYM    DATA     BYTE      P_SW2
      000000A2H   SFRSYM    DATA     BYTE      P_SW1
      000000CEH   SFRSYM    DATA     BYTE      SPCTL
      000000F8H   SFRSYM    DATA     BYTE      P7
      000000E8H   SFRSYM    DATA     BYTE      P6
      000000C8H   SFRSYM    DATA     BYTE      P5
      000000C0H   SFRSYM    DATA     BYTE      P4
      000000B0H   SFRSYM    DATA     BYTE      P3
      000000A0H   SFRSYM    DATA     BYTE      P2
      00000090H   SFRSYM    DATA     BYTE      P1
      00000080H   SFRSYM    DATA     BYTE      P0
      0000076EH   SYMBOL    EDATA    INT       tim_n
      0000073CH   SYMBOL    EDATA    INT       tim_n
      0000073EH   SYMBOL    EDATA    WORD      dat
      00000770H   SYMBOL    EDATA    INT       tim_n
      000006A2H   SYMBOL    EDATA    INT       tim_n
      000006A4H   SYMBOL    EDATA    WORD      time_ms
      000006A6H   SYMBOL    EDATA    WORD      temp

      ---         MODULE    ---      ---       zf_uart
      00FF424BH   PUBLIC    CODE     ---       uart_putchar
      00FF2E0CH   PUBLIC    CODE     ---       uart_init
      00000708H   PUBLIC    EDATA    ---       busy
      00000565H   PUBLIC    EDATA    BYTE      ?uart_init?BYTE
      00000601H   PUBLIC    EDATA    BYTE      ?uart_putbuff?BYTE
      000000D0H   SFRSYM    DATA     BYTE      PSW
      0000009DH   SFRSYM    DATA     BYTE      IRCBAND
      00000097H   SFRSYM    DATA     BYTE      AUXR2
      000000EFH   SFRSYM    DATA     BYTE      AUXINTIF
      000000FDH   SFRSYM    DATA     BYTE      S4CON
      000000ACH   SFRSYM    DATA     BYTE      S3CON
      0000009AH   SFRSYM    DATA     BYTE      S2CON
      000000FEH   SFRSYM    DATA     BYTE      S4BUF
      000000ADH   SFRSYM    DATA     BYTE      S3BUF
      0000009BH   SFRSYM    DATA     BYTE      S2BUF
      000000B7H   SFRSYM    DATA     BYTE      IPH
      000000CDH   SFRSYM    DATA     BYTE      SPSTAT
      000000DDH   SFRSYM    DATA     BYTE      T4T3M
      000000C1H   SFRSYM    DATA     BYTE      WDT_CONTR
      00000088H.6 SFRSYM    DATA     BIT       TR1
      000000D3H   SFRSYM    DATA     BYTE      T4L
      000000D5H   SFRSYM    DATA     BYTE      T3L
      000000D7H   SFRSYM    DATA     BYTE      T2L
      0000008BH   SFRSYM    DATA     BYTE      TL1
      000000D2H   SFRSYM    DATA     BYTE      T4H
      000000D4H   SFRSYM    DATA     BYTE      T3H
      000000D6H   SFRSYM    DATA     BYTE      T2H
      0000008DH   SFRSYM    DATA     BYTE      TH1
      000000DFH   SFRSYM    DATA     BYTE      IP3
      000000F4H   SFRSYM    DATA     BYTE      USBCON
      000000B5H   SFRSYM    DATA     BYTE      IP2
      000000FFH   SFRSYM    DATA     BYTE      RSTCFG
L251 LINKER/LOCATER V4.66.93.0                                                        05/04/2024  19:25:53  PAGE 39


      000000F9H   SFRSYM    DATA     BYTE      LINICR
      0000008EH   SFRSYM    DATA     BYTE      AUXR
      000000AFH   SFRSYM    DATA     BYTE      IE2
      00000088H   SFRSYM    DATA     BYTE      TCON
      00000089H   SFRSYM    DATA     BYTE      TMOD
      00000098H   SFRSYM    DATA     BYTE      SCON
      000000F1H   SFRSYM    DATA     BYTE      CANICR
      00000087H   SFRSYM    DATA     BYTE      PCON
      00000099H   SFRSYM    DATA     BYTE      SBUF
      000000BCH   SFRSYM    DATA     BYTE      ADC_CONTR
      000000E7H   SFRSYM    DATA     BYTE      CMPCR2
      000000E6H   SFRSYM    DATA     BYTE      CMPCR1
      000000B8H   SFRSYM    DATA     BYTE      IP
      000000A8H.4 SFRSYM    DATA     BIT       ES
      0000008FH   SFRSYM    DATA     BYTE      INTCLKO
      000000EEH   SFRSYM    DATA     BYTE      IP3H
      000000B6H   SFRSYM    DATA     BYTE      IP2H
      000000A8H   SFRSYM    DATA     BYTE      IE
      000000BBH   SFRSYM    DATA     BYTE      P_SW3
      000000BAH   SFRSYM    DATA     BYTE      P_SW2
      000000A2H   SFRSYM    DATA     BYTE      P_SW1
      000000CEH   SFRSYM    DATA     BYTE      SPCTL
      000000F8H   SFRSYM    DATA     BYTE      P7
      000000E8H   SFRSYM    DATA     BYTE      P6
      000000C8H   SFRSYM    DATA     BYTE      P5
      000000C0H   SFRSYM    DATA     BYTE      P4
      000000C9H   SFRSYM    DATA     BYTE      P5M1
      000000B0H   SFRSYM    DATA     BYTE      P3
      000000CAH   SFRSYM    DATA     BYTE      P5M0
      000000A0H   SFRSYM    DATA     BYTE      P2
      00000090H   SFRSYM    DATA     BYTE      P1
      00000080H   SFRSYM    DATA     BYTE      P0

      00FF2E0CH   BLOCK     CODE     ---       LVL=0
      00000565H   SYMBOL    EDATA    INT       uart_n
      00000567H   SYMBOL    EDATA    INT       uart_rx_pin
      00000569H   SYMBOL    EDATA    INT       uart_tx_pin
      0000056BH   SYMBOL    EDATA    DWORD     baud
      0000056FH   SYMBOL    EDATA    INT       tim_n
      00FF2E1CH   BLOCK     CODE     NEAR LAB  LVL=1
      00000571H   SYMBOL    EDATA    WORD      brt
      ---         BLOCKEND  ---      ---       LVL=1
      00FF2E0CH   LINE      CODE     ---       #42
      00FF2E1CH   LINE      CODE     ---       #43
      00FF2E1CH   LINE      CODE     ---       #46
      00FF2E43H   LINE      CODE     ---       #49
      00FF2E65H   LINE      CODE     ---       #51
      00FF2E65H   LINE      CODE     ---       #53
      00FF2E71H   LINE      CODE     ---       #55
      00FF2E74H   LINE      CODE     ---       #56
      00FF2E78H   LINE      CODE     ---       #57
      00FF2E7EH   LINE      CODE     ---       #58
      00FF2E88H   LINE      CODE     ---       #59
      00FF2E8BH   LINE      CODE     ---       #60
      00FF2E8EH   LINE      CODE     ---       #61
      00FF2E93H   LINE      CODE     ---       #62
      00FF2E95H   LINE      CODE     ---       #63
      00FF2EA1H   LINE      CODE     ---       #65
      00FF2EA4H   LINE      CODE     ---       #66
      00FF2EAAH   LINE      CODE     ---       #67
      00FF2EB4H   LINE      CODE     ---       #68
      00FF2EB7H   LINE      CODE     ---       #69
      00FF2EB7H   LINE      CODE     ---       #70
      00FF2EBAH   LINE      CODE     ---       #71
      00FF2ED0H   LINE      CODE     ---       #73
L251 LINKER/LOCATER V4.66.93.0                                                        05/04/2024  19:25:53  PAGE 40


      00FF2ED4H   LINE      CODE     ---       #74
      00FF2ED6H   LINE      CODE     ---       #75
      00FF2EEEH   LINE      CODE     ---       #77
      00FF2EF1H   LINE      CODE     ---       #78
      00FF2EF3H   LINE      CODE     ---       #79
      00FF2F0BH   LINE      CODE     ---       #81
      00FF2F0EH   LINE      CODE     ---       #82
      00FF2F10H   LINE      CODE     ---       #83
      00FF2F28H   LINE      CODE     ---       #85
      00FF2F2BH   LINE      CODE     ---       #86
      00FF2F2BH   LINE      CODE     ---       #87
      00FF2F30H   LINE      CODE     ---       #88
      00FF2F33H   LINE      CODE     ---       #89
      00FF2F36H   LINE      CODE     ---       #92
      00FF2F36H   LINE      CODE     ---       #94
      00FF2F42H   LINE      CODE     ---       #96
      00FF2F45H   LINE      CODE     ---       #97
      00FF2F4BH   LINE      CODE     ---       #98
      00FF2F55H   LINE      CODE     ---       #99
      00FF2F58H   LINE      CODE     ---       #100
      00FF2F58H   LINE      CODE     ---       #102
      00FF2F5BH   LINE      CODE     ---       #103
      00FF2F73H   LINE      CODE     ---       #105
      00FF2F77H   LINE      CODE     ---       #106
      00FF2F79H   LINE      CODE     ---       #107
      00FF2F91H   LINE      CODE     ---       #109
      00FF2F94H   LINE      CODE     ---       #110
      00FF2F94H   LINE      CODE     ---       #112
      00FF2F97H   LINE      CODE     ---       #113
      00FF2F9CH   LINE      CODE     ---       #114
      00FF2F9FH   LINE      CODE     ---       #117
      00FF2F9FH   LINE      CODE     ---       #119
      00FF2FABH   LINE      CODE     ---       #121
      00FF2FAEH   LINE      CODE     ---       #122
      00FF2FB4H   LINE      CODE     ---       #123
      00FF2FBEH   LINE      CODE     ---       #124
      00FF2FC1H   LINE      CODE     ---       #125
      00FF2FC3H   LINE      CODE     ---       #126
      00FF2FCFH   LINE      CODE     ---       #128
      00FF2FD2H   LINE      CODE     ---       #129
      00FF2FD8H   LINE      CODE     ---       #130
      00FF2FE2H   LINE      CODE     ---       #131
      00FF2FE5H   LINE      CODE     ---       #132
      00FF2FE5H   LINE      CODE     ---       #134
      00FF2FE8H   LINE      CODE     ---       #135
      00FF3000H   LINE      CODE     ---       #137
      00FF3004H   LINE      CODE     ---       #138
      00FF3006H   LINE      CODE     ---       #139
      00FF301EH   LINE      CODE     ---       #141
      00FF3021H   LINE      CODE     ---       #142
      00FF3021H   LINE      CODE     ---       #144
      00FF3024H   LINE      CODE     ---       #145
      00FF3029H   LINE      CODE     ---       #146
      00FF302CH   LINE      CODE     ---       #149
      00FF302CH   LINE      CODE     ---       #151
      00FF3038H   LINE      CODE     ---       #153
      00FF303BH   LINE      CODE     ---       #154
      00FF3041H   LINE      CODE     ---       #155
      00FF304BH   LINE      CODE     ---       #156
      00FF304EH   LINE      CODE     ---       #157
      00FF3050H   LINE      CODE     ---       #158
      00FF305CH   LINE      CODE     ---       #160
      00FF305FH   LINE      CODE     ---       #161
      00FF3065H   LINE      CODE     ---       #162
      00FF306FH   LINE      CODE     ---       #163
L251 LINKER/LOCATER V4.66.93.0                                                        05/04/2024  19:25:53  PAGE 41


      00FF3072H   LINE      CODE     ---       #164
      00FF3072H   LINE      CODE     ---       #166
      00FF3075H   LINE      CODE     ---       #167
      00FF308DH   LINE      CODE     ---       #169
      00FF3091H   LINE      CODE     ---       #170
      00FF3093H   LINE      CODE     ---       #171
      00FF30ABH   LINE      CODE     ---       #173
      00FF30AEH   LINE      CODE     ---       #174
      00FF30B2H   LINE      CODE     ---       #175
      00FF30B5H   LINE      CODE     ---       #176
      00FF30B5H   LINE      CODE     ---       #177
      00FF30B8H   LINE      CODE     ---       #178
      00FF30BDH   LINE      CODE     ---       #179
      00FF30BDH   LINE      CODE     ---       #182
      00FF30BDH   LINE      CODE     ---       #184
      ---         BLOCKEND  ---      ---       LVL=0

      00FF424BH   BLOCK     CODE     ---       LVL=0
      00000753H   SYMBOL    EDATA    INT       uart_n
      00000755H   SYMBOL    EDATA    BYTE      dat
      00FF424BH   LINE      CODE     ---       #193
      00FF4253H   LINE      CODE     ---       #195
      00FF4265H   LINE      CODE     ---       #197
      00FF4265H   LINE      CODE     ---       #198
      00FF426EH   LINE      CODE     ---       #199
      00FF4274H   LINE      CODE     ---       #200
      00FF427AH   LINE      CODE     ---       #201
      00FF427CH   LINE      CODE     ---       #202
      00FF427CH   LINE      CODE     ---       #203
      00FF4285H   LINE      CODE     ---       #204
      00FF428BH   LINE      CODE     ---       #205
      00FF4291H   LINE      CODE     ---       #206
      00FF4293H   LINE      CODE     ---       #207
      00FF4293H   LINE      CODE     ---       #208
      00FF429CH   LINE      CODE     ---       #209
      00FF42A2H   LINE      CODE     ---       #210
      00FF42A8H   LINE      CODE     ---       #211
      00FF42AAH   LINE      CODE     ---       #212
      00FF42AAH   LINE      CODE     ---       #213
      00FF42B3H   LINE      CODE     ---       #214
      00FF42B9H   LINE      CODE     ---       #215
      00FF42BFH   LINE      CODE     ---       #216
      00FF42BFH   LINE      CODE     ---       #217
      00FF42BFH   LINE      CODE     ---       #218
      ---         BLOCKEND  ---      ---       LVL=0
      00000601H   SYMBOL    EDATA    INT       uart_n
      00000603H   SYMBOL    EDATA    ---       p
      00000607H   SYMBOL    EDATA    DWORD     len
      000006A8H   SYMBOL    EDATA    INT       uart_n
      000006AAH   SYMBOL    EDATA    ---       str

      ---         MODULE    ---      ---       zf_fifo
      00000505H   PUBLIC    EDATA    BYTE      ?fifo_write_buffer?BYTE
      000005A9H   PUBLIC    EDATA    BYTE      ?fifo_read_element?BYTE
      00000008H   PUBLIC    EDATA    BYTE      ?fifo_read_buffer?BYTE
      0000049AH   PUBLIC    EDATA    BYTE      ?fifo_read_tail_buffer?BYTE
      00000517H   PUBLIC    EDATA    BYTE      ?fifo_init?BYTE
      000000D0H   SFRSYM    DATA     BYTE      PSW
      0000009DH   SFRSYM    DATA     BYTE      IRCBAND
      00000097H   SFRSYM    DATA     BYTE      AUXR2
      000000EFH   SFRSYM    DATA     BYTE      AUXINTIF
      000000FDH   SFRSYM    DATA     BYTE      S4CON
      000000ACH   SFRSYM    DATA     BYTE      S3CON
      0000009AH   SFRSYM    DATA     BYTE      S2CON
      000000B7H   SFRSYM    DATA     BYTE      IPH
L251 LINKER/LOCATER V4.66.93.0                                                        05/04/2024  19:25:53  PAGE 42


      000000CDH   SFRSYM    DATA     BYTE      SPSTAT
      000000DDH   SFRSYM    DATA     BYTE      T4T3M
      000000C1H   SFRSYM    DATA     BYTE      WDT_CONTR
      000000DFH   SFRSYM    DATA     BYTE      IP3
      000000F4H   SFRSYM    DATA     BYTE      USBCON
      000000B5H   SFRSYM    DATA     BYTE      IP2
      000000FFH   SFRSYM    DATA     BYTE      RSTCFG
      000000F9H   SFRSYM    DATA     BYTE      LINICR
      0000008EH   SFRSYM    DATA     BYTE      AUXR
      000000AFH   SFRSYM    DATA     BYTE      IE2
      00000088H   SFRSYM    DATA     BYTE      TCON
      00000098H   SFRSYM    DATA     BYTE      SCON
      000000F1H   SFRSYM    DATA     BYTE      CANICR
      00000087H   SFRSYM    DATA     BYTE      PCON
      000000BCH   SFRSYM    DATA     BYTE      ADC_CONTR
      000000E7H   SFRSYM    DATA     BYTE      CMPCR2
      000000E6H   SFRSYM    DATA     BYTE      CMPCR1
      000000B8H   SFRSYM    DATA     BYTE      IP
      0000008FH   SFRSYM    DATA     BYTE      INTCLKO
      000000EEH   SFRSYM    DATA     BYTE      IP3H
      000000B6H   SFRSYM    DATA     BYTE      IP2H
      000000A8H   SFRSYM    DATA     BYTE      IE
      000000BBH   SFRSYM    DATA     BYTE      P_SW3
      000000BAH   SFRSYM    DATA     BYTE      P_SW2
      000000A2H   SFRSYM    DATA     BYTE      P_SW1
      000000CEH   SFRSYM    DATA     BYTE      SPCTL
      000000F8H   SFRSYM    DATA     BYTE      P7
      000000E8H   SFRSYM    DATA     BYTE      P6
      000000C8H   SFRSYM    DATA     BYTE      P5
      000000C0H   SFRSYM    DATA     BYTE      P4
      000000B0H   SFRSYM    DATA     BYTE      P3
      000000A0H   SFRSYM    DATA     BYTE      P2
      00000090H   SFRSYM    DATA     BYTE      P1
      00000080H   SFRSYM    DATA     BYTE      P0
      00FF42C0H   SYMBOL    CODE     ---       fifo_head_offset

      00FF42C0H   BLOCK     CODE     ---       LVL=0
      00000628H   SYMBOL    EDATA    ---       fifo
      0000062CH   SYMBOL    EDATA    DWORD     offset
      00FF42C0H   LINE      CODE     ---       #42
      00FF42C8H   LINE      CODE     ---       #44
      00FF42E4H   LINE      CODE     ---       #46
      00FF42E6H   LINE      CODE     ---       #48
      00FF430DH   LINE      CODE     ---       #49
      00FF432FH   LINE      CODE     ---       #50
      ---         BLOCKEND  ---      ---       LVL=0
      00000630H   SYMBOL    EDATA    ---       fifo
      00000634H   SYMBOL    EDATA    DWORD     offset
      000006AEH   SYMBOL    EDATA    ---       fifo
      000006B2H   SYMBOL    EDATA    INT       return_state
      00000740H   SYMBOL    EDATA    ---       fifo
      0000060BH   SYMBOL    EDATA    ---       fifo
      0000060FH   SYMBOL    EDATA    DWORD     dat
      00000613H   SYMBOL    EDATA    INT       return_state
      00000505H   SYMBOL    EDATA    ---       fifo
      00000509H   SYMBOL    EDATA    ---       dat
      0000050DH   SYMBOL    EDATA    DWORD     length
      00000511H   SYMBOL    EDATA    INT       return_state
      00000513H   SYMBOL    EDATA    DWORD     temp_length
      000005A9H   SYMBOL    EDATA    ---       fifo
      000005ADH   SYMBOL    EDATA    ---       dat
      000005B1H   SYMBOL    EDATA    INT       flag
      000005B3H   SYMBOL    EDATA    INT       return_state
      00000008H   SYMBOL    EDATA    ---       fifo
      0000000CH   SYMBOL    EDATA    ---       dat
L251 LINKER/LOCATER V4.66.93.0                                                        05/04/2024  19:25:53  PAGE 43


      00000010H   SYMBOL    EDATA    ---       length
      00000014H   SYMBOL    EDATA    INT       flag
      00000016H   SYMBOL    EDATA    INT       return_state
      00000018H   SYMBOL    EDATA    DWORD     temp_length
      0000001CH   SYMBOL    EDATA    DWORD     fifo_data_length
      0000049AH   SYMBOL    EDATA    ---       fifo
      0000049EH   SYMBOL    EDATA    ---       dat
      000004A2H   SYMBOL    EDATA    ---       length
      000004A6H   SYMBOL    EDATA    INT       flag
      000004A8H   SYMBOL    EDATA    INT       return_state
      000004AAH   SYMBOL    EDATA    DWORD     temp_length
      000004AEH   SYMBOL    EDATA    DWORD     fifo_data_length
      00000517H   SYMBOL    EDATA    ---       fifo
      0000051BH   SYMBOL    EDATA    INT       type
      0000051DH   SYMBOL    EDATA    ---       buffer_addr
      00000521H   SYMBOL    EDATA    DWORD     len
      00000525H   SYMBOL    EDATA    INT       return_state

      ---         MODULE    ---      ---       zf_iic
      00FF43FAH   PUBLIC    CODE     ---       wait
      00FF4AB5H   PUBLIC    CODE     ---       iic_delay_us
      000006B0H   PUBLIC    EDATA    BYTE      ?iic_init?BYTE
      000000D0H   SFRSYM    DATA     BYTE      PSW
      0000009DH   SFRSYM    DATA     BYTE      IRCBAND
      00000097H   SFRSYM    DATA     BYTE      AUXR2
      000000EFH   SFRSYM    DATA     BYTE      AUXINTIF
      000000FDH   SFRSYM    DATA     BYTE      S4CON
      000000ACH   SFRSYM    DATA     BYTE      S3CON
      0000009AH   SFRSYM    DATA     BYTE      S2CON
      000000B7H   SFRSYM    DATA     BYTE      IPH
      000000CDH   SFRSYM    DATA     BYTE      SPSTAT
      000000DDH   SFRSYM    DATA     BYTE      T4T3M
      000000C1H   SFRSYM    DATA     BYTE      WDT_CONTR
      000000DFH   SFRSYM    DATA     BYTE      IP3
      000000F4H   SFRSYM    DATA     BYTE      USBCON
      000000B5H   SFRSYM    DATA     BYTE      IP2
      000000FFH   SFRSYM    DATA     BYTE      RSTCFG
      000000F9H   SFRSYM    DATA     BYTE      LINICR
      0000008EH   SFRSYM    DATA     BYTE      AUXR
      000000AFH   SFRSYM    DATA     BYTE      IE2
      00000088H   SFRSYM    DATA     BYTE      TCON
      00000098H   SFRSYM    DATA     BYTE      SCON
      000000F1H   SFRSYM    DATA     BYTE      CANICR
      00000087H   SFRSYM    DATA     BYTE      PCON
      000000BCH   SFRSYM    DATA     BYTE      ADC_CONTR
      000000E7H   SFRSYM    DATA     BYTE      CMPCR2
      000000E6H   SFRSYM    DATA     BYTE      CMPCR1
      000000B8H   SFRSYM    DATA     BYTE      IP
      0000008FH   SFRSYM    DATA     BYTE      INTCLKO
      000000EEH   SFRSYM    DATA     BYTE      IP3H
      000000B6H   SFRSYM    DATA     BYTE      IP2H
      000000A8H   SFRSYM    DATA     BYTE      IE
      000000BBH   SFRSYM    DATA     BYTE      P_SW3
      000000BAH   SFRSYM    DATA     BYTE      P_SW2
      000000A2H   SFRSYM    DATA     BYTE      P_SW1
      000000CEH   SFRSYM    DATA     BYTE      SPCTL
      000000F8H   SFRSYM    DATA     BYTE      P7
      000000E8H   SFRSYM    DATA     BYTE      P6
      000000C8H   SFRSYM    DATA     BYTE      P5
      000000C0H   SFRSYM    DATA     BYTE      P4
      000000B0H   SFRSYM    DATA     BYTE      P3
      000000A0H   SFRSYM    DATA     BYTE      P2
      00000090H   SFRSYM    DATA     BYTE      P1
      00000080H   SFRSYM    DATA     BYTE      P0

L251 LINKER/LOCATER V4.66.93.0                                                        05/04/2024  19:25:53  PAGE 44


      00FF4AB5H   BLOCK     CODE     ---       LVL=0
      00000756H   SYMBOL    EDATA    WORD      x
      00FF4AB9H   BLOCK     CODE     NEAR LAB  LVL=1
      00000758H   SYMBOL    EDATA    BYTE      i
      ---         BLOCKEND  ---      ---       LVL=1
      00FF4AB5H   LINE      CODE     ---       #30
      00FF4AB9H   LINE      CODE     ---       #31
      00FF4AB9H   LINE      CODE     ---       #33
      00FF4ABBH   LINE      CODE     ---       #35
      00FF4AC1H   LINE      CODE     ---       #36
      00FF4AD3H   LINE      CODE     ---       #37
      00FF4AE9H   LINE      CODE     ---       #38
      ---         BLOCKEND  ---      ---       LVL=0

      00FF43FAH   BLOCK     CODE     ---       LVL=0
      00000759H   SYMBOL    EDATA    WORD      count
      0000075BH   SYMBOL    EDATA    BYTE      ret
      00FF43FAH   LINE      CODE     ---       #47
      00FF43FAH   LINE      CODE     ---       #48
      00FF43FAH   LINE      CODE     ---       #49
      00FF4400H   LINE      CODE     ---       #50
      00FF4405H   LINE      CODE     ---       #51
      00FF4407H   LINE      CODE     ---       #53
      00FF440EH   LINE      CODE     ---       #54
      00FF4424H   LINE      CODE     ---       #56
      00FF442AH   LINE      CODE     ---       #57
      00FF442CH   LINE      CODE     ---       #58
      00FF443AH   LINE      CODE     ---       #60
      00FF444CH   LINE      CODE     ---       #61
      00FF4450H   LINE      CODE     ---       #62
      ---         BLOCKEND  ---      ---       LVL=0
      0000078CH   SYMBOL    EDATA    BYTE      ret
      00000772H   SYMBOL    EDATA    CHAR      dat
      00000773H   SYMBOL    EDATA    BYTE      ret
      0000078DH   SYMBOL    EDATA    BYTE      ret
      0000078EH   SYMBOL    EDATA    BYTE      ret
      0000078FH   SYMBOL    EDATA    BYTE      ret
      000006B4H   SYMBOL    EDATA    INT       iic_n
      000006B6H   SYMBOL    EDATA    DWORD     wait_time
      0000075CH   SYMBOL    EDATA    BYTE      dev_add
      0000075DH   SYMBOL    EDATA    BYTE      reg
      0000075EH   SYMBOL    EDATA    BYTE      dat
      000006BAH   SYMBOL    EDATA    BYTE      dev_add
      000006BBH   SYMBOL    EDATA    BYTE      reg
      000006BCH   SYMBOL    EDATA    ---       dat
      00000688H   SYMBOL    EDATA    BYTE      dev_add
      00000689H   SYMBOL    EDATA    BYTE      reg
      0000068AH   SYMBOL    EDATA    ---       dat
      0000068EH   SYMBOL    EDATA    BYTE      num
      00000774H   SYMBOL    EDATA    INT       iic_n

      ---         MODULE    ---      ---       SEEKFREE_BLUETOOTH_CH9141
      000000D0H   SFRSYM    DATA     BYTE      PSW
      0000009DH   SFRSYM    DATA     BYTE      IRCBAND
      00000097H   SFRSYM    DATA     BYTE      AUXR2
      000000EFH   SFRSYM    DATA     BYTE      AUXINTIF
      000000FDH   SFRSYM    DATA     BYTE      S4CON
      000000ACH   SFRSYM    DATA     BYTE      S3CON
      0000009AH   SFRSYM    DATA     BYTE      S2CON
      000000FEH   SFRSYM    DATA     BYTE      S4BUF
      000000B7H   SFRSYM    DATA     BYTE      IPH
      000000CDH   SFRSYM    DATA     BYTE      SPSTAT
      000000DDH   SFRSYM    DATA     BYTE      T4T3M
      000000C1H   SFRSYM    DATA     BYTE      WDT_CONTR
      000000DFH   SFRSYM    DATA     BYTE      IP3
L251 LINKER/LOCATER V4.66.93.0                                                        05/04/2024  19:25:53  PAGE 45


      000000F4H   SFRSYM    DATA     BYTE      USBCON
      000000B5H   SFRSYM    DATA     BYTE      IP2
      000000FFH   SFRSYM    DATA     BYTE      RSTCFG
      000000F9H   SFRSYM    DATA     BYTE      LINICR
      0000008EH   SFRSYM    DATA     BYTE      AUXR
      000000AFH   SFRSYM    DATA     BYTE      IE2
      00000080H.7 SFRSYM    DATA     BIT       P07
      00000088H   SFRSYM    DATA     BYTE      TCON
      00000098H   SFRSYM    DATA     BYTE      SCON
      000000F1H   SFRSYM    DATA     BYTE      CANICR
      00000087H   SFRSYM    DATA     BYTE      PCON
      000000BCH   SFRSYM    DATA     BYTE      ADC_CONTR
      000000E7H   SFRSYM    DATA     BYTE      CMPCR2
      000000E6H   SFRSYM    DATA     BYTE      CMPCR1
      000000B8H   SFRSYM    DATA     BYTE      IP
      0000008FH   SFRSYM    DATA     BYTE      INTCLKO
      000000EEH   SFRSYM    DATA     BYTE      IP3H
      000000B6H   SFRSYM    DATA     BYTE      IP2H
      000000A8H   SFRSYM    DATA     BYTE      IE
      000000BBH   SFRSYM    DATA     BYTE      P_SW3
      000000BAH   SFRSYM    DATA     BYTE      P_SW2
      000000A2H   SFRSYM    DATA     BYTE      P_SW1
      000000CEH   SFRSYM    DATA     BYTE      SPCTL
      000000F8H   SFRSYM    DATA     BYTE      P7
      000000E8H   SFRSYM    DATA     BYTE      P6
      000000C8H   SFRSYM    DATA     BYTE      P5
      000000C0H   SFRSYM    DATA     BYTE      P4
      000000B0H   SFRSYM    DATA     BYTE      P3
      000000A0H   SFRSYM    DATA     BYTE      P2
      00000090H   SFRSYM    DATA     BYTE      P1
      00000080H   SFRSYM    DATA     BYTE      P0
      00010000H   SYMBOL    XDATA    ---       bluetooth_ch9141_buffer
      00010040H   SYMBOL    XDATA    BYTE      bluetooth_ch9141_data
      00010041H   SYMBOL    XDATA    ---       bluetooth_ch9141_fifo
      00000638H   SYMBOL    EDATA    ---       buff
      0000063CH   SYMBOL    EDATA    DWORD     len
      00010114H   SYMBOL    XDATA    WORD      time_count
      00000640H   SYMBOL    EDATA    ---       buff
      00000644H   SYMBOL    EDATA    DWORD     len
      00010108H   SYMBOL    XDATA    DWORD     data_len

      ---         MODULE    ---      ---       SEEKFREE_FONT
      00FF0096H   PUBLIC    CODE     ---       oled_8x16
      00FF0686H   PUBLIC    CODE     ---       tft_ascii
      00FF0C76H   PUBLIC    CODE     ---       oled_6x8
      000000D0H   SFRSYM    DATA     BYTE      PSW
      0000009DH   SFRSYM    DATA     BYTE      IRCBAND
      00000097H   SFRSYM    DATA     BYTE      AUXR2
      000000EFH   SFRSYM    DATA     BYTE      AUXINTIF
      000000FDH   SFRSYM    DATA     BYTE      S4CON
      000000ACH   SFRSYM    DATA     BYTE      S3CON
      0000009AH   SFRSYM    DATA     BYTE      S2CON
      000000B7H   SFRSYM    DATA     BYTE      IPH
      000000CDH   SFRSYM    DATA     BYTE      SPSTAT
      000000DDH   SFRSYM    DATA     BYTE      T4T3M
      000000C1H   SFRSYM    DATA     BYTE      WDT_CONTR
      000000DFH   SFRSYM    DATA     BYTE      IP3
      000000F4H   SFRSYM    DATA     BYTE      USBCON
      000000B5H   SFRSYM    DATA     BYTE      IP2
      000000FFH   SFRSYM    DATA     BYTE      RSTCFG
      000000F9H   SFRSYM    DATA     BYTE      LINICR
      0000008EH   SFRSYM    DATA     BYTE      AUXR
      000000AFH   SFRSYM    DATA     BYTE      IE2
      00000088H   SFRSYM    DATA     BYTE      TCON
      00000098H   SFRSYM    DATA     BYTE      SCON
L251 LINKER/LOCATER V4.66.93.0                                                        05/04/2024  19:25:53  PAGE 46


      000000F1H   SFRSYM    DATA     BYTE      CANICR
      00000087H   SFRSYM    DATA     BYTE      PCON
      000000BCH   SFRSYM    DATA     BYTE      ADC_CONTR
      000000E7H   SFRSYM    DATA     BYTE      CMPCR2
      000000E6H   SFRSYM    DATA     BYTE      CMPCR1
      000000B8H   SFRSYM    DATA     BYTE      IP
      0000008FH   SFRSYM    DATA     BYTE      INTCLKO
      000000EEH   SFRSYM    DATA     BYTE      IP3H
      000000B6H   SFRSYM    DATA     BYTE      IP2H
      000000A8H   SFRSYM    DATA     BYTE      IE
      000000BBH   SFRSYM    DATA     BYTE      P_SW3
      000000BAH   SFRSYM    DATA     BYTE      P_SW2
      000000A2H   SFRSYM    DATA     BYTE      P_SW1
      000000CEH   SFRSYM    DATA     BYTE      SPCTL
      000000F8H   SFRSYM    DATA     BYTE      P7
      000000E8H   SFRSYM    DATA     BYTE      P6
      000000C8H   SFRSYM    DATA     BYTE      P5
      000000C0H   SFRSYM    DATA     BYTE      P4
      000000B0H   SFRSYM    DATA     BYTE      P3
      000000A0H   SFRSYM    DATA     BYTE      P2
      00000090H   SFRSYM    DATA     BYTE      P1
      00000080H   SFRSYM    DATA     BYTE      P0

      ---         MODULE    ---      ---       SEEKFREE_OLED
      00FF4AEAH   PUBLIC    CODE     ---       oled_set_pos
      00FF47E4H   PUBLIC    CODE     ---       oled_wrcmd
      00FF482FH   PUBLIC    CODE     ---       oled_wrdat
      00FF4A4AH   PUBLIC    CODE     ---       oled_set_pos_spi
      00FF000EH   PUBLIC    CODE     ---       oled_wrcmd_spi
      00FF4CB4H   PUBLIC    CODE     ---       oled_wrdat_spi
      00FF439BH   PUBLIC    CODE     ---       oled_fill_spi
      00FF3D6EH   PUBLIC    CODE     ---       oled_printf_int32_spi
      00FF3BCEH   PUBLIC    CODE     ---       oled_p6x8str_spi
      00FF3F0AH   PUBLIC    CODE     ---       oled_init_spi
      000003E2H   PUBLIC    EDATA    BYTE      ?oled_printf_float?BYTE
      00000412H   PUBLIC    EDATA    BYTE      ?oled_printf_float_spi?BYTE
      000000D0H   SFRSYM    DATA     BYTE      PSW
      0000009DH   SFRSYM    DATA     BYTE      IRCBAND
      00000097H   SFRSYM    DATA     BYTE      AUXR2
      000000EFH   SFRSYM    DATA     BYTE      AUXINTIF
      000000FDH   SFRSYM    DATA     BYTE      S4CON
      000000ACH   SFRSYM    DATA     BYTE      S3CON
      0000009AH   SFRSYM    DATA     BYTE      S2CON
      000000B7H   SFRSYM    DATA     BYTE      IPH
      000000CDH   SFRSYM    DATA     BYTE      SPSTAT
      000000DDH   SFRSYM    DATA     BYTE      T4T3M
      000000C1H   SFRSYM    DATA     BYTE      WDT_CONTR
      000000DFH   SFRSYM    DATA     BYTE      IP3
      000000F4H   SFRSYM    DATA     BYTE      USBCON
      000000B5H   SFRSYM    DATA     BYTE      IP2
      000000FFH   SFRSYM    DATA     BYTE      RSTCFG
      000000F9H   SFRSYM    DATA     BYTE      LINICR
      0000008EH   SFRSYM    DATA     BYTE      AUXR
      000000AFH   SFRSYM    DATA     BYTE      IE2
      000000A0H.5 SFRSYM    DATA     BIT       P25
      00000088H   SFRSYM    DATA     BYTE      TCON
      000000A0H.3 SFRSYM    DATA     BIT       P23
      00000098H   SFRSYM    DATA     BYTE      SCON
      000000A0H.2 SFRSYM    DATA     BIT       P22
      000000A0H.1 SFRSYM    DATA     BIT       P21
      000000A0H.0 SFRSYM    DATA     BIT       P20
      000000F1H   SFRSYM    DATA     BYTE      CANICR
      00000087H   SFRSYM    DATA     BYTE      PCON
      000000BCH   SFRSYM    DATA     BYTE      ADC_CONTR
      000000E7H   SFRSYM    DATA     BYTE      CMPCR2
L251 LINKER/LOCATER V4.66.93.0                                                        05/04/2024  19:25:53  PAGE 47


      000000E6H   SFRSYM    DATA     BYTE      CMPCR1
      000000B8H   SFRSYM    DATA     BYTE      IP
      0000008FH   SFRSYM    DATA     BYTE      INTCLKO
      000000EEH   SFRSYM    DATA     BYTE      IP3H
      000000B6H   SFRSYM    DATA     BYTE      IP2H
      000000A8H   SFRSYM    DATA     BYTE      IE
      000000BBH   SFRSYM    DATA     BYTE      P_SW3
      000000BAH   SFRSYM    DATA     BYTE      P_SW2
      000000A2H   SFRSYM    DATA     BYTE      P_SW1
      000000CEH   SFRSYM    DATA     BYTE      SPCTL
      000000F8H   SFRSYM    DATA     BYTE      P7
      000000E8H   SFRSYM    DATA     BYTE      P6
      000000C8H   SFRSYM    DATA     BYTE      P5
      000000C0H   SFRSYM    DATA     BYTE      P4
      000000B0H   SFRSYM    DATA     BYTE      P3
      000000A0H   SFRSYM    DATA     BYTE      P2
      00000090H   SFRSYM    DATA     BYTE      P1
      00000080H   SFRSYM    DATA     BYTE      P0

      00FF482FH   BLOCK     CODE     ---       LVL=0
      00000790H   SYMBOL    EDATA    BYTE      dat
      00FF4833H   BLOCK     CODE     NEAR LAB  LVL=1
      0001011EH   SYMBOL    XDATA    BYTE      i
      ---         BLOCKEND  ---      ---       LVL=1
      00FF482FH   LINE      CODE     ---       #47
      00FF4833H   LINE      CODE     ---       #48
      00FF4833H   LINE      CODE     ---       #49
      00FF4839H   LINE      CODE     ---       #51
      00FF483CH   LINE      CODE     ---       #52
      00FF483FH   LINE      CODE     ---       #53
      00FF4842H   LINE      CODE     ---       #54
      00FF4844H   LINE      CODE     ---       #56
      00FF4850H   LINE      CODE     ---       #57
      00FF4853H   LINE      CODE     ---       #58
      00FF4856H   LINE      CODE     ---       #60
      00FF4859H   LINE      CODE     ---       #61
      00FF4863H   LINE      CODE     ---       #62
      00FF4876H   LINE      CODE     ---       #63
      00FF4879H   LINE      CODE     ---       #64
      ---         BLOCKEND  ---      ---       LVL=0

      00FF47E4H   BLOCK     CODE     ---       LVL=0
      00000791H   SYMBOL    EDATA    BYTE      cmd
      00FF47E8H   BLOCK     CODE     NEAR LAB  LVL=1
      0001011FH   SYMBOL    XDATA    BYTE      i
      ---         BLOCKEND  ---      ---       LVL=1
      00FF47E4H   LINE      CODE     ---       #98
      00FF47E8H   LINE      CODE     ---       #99
      00FF47E8H   LINE      CODE     ---       #100
      00FF47EEH   LINE      CODE     ---       #102
      00FF47F1H   LINE      CODE     ---       #103
      00FF47F4H   LINE      CODE     ---       #104
      00FF47F7H   LINE      CODE     ---       #106
      00FF47F9H   LINE      CODE     ---       #108
      00FF4805H   LINE      CODE     ---       #109
      00FF4808H   LINE      CODE     ---       #110
      00FF480BH   LINE      CODE     ---       #112
      00FF480EH   LINE      CODE     ---       #113
      00FF4818H   LINE      CODE     ---       #114
      00FF482BH   LINE      CODE     ---       #115
      00FF482EH   LINE      CODE     ---       #116
      ---         BLOCKEND  ---      ---       LVL=0
      000006C0H   SYMBOL    EDATA    WORD      hex
      000006C2H   SYMBOL    EDATA    ---       Print
      00010116H   SYMBOL    XDATA    BYTE      hexcheck
L251 LINKER/LOCATER V4.66.93.0                                                        05/04/2024  19:25:53  PAGE 48


      00010117H   SYMBOL    XDATA    BYTE      TEMP

      00FF4AEAH   BLOCK     CODE     ---       LVL=0
      00000776H   SYMBOL    EDATA    BYTE      x
      00000777H   SYMBOL    EDATA    BYTE      y
      00FF4AEAH   LINE      CODE     ---       #205
      00FF4AF2H   LINE      CODE     ---       #207
      00FF4AFDH   LINE      CODE     ---       #208
      00FF4B13H   LINE      CODE     ---       #209
      00FF4B1EH   LINE      CODE     ---       #210
      ---         BLOCKEND  ---      ---       LVL=0
      00000778H   SYMBOL    EDATA    BYTE      bmp_data
      00010120H   SYMBOL    XDATA    BYTE      y
      00000779H   SYMBOL    EDATA    BYTE      x
      0000075FH   SYMBOL    EDATA    BYTE      x
      00000760H   SYMBOL    EDATA    BYTE      y
      00000761H   SYMBOL    EDATA    BYTE      data1
      0000077AH   SYMBOL    EDATA    BYTE      x
      0000077BH   SYMBOL    EDATA    BYTE      y
      00000648H   SYMBOL    EDATA    BYTE      x
      00000649H   SYMBOL    EDATA    BYTE      y
      0000064AH   SYMBOL    EDATA    ---       ch
      00010121H   SYMBOL    XDATA    BYTE      c
      0000064EH   SYMBOL    EDATA    BYTE      i
      0000064FH   SYMBOL    EDATA    BYTE      j
      00000650H   SYMBOL    EDATA    BYTE      x
      00000651H   SYMBOL    EDATA    BYTE      y
      00000652H   SYMBOL    EDATA    ---       ch
      00010122H   SYMBOL    XDATA    BYTE      c
      00000656H   SYMBOL    EDATA    BYTE      i
      00000657H   SYMBOL    EDATA    BYTE      j
      000005C1H   SYMBOL    EDATA    BYTE      x
      000005C2H   SYMBOL    EDATA    BYTE      y
      000005C3H   SYMBOL    EDATA    WORD      num
      000005C5H   SYMBOL    EDATA    ---       ch
      000005CCH   SYMBOL    EDATA    BYTE      x
      000005CDH   SYMBOL    EDATA    BYTE      y
      000005CEH   SYMBOL    EDATA    INT       num
      000005D0H   SYMBOL    EDATA    ---       ch
      00000442H   SYMBOL    EDATA    WORD      x
      00000444H   SYMBOL    EDATA    WORD      y
      00000446H   SYMBOL    EDATA    LONG      dat
      0000044AH   SYMBOL    EDATA    BYTE      num
      0000044BH   SYMBOL    EDATA    ---       buff
      0000046DH   SYMBOL    EDATA    BYTE      length
      000003E2H   SYMBOL    EDATA    WORD      x
      000003E4H   SYMBOL    EDATA    WORD      y
      000003E6H   SYMBOL    EDATA    FLOAT     dat
      000003EAH   SYMBOL    EDATA    BYTE      num
      000003EBH   SYMBOL    EDATA    BYTE      pointnum
      000003ECH   SYMBOL    EDATA    BYTE      length
      000003EDH   SYMBOL    EDATA    ---       buff
      0000040FH   SYMBOL    EDATA    CHAR      start
      00000410H   SYMBOL    EDATA    CHAR      end
      00000411H   SYMBOL    EDATA    CHAR      point
      00000527H   SYMBOL    EDATA    WORD      high
      00000529H   SYMBOL    EDATA    WORD      width
      0000052BH   SYMBOL    EDATA    ---       p
      0000052FH   SYMBOL    EDATA    BYTE      value
      00000530H   SYMBOL    EDATA    WORD      i
      00010118H   SYMBOL    XDATA    WORD      j
      00000532H   SYMBOL    EDATA    WORD      temp
      00000534H   SYMBOL    EDATA    WORD      temp1
      00000536H   SYMBOL    EDATA    BYTE      dat
      00000573H   SYMBOL    EDATA    BYTE      x
L251 LINKER/LOCATER V4.66.93.0                                                        05/04/2024  19:25:53  PAGE 49


      00000574H   SYMBOL    EDATA    BYTE      y
      00000575H   SYMBOL    EDATA    BYTE      size
      00000576H   SYMBOL    EDATA    ---       p
      0000057AH   SYMBOL    EDATA    BYTE      len
      0000057BH   SYMBOL    EDATA    WORD      i
      0000057DH   SYMBOL    EDATA    WORD      j
      0000057FH   SYMBOL    EDATA    WORD      k

      00FF4CB4H   BLOCK     CODE     ---       LVL=0
      00000792H   SYMBOL    EDATA    BYTE      dat
      00FF4CB4H   LINE      CODE     ---       #534
      00FF4CB8H   LINE      CODE     ---       #536
      00FF4CBBH   LINE      CODE     ---       #537
      00FF4CBEH   LINE      CODE     ---       #538
      00FF4CC5H   LINE      CODE     ---       #539
      00FF4CC8H   LINE      CODE     ---       #542
      ---         BLOCKEND  ---      ---       LVL=0

      00FF000EH   BLOCK     CODE     ---       LVL=0
      00000793H   SYMBOL    EDATA    BYTE      cmd
      00FF000EH   LINE      CODE     ---       #576
      00FF0012H   LINE      CODE     ---       #578
      00FF0015H   LINE      CODE     ---       #579
      00FF0018H   LINE      CODE     ---       #580
      00FF001FH   LINE      CODE     ---       #581
      00FF0022H   LINE      CODE     ---       #582
      ---         BLOCKEND  ---      ---       LVL=0
      000006C6H   SYMBOL    EDATA    WORD      hex
      000006C8H   SYMBOL    EDATA    ---       Print
      0001011AH   SYMBOL    XDATA    BYTE      hexcheck
      0001011BH   SYMBOL    XDATA    BYTE      TEMP

      00FF3F0AH   BLOCK     CODE     ---       LVL=0
      00FF3F0AH   LINE      CODE     ---       #614
      00FF3F0AH   LINE      CODE     ---       #617
      00FF3F0DH   LINE      CODE     ---       #619
      00FF3F2DH   LINE      CODE     ---       #621
      00FF3F30H   LINE      CODE     ---       #622
      00FF3F37H   LINE      CODE     ---       #623
      00FF3F3AH   LINE      CODE     ---       #625
      00FF3F3FH   LINE      CODE     ---       #626
      00FF3F43H   LINE      CODE     ---       #627
      00FF3F48H   LINE      CODE     ---       #628
      00FF3F4DH   LINE      CODE     ---       #629
      00FF3F52H   LINE      CODE     ---       #630
      00FF3F57H   LINE      CODE     ---       #633
      00FF3F5CH   LINE      CODE     ---       #634
      00FF3F61H   LINE      CODE     ---       #640
      00FF3F66H   LINE      CODE     ---       #641
      00FF3F6BH   LINE      CODE     ---       #642
      00FF3F70H   LINE      CODE     ---       #643
      00FF3F75H   LINE      CODE     ---       #644
      00FF3F79H   LINE      CODE     ---       #645
      00FF3F7EH   LINE      CODE     ---       #646
      00FF3F83H   LINE      CODE     ---       #647
      00FF3F88H   LINE      CODE     ---       #648
      00FF3F8DH   LINE      CODE     ---       #649
      00FF3F92H   LINE      CODE     ---       #650
      00FF3F97H   LINE      CODE     ---       #651
      00FF3F9CH   LINE      CODE     ---       #652
      00FF3FA1H   LINE      CODE     ---       #653
      00FF3FA6H   LINE      CODE     ---       #654
      00FF3FABH   LINE      CODE     ---       #655
      00FF3FB0H   LINE      CODE     ---       #656
      00FF3FB5H   LINE      CODE     ---       #657
L251 LINKER/LOCATER V4.66.93.0                                                        05/04/2024  19:25:53  PAGE 50


      00FF3FBAH   LINE      CODE     ---       #658
      00FF3FBFH   LINE      CODE     ---       #659
      00FF3FC4H   LINE      CODE     ---       #660
      00FF3FC8H   LINE      CODE     ---       #661
      00FF3FCEH   LINE      CODE     ---       #662
      ---         BLOCKEND  ---      ---       LVL=0

      00FF4A4AH   BLOCK     CODE     ---       LVL=0
      0000077CH   SYMBOL    EDATA    BYTE      x
      0000077DH   SYMBOL    EDATA    BYTE      y
      00FF4A4AH   LINE      CODE     ---       #672
      00FF4A52H   LINE      CODE     ---       #676
      00FF4A5DH   LINE      CODE     ---       #677
      00FF4A74H   LINE      CODE     ---       #678
      00FF4A7FH   LINE      CODE     ---       #679
      ---         BLOCKEND  ---      ---       LVL=0

      00FF439BH   BLOCK     CODE     ---       LVL=0
      0000077EH   SYMBOL    EDATA    BYTE      bmp_data
      00FF439FH   BLOCK     CODE     NEAR LAB  LVL=1
      00010123H   SYMBOL    XDATA    BYTE      y
      0000077FH   SYMBOL    EDATA    BYTE      x
      ---         BLOCKEND  ---      ---       LVL=1
      00FF439BH   LINE      CODE     ---       #688
      00FF439FH   LINE      CODE     ---       #689
      00FF439FH   LINE      CODE     ---       #692
      00FF43A6H   LINE      CODE     ---       #694
      00FF43B3H   LINE      CODE     ---       #695
      00FF43B8H   LINE      CODE     ---       #696
      00FF43BDH   LINE      CODE     ---       #697
      00FF43E2H   LINE      CODE     ---       #698
      00FF43F9H   LINE      CODE     ---       #699
      ---         BLOCKEND  ---      ---       LVL=0
      00000762H   SYMBOL    EDATA    BYTE      x
      00000763H   SYMBOL    EDATA    BYTE      y
      00000764H   SYMBOL    EDATA    BYTE      data1
      00000780H   SYMBOL    EDATA    BYTE      x
      00000781H   SYMBOL    EDATA    BYTE      y

      00FF3BCEH   BLOCK     CODE     ---       LVL=0
      00000658H   SYMBOL    EDATA    BYTE      x
      00000659H   SYMBOL    EDATA    BYTE      y
      0000065AH   SYMBOL    EDATA    ---       ch
      00FF3BDAH   BLOCK     CODE     NEAR LAB  LVL=1
      00010124H   SYMBOL    XDATA    BYTE      c
      0000065EH   SYMBOL    EDATA    BYTE      i
      0000065FH   SYMBOL    EDATA    BYTE      j
      ---         BLOCKEND  ---      ---       LVL=1
      00FF3BCEH   LINE      CODE     ---       #748
      00FF3BDAH   LINE      CODE     ---       #749
      00FF3BDAH   LINE      CODE     ---       #750
      00FF3BE9H   LINE      CODE     ---       #751
      00FF3BECH   LINE      CODE     ---       #753
      00FF3C07H   LINE      CODE     ---       #754
      00FF3C23H   LINE      CODE     ---       #755
      00FF3C2EH   LINE      CODE     ---       #756
      00FF3C6FH   LINE      CODE     ---       #757
      00FF3C7BH   LINE      CODE     ---       #758
      00FF3C88H   LINE      CODE     ---       #759
      00FF3C9FH   LINE      CODE     ---       #760
      ---         BLOCKEND  ---      ---       LVL=0
      00000660H   SYMBOL    EDATA    BYTE      x
      00000661H   SYMBOL    EDATA    BYTE      y
      00000662H   SYMBOL    EDATA    ---       ch
      00010125H   SYMBOL    XDATA    BYTE      c
L251 LINKER/LOCATER V4.66.93.0                                                        05/04/2024  19:25:53  PAGE 51


      00000666H   SYMBOL    EDATA    BYTE      i
      00000667H   SYMBOL    EDATA    BYTE      j
      000005D7H   SYMBOL    EDATA    BYTE      x
      000005D8H   SYMBOL    EDATA    BYTE      y
      000005D9H   SYMBOL    EDATA    WORD      num
      000005DBH   SYMBOL    EDATA    ---       ch
      000005E2H   SYMBOL    EDATA    BYTE      x
      000005E3H   SYMBOL    EDATA    BYTE      y
      000005E4H   SYMBOL    EDATA    INT       num
      000005E6H   SYMBOL    EDATA    ---       ch

      00FF3D6EH   BLOCK     CODE     ---       LVL=0
      0000046EH   SYMBOL    EDATA    WORD      x
      00000470H   SYMBOL    EDATA    WORD      y
      00000472H   SYMBOL    EDATA    LONG      dat
      00000476H   SYMBOL    EDATA    BYTE      num
      00FF3D7EH   BLOCK     CODE     NEAR LAB  LVL=1
      00000477H   SYMBOL    EDATA    ---       buff
      00000499H   SYMBOL    EDATA    BYTE      length
      ---         BLOCKEND  ---      ---       LVL=1
      00FF3D6EH   LINE      CODE     ---       #841
      00FF3D7EH   LINE      CODE     ---       #842
      00FF3D7EH   LINE      CODE     ---       #846
      00FF3D8EH   LINE      CODE     ---       #848
      00FF3D9BH   LINE      CODE     ---       #849
      00FF3DC2H   LINE      CODE     ---       #852
      00FF3DC8H   LINE      CODE     ---       #853
      00FF3DE3H   LINE      CODE     ---       #854
      00FF3DF0H   LINE      CODE     ---       #855
      00FF3DF0H   LINE      CODE     ---       #856
      00FF3DF2H   LINE      CODE     ---       #858
      00FF3E03H   LINE      CODE     ---       #859
      00FF3E10H   LINE      CODE     ---       #860
      00FF3E1CH   LINE      CODE     ---       #861
      00FF3E2CH   LINE      CODE     ---       #863
      00FF3E3BH   LINE      CODE     ---       #864
      ---         BLOCKEND  ---      ---       LVL=0
      00000412H   SYMBOL    EDATA    WORD      x
      00000414H   SYMBOL    EDATA    WORD      y
      00000416H   SYMBOL    EDATA    FLOAT     dat
      0000041AH   SYMBOL    EDATA    BYTE      num
      0000041BH   SYMBOL    EDATA    BYTE      pointnum
      0000041CH   SYMBOL    EDATA    BYTE      length
      0000041DH   SYMBOL    EDATA    ---       buff
      0000043FH   SYMBOL    EDATA    CHAR      start
      00000440H   SYMBOL    EDATA    CHAR      end
      00000441H   SYMBOL    EDATA    CHAR      point
      00000537H   SYMBOL    EDATA    WORD      high
      00000539H   SYMBOL    EDATA    WORD      width
      0000053BH   SYMBOL    EDATA    ---       p
      0000053FH   SYMBOL    EDATA    BYTE      value
      0001011CH   SYMBOL    XDATA    WORD      i
      00000540H   SYMBOL    EDATA    WORD      j
      00000542H   SYMBOL    EDATA    WORD      temp
      00000544H   SYMBOL    EDATA    WORD      temp1
      00000546H   SYMBOL    EDATA    BYTE      dat
      00000581H   SYMBOL    EDATA    BYTE      x
      00000582H   SYMBOL    EDATA    BYTE      y
      00000583H   SYMBOL    EDATA    BYTE      size
      00000584H   SYMBOL    EDATA    ---       p
      00000588H   SYMBOL    EDATA    BYTE      len
      00000589H   SYMBOL    EDATA    WORD      i
      0000058BH   SYMBOL    EDATA    WORD      j
      0000058DH   SYMBOL    EDATA    WORD      k

L251 LINKER/LOCATER V4.66.93.0                                                        05/04/2024  19:25:53  PAGE 52


      ---         MODULE    ---      ---       SEEKFREE_PRINTF
      00FF389AH   PUBLIC    CODE     ---       number_conversion_ascii
      00FF17ABH   PUBLIC    CODE     ---       zf_sprintf
      00FF4125H   PUBLIC    CODE     ---       printf_reverse_order
      000004F1H   PUBLIC    EDATA    BYTE      ?number_conversion_ascii?BYTE
      00000353H   PUBLIC    EDATA    BYTE      ?zf_sprintf?BYTE
      000000D0H   SFRSYM    DATA     BYTE      PSW
      0000009DH   SFRSYM    DATA     BYTE      IRCBAND
      00000097H   SFRSYM    DATA     BYTE      AUXR2
      000000EFH   SFRSYM    DATA     BYTE      AUXINTIF
      000000FDH   SFRSYM    DATA     BYTE      S4CON
      000000ACH   SFRSYM    DATA     BYTE      S3CON
      0000009AH   SFRSYM    DATA     BYTE      S2CON
      000000B7H   SFRSYM    DATA     BYTE      IPH
      000000CDH   SFRSYM    DATA     BYTE      SPSTAT
      000000DDH   SFRSYM    DATA     BYTE      T4T3M
      000000C1H   SFRSYM    DATA     BYTE      WDT_CONTR
      000000DFH   SFRSYM    DATA     BYTE      IP3
      000000F4H   SFRSYM    DATA     BYTE      USBCON
      000000B5H   SFRSYM    DATA     BYTE      IP2
      000000FFH   SFRSYM    DATA     BYTE      RSTCFG
      000000F9H   SFRSYM    DATA     BYTE      LINICR
      0000008EH   SFRSYM    DATA     BYTE      AUXR
      000000AFH   SFRSYM    DATA     BYTE      IE2
      00000088H   SFRSYM    DATA     BYTE      TCON
      00000098H   SFRSYM    DATA     BYTE      SCON
      000000F1H   SFRSYM    DATA     BYTE      CANICR
      00000087H   SFRSYM    DATA     BYTE      PCON
      000000BCH   SFRSYM    DATA     BYTE      ADC_CONTR
      000000E7H   SFRSYM    DATA     BYTE      CMPCR2
      000000E6H   SFRSYM    DATA     BYTE      CMPCR1
      000000B8H   SFRSYM    DATA     BYTE      IP
      0000008FH   SFRSYM    DATA     BYTE      INTCLKO
      000000EEH   SFRSYM    DATA     BYTE      IP3H
      000000B6H   SFRSYM    DATA     BYTE      IP2H
      000000A8H   SFRSYM    DATA     BYTE      IE
      000000BBH   SFRSYM    DATA     BYTE      P_SW3
      000000BAH   SFRSYM    DATA     BYTE      P_SW2
      000000A2H   SFRSYM    DATA     BYTE      P_SW1
      000000CEH   SFRSYM    DATA     BYTE      SPCTL
      000000F8H   SFRSYM    DATA     BYTE      P7
      000000E8H   SFRSYM    DATA     BYTE      P6
      000000C8H   SFRSYM    DATA     BYTE      P5
      000000C0H   SFRSYM    DATA     BYTE      P4
      000000B0H   SFRSYM    DATA     BYTE      P3
      000000A0H   SFRSYM    DATA     BYTE      P2
      00000090H   SFRSYM    DATA     BYTE      P1
      00000080H   SFRSYM    DATA     BYTE      P0

      00FF389AH   BLOCK     CODE     ---       LVL=0
      000004F1H   SYMBOL    EDATA    DWORD     dat
      000004F5H   SYMBOL    EDATA    ---       p
      000004F9H   SYMBOL    EDATA    BYTE      neg_type
      000004FAH   SYMBOL    EDATA    BYTE      radix
      00FF38A6H   BLOCK     CODE     NEAR LAB  LVL=1
      000004FBH   SYMBOL    EDATA    LONG      neg_dat
      000004FFH   SYMBOL    EDATA    DWORD     pos_dat
      00000503H   SYMBOL    EDATA    BYTE      temp_data
      00000504H   SYMBOL    EDATA    BYTE      valid_num
      ---         BLOCKEND  ---      ---       LVL=1
      00FF389AH   LINE      CODE     ---       #29
      00FF38A6H   LINE      CODE     ---       #30
      00FF38A6H   LINE      CODE     ---       #33
      00FF38ABH   LINE      CODE     ---       #34
      00FF38B0H   LINE      CODE     ---       #36
L251 LINKER/LOCATER V4.66.93.0                                                        05/04/2024  19:25:53  PAGE 53


      00FF38B9H   LINE      CODE     ---       #38
      00FF38C1H   LINE      CODE     ---       #39
      00FF38D9H   LINE      CODE     ---       #40
      00FF38D9H   LINE      CODE     ---       #42
      00FF38F5H   LINE      CODE     ---       #43
      00FF3908H   LINE      CODE     ---       #44
      00FF3915H   LINE      CODE     ---       #46
      00FF391DH   LINE      CODE     ---       #47
      00FF3927H   LINE      CODE     ---       #48
      00FF3929H   LINE      CODE     ---       #49
      00FF392CH   LINE      CODE     ---       #52
      00FF3934H   LINE      CODE     ---       #53
      00FF3934H   LINE      CODE     ---       #55
      00FF3949H   LINE      CODE     ---       #56
      00FF3961H   LINE      CODE     ---       #57
      00FF396DH   LINE      CODE     ---       #59
      00FF3978H   LINE      CODE     ---       #61
      00FF398BH   LINE      CODE     ---       #62
      00FF3998H   LINE      CODE     ---       #64
      00FF39A0H   LINE      CODE     ---       #65
      00FF39AAH   LINE      CODE     ---       #66
      00FF39ACH   LINE      CODE     ---       #67
      00FF39ACH   LINE      CODE     ---       #68
      00FF39B0H   LINE      CODE     ---       #69
      ---         BLOCKEND  ---      ---       LVL=0

      00FF4125H   BLOCK     CODE     ---       LVL=0
      0000059CH   SYMBOL    EDATA    ---       d_buff
      000005A0H   SYMBOL    EDATA    DWORD     len
      00FF412DH   BLOCK     CODE     NEAR LAB  LVL=1
      000005A4H   SYMBOL    EDATA    DWORD     i
      000005A8H   SYMBOL    EDATA    CHAR      temp_data
      ---         BLOCKEND  ---      ---       LVL=1
      00FF4125H   LINE      CODE     ---       #71
      00FF412DH   LINE      CODE     ---       #72
      00FF412DH   LINE      CODE     ---       #75
      00FF4135H   LINE      CODE     ---       #77
      00FF4154H   LINE      CODE     ---       #78
      00FF417EH   LINE      CODE     ---       #79
      00FF4191H   LINE      CODE     ---       #80
      00FF41B9H   LINE      CODE     ---       #81
      ---         BLOCKEND  ---      ---       LVL=0

      00FF17ABH   BLOCK     CODE     ---       LVL=0
      00000353H   SYMBOL    EDATA    ---       buff
      00000357H   SYMBOL    EDATA    ---       format
      00FF17B3H   BLOCK     CODE     NEAR LAB  LVL=1
      0000035BH   SYMBOL    EDATA    DWORD     buff_len
      0000035FH   SYMBOL    EDATA    ---       arg
      00FF17C8H   BLOCK     CODE     NEAR LAB  LVL=2
      00000363H   SYMBOL    EDATA    CHAR      ret
      00FF18FDH   BLOCK     CODE     NEAR LAB  LVL=3
      00000364H   SYMBOL    EDATA    CHAR      ch
      ---         BLOCKEND  ---      ---       LVL=3
      00FF193CH   BLOCK     CODE     NEAR LAB  LVL=3
      00000364H   SYMBOL    EDATA    ---       vstr
      00000385H   SYMBOL    EDATA    LONG      ival
      00000389H   SYMBOL    EDATA    BYTE      vlen
      ---         BLOCKEND  ---      ---       LVL=3
      00FF19DDH   BLOCK     CODE     NEAR LAB  LVL=3
      00000364H   SYMBOL    EDATA    ---       vstr
      00000385H   SYMBOL    EDATA    FLOAT     ival
      00000389H   SYMBOL    EDATA    BYTE      vlen
      ---         BLOCKEND  ---      ---       LVL=3
      00FF1B7EH   BLOCK     CODE     NEAR LAB  LVL=3
L251 LINKER/LOCATER V4.66.93.0                                                        05/04/2024  19:25:53  PAGE 54


      00000364H   SYMBOL    EDATA    ---       vstr
      00000385H   SYMBOL    EDATA    DWORD     ival
      00000389H   SYMBOL    EDATA    BYTE      vlen
      ---         BLOCKEND  ---      ---       LVL=3
      00FF1BF6H   BLOCK     CODE     NEAR LAB  LVL=3
      00000364H   SYMBOL    EDATA    ---       vstr
      00000385H   SYMBOL    EDATA    DWORD     ival
      00000389H   SYMBOL    EDATA    BYTE      vlen
      ---         BLOCKEND  ---      ---       LVL=3
      00FF1C6EH   BLOCK     CODE     NEAR LAB  LVL=3
      00000364H   SYMBOL    EDATA    ---       vstr
      00000385H   SYMBOL    EDATA    DWORD     ival
      00000389H   SYMBOL    EDATA    BYTE      vlen
      ---         BLOCKEND  ---      ---       LVL=3
      00FF1CE6H   BLOCK     CODE     NEAR LAB  LVL=3
      00000364H   SYMBOL    EDATA    ---       pc
      ---         BLOCKEND  ---      ---       LVL=3
      00FF1D40H   BLOCK     CODE     NEAR LAB  LVL=3
      00000364H   SYMBOL    EDATA    ---       vstr
      00000385H   SYMBOL    EDATA    DWORD     ival
      ---         BLOCKEND  ---      ---       LVL=3
      ---         BLOCKEND  ---      ---       LVL=2
      ---         BLOCKEND  ---      ---       LVL=1
      00FF17ABH   LINE      CODE     ---       #216
      00FF17B3H   LINE      CODE     ---       #217
      00FF17B3H   LINE      CODE     ---       #218
      00FF17B9H   LINE      CODE     ---       #220
      00FF17C5H   LINE      CODE     ---       #222
      00FF17C8H   LINE      CODE     ---       #223
      00FF17C8H   LINE      CODE     ---       #224
      00FF17D3H   LINE      CODE     ---       #225
      00FF17DFH   LINE      CODE     ---       #227
      00FF18FAH   LINE      CODE     ---       #229
      00FF18FAH   LINE      CODE     ---       #233
      00FF18FDH   LINE      CODE     ---       #236
      00FF18FDH   LINE      CODE     ---       #237
      00FF18FDH   LINE      CODE     ---       #238
      00FF1916H   LINE      CODE     ---       #239
      00FF1921H   LINE      CODE     ---       #240
      00FF192BH   LINE      CODE     ---       #241
      00FF1939H   LINE      CODE     ---       #243
      00FF193CH   LINE      CODE     ---       #246
      00FF193CH   LINE      CODE     ---       #247
      00FF193CH   LINE      CODE     ---       #248
      00FF193CH   LINE      CODE     ---       #250
      00FF1955H   LINE      CODE     ---       #251
      00FF196CH   LINE      CODE     ---       #253
      00FF1976H   LINE      CODE     ---       #255
      00FF1987H   LINE      CODE     ---       #256
      00FF1994H   LINE      CODE     ---       #257
      00FF1994H   LINE      CODE     ---       #258
      00FF19A3H   LINE      CODE     ---       #259
      00FF19B8H   LINE      CODE     ---       #260
      00FF19C8H   LINE      CODE     ---       #261
      00FF19DAH   LINE      CODE     ---       #264
      00FF19DDH   LINE      CODE     ---       #266
      00FF19DDH   LINE      CODE     ---       #267
      00FF19DDH   LINE      CODE     ---       #268
      00FF19DDH   LINE      CODE     ---       #270
      00FF19F6H   LINE      CODE     ---       #271
      00FF1A10H   LINE      CODE     ---       #273
      00FF1A1BH   LINE      CODE     ---       #275
      00FF1A2CH   LINE      CODE     ---       #276
      00FF1A39H   LINE      CODE     ---       #277
      00FF1A39H   LINE      CODE     ---       #278
L251 LINKER/LOCATER V4.66.93.0                                                        05/04/2024  19:25:53  PAGE 55


      00FF1A48H   LINE      CODE     ---       #279
      00FF1A5DH   LINE      CODE     ---       #280
      00FF1A6DH   LINE      CODE     ---       #281
      00FF1A7FH   LINE      CODE     ---       #283
      00FF1AA3H   LINE      CODE     ---       #284
      00FF1AA7H   LINE      CODE     ---       #286
      00FF1AC1H   LINE      CODE     ---       #287
      00FF1AC3H   LINE      CODE     ---       #290
      00FF1AE7H   LINE      CODE     ---       #291
      00FF1AEDH   LINE      CODE     ---       #292
      00FF1AEDH   LINE      CODE     ---       #294
      00FF1AEFH   LINE      CODE     ---       #296
      00FF1B00H   LINE      CODE     ---       #297
      00FF1B0DH   LINE      CODE     ---       #298
      00FF1B17H   LINE      CODE     ---       #300
      00FF1B28H   LINE      CODE     ---       #301
      00FF1B35H   LINE      CODE     ---       #303
      00FF1B44H   LINE      CODE     ---       #304
      00FF1B59H   LINE      CODE     ---       #305
      00FF1B69H   LINE      CODE     ---       #306
      00FF1B7BH   LINE      CODE     ---       #308
      00FF1B7EH   LINE      CODE     ---       #311
      00FF1B7EH   LINE      CODE     ---       #312
      00FF1B7EH   LINE      CODE     ---       #314
      00FF1B97H   LINE      CODE     ---       #315
      00FF1BADH   LINE      CODE     ---       #317
      00FF1BBCH   LINE      CODE     ---       #318
      00FF1BD1H   LINE      CODE     ---       #319
      00FF1BE1H   LINE      CODE     ---       #320
      00FF1BF3H   LINE      CODE     ---       #321
      00FF1BF6H   LINE      CODE     ---       #323
      00FF1BF6H   LINE      CODE     ---       #324
      00FF1BF6H   LINE      CODE     ---       #326
      00FF1C0FH   LINE      CODE     ---       #327
      00FF1C25H   LINE      CODE     ---       #329
      00FF1C34H   LINE      CODE     ---       #330
      00FF1C49H   LINE      CODE     ---       #331
      00FF1C59H   LINE      CODE     ---       #332
      00FF1C6BH   LINE      CODE     ---       #334
      00FF1C6EH   LINE      CODE     ---       #336
      00FF1C6EH   LINE      CODE     ---       #337
      00FF1C6EH   LINE      CODE     ---       #338
      00FF1C6EH   LINE      CODE     ---       #340
      00FF1C87H   LINE      CODE     ---       #341
      00FF1C9DH   LINE      CODE     ---       #343
      00FF1CACH   LINE      CODE     ---       #344
      00FF1CC1H   LINE      CODE     ---       #345
      00FF1CD1H   LINE      CODE     ---       #346
      00FF1CE3H   LINE      CODE     ---       #347
      00FF1CE6H   LINE      CODE     ---       #350
      00FF1CE6H   LINE      CODE     ---       #351
      00FF1CE6H   LINE      CODE     ---       #352
      00FF1CFFH   LINE      CODE     ---       #353
      00FF1D01H   LINE      CODE     ---       #355
      00FF1D0FH   LINE      CODE     ---       #356
      00FF1D19H   LINE      CODE     ---       #357
      00FF1D27H   LINE      CODE     ---       #358
      00FF1D31H   LINE      CODE     ---       #359
      00FF1D3DH   LINE      CODE     ---       #360
      00FF1D40H   LINE      CODE     ---       #362
      00FF1D40H   LINE      CODE     ---       #363
      00FF1D40H   LINE      CODE     ---       #365
      00FF1D59H   LINE      CODE     ---       #367
      00FF1D6BH   LINE      CODE     ---       #369
      00FF1D76H   LINE      CODE     ---       #370
L251 LINKER/LOCATER V4.66.93.0                                                        05/04/2024  19:25:53  PAGE 56


      00FF1D89H   LINE      CODE     ---       #371
      00FF1D95H   LINE      CODE     ---       #372
      00FF1DA3H   LINE      CODE     ---       #374
      00FF1DA5H   LINE      CODE     ---       #377
      00FF1DA5H   LINE      CODE     ---       #379
      00FF1DAEH   LINE      CODE     ---       #380
      00FF1DB8H   LINE      CODE     ---       #381
      00FF1DC6H   LINE      CODE     ---       #382
      00FF1DC8H   LINE      CODE     ---       #384
      00FF1DC8H   LINE      CODE     ---       #385
      00FF1DC8H   LINE      CODE     ---       #386
      00FF1DC8H   LINE      CODE     ---       #389
      00FF1DD6H   LINE      CODE     ---       #390
      00FF1DE0H   LINE      CODE     ---       #391
      00FF1DEEH   LINE      CODE     ---       #392
      00FF1DEEH   LINE      CODE     ---       #393
      00FF1DF8H   LINE      CODE     ---       #394
      00FF1E07H   LINE      CODE     ---       #397
      00FF1E0BH   LINE      CODE     ---       #398
      ---         BLOCKEND  ---      ---       LVL=0

      ---         MODULE    ---      ---       SEEKFREE_WIRELESS
      000000D0H   SFRSYM    DATA     BYTE      PSW
      0000009DH   SFRSYM    DATA     BYTE      IRCBAND
      00000097H   SFRSYM    DATA     BYTE      AUXR2
      000000EFH   SFRSYM    DATA     BYTE      AUXINTIF
      000000FDH   SFRSYM    DATA     BYTE      S4CON
      000000ACH   SFRSYM    DATA     BYTE      S3CON
      0000009AH   SFRSYM    DATA     BYTE      S2CON
      000000FEH   SFRSYM    DATA     BYTE      S4BUF
      000000B7H   SFRSYM    DATA     BYTE      IPH
      000000CDH   SFRSYM    DATA     BYTE      SPSTAT
      000000DDH   SFRSYM    DATA     BYTE      T4T3M
      000000C1H   SFRSYM    DATA     BYTE      WDT_CONTR
      000000DFH   SFRSYM    DATA     BYTE      IP3
      000000F4H   SFRSYM    DATA     BYTE      USBCON
      000000B5H   SFRSYM    DATA     BYTE      IP2
      000000FFH   SFRSYM    DATA     BYTE      RSTCFG
      000000F9H   SFRSYM    DATA     BYTE      LINICR
      0000008EH   SFRSYM    DATA     BYTE      AUXR
      000000AFH   SFRSYM    DATA     BYTE      IE2
      00000080H.7 SFRSYM    DATA     BIT       P07
      00000088H   SFRSYM    DATA     BYTE      TCON
      00000098H   SFRSYM    DATA     BYTE      SCON
      000000F1H   SFRSYM    DATA     BYTE      CANICR
      00000087H   SFRSYM    DATA     BYTE      PCON
      000000BCH   SFRSYM    DATA     BYTE      ADC_CONTR
      000000E7H   SFRSYM    DATA     BYTE      CMPCR2
      000000E6H   SFRSYM    DATA     BYTE      CMPCR1
      000000B8H   SFRSYM    DATA     BYTE      IP
      0000008FH   SFRSYM    DATA     BYTE      INTCLKO
      000000EEH   SFRSYM    DATA     BYTE      IP3H
      000000B6H   SFRSYM    DATA     BYTE      IP2H
      000000A8H   SFRSYM    DATA     BYTE      IE
      000000BBH   SFRSYM    DATA     BYTE      P_SW3
      000000BAH   SFRSYM    DATA     BYTE      P_SW2
      000000A2H   SFRSYM    DATA     BYTE      P_SW1
      000000CEH   SFRSYM    DATA     BYTE      SPCTL
      000000F8H   SFRSYM    DATA     BYTE      P7
      000000E8H   SFRSYM    DATA     BYTE      P6
      000000C8H   SFRSYM    DATA     BYTE      P5
      000000C0H   SFRSYM    DATA     BYTE      P4
      000000B0H   SFRSYM    DATA     BYTE      P3
      000000A0H   SFRSYM    DATA     BYTE      P2
      00000090H   SFRSYM    DATA     BYTE      P1
L251 LINKER/LOCATER V4.66.93.0                                                        05/04/2024  19:25:53  PAGE 57


      00000080H   SFRSYM    DATA     BYTE      P0
      00010058H   SYMBOL    XDATA    BYTE      wireless_uart_data
      00010059H   SYMBOL    XDATA    ---       wireless_uart_fifo
      00010070H   SYMBOL    XDATA    ---       wireless_uart_buffer
      00000668H   SYMBOL    EDATA    ---       buff
      0000066CH   SYMBOL    EDATA    DWORD     len
      00000670H   SYMBOL    EDATA    ---       buff
      00000674H   SYMBOL    EDATA    DWORD     len
      0001010CH   SYMBOL    XDATA    DWORD     data_len

      ---         MODULE    ---      ---       SEEKFREE_WIRELESS_CH573
      000000D0H   SFRSYM    DATA     BYTE      PSW
      0000009DH   SFRSYM    DATA     BYTE      IRCBAND
      00000097H   SFRSYM    DATA     BYTE      AUXR2
      000000EFH   SFRSYM    DATA     BYTE      AUXINTIF
      000000FDH   SFRSYM    DATA     BYTE      S4CON
      000000ACH   SFRSYM    DATA     BYTE      S3CON
      0000009AH   SFRSYM    DATA     BYTE      S2CON
      000000FEH   SFRSYM    DATA     BYTE      S4BUF
      000000B7H   SFRSYM    DATA     BYTE      IPH
      000000CDH   SFRSYM    DATA     BYTE      SPSTAT
      000000DDH   SFRSYM    DATA     BYTE      T4T3M
      000000C1H   SFRSYM    DATA     BYTE      WDT_CONTR
      000000DFH   SFRSYM    DATA     BYTE      IP3
      000000F4H   SFRSYM    DATA     BYTE      USBCON
      000000B5H   SFRSYM    DATA     BYTE      IP2
      000000FFH   SFRSYM    DATA     BYTE      RSTCFG
      000000F9H   SFRSYM    DATA     BYTE      LINICR
      0000008EH   SFRSYM    DATA     BYTE      AUXR
      000000AFH   SFRSYM    DATA     BYTE      IE2
      00000080H.7 SFRSYM    DATA     BIT       P07
      00000088H   SFRSYM    DATA     BYTE      TCON
      00000098H   SFRSYM    DATA     BYTE      SCON
      000000F1H   SFRSYM    DATA     BYTE      CANICR
      00000087H   SFRSYM    DATA     BYTE      PCON
      000000BCH   SFRSYM    DATA     BYTE      ADC_CONTR
      000000E7H   SFRSYM    DATA     BYTE      CMPCR2
      000000E6H   SFRSYM    DATA     BYTE      CMPCR1
      000000B8H   SFRSYM    DATA     BYTE      IP
      0000008FH   SFRSYM    DATA     BYTE      INTCLKO
      000000EEH   SFRSYM    DATA     BYTE      IP3H
      000000B6H   SFRSYM    DATA     BYTE      IP2H
      000000A8H   SFRSYM    DATA     BYTE      IE
      000000BBH   SFRSYM    DATA     BYTE      P_SW3
      000000BAH   SFRSYM    DATA     BYTE      P_SW2
      000000A2H   SFRSYM    DATA     BYTE      P_SW1
      000000CEH   SFRSYM    DATA     BYTE      SPCTL
      000000F8H   SFRSYM    DATA     BYTE      P7
      000000E8H   SFRSYM    DATA     BYTE      P6
      000000C8H   SFRSYM    DATA     BYTE      P5
      000000C0H   SFRSYM    DATA     BYTE      P4
      000000B0H   SFRSYM    DATA     BYTE      P3
      000000A0H   SFRSYM    DATA     BYTE      P2
      00000090H   SFRSYM    DATA     BYTE      P1
      00000080H   SFRSYM    DATA     BYTE      P0
      000100B0H   SYMBOL    XDATA    ---       wireless_ch573_buffer
      000100F0H   SYMBOL    XDATA    BYTE      wireless_ch573_data
      000100F1H   SYMBOL    XDATA    ---       wireless_ch573_fifo
      000006CCH   SYMBOL    EDATA    ---       buff
      000006D0H   SYMBOL    EDATA    WORD      len
      00000678H   SYMBOL    EDATA    ---       buff
      0000067CH   SYMBOL    EDATA    DWORD     len
      00010110H   SYMBOL    XDATA    DWORD     data_len

      ---         MODULE    ---      ---       main
L251 LINKER/LOCATER V4.66.93.0                                                        05/04/2024  19:25:53  PAGE 58


      00FF46A4H   PUBLIC    CODE     ---       main
      00FF4C88H   PUBLIC    CODE     ---       gpio_init
      00FF4451H   PUBLIC    CODE     ---       motor_drivers_pwm_init
      00000094H   SFRSYM    DATA     BYTE      P0M0
      000000D0H   SFRSYM    DATA     BYTE      PSW
      0000009DH   SFRSYM    DATA     BYTE      IRCBAND
      00000097H   SFRSYM    DATA     BYTE      AUXR2
      000000EFH   SFRSYM    DATA     BYTE      AUXINTIF
      000000FDH   SFRSYM    DATA     BYTE      S4CON
      000000ACH   SFRSYM    DATA     BYTE      S3CON
      0000009AH   SFRSYM    DATA     BYTE      S2CON
      000000B7H   SFRSYM    DATA     BYTE      IPH
      000000CDH   SFRSYM    DATA     BYTE      SPSTAT
      000000DDH   SFRSYM    DATA     BYTE      T4T3M
      000000C1H   SFRSYM    DATA     BYTE      WDT_CONTR
      000000DFH   SFRSYM    DATA     BYTE      IP3
      000000F4H   SFRSYM    DATA     BYTE      USBCON
      000000B5H   SFRSYM    DATA     BYTE      IP2
      000000FFH   SFRSYM    DATA     BYTE      RSTCFG
      000000F8H.5 SFRSYM    DATA     BIT       led_4
      000000F8H.6 SFRSYM    DATA     BIT       led_3
      000000F8H.7 SFRSYM    DATA     BIT       led_2
      000000C0H.5 SFRSYM    DATA     BIT       led_1
      000000F9H   SFRSYM    DATA     BYTE      LINICR
      0000008EH   SFRSYM    DATA     BYTE      AUXR
      000000AFH   SFRSYM    DATA     BYTE      IE2
      00000088H   SFRSYM    DATA     BYTE      TCON
      00000098H   SFRSYM    DATA     BYTE      SCON
      000000F1H   SFRSYM    DATA     BYTE      CANICR
      00000087H   SFRSYM    DATA     BYTE      PCON
      000000BCH   SFRSYM    DATA     BYTE      ADC_CONTR
      000000E7H   SFRSYM    DATA     BYTE      CMPCR2
      000000E6H   SFRSYM    DATA     BYTE      CMPCR1
      000000B8H   SFRSYM    DATA     BYTE      IP
      0000008FH   SFRSYM    DATA     BYTE      INTCLKO
      000000EEH   SFRSYM    DATA     BYTE      IP3H
      000000B6H   SFRSYM    DATA     BYTE      IP2H
      000000A8H   SFRSYM    DATA     BYTE      IE
      000000BBH   SFRSYM    DATA     BYTE      P_SW3
      000000BAH   SFRSYM    DATA     BYTE      P_SW2
      000000A2H   SFRSYM    DATA     BYTE      P_SW1
      000000CEH   SFRSYM    DATA     BYTE      SPCTL
      000000F8H   SFRSYM    DATA     BYTE      P7
      000000E8H   SFRSYM    DATA     BYTE      P6
      000000C8H   SFRSYM    DATA     BYTE      P5
      000000CBH   SFRSYM    DATA     BYTE      P6M1
      000000C0H   SFRSYM    DATA     BYTE      P4
      000000CCH   SFRSYM    DATA     BYTE      P6M0
      000000B0H   SFRSYM    DATA     BYTE      P3
      000000A0H   SFRSYM    DATA     BYTE      P2
      00000090H   SFRSYM    DATA     BYTE      P1
      00000080H   SFRSYM    DATA     BYTE      P0
      00000091H   SFRSYM    DATA     BYTE      P1M1
      00000092H   SFRSYM    DATA     BYTE      P1M0
      00000093H   SFRSYM    DATA     BYTE      P0M1

      00FF4C88H   BLOCK     CODE     ---       LVL=0
      00FF4C88H   LINE      CODE     ---       #6
      00FF4C88H   LINE      CODE     ---       #8
      00FF4C8FH   LINE      CODE     ---       #9
      00FF4C96H   LINE      CODE     ---       #10
      00FF4C9DH   LINE      CODE     ---       #11
      ---         BLOCKEND  ---      ---       LVL=0

      00FF4451H   BLOCK     CODE     ---       LVL=0
L251 LINKER/LOCATER V4.66.93.0                                                        05/04/2024  19:25:53  PAGE 59


      00FF4451H   LINE      CODE     ---       #13
      00FF4451H   LINE      CODE     ---       #16
      00FF4462H   LINE      CODE     ---       #17
      00FF4473H   LINE      CODE     ---       #18
      00FF4484H   LINE      CODE     ---       #19
      00FF4495H   LINE      CODE     ---       #20
      00FF449EH   LINE      CODE     ---       #21
      00FF44A7H   LINE      CODE     ---       #22
      ---         BLOCKEND  ---      ---       LVL=0

      00FF46A4H   BLOCK     CODE     ---       LVL=0
      00FF46A4H   LINE      CODE     ---       #24
      00FF46A4H   LINE      CODE     ---       #26
      00FF46A7H   LINE      CODE     ---       #27
      00FF46AAH   LINE      CODE     ---       #28
      00FF46ADH   LINE      CODE     ---       #29
      00FF46B0H   LINE      CODE     ---       #31
      00FF46B3H   LINE      CODE     ---       #33
      00FF46B6H   LINE      CODE     ---       #34
      00FF46B9H   LINE      CODE     ---       #35
      00FF46BCH   LINE      CODE     ---       #36
      00FF46BFH   LINE      CODE     ---       #37
      00FF46C2H   LINE      CODE     ---       #39
      00FF46C9H   LINE      CODE     ---       #41
      00FF46CCH   LINE      CODE     ---       #43
      00FF46CFH   LINE      CODE     ---       #44
      00FF46D2H   LINE      CODE     ---       #45
      00FF46D5H   LINE      CODE     ---       #47
      00FF46D5H   LINE      CODE     ---       #49
      00FF46D8H   LINE      CODE     ---       #50
      00FF46DBH   LINE      CODE     ---       #51
      00FF46DEH   LINE      CODE     ---       #52
      00FF46E1H   LINE      CODE     ---       #53
      00FF46E4H   LINE      CODE     ---       #54
      00FF46E7H   LINE      CODE     ---       #55
      00FF46EAH   LINE      CODE     ---       #56
      00FF46EDH   LINE      CODE     ---       #57
      00FF46F0H   LINE      CODE     ---       #58
      00FF46F3H   LINE      CODE     ---       #59
      00FF46F5H   LINE      CODE     ---       #60
      ---         BLOCKEND  ---      ---       LVL=0

      ---         MODULE    ---      ---       uart
      00FF3AC7H   PUBLIC    CODE     ---       uart_sendcmd
      00FF3669H   PUBLIC    CODE     ---       uart1_isr
      00FF487AH   PUBLIC    CODE     ---       uart2_isr
      00FF48C3H   PUBLIC    CODE     ---       uart3_isr
      00FF490CH   PUBLIC    CODE     ---       uart4_isr
      00FF3FCFH   PUBLIC    CODE     ---       uart_sendstring
      00FF4330H   PUBLIC    CODE     ---       uart_checksum
      00FF4BA9H   PUBLIC    CODE     ---       uart_tx_send_buffer
      00000023H   PUBLIC    EDATA    BYTE      uart1_tx_buffer_from_uart2_index
      00000024H   PUBLIC    EDATA    BYTE      uart1_tx_buffer_from_uart3_index
      00000025H   PUBLIC    EDATA    BYTE      uart1_tx_buffer_from_uart4_index
      00000026H   PUBLIC    EDATA    ---       uart1_tx_buffer_from_uart2
      00000036H   PUBLIC    EDATA    ---       uart1_tx_buffer_from_uart3
      00000046H   PUBLIC    EDATA    ---       uart1_tx_buffer_from_uart4
      00000056H   PUBLIC    EDATA    ---       uart1_rx_buffer
      000000D6H   PUBLIC    EDATA    ---       uart2_rx_buffer
      00000156H   PUBLIC    EDATA    ---       uart3_rx_buffer
      000001D6H   PUBLIC    EDATA    ---       uart4_rx_buffer
      00000256H   PUBLIC    EDATA    BYTE      uart1_rx_counter
      00000257H   PUBLIC    EDATA    BYTE      uart2_rx_counter
      00000258H   PUBLIC    EDATA    BYTE      uart3_rx_counter
      00000259H   PUBLIC    EDATA    BYTE      uart1_tx_counter
L251 LINKER/LOCATER V4.66.93.0                                                        05/04/2024  19:25:53  PAGE 60


      0000025AH   PUBLIC    EDATA    BYTE      uart4_rx_counter
      0000025BH   PUBLIC    EDATA    BYTE      uart2_tx_counter
      0000025CH   PUBLIC    EDATA    BYTE      uart3_tx_counter
      0000025DH   PUBLIC    EDATA    BYTE      uart4_tx_counter
      00000020H.0 PUBLIC    BIT      BIT       uart1_lf
      00000020H.1 PUBLIC    BIT      BIT       uart2_lf
      00000020H.2 PUBLIC    BIT      BIT       uart3_lf
      00000020H.3 PUBLIC    BIT      BIT       uart4_lf
      00000020H.4 PUBLIC    BIT      BIT       uart1_cr
      00000020H.5 PUBLIC    BIT      BIT       uart2_cr
      00000020H.6 PUBLIC    BIT      BIT       uart3_cr
      00000020H.7 PUBLIC    BIT      BIT       uart4_cr
      00000021H.0 PUBLIC    BIT      BIT       uart1_tx_busy
      00000021H.1 PUBLIC    BIT      BIT       uart2_tx_busy
      00000021H.2 PUBLIC    BIT      BIT       uart3_tx_busy
      00000021H.3 PUBLIC    BIT      BIT       uart4_tx_busy
      00000021H.4 PUBLIC    BIT      BIT       uart1_rx_rdy
      00000021H.5 PUBLIC    BIT      BIT       uart2_rx_rdy
      00000021H.6 PUBLIC    BIT      BIT       uart3_rx_rdy
      00000021H.7 PUBLIC    BIT      BIT       uart4_rx_rdy
      000000D0H   SFRSYM    DATA     BYTE      PSW
      0000009DH   SFRSYM    DATA     BYTE      IRCBAND
      00000097H   SFRSYM    DATA     BYTE      AUXR2
      000000EFH   SFRSYM    DATA     BYTE      AUXINTIF
      000000FDH   SFRSYM    DATA     BYTE      S4CON
      000000ACH   SFRSYM    DATA     BYTE      S3CON
      0000009AH   SFRSYM    DATA     BYTE      S2CON
      000000FEH   SFRSYM    DATA     BYTE      S4BUF
      000000ADH   SFRSYM    DATA     BYTE      S3BUF
      0000009BH   SFRSYM    DATA     BYTE      S2BUF
      000000B7H   SFRSYM    DATA     BYTE      IPH
      000000CDH   SFRSYM    DATA     BYTE      SPSTAT
      000000DDH   SFRSYM    DATA     BYTE      T4T3M
      000000C1H   SFRSYM    DATA     BYTE      WDT_CONTR
      000000D7H   SFRSYM    DATA     BYTE      T2L
      000000D6H   SFRSYM    DATA     BYTE      T2H
      000000DFH   SFRSYM    DATA     BYTE      IP3
      000000F4H   SFRSYM    DATA     BYTE      USBCON
      000000B5H   SFRSYM    DATA     BYTE      IP2
      000000FFH   SFRSYM    DATA     BYTE      RSTCFG
      000000F8H.7 SFRSYM    DATA     BIT       led_2
      000000F9H   SFRSYM    DATA     BYTE      LINICR
      0000008EH   SFRSYM    DATA     BYTE      AUXR
      000000AFH   SFRSYM    DATA     BYTE      IE2
      00000088H   SFRSYM    DATA     BYTE      TCON
      00000098H   SFRSYM    DATA     BYTE      SCON
      000000F1H   SFRSYM    DATA     BYTE      CANICR
      00000087H   SFRSYM    DATA     BYTE      PCON
      00000099H   SFRSYM    DATA     BYTE      SBUF
      000000BCH   SFRSYM    DATA     BYTE      ADC_CONTR
      000000E7H   SFRSYM    DATA     BYTE      CMPCR2
      000000E6H   SFRSYM    DATA     BYTE      CMPCR1
      00000098H.1 SFRSYM    DATA     BIT       TI
      00000098H.0 SFRSYM    DATA     BIT       RI
      000000B8H   SFRSYM    DATA     BYTE      IP
      000000A8H.4 SFRSYM    DATA     BIT       ES
      0000008FH   SFRSYM    DATA     BYTE      INTCLKO
      000000EEH   SFRSYM    DATA     BYTE      IP3H
      000000B6H   SFRSYM    DATA     BYTE      IP2H
      000000A8H   SFRSYM    DATA     BYTE      IE
      000000BBH   SFRSYM    DATA     BYTE      P_SW3
      000000BAH   SFRSYM    DATA     BYTE      P_SW2
      000000A2H   SFRSYM    DATA     BYTE      P_SW1
      000000CEH   SFRSYM    DATA     BYTE      SPCTL
      000000F8H   SFRSYM    DATA     BYTE      P7
L251 LINKER/LOCATER V4.66.93.0                                                        05/04/2024  19:25:53  PAGE 61


      000000E8H   SFRSYM    DATA     BYTE      P6
      000000C8H   SFRSYM    DATA     BYTE      P5
      000000C0H   SFRSYM    DATA     BYTE      P4
      000000B0H   SFRSYM    DATA     BYTE      P3
      000000A0H   SFRSYM    DATA     BYTE      P2
      00000090H   SFRSYM    DATA     BYTE      P1
      00000080H   SFRSYM    DATA     BYTE      P0
      00000794H   SYMBOL    EDATA    BYTE      uart_num

      00FF3FCFH   BLOCK     CODE     ---       LVL=0
      0000070DH   SYMBOL    EDATA    BYTE      uart_num
      0000070EH   SYMBOL    EDATA    ---       puts
      00FF3FCFH   LINE      CODE     ---       #55
      00FF3FD7H   LINE      CODE     ---       #57
      00FF3FEBH   LINE      CODE     ---       #59
      00FF3FEBH   LINE      CODE     ---       #60
      00FF3FEDH   LINE      CODE     ---       #62
      00FF3FF6H   LINE      CODE     ---       #63
      00FF3FF9H   LINE      CODE     ---       #64
      00FF3FFCH   LINE      CODE     ---       #65
      00FF4012H   LINE      CODE     ---       #66
      00FF4014H   LINE      CODE     ---       #67
      00FF4014H   LINE      CODE     ---       #68
      00FF4016H   LINE      CODE     ---       #70
      00FF401FH   LINE      CODE     ---       #71
      00FF4022H   LINE      CODE     ---       #72
      00FF4025H   LINE      CODE     ---       #73
      00FF403BH   LINE      CODE     ---       #74
      00FF403DH   LINE      CODE     ---       #75
      00FF403DH   LINE      CODE     ---       #76
      00FF403FH   LINE      CODE     ---       #78
      00FF4048H   LINE      CODE     ---       #79
      00FF404BH   LINE      CODE     ---       #80
      00FF404EH   LINE      CODE     ---       #81
      00FF4064H   LINE      CODE     ---       #82
      00FF4066H   LINE      CODE     ---       #83
      00FF4066H   LINE      CODE     ---       #84
      00FF4068H   LINE      CODE     ---       #86
      00FF4071H   LINE      CODE     ---       #87
      00FF4074H   LINE      CODE     ---       #88
      00FF4077H   LINE      CODE     ---       #89
      00FF408DH   LINE      CODE     ---       #90
      00FF408DH   LINE      CODE     ---       #91
      00FF408DH   LINE      CODE     ---       #92
      00FF408DH   LINE      CODE     ---       #93
      00FF408DH   LINE      CODE     ---       #94
      ---         BLOCKEND  ---      ---       LVL=0

      00FF3AC7H   BLOCK     CODE     ---       LVL=0
      0000068FH   SYMBOL    EDATA    BYTE      uart_num
      00000690H   SYMBOL    EDATA    ---       bytes
      00000694H   SYMBOL    EDATA    BYTE      length
      00FF3AD3H   BLOCK     CODE     NEAR LAB  LVL=1
      00000695H   SYMBOL    EDATA    BYTE      i
      ---         BLOCKEND  ---      ---       LVL=1
      00FF3AC7H   LINE      CODE     ---       #96
      00FF3AD3H   LINE      CODE     ---       #97
      00FF3AD3H   LINE      CODE     ---       #99
      00FF3AEAH   LINE      CODE     ---       #101
      00FF3AEAH   LINE      CODE     ---       #102
      00FF3AF1H   LINE      CODE     ---       #104
      00FF3B02H   LINE      CODE     ---       #105
      00FF3B05H   LINE      CODE     ---       #106
      00FF3B08H   LINE      CODE     ---       #107
      00FF3B21H   LINE      CODE     ---       #108
L251 LINKER/LOCATER V4.66.93.0                                                        05/04/2024  19:25:53  PAGE 62


      00FF3B24H   LINE      CODE     ---       #109
      00FF3B24H   LINE      CODE     ---       #110
      00FF3B2BH   LINE      CODE     ---       #112
      00FF3B3CH   LINE      CODE     ---       #113
      00FF3B3FH   LINE      CODE     ---       #114
      00FF3B42H   LINE      CODE     ---       #115
      00FF3B5BH   LINE      CODE     ---       #116
      00FF3B5DH   LINE      CODE     ---       #117
      00FF3B5DH   LINE      CODE     ---       #118
      00FF3B64H   LINE      CODE     ---       #120
      00FF3B75H   LINE      CODE     ---       #121
      00FF3B78H   LINE      CODE     ---       #122
      00FF3B7BH   LINE      CODE     ---       #123
      00FF3B94H   LINE      CODE     ---       #124
      00FF3B96H   LINE      CODE     ---       #125
      00FF3B96H   LINE      CODE     ---       #126
      00FF3B9DH   LINE      CODE     ---       #128
      00FF3BAEH   LINE      CODE     ---       #129
      00FF3BB1H   LINE      CODE     ---       #130
      00FF3BB4H   LINE      CODE     ---       #131
      00FF3BCDH   LINE      CODE     ---       #132
      00FF3BCDH   LINE      CODE     ---       #133
      00FF3BCDH   LINE      CODE     ---       #134
      00FF3BCDH   LINE      CODE     ---       #135
      00FF3BCDH   LINE      CODE     ---       #136
      ---         BLOCKEND  ---      ---       LVL=0
      00000782H   SYMBOL    EDATA    BYTE      uart_num
      00000783H   SYMBOL    EDATA    BYTE      byte

      00FF4330H   BLOCK     CODE     ---       LVL=0
      00000680H   SYMBOL    EDATA    ---       buffer
      00000684H   SYMBOL    EDATA    BYTE      indexes
      00FF4338H   BLOCK     CODE     NEAR LAB  LVL=1
      00000685H   SYMBOL    EDATA    BYTE      sum
      00000686H   SYMBOL    EDATA    BYTE      i
      00000687H   SYMBOL    EDATA    BYTE      received_checksum
      ---         BLOCKEND  ---      ---       LVL=1
      00FF4330H   LINE      CODE     ---       #167
      00FF4338H   LINE      CODE     ---       #168
      00FF4338H   LINE      CODE     ---       #169
      00FF433DH   LINE      CODE     ---       #171
      00FF4350H   LINE      CODE     ---       #173
      00FF4357H   LINE      CODE     ---       #174
      00FF4370H   LINE      CODE     ---       #175
      00FF4389H   LINE      CODE     ---       #177
      00FF439AH   LINE      CODE     ---       #178
      ---         BLOCKEND  ---      ---       LVL=0

      00FF3669H   BLOCK     CODE     ---       LVL=0
      00FF367FH   BLOCK     CODE     NEAR LAB  LVL=1
      00000784H   SYMBOL    EDATA    INT       i
      ---         BLOCKEND  ---      ---       LVL=1
      00FF3669H   LINE      CODE     ---       #180
      00FF367FH   LINE      CODE     ---       #181
      00FF367FH   LINE      CODE     ---       #182
      00FF3685H   LINE      CODE     ---       #184
      00FF3688H   LINE      CODE     ---       #186
      00FF368BH   LINE      CODE     ---       #187
      00FF368EH   LINE      CODE     ---       #188
      00FF368EH   LINE      CODE     ---       #189
      00FF3694H   LINE      CODE     ---       #191
      00FF3697H   LINE      CODE     ---       #192
      00FF36A8H   LINE      CODE     ---       #195
      00FF36D0H   LINE      CODE     ---       #197
      00FF36DCH   LINE      CODE     ---       #198
L251 LINKER/LOCATER V4.66.93.0                                                        05/04/2024  19:25:53  PAGE 63


      00FF36E2H   LINE      CODE     ---       #199
      00FF36E8H   LINE      CODE     ---       #200
      00FF36EEH   LINE      CODE     ---       #201
      00FF36EEH   LINE      CODE     ---       #202
      00FF3716H   LINE      CODE     ---       #205
      00FF3726H   LINE      CODE     ---       #207
      00FF3736H   LINE      CODE     ---       #208
      00FF3742H   LINE      CODE     ---       #209
      00FF3745H   LINE      CODE     ---       #210
      00FF3747H   LINE      CODE     ---       #213
      00FF3750H   LINE      CODE     ---       #214
      00FF3753H   LINE      CODE     ---       #215
      00FF3753H   LINE      CODE     ---       #216
      00FF3753H   LINE      CODE     ---       #218
      00FF376BH   LINE      CODE     ---       #219
      00FF376BH   LINE      CODE     ---       #220
      ---         BLOCKEND  ---      ---       LVL=0

      00FF487AH   BLOCK     CODE     ---       LVL=0
      00FF487AH   LINE      CODE     ---       #223
      00FF4880H   LINE      CODE     ---       #225
      00FF4885H   LINE      CODE     ---       #227
      00FF4888H   LINE      CODE     ---       #228
      00FF488BH   LINE      CODE     ---       #229
      00FF488BH   LINE      CODE     ---       #230
      00FF4890H   LINE      CODE     ---       #232
      00FF4893H   LINE      CODE     ---       #233
      00FF48A4H   LINE      CODE     ---       #246
      00FF48BCH   LINE      CODE     ---       #247
      00FF48BCH   LINE      CODE     ---       #248
      ---         BLOCKEND  ---      ---       LVL=0

      00FF48C3H   BLOCK     CODE     ---       LVL=0
      00FF48C3H   LINE      CODE     ---       #250
      00FF48C9H   LINE      CODE     ---       #252
      00FF48CEH   LINE      CODE     ---       #254
      00FF48D1H   LINE      CODE     ---       #255
      00FF48D4H   LINE      CODE     ---       #256
      00FF48D4H   LINE      CODE     ---       #257
      00FF48D9H   LINE      CODE     ---       #259
      00FF48DCH   LINE      CODE     ---       #260
      00FF48EDH   LINE      CODE     ---       #273
      00FF4905H   LINE      CODE     ---       #274
      00FF4905H   LINE      CODE     ---       #275
      ---         BLOCKEND  ---      ---       LVL=0

      00FF490CH   BLOCK     CODE     ---       LVL=0
      00FF490CH   LINE      CODE     ---       #277
      00FF4912H   LINE      CODE     ---       #279
      00FF4917H   LINE      CODE     ---       #281
      00FF491AH   LINE      CODE     ---       #282
      00FF491DH   LINE      CODE     ---       #283
      00FF491DH   LINE      CODE     ---       #284
      00FF4922H   LINE      CODE     ---       #286
      00FF4925H   LINE      CODE     ---       #287
      00FF4936H   LINE      CODE     ---       #302
      00FF494EH   LINE      CODE     ---       #303
      00FF494EH   LINE      CODE     ---       #304
      ---         BLOCKEND  ---      ---       LVL=0
      00000795H   SYMBOL    EDATA    BYTE      uart_num

      00FF4BA9H   BLOCK     CODE     ---       LVL=0
      00FF4BA9H   LINE      CODE     ---       #347
      00FF4BA9H   LINE      CODE     ---       #349
      00FF4BB3H   LINE      CODE     ---       #351
L251 LINKER/LOCATER V4.66.93.0                                                        05/04/2024  19:25:53  PAGE 64


      00FF4BBCH   LINE      CODE     ---       #353
      00FF4BBCH   LINE      CODE     ---       #355
      00FF4BC6H   LINE      CODE     ---       #357
      00FF4BCFH   LINE      CODE     ---       #358
      ---         BLOCKEND  ---      ---       LVL=0

      ---         MODULE    ---      ---       isr
      000000D0H   SFRSYM    DATA     BYTE      PSW
      0000009DH   SFRSYM    DATA     BYTE      IRCBAND
      00000097H   SFRSYM    DATA     BYTE      AUXR2
      000000EFH   SFRSYM    DATA     BYTE      AUXINTIF
      000000FDH   SFRSYM    DATA     BYTE      S4CON
      000000ACH   SFRSYM    DATA     BYTE      S3CON
      0000009AH   SFRSYM    DATA     BYTE      S2CON
      000000B7H   SFRSYM    DATA     BYTE      IPH
      000000CDH   SFRSYM    DATA     BYTE      SPSTAT
      000000DDH   SFRSYM    DATA     BYTE      T4T3M
      000000C1H   SFRSYM    DATA     BYTE      WDT_CONTR
      000000DFH   SFRSYM    DATA     BYTE      IP3
      000000F4H   SFRSYM    DATA     BYTE      USBCON
      000000B5H   SFRSYM    DATA     BYTE      IP2
      000000FFH   SFRSYM    DATA     BYTE      RSTCFG
      000000F9H   SFRSYM    DATA     BYTE      LINICR
      0000008EH   SFRSYM    DATA     BYTE      AUXR
      000000AFH   SFRSYM    DATA     BYTE      IE2
      00000088H   SFRSYM    DATA     BYTE      TCON
      00000098H   SFRSYM    DATA     BYTE      SCON
      000000F1H   SFRSYM    DATA     BYTE      CANICR
      00000087H   SFRSYM    DATA     BYTE      PCON
      000000BCH   SFRSYM    DATA     BYTE      ADC_CONTR
      000000E7H   SFRSYM    DATA     BYTE      CMPCR2
      000000E6H   SFRSYM    DATA     BYTE      CMPCR1
      000000B8H   SFRSYM    DATA     BYTE      IP
      0000008FH   SFRSYM    DATA     BYTE      INTCLKO
      000000EEH   SFRSYM    DATA     BYTE      IP3H
      000000B6H   SFRSYM    DATA     BYTE      IP2H
      000000A8H   SFRSYM    DATA     BYTE      IE
      000000BBH   SFRSYM    DATA     BYTE      P_SW3
      000000BAH   SFRSYM    DATA     BYTE      P_SW2
      000000A2H   SFRSYM    DATA     BYTE      P_SW1
      000000CEH   SFRSYM    DATA     BYTE      SPCTL
      000000F8H   SFRSYM    DATA     BYTE      P7
      000000E8H   SFRSYM    DATA     BYTE      P6
      000000C8H   SFRSYM    DATA     BYTE      P5
      000000C0H   SFRSYM    DATA     BYTE      P4
      000000B0H   SFRSYM    DATA     BYTE      P3
      000000A0H   SFRSYM    DATA     BYTE      P2
      00000090H   SFRSYM    DATA     BYTE      P1
      00000080H   SFRSYM    DATA     BYTE      P0

      ---         MODULE    ---      ---       key
      00FF4BF5H   PUBLIC    CODE     ---       key1_short_press
      00FF4CEFH   PUBLIC    CODE     ---       key2_short_press
      00FF4C71H   PUBLIC    CODE     ---       key3_short_press
      00FF4D30H   PUBLIC    CODE     ---       key4_short_press
      00FF46F6H   PUBLIC    CODE     ---       key1_check
      00FF45ABH   PUBLIC    CODE     ---       key2_check
      00FF45FEH   PUBLIC    CODE     ---       key3_check
      00FF4651H   PUBLIC    CODE     ---       key4_check
      00FF4747H   PUBLIC    CODE     ---       key5_check
      00000712H   PUBLIC    EDATA    BYTE      key1_up_store
      00000713H   PUBLIC    EDATA    BYTE      key2_up_store
      00000714H   PUBLIC    EDATA    BYTE      key3_up_store
      00000715H   PUBLIC    EDATA    BYTE      key4_up_store
      00000716H   PUBLIC    EDATA    BYTE      key5_up_store
L251 LINKER/LOCATER V4.66.93.0                                                        05/04/2024  19:25:53  PAGE 65


      000000C0H.3 SFRSYM    DATA     BIT       key3
      000000F8H.3 SFRSYM    DATA     BIT       key2
      000000C0H.1 SFRSYM    DATA     BIT       key1
      000000D0H   SFRSYM    DATA     BYTE      PSW
      0000009DH   SFRSYM    DATA     BYTE      IRCBAND
      00000097H   SFRSYM    DATA     BYTE      AUXR2
      000000EFH   SFRSYM    DATA     BYTE      AUXINTIF
      000000FDH   SFRSYM    DATA     BYTE      S4CON
      000000ACH   SFRSYM    DATA     BYTE      S3CON
      0000009AH   SFRSYM    DATA     BYTE      S2CON
      000000B7H   SFRSYM    DATA     BYTE      IPH
      000000CDH   SFRSYM    DATA     BYTE      SPSTAT
      000000DDH   SFRSYM    DATA     BYTE      T4T3M
      000000C1H   SFRSYM    DATA     BYTE      WDT_CONTR
      000000DFH   SFRSYM    DATA     BYTE      IP3
      000000F4H   SFRSYM    DATA     BYTE      USBCON
      000000B5H   SFRSYM    DATA     BYTE      IP2
      000000FFH   SFRSYM    DATA     BYTE      RSTCFG
      000000F8H.5 SFRSYM    DATA     BIT       led_4
      000000F8H.6 SFRSYM    DATA     BIT       led_3
      000000F8H.7 SFRSYM    DATA     BIT       led_2
      000000C0H.5 SFRSYM    DATA     BIT       led_1
      000000F9H   SFRSYM    DATA     BYTE      LINICR
      0000008EH   SFRSYM    DATA     BYTE      AUXR
      00000080H.4 SFRSYM    DATA     BIT       stepper_stp
      000000AFH   SFRSYM    DATA     BYTE      IE2
      00000088H   SFRSYM    DATA     BYTE      TCON
      00000098H   SFRSYM    DATA     BYTE      SCON
      000000F1H   SFRSYM    DATA     BYTE      CANICR
      00000087H   SFRSYM    DATA     BYTE      PCON
      000000BCH   SFRSYM    DATA     BYTE      ADC_CONTR
      000000E7H   SFRSYM    DATA     BYTE      CMPCR2
      000000E6H   SFRSYM    DATA     BYTE      CMPCR1
      000000B8H   SFRSYM    DATA     BYTE      IP
      0000008FH   SFRSYM    DATA     BYTE      INTCLKO
      000000EEH   SFRSYM    DATA     BYTE      IP3H
      000000B6H   SFRSYM    DATA     BYTE      IP2H
      000000A8H   SFRSYM    DATA     BYTE      IE
      000000BBH   SFRSYM    DATA     BYTE      P_SW3
      000000BAH   SFRSYM    DATA     BYTE      P_SW2
      000000A2H   SFRSYM    DATA     BYTE      P_SW1
      000000CEH   SFRSYM    DATA     BYTE      SPCTL
      000000F8H   SFRSYM    DATA     BYTE      P7
      000000E8H   SFRSYM    DATA     BYTE      P6
      000000C8H   SFRSYM    DATA     BYTE      P5
      000000C0H   SFRSYM    DATA     BYTE      P4
      000000B0H   SFRSYM    DATA     BYTE      P3
      000000A0H   SFRSYM    DATA     BYTE      P2
      00000090H   SFRSYM    DATA     BYTE      P1
      00000080H   SFRSYM    DATA     BYTE      P0
      000000C0H.4 SFRSYM    DATA     BIT       key5
      000000C0H.2 SFRSYM    DATA     BIT       key4

      00FF4BF5H   BLOCK     CODE     ---       LVL=0
      00FF4BF5H   LINE      CODE     ---       #17
      00FF4BF5H   LINE      CODE     ---       #20
      00FF4BFEH   LINE      CODE     ---       #21
      00FF4C05H   LINE      CODE     ---       #22
      00FF4C0DH   LINE      CODE     ---       #52
      ---         BLOCKEND  ---      ---       LVL=0

      00FF4CEFH   BLOCK     CODE     ---       LVL=0
      00FF4CEFH   LINE      CODE     ---       #54
      00FF4CEFH   LINE      CODE     ---       #57
      00FF4CF8H   LINE      CODE     ---       #58
L251 LINKER/LOCATER V4.66.93.0                                                        05/04/2024  19:25:53  PAGE 66


      00FF4CFFH   LINE      CODE     ---       #89
      ---         BLOCKEND  ---      ---       LVL=0

      00FF4C71H   BLOCK     CODE     ---       LVL=0
      00FF4C71H   LINE      CODE     ---       #92
      00FF4C71H   LINE      CODE     ---       #95
      00FF4C7AH   LINE      CODE     ---       #96
      00FF4C7DH   LINE      CODE     ---       #97
      00FF4C84H   LINE      CODE     ---       #98
      00FF4C87H   LINE      CODE     ---       #135
      ---         BLOCKEND  ---      ---       LVL=0

      00FF4D30H   BLOCK     CODE     ---       LVL=0
      00FF4D30H   LINE      CODE     ---       #137
      00FF4D30H   LINE      CODE     ---       #140
      00FF4D39H   LINE      CODE     ---       #141
      ---         BLOCKEND  ---      ---       LVL=0

      00FF46F6H   BLOCK     CODE     ---       LVL=0
      00FF46F6H   LINE      CODE     ---       #149
      00FF46F6H   LINE      CODE     ---       #151
      00FF4708H   LINE      CODE     ---       #153
      00FF470DH   LINE      CODE     ---       #154
      00FF471CH   LINE      CODE     ---       #155
      00FF471CH   LINE      CODE     ---       #156
      00FF472EH   LINE      CODE     ---       #158
      00FF4734H   LINE      CODE     ---       #159
      00FF4737H   LINE      CODE     ---       #160
      00FF4746H   LINE      CODE     ---       #161
      ---         BLOCKEND  ---      ---       LVL=0

      00FF45ABH   BLOCK     CODE     ---       LVL=0
      00FF45ABH   LINE      CODE     ---       #164
      00FF45ABH   LINE      CODE     ---       #166
      00FF45BDH   LINE      CODE     ---       #168
      00FF45C2H   LINE      CODE     ---       #169
      00FF45D2H   LINE      CODE     ---       #170
      00FF45D2H   LINE      CODE     ---       #171
      00FF45E4H   LINE      CODE     ---       #173
      00FF45EAH   LINE      CODE     ---       #174
      00FF45EDH   LINE      CODE     ---       #175
      00FF45FDH   LINE      CODE     ---       #176
      ---         BLOCKEND  ---      ---       LVL=0

      00FF45FEH   BLOCK     CODE     ---       LVL=0
      00FF45FEH   LINE      CODE     ---       #179
      00FF45FEH   LINE      CODE     ---       #181
      00FF4610H   LINE      CODE     ---       #183
      00FF4615H   LINE      CODE     ---       #184
      00FF4625H   LINE      CODE     ---       #185
      00FF4625H   LINE      CODE     ---       #186
      00FF4637H   LINE      CODE     ---       #188
      00FF463DH   LINE      CODE     ---       #189
      00FF4640H   LINE      CODE     ---       #190
      00FF4650H   LINE      CODE     ---       #191
      ---         BLOCKEND  ---      ---       LVL=0

      00FF4651H   BLOCK     CODE     ---       LVL=0
      00FF4651H   LINE      CODE     ---       #194
      00FF4651H   LINE      CODE     ---       #196
      00FF4663H   LINE      CODE     ---       #198
      00FF4668H   LINE      CODE     ---       #199
      00FF4678H   LINE      CODE     ---       #200
      00FF4678H   LINE      CODE     ---       #201
      00FF468AH   LINE      CODE     ---       #203
L251 LINKER/LOCATER V4.66.93.0                                                        05/04/2024  19:25:53  PAGE 67


      00FF4690H   LINE      CODE     ---       #204
      00FF4693H   LINE      CODE     ---       #205
      00FF46A3H   LINE      CODE     ---       #206
      ---         BLOCKEND  ---      ---       LVL=0

      00FF4747H   BLOCK     CODE     ---       LVL=0
      00FF4747H   LINE      CODE     ---       #209
      00FF4747H   LINE      CODE     ---       #211
      00FF4759H   LINE      CODE     ---       #213
      00FF475EH   LINE      CODE     ---       #214
      00FF476EH   LINE      CODE     ---       #215
      00FF476EH   LINE      CODE     ---       #216
      00FF4780H   LINE      CODE     ---       #218
      00FF4786H   LINE      CODE     ---       #220
      00FF4796H   LINE      CODE     ---       #221
      ---         BLOCKEND  ---      ---       LVL=0

      ---         MODULE    ---      ---       ui
      00FF4D00H   PUBLIC    CODE     ---       ui_keys_init
      00FF4955H   PUBLIC    CODE     ---       ui_init
      00000796H   PUBLIC    EDATA    BYTE      ui_loading_index
      000000D0H   SFRSYM    DATA     BYTE      PSW
      0000009DH   SFRSYM    DATA     BYTE      IRCBAND
      00000097H   SFRSYM    DATA     BYTE      AUXR2
      000000EFH   SFRSYM    DATA     BYTE      AUXINTIF
      000000FDH   SFRSYM    DATA     BYTE      S4CON
      000000ACH   SFRSYM    DATA     BYTE      S3CON
      0000009AH   SFRSYM    DATA     BYTE      S2CON
      000000B7H   SFRSYM    DATA     BYTE      IPH
      000000CDH   SFRSYM    DATA     BYTE      SPSTAT
      000000DDH   SFRSYM    DATA     BYTE      T4T3M
      000000C1H   SFRSYM    DATA     BYTE      WDT_CONTR
      000000DFH   SFRSYM    DATA     BYTE      IP3
      000000F4H   SFRSYM    DATA     BYTE      USBCON
      000000B5H   SFRSYM    DATA     BYTE      IP2
      000000FFH   SFRSYM    DATA     BYTE      RSTCFG
      000000F9H   SFRSYM    DATA     BYTE      LINICR
      0000008EH   SFRSYM    DATA     BYTE      AUXR
      000000AFH   SFRSYM    DATA     BYTE      IE2
      00000088H   SFRSYM    DATA     BYTE      TCON
      00000098H   SFRSYM    DATA     BYTE      SCON
      000000F1H   SFRSYM    DATA     BYTE      CANICR
      00000087H   SFRSYM    DATA     BYTE      PCON
      000000BCH   SFRSYM    DATA     BYTE      ADC_CONTR
      000000E7H   SFRSYM    DATA     BYTE      CMPCR2
      000000E6H   SFRSYM    DATA     BYTE      CMPCR1
      000000B8H   SFRSYM    DATA     BYTE      IP
      0000008FH   SFRSYM    DATA     BYTE      INTCLKO
      000000EEH   SFRSYM    DATA     BYTE      IP3H
      000000B6H   SFRSYM    DATA     BYTE      IP2H
      000000A8H   SFRSYM    DATA     BYTE      IE
      000000BBH   SFRSYM    DATA     BYTE      P_SW3
      000000BAH   SFRSYM    DATA     BYTE      P_SW2
      000000A2H   SFRSYM    DATA     BYTE      P_SW1
      000000CEH   SFRSYM    DATA     BYTE      SPCTL
      000000F8H   SFRSYM    DATA     BYTE      P7
      000000E8H   SFRSYM    DATA     BYTE      P6
      000000C8H   SFRSYM    DATA     BYTE      P5
      000000C0H   SFRSYM    DATA     BYTE      P4
      000000B0H   SFRSYM    DATA     BYTE      P3
      000000A0H   SFRSYM    DATA     BYTE      P2
      00000090H   SFRSYM    DATA     BYTE      P1
      00000080H   SFRSYM    DATA     BYTE      P0

      00FF4955H   BLOCK     CODE     ---       LVL=0
L251 LINKER/LOCATER V4.66.93.0                                                        05/04/2024  19:25:53  PAGE 68


      00FF4955H   LINE      CODE     ---       #6
      00FF4955H   LINE      CODE     ---       #8
      00FF4963H   LINE      CODE     ---       #9
      00FF4972H   LINE      CODE     ---       #10
      00FF4981H   LINE      CODE     ---       #11
      00FF4991H   LINE      CODE     ---       #17
      00FF4994H   LINE      CODE     ---       #18
      ---         BLOCKEND  ---      ---       LVL=0

      00FF4D00H   BLOCK     CODE     ---       LVL=0
      00FF4D00H   LINE      CODE     ---       #20
      00FF4D00H   LINE      CODE     ---       #23
      00FF4D0FH   LINE      CODE     ---       #24
      ---         BLOCKEND  ---      ---       LVL=0

      ---         MODULE    ---      ---       host_comm
      00FF4B52H   PUBLIC    CODE     ---       host_comm_uart_init
      00FF41BAH   PUBLIC    CODE     ---       host_comm_sender
      00FF008EH   PUBLIC    CODE     ---       host_comm_send_checksum_err
      00FF39B1H   PUBLIC    CODE     ---       internal_char_to_int
      00FF2A6EH   PUBLIC    CODE     ---       host_comm_irqhandler
      00000022H.0 PUBLIC    BIT      BIT       sendok
      00000022H.1 PUBLIC    BIT      BIT       sendwrongcmd
      00000022H.2 PUBLIC    BIT      BIT       sendwheelok
      00000022H.3 PUBLIC    BIT      BIT       sendwheelwarnexceed
      00000022H.4 PUBLIC    BIT      BIT       senderr
      00000547H   PUBLIC    EDATA    ---       host_comm_tx_buffer
      000000D0H   SFRSYM    DATA     BYTE      PSW
      0000009DH   SFRSYM    DATA     BYTE      IRCBAND
      00000097H   SFRSYM    DATA     BYTE      AUXR2
      000000EFH   SFRSYM    DATA     BYTE      AUXINTIF
      000000FDH   SFRSYM    DATA     BYTE      S4CON
      000000ACH   SFRSYM    DATA     BYTE      S3CON
      0000009AH   SFRSYM    DATA     BYTE      S2CON
      000000B7H   SFRSYM    DATA     BYTE      IPH
      000000CDH   SFRSYM    DATA     BYTE      SPSTAT
      000000DDH   SFRSYM    DATA     BYTE      T4T3M
      000000C1H   SFRSYM    DATA     BYTE      WDT_CONTR
      00000088H.6 SFRSYM    DATA     BIT       TR1
      0000008BH   SFRSYM    DATA     BYTE      TL1
      0000008DH   SFRSYM    DATA     BYTE      TH1
      000000DFH   SFRSYM    DATA     BYTE      IP3
      000000F4H   SFRSYM    DATA     BYTE      USBCON
      000000B5H   SFRSYM    DATA     BYTE      IP2
      000000FFH   SFRSYM    DATA     BYTE      RSTCFG
      000000A8H.3 SFRSYM    DATA     BIT       ET1
      000000C0H.5 SFRSYM    DATA     BIT       led_1
      000000F9H   SFRSYM    DATA     BYTE      LINICR
      0000008EH   SFRSYM    DATA     BYTE      AUXR
      000000AFH   SFRSYM    DATA     BYTE      IE2
      00000088H   SFRSYM    DATA     BYTE      TCON
      00000089H   SFRSYM    DATA     BYTE      TMOD
      00000098H   SFRSYM    DATA     BYTE      SCON
      000000F1H   SFRSYM    DATA     BYTE      CANICR
      00000087H   SFRSYM    DATA     BYTE      PCON
      000000BCH   SFRSYM    DATA     BYTE      ADC_CONTR
      000000E7H   SFRSYM    DATA     BYTE      CMPCR2
      000000E6H   SFRSYM    DATA     BYTE      CMPCR1
      000000B8H   SFRSYM    DATA     BYTE      IP
      000000A8H.4 SFRSYM    DATA     BIT       ES
      0000008FH   SFRSYM    DATA     BYTE      INTCLKO
      000000EEH   SFRSYM    DATA     BYTE      IP3H
      000000B6H   SFRSYM    DATA     BYTE      IP2H
      000000A8H   SFRSYM    DATA     BYTE      IE
      000000BBH   SFRSYM    DATA     BYTE      P_SW3
L251 LINKER/LOCATER V4.66.93.0                                                        05/04/2024  19:25:53  PAGE 69


      000000BAH   SFRSYM    DATA     BYTE      P_SW2
      000000A2H   SFRSYM    DATA     BYTE      P_SW1
      000000CEH   SFRSYM    DATA     BYTE      SPCTL
      000000F8H   SFRSYM    DATA     BYTE      P7
      000000E8H   SFRSYM    DATA     BYTE      P6
      000000C8H   SFRSYM    DATA     BYTE      P5
      000000C0H   SFRSYM    DATA     BYTE      P4
      000000B0H   SFRSYM    DATA     BYTE      P3
      000000A0H   SFRSYM    DATA     BYTE      P2
      00000090H   SFRSYM    DATA     BYTE      P1
      00000080H   SFRSYM    DATA     BYTE      P0

      00FF39B1H   BLOCK     CODE     ---       LVL=0
      00000615H   SYMBOL    EDATA    ---       str
      00FF39B5H   BLOCK     CODE     NEAR LAB  LVL=1
      00000619H   SYMBOL    EDATA    INT       result
      0000061BH   SYMBOL    EDATA    INT       sign
      0000061DH   SYMBOL    EDATA    INT       i
      ---         BLOCKEND  ---      ---       LVL=1
      00FF39B1H   LINE      CODE     ---       #15
      00FF39B5H   LINE      CODE     ---       #16
      00FF39B5H   LINE      CODE     ---       #18
      00FF39BBH   LINE      CODE     ---       #19
      00FF39C3H   LINE      CODE     ---       #20
      00FF39C9H   LINE      CODE     ---       #23
      00FF39D5H   LINE      CODE     ---       #25
      00FF39DAH   LINE      CODE     ---       #26
      00FF39DAH   LINE      CODE     ---       #29
      00FF39DCH   LINE      CODE     ---       #31
      00FF39EAH   LINE      CODE     ---       #32
      00FF39FAH   LINE      CODE     ---       #35
      00FF3A0AH   LINE      CODE     ---       #37
      00FF3A12H   LINE      CODE     ---       #38
      00FF3A20H   LINE      CODE     ---       #39
      00FF3A32H   LINE      CODE     ---       #41
      00FF3A40H   LINE      CODE     ---       #42
      00FF3A40H   LINE      CODE     ---       #45
      00FF3A42H   LINE      CODE     ---       #47
      00FF3A64H   LINE      CODE     ---       #48
      00FF3A87H   LINE      CODE     ---       #49
      00FF3A87H   LINE      CODE     ---       #50
      00FF3A87H   LINE      CODE     ---       #51
      00FF3A87H   LINE      CODE     ---       #52
      00FF3A95H   LINE      CODE     ---       #53
      00FF3AA5H   LINE      CODE     ---       #54
      00FF3AB1H   LINE      CODE     ---       #56
      00FF3AB9H   LINE      CODE     ---       #57
      00FF3ABCH   LINE      CODE     ---       #58
      00FF3ABCH   LINE      CODE     ---       #59
      00FF3AC6H   LINE      CODE     ---       #60
      ---         BLOCKEND  ---      ---       LVL=0

      00FF008EH   BLOCK     CODE     ---       LVL=0
      00FF008EH   LINE      CODE     ---       #62
      00FF008EH   LINE      CODE     ---       #64
      00FF0091H   LINE      CODE     ---       #65
      ---         BLOCKEND  ---      ---       LVL=0

      00FF4B52H   BLOCK     CODE     ---       LVL=0
      00FF4B52H   LINE      CODE     ---       #67
      00FF4B52H   LINE      CODE     ---       #74
      00FF4B56H   LINE      CODE     ---       #75
      00FF4B59H   LINE      CODE     ---       #76
      00FF4B5CH   LINE      CODE     ---       #77
      00FF4B5FH   LINE      CODE     ---       #78
L251 LINKER/LOCATER V4.66.93.0                                                        05/04/2024  19:25:53  PAGE 70


      00FF4B63H   LINE      CODE     ---       #79
      00FF4B67H   LINE      CODE     ---       #80
      00FF4B6AH   LINE      CODE     ---       #81
      00FF4B6DH   LINE      CODE     ---       #82
      00FF4B70H   LINE      CODE     ---       #84
      00FF4B7DH   LINE      CODE     ---       #85
      ---         BLOCKEND  ---      ---       LVL=0

      00FF2A6EH   BLOCK     CODE     ---       LVL=0
      000004B2H   SYMBOL    EDATA    WORD      i
      000004B4H   SYMBOL    EDATA    ---       wheel_speed_buffer
      000004BBH   SYMBOL    EDATA    INT       wheel_speed
      000004BDH   SYMBOL    EDATA    ---       servo_angle_buffer
      000004C0H   SYMBOL    EDATA    INT       servo_angle
      000004C2H   SYMBOL    EDATA    ---       stepper_step_buffer
      000004C7H   SYMBOL    EDATA    INT       stepper_step
      00FF2A6EH   LINE      CODE     ---       #87
      00FF2A6EH   LINE      CODE     ---       #88
      00FF2A6EH   LINE      CODE     ---       #101
      00FF2A85H   LINE      CODE     ---       #104
      00FF2A9DH   LINE      CODE     ---       #106
      00FF2AA6H   LINE      CODE     ---       #108
      00FF2AC1H   LINE      CODE     ---       #111
      00FF2AD0H   LINE      CODE     ---       #112
      00FF2AD3H   LINE      CODE     ---       #113
      00FF2AD6H   LINE      CODE     ---       #115
      00FF2AFAH   LINE      CODE     ---       #118
      00FF2B02H   LINE      CODE     ---       #121
      00FF2B14H   LINE      CODE     ---       #122
      00FF2B2EH   LINE      CODE     ---       #123
      00FF2B48H   LINE      CODE     ---       #125
      00FF2B53H   LINE      CODE     ---       #128
      00FF2B5CH   LINE      CODE     ---       #130
      00FF2B65H   LINE      CODE     ---       #132
      00FF2B6DH   LINE      CODE     ---       #133
      00FF2B75H   LINE      CODE     ---       #134
      00FF2B78H   LINE      CODE     ---       #135
      00FF2B7BH   LINE      CODE     ---       #136
      00FF2B84H   LINE      CODE     ---       #138
      00FF2B8CH   LINE      CODE     ---       #139
      00FF2B8FH   LINE      CODE     ---       #140
      00FF2B92H   LINE      CODE     ---       #141
      00FF2B9BH   LINE      CODE     ---       #143
      00FF2BA3H   LINE      CODE     ---       #144
      00FF2BA6H   LINE      CODE     ---       #145
      00FF2BA9H   LINE      CODE     ---       #146
      00FF2BACH   LINE      CODE     ---       #147
      00FF2BAFH   LINE      CODE     ---       #148
      00FF2BB8H   LINE      CODE     ---       #150
      00FF2BC1H   LINE      CODE     ---       #152
      00FF2BC9H   LINE      CODE     ---       #153
      00FF2BD1H   LINE      CODE     ---       #154
      00FF2BD4H   LINE      CODE     ---       #155
      00FF2BD7H   LINE      CODE     ---       #156
      00FF2BE0H   LINE      CODE     ---       #158
      00FF2BE8H   LINE      CODE     ---       #159
      00FF2BEBH   LINE      CODE     ---       #160
      00FF2BEEH   LINE      CODE     ---       #161
      00FF2BF7H   LINE      CODE     ---       #163
      00FF2BFFH   LINE      CODE     ---       #164
      00FF2C02H   LINE      CODE     ---       #165
      00FF2C05H   LINE      CODE     ---       #166
      00FF2C08H   LINE      CODE     ---       #167
      00FF2C0BH   LINE      CODE     ---       #168
      00FF2C23H   LINE      CODE     ---       #170
L251 LINKER/LOCATER V4.66.93.0                                                        05/04/2024  19:25:53  PAGE 71


      00FF2C31H   LINE      CODE     ---       #171
      00FF2C39H   LINE      CODE     ---       #172
      00FF2C41H   LINE      CODE     ---       #173
      00FF2C4FH   LINE      CODE     ---       #174
      00FF2C52H   LINE      CODE     ---       #175
      00FF2C55H   LINE      CODE     ---       #178
      00FF2C79H   LINE      CODE     ---       #184
      00FF2C81H   LINE      CODE     ---       #186
      00FF2C93H   LINE      CODE     ---       #188
      00FF2CA1H   LINE      CODE     ---       #189
      00FF2CA3H   LINE      CODE     ---       #190
      00FF2CA3H   LINE      CODE     ---       #191
      00FF2CBDH   LINE      CODE     ---       #192
      00FF2CD7H   LINE      CODE     ---       #195
      00FF2CE2H   LINE      CODE     ---       #198
      00FF2CFDH   LINE      CODE     ---       #200
      00FF2D09H   LINE      CODE     ---       #201
      00FF2D0CH   LINE      CODE     ---       #202
      00FF2D0FH   LINE      CODE     ---       #203
      00FF2D2AH   LINE      CODE     ---       #205
      00FF2D36H   LINE      CODE     ---       #206
      00FF2D39H   LINE      CODE     ---       #207
      00FF2D3CH   LINE      CODE     ---       #208
      00FF2D57H   LINE      CODE     ---       #210
      00FF2D63H   LINE      CODE     ---       #211
      00FF2D66H   LINE      CODE     ---       #212
      00FF2D69H   LINE      CODE     ---       #213
      00FF2D6CH   LINE      CODE     ---       #214
      00FF2D6FH   LINE      CODE     ---       #216
      00FF2D8DH   LINE      CODE     ---       #220
      00FF2D95H   LINE      CODE     ---       #222
      00FF2DA7H   LINE      CODE     ---       #224
      00FF2DB5H   LINE      CODE     ---       #225
      00FF2DB7H   LINE      CODE     ---       #226
      00FF2DB7H   LINE      CODE     ---       #227
      00FF2DD1H   LINE      CODE     ---       #228
      00FF2DEBH   LINE      CODE     ---       #230
      00FF2DF6H   LINE      CODE     ---       #231
      00FF2DF9H   LINE      CODE     ---       #232
      00FF2DFCH   LINE      CODE     ---       #233
      00FF2DFEH   LINE      CODE     ---       #234
      00FF2E01H   LINE      CODE     ---       #235
      00FF2E03H   LINE      CODE     ---       #236
      00FF2E06H   LINE      CODE     ---       #237
      00FF2E08H   LINE      CODE     ---       #238
      00FF2E0BH   LINE      CODE     ---       #239
      ---         BLOCKEND  ---      ---       LVL=0
      000006D2H   SYMBOL    EDATA    ---       buffer
      000006D6H   SYMBOL    EDATA    WORD      i

      00FF41BAH   BLOCK     CODE     ---       LVL=0
      00FF41BAH   LINE      CODE     ---       #250
      00FF41BAH   LINE      CODE     ---       #252
      00FF41C4H   LINE      CODE     ---       #254
      00FF41CDH   LINE      CODE     ---       #255
      00FF41D2H   LINE      CODE     ---       #256
      00FF41D2H   LINE      CODE     ---       #258
      00FF41D5H   LINE      CODE     ---       #261
      00FF41E2H   LINE      CODE     ---       #262
      00FF41E5H   LINE      CODE     ---       #263
      00FF41EAH   LINE      CODE     ---       #264
      00FF41EAH   LINE      CODE     ---       #265
      00FF41EDH   LINE      CODE     ---       #268
      00FF41FAH   LINE      CODE     ---       #269
      00FF41FDH   LINE      CODE     ---       #270
L251 LINKER/LOCATER V4.66.93.0                                                        05/04/2024  19:25:53  PAGE 72


      00FF4202H   LINE      CODE     ---       #271
      00FF4202H   LINE      CODE     ---       #272
      00FF4205H   LINE      CODE     ---       #275
      00FF4212H   LINE      CODE     ---       #276
      00FF4215H   LINE      CODE     ---       #277
      00FF421AH   LINE      CODE     ---       #278
      00FF421AH   LINE      CODE     ---       #279
      00FF421DH   LINE      CODE     ---       #282
      00FF422AH   LINE      CODE     ---       #283
      00FF422DH   LINE      CODE     ---       #284
      00FF4232H   LINE      CODE     ---       #285
      00FF4232H   LINE      CODE     ---       #286
      00FF4235H   LINE      CODE     ---       #289
      00FF4242H   LINE      CODE     ---       #290
      00FF4245H   LINE      CODE     ---       #291
      00FF424AH   LINE      CODE     ---       #292
      ---         BLOCKEND  ---      ---       LVL=0

      ---         MODULE    ---      ---       laser_ranging
      00FF4C9EH   PUBLIC    CODE     ---       laser_ranging_get_uart_value
      0000025EH   PUBLIC    EDATA    ---       lrcmd_setrange_10m
      00000263H   PUBLIC    EDATA    ---       laser_ranging_cmd_arr_shutdown
      00000267H   PUBLIC    EDATA    ---       lrcmd_setrange_30m
      0000026CH   PUBLIC    EDATA    ---       lrcmd_setrange_50m
      00000271H   PUBLIC    EDATA    ---       laser_ranging_cmd_arr_single
      00000275H   PUBLIC    EDATA    ---       lrcmd_setrange_80m
      0000027AH   PUBLIC    EDATA    ---       lrcmd_readcache
      0000027FH   PUBLIC    EDATA    ---       lrcmd_setresolution_1mm
      00000284H   PUBLIC    EDATA    ---       laser_ranging_cmd_arr_setrange_10m
      00000289H   PUBLIC    EDATA    ---       laser_ranging_cmd_arr_setrange_30m
      0000028EH   PUBLIC    EDATA    ---       laser_ranging_cmd_arr_setrange_50m
      00000293H   PUBLIC    EDATA    ---       lrcmd_single_broadcast
      00000298H   PUBLIC    EDATA    ---       laser_ranging_cmd_arr_setrange_80m
      0000029DH   PUBLIC    EDATA    ---       laser_ranging_cmd_arr_readcache
      000002A1H   PUBLIC    EDATA    ---       lrcmd_setfreq_10hz
      000002A6H   PUBLIC    EDATA    ---       laser_ranging_cmd_arr_setresolution_1mm
      000002ABH   PUBLIC    EDATA    ---       lrcmd_setfreq_20hz
      000002B0H   PUBLIC    EDATA    ---       lrcmd_setresolution_0_1mm
      000002B5H   PUBLIC    EDATA    ---       laser_ranging_cmd_arr_single_broadcast
      000002B9H   PUBLIC    EDATA    ---       laser_ranging_cmd_arr_setfreq_10hz
      000002BEH   PUBLIC    EDATA    ---       laser_ranging_cmd_arr_setfreq_20hz
      000002C3H   PUBLIC    EDATA    ---       laser_ranging_cmd_arr_setresolution_0_1mm
      000002C8H   PUBLIC    EDATA    ---       lrcmd_laseroff
      000002CDH   PUBLIC    EDATA    ---       lrcmd_setrange_5m
      000002D2H   PUBLIC    EDATA    ---       laser_ranging_cmd_arr_laseroff
      000002D7H   PUBLIC    EDATA    ---       lrcmd_continous
      000002DCH   PUBLIC    EDATA    ---       laser_ranging_cmd_arr_setrange_5m
      000002E1H   PUBLIC    EDATA    ---       laser_ranging_cmd_arr_continous
      000002E5H   PUBLIC    EDATA    ---       lrcmd_setfreq_5hz
      000002EAH   PUBLIC    EDATA    ---       lrcmd_laseron
      000002EFH   PUBLIC    EDATA    ---       lrcmd_shutdown
      000002F4H   PUBLIC    EDATA    ---       laser_ranging_cmd_arr_setfreq_5hz
      000002F9H   PUBLIC    EDATA    ---       lrdata
      00000321H   PUBLIC    EDATA    ---       lrcmd_single
      00000326H   PUBLIC    EDATA    ---       laser_ranging_cmd_arr_laseron
      000000D0H   SFRSYM    DATA     BYTE      PSW
      0000009DH   SFRSYM    DATA     BYTE      IRCBAND
      00000097H   SFRSYM    DATA     BYTE      AUXR2
      000000EFH   SFRSYM    DATA     BYTE      AUXINTIF
      000000FDH   SFRSYM    DATA     BYTE      S4CON
      000000ACH   SFRSYM    DATA     BYTE      S3CON
      0000009AH   SFRSYM    DATA     BYTE      S2CON
      000000B7H   SFRSYM    DATA     BYTE      IPH
      000000CDH   SFRSYM    DATA     BYTE      SPSTAT
      000000DDH   SFRSYM    DATA     BYTE      T4T3M
L251 LINKER/LOCATER V4.66.93.0                                                        05/04/2024  19:25:53  PAGE 73


      000000C1H   SFRSYM    DATA     BYTE      WDT_CONTR
      000000DFH   SFRSYM    DATA     BYTE      IP3
      000000F4H   SFRSYM    DATA     BYTE      USBCON
      000000B5H   SFRSYM    DATA     BYTE      IP2
      000000FFH   SFRSYM    DATA     BYTE      RSTCFG
      000000F9H   SFRSYM    DATA     BYTE      LINICR
      0000008EH   SFRSYM    DATA     BYTE      AUXR
      000000AFH   SFRSYM    DATA     BYTE      IE2
      00000088H   SFRSYM    DATA     BYTE      TCON
      00000098H   SFRSYM    DATA     BYTE      SCON
      000000F1H   SFRSYM    DATA     BYTE      CANICR
      00000087H   SFRSYM    DATA     BYTE      PCON
      000000BCH   SFRSYM    DATA     BYTE      ADC_CONTR
      000000E7H   SFRSYM    DATA     BYTE      CMPCR2
      000000E6H   SFRSYM    DATA     BYTE      CMPCR1
      000000B8H   SFRSYM    DATA     BYTE      IP
      0000008FH   SFRSYM    DATA     BYTE      INTCLKO
      000000EEH   SFRSYM    DATA     BYTE      IP3H
      000000B6H   SFRSYM    DATA     BYTE      IP2H
      000000A8H   SFRSYM    DATA     BYTE      IE
      000000BBH   SFRSYM    DATA     BYTE      P_SW3
      000000BAH   SFRSYM    DATA     BYTE      P_SW2
      000000A2H   SFRSYM    DATA     BYTE      P_SW1
      000000CEH   SFRSYM    DATA     BYTE      SPCTL
      000000F8H   SFRSYM    DATA     BYTE      P7
      000000E8H   SFRSYM    DATA     BYTE      P6
      000000C8H   SFRSYM    DATA     BYTE      P5
      000000C0H   SFRSYM    DATA     BYTE      P4
      000000B0H   SFRSYM    DATA     BYTE      P3
      000000A0H   SFRSYM    DATA     BYTE      P2
      00000090H   SFRSYM    DATA     BYTE      P1
      00000080H   SFRSYM    DATA     BYTE      P0
      00000765H   SYMBOL    EDATA    BYTE      lr_axis
      00000766H   SYMBOL    EDATA    WORD      i

      00FF4C9EH   BLOCK     CODE     ---       LVL=0
      00000797H   SYMBOL    EDATA    BYTE      lr_axis
      00FF4C9EH   LINE      CODE     ---       #133
      00FF4CA2H   LINE      CODE     ---       #135
      00FF4CA9H   LINE      CODE     ---       #137
      00FF4CA9H   LINE      CODE     ---       #138
      00FF4CADH   LINE      CODE     ---       #139
      00FF4CADH   LINE      CODE     ---       #141
      00FF4CADH   LINE      CODE     ---       #142
      00FF4CB1H   LINE      CODE     ---       #143
      00FF4CB1H   LINE      CODE     ---       #145
      00FF4CB1H   LINE      CODE     ---       #146
      00FF4CB3H   LINE      CODE     ---       #147
      00FF4CB3H   LINE      CODE     ---       #148
      00FF4CB3H   LINE      CODE     ---       #149
      ---         BLOCKEND  ---      ---       LVL=0
      00000717H   SYMBOL    EDATA    BYTE      lr_axis
      00000718H   SYMBOL    EDATA    ---       specific_cmd

      ---         MODULE    ---      ---       motor_driver_boards
      00FF4556H   PUBLIC    CODE     ---       wheel_oled_update
      00FF350BH   PUBLIC    CODE     ---       wheel_adjust
      00FF4B7EH   PUBLIC    CODE     ---       wheel_dynamic_adjusting
      00FF4995H   PUBLIC    CODE     ---       wheel_oled_init
      00FF30BEH   PUBLIC    CODE     ---       wheel_direction
      00000022H.5 PUBLIC    BIT      BIT       wheel_yaw_calibrating_flag
      000005B5H   PUBLIC    EDATA    FLOAT     wheel_target_yaw
      000005B9H   PUBLIC    EDATA    INT       wheel_x_rear_speed
      000005BBH   PUBLIC    EDATA    INT       wheel_x_front_speed
      000005BDH   PUBLIC    EDATA    INT       wheel_y_rear_speed
L251 LINKER/LOCATER V4.66.93.0                                                        05/04/2024  19:25:53  PAGE 74


      000005BFH   PUBLIC    EDATA    INT       wheel_y_front_speed
      000000D0H   SFRSYM    DATA     BYTE      PSW
      0000009DH   SFRSYM    DATA     BYTE      IRCBAND
      00000097H   SFRSYM    DATA     BYTE      AUXR2
      000000EFH   SFRSYM    DATA     BYTE      AUXINTIF
      00000090H.0 SFRSYM    DATA     BIT       gpio_wheel_y_front_forward
      00000090H.6 SFRSYM    DATA     BIT       gpio_wheel_y_rear_forward
      000000E8H.1 SFRSYM    DATA     BIT       gpio_wheel_x_front_forward
      000000E8H.5 SFRSYM    DATA     BIT       gpio_wheel_x_rear_forward
      000000FDH   SFRSYM    DATA     BYTE      S4CON
      000000ACH   SFRSYM    DATA     BYTE      S3CON
      0000009AH   SFRSYM    DATA     BYTE      S2CON
      000000B7H   SFRSYM    DATA     BYTE      IPH
      000000CDH   SFRSYM    DATA     BYTE      SPSTAT
      000000DDH   SFRSYM    DATA     BYTE      T4T3M
      000000C1H   SFRSYM    DATA     BYTE      WDT_CONTR
      000000DFH   SFRSYM    DATA     BYTE      IP3
      000000F4H   SFRSYM    DATA     BYTE      USBCON
      000000B5H   SFRSYM    DATA     BYTE      IP2
      000000FFH   SFRSYM    DATA     BYTE      RSTCFG
      000000F9H   SFRSYM    DATA     BYTE      LINICR
      0000008EH   SFRSYM    DATA     BYTE      AUXR
      000000AFH   SFRSYM    DATA     BYTE      IE2
      00000090H.1 SFRSYM    DATA     BIT       gpio_wheel_y_front_backward
      00000090H.5 SFRSYM    DATA     BIT       gpio_wheel_y_rear_backward
      00000088H   SFRSYM    DATA     BYTE      TCON
      000000E8H.2 SFRSYM    DATA     BIT       gpio_wheel_x_front_backward
      000000E8H.4 SFRSYM    DATA     BIT       gpio_wheel_x_rear_backward
      00000098H   SFRSYM    DATA     BYTE      SCON
      000000F1H   SFRSYM    DATA     BYTE      CANICR
      00000087H   SFRSYM    DATA     BYTE      PCON
      000000BCH   SFRSYM    DATA     BYTE      ADC_CONTR
      000000E7H   SFRSYM    DATA     BYTE      CMPCR2
      000000E6H   SFRSYM    DATA     BYTE      CMPCR1
      000000B8H   SFRSYM    DATA     BYTE      IP
      0000008FH   SFRSYM    DATA     BYTE      INTCLKO
      000000EEH   SFRSYM    DATA     BYTE      IP3H
      000000B6H   SFRSYM    DATA     BYTE      IP2H
      000000A8H   SFRSYM    DATA     BYTE      IE
      000000BBH   SFRSYM    DATA     BYTE      P_SW3
      000000BAH   SFRSYM    DATA     BYTE      P_SW2
      000000A2H   SFRSYM    DATA     BYTE      P_SW1
      000000CEH   SFRSYM    DATA     BYTE      SPCTL
      000000F8H   SFRSYM    DATA     BYTE      P7
      000000E8H   SFRSYM    DATA     BYTE      P6
      000000C8H   SFRSYM    DATA     BYTE      P5
      000000C0H   SFRSYM    DATA     BYTE      P4
      000000B0H   SFRSYM    DATA     BYTE      P3
      000000A0H   SFRSYM    DATA     BYTE      P2
      00000090H   SFRSYM    DATA     BYTE      P1
      00000080H   SFRSYM    DATA     BYTE      P0

      00FF30BEH   BLOCK     CODE     ---       LVL=0
      00000744H   SYMBOL    EDATA    INT       wheel_select
      00000746H   SYMBOL    EDATA    INT       wheel_direction
      00FF30BEH   LINE      CODE     ---       #26
      00FF30C6H   LINE      CODE     ---       #28
      00FF30F6H   LINE      CODE     ---       #30
      00FF30F6H   LINE      CODE     ---       #31
      00FF3100H   LINE      CODE     ---       #33
      00FF3103H   LINE      CODE     ---       #34
      00FF3106H   LINE      CODE     ---       #35
      00FF3109H   LINE      CODE     ---       #36
      00FF3115H   LINE      CODE     ---       #38
      00FF3118H   LINE      CODE     ---       #39
L251 LINKER/LOCATER V4.66.93.0                                                        05/04/2024  19:25:53  PAGE 75


      00FF311BH   LINE      CODE     ---       #40
      00FF311EH   LINE      CODE     ---       #41
      00FF312DH   LINE      CODE     ---       #43
      00FF3130H   LINE      CODE     ---       #44
      00FF3133H   LINE      CODE     ---       #45
      00FF3133H   LINE      CODE     ---       #46
      00FF3136H   LINE      CODE     ---       #47
      00FF3136H   LINE      CODE     ---       #48
      00FF3140H   LINE      CODE     ---       #50
      00FF3143H   LINE      CODE     ---       #51
      00FF3146H   LINE      CODE     ---       #52
      00FF3149H   LINE      CODE     ---       #53
      00FF3155H   LINE      CODE     ---       #55
      00FF3158H   LINE      CODE     ---       #56
      00FF315BH   LINE      CODE     ---       #57
      00FF315EH   LINE      CODE     ---       #58
      00FF316DH   LINE      CODE     ---       #60
      00FF3170H   LINE      CODE     ---       #61
      00FF3173H   LINE      CODE     ---       #62
      00FF3173H   LINE      CODE     ---       #63
      00FF3176H   LINE      CODE     ---       #64
      00FF3176H   LINE      CODE     ---       #65
      00FF3180H   LINE      CODE     ---       #67
      00FF3183H   LINE      CODE     ---       #68
      00FF3186H   LINE      CODE     ---       #69
      00FF3189H   LINE      CODE     ---       #70
      00FF318CH   LINE      CODE     ---       #71
      00FF318FH   LINE      CODE     ---       #72
      00FF319BH   LINE      CODE     ---       #74
      00FF319EH   LINE      CODE     ---       #75
      00FF31A1H   LINE      CODE     ---       #76
      00FF31A4H   LINE      CODE     ---       #77
      00FF31A7H   LINE      CODE     ---       #78
      00FF31AAH   LINE      CODE     ---       #79
      00FF31B9H   LINE      CODE     ---       #81
      00FF31BCH   LINE      CODE     ---       #82
      00FF31BFH   LINE      CODE     ---       #83
      00FF31C2H   LINE      CODE     ---       #84
      00FF31C5H   LINE      CODE     ---       #85
      00FF31C5H   LINE      CODE     ---       #86
      00FF31C8H   LINE      CODE     ---       #87
      00FF31C8H   LINE      CODE     ---       #88
      00FF31D2H   LINE      CODE     ---       #90
      00FF31D5H   LINE      CODE     ---       #91
      00FF31D8H   LINE      CODE     ---       #92
      00FF31DBH   LINE      CODE     ---       #93
      00FF31E7H   LINE      CODE     ---       #95
      00FF31EAH   LINE      CODE     ---       #96
      00FF31EDH   LINE      CODE     ---       #97
      00FF31F0H   LINE      CODE     ---       #98
      00FF31FFH   LINE      CODE     ---       #100
      00FF3202H   LINE      CODE     ---       #101
      00FF3205H   LINE      CODE     ---       #102
      00FF3205H   LINE      CODE     ---       #103
      00FF3208H   LINE      CODE     ---       #104
      00FF3208H   LINE      CODE     ---       #105
      00FF3212H   LINE      CODE     ---       #107
      00FF3215H   LINE      CODE     ---       #108
      00FF3218H   LINE      CODE     ---       #109
      00FF321BH   LINE      CODE     ---       #110
      00FF3227H   LINE      CODE     ---       #112
      00FF322AH   LINE      CODE     ---       #113
      00FF322DH   LINE      CODE     ---       #114
      00FF3230H   LINE      CODE     ---       #115
      00FF323FH   LINE      CODE     ---       #117
L251 LINKER/LOCATER V4.66.93.0                                                        05/04/2024  19:25:53  PAGE 76


      00FF3242H   LINE      CODE     ---       #118
      00FF3245H   LINE      CODE     ---       #119
      00FF3245H   LINE      CODE     ---       #120
      00FF3248H   LINE      CODE     ---       #121
      00FF3248H   LINE      CODE     ---       #122
      00FF3252H   LINE      CODE     ---       #124
      00FF3255H   LINE      CODE     ---       #125
      00FF3258H   LINE      CODE     ---       #126
      00FF325BH   LINE      CODE     ---       #127
      00FF325EH   LINE      CODE     ---       #128
      00FF3261H   LINE      CODE     ---       #129
      00FF326DH   LINE      CODE     ---       #131
      00FF3270H   LINE      CODE     ---       #132
      00FF3273H   LINE      CODE     ---       #133
      00FF3276H   LINE      CODE     ---       #134
      00FF3279H   LINE      CODE     ---       #135
      00FF327CH   LINE      CODE     ---       #136
      00FF3288H   LINE      CODE     ---       #138
      00FF328BH   LINE      CODE     ---       #139
      00FF328EH   LINE      CODE     ---       #140
      00FF3291H   LINE      CODE     ---       #141
      00FF3294H   LINE      CODE     ---       #142
      00FF3294H   LINE      CODE     ---       #143
      00FF3296H   LINE      CODE     ---       #144
      00FF3296H   LINE      CODE     ---       #145
      00FF32A0H   LINE      CODE     ---       #147
      00FF32A3H   LINE      CODE     ---       #148
      00FF32A6H   LINE      CODE     ---       #149
      00FF32A9H   LINE      CODE     ---       #150
      00FF32ACH   LINE      CODE     ---       #151
      00FF32AFH   LINE      CODE     ---       #152
      00FF32B2H   LINE      CODE     ---       #153
      00FF32B5H   LINE      CODE     ---       #154
      00FF32B8H   LINE      CODE     ---       #155
      00FF32BAH   LINE      CODE     ---       #156
      00FF32C6H   LINE      CODE     ---       #158
      00FF32C9H   LINE      CODE     ---       #159
      00FF32CCH   LINE      CODE     ---       #160
      00FF32CFH   LINE      CODE     ---       #161
      00FF32D2H   LINE      CODE     ---       #162
      00FF32D5H   LINE      CODE     ---       #163
      00FF32D8H   LINE      CODE     ---       #164
      00FF32DBH   LINE      CODE     ---       #165
      00FF32DEH   LINE      CODE     ---       #166
      00FF32E0H   LINE      CODE     ---       #167
      00FF32ECH   LINE      CODE     ---       #169
      00FF32EFH   LINE      CODE     ---       #170
      00FF32F2H   LINE      CODE     ---       #171
      00FF32F5H   LINE      CODE     ---       #172
      00FF32F8H   LINE      CODE     ---       #173
      00FF32FBH   LINE      CODE     ---       #174
      00FF32FEH   LINE      CODE     ---       #175
      00FF3301H   LINE      CODE     ---       #176
      00FF3304H   LINE      CODE     ---       #177
      00FF3304H   LINE      CODE     ---       #178
      00FF3304H   LINE      CODE     ---       #179
      00FF3304H   LINE      CODE     ---       #180
      00FF3304H   LINE      CODE     ---       #181
      00FF3304H   LINE      CODE     ---       #182
      ---         BLOCKEND  ---      ---       LVL=0

      00FF350BH   BLOCK     CODE     ---       LVL=0
      000006D8H   SYMBOL    EDATA    INT       wheel_select
      000006DAH   SYMBOL    EDATA    INT       speed
      00FF3513H   BLOCK     CODE     NEAR LAB  LVL=1
L251 LINKER/LOCATER V4.66.93.0                                                        05/04/2024  19:25:53  PAGE 77


      000006DCH   SYMBOL    EDATA    WORD      pwm_duty_value
      ---         BLOCKEND  ---      ---       LVL=1
      00FF350BH   LINE      CODE     ---       #193
      00FF3513H   LINE      CODE     ---       #194
      00FF3513H   LINE      CODE     ---       #198
      00FF3528H   LINE      CODE     ---       #199
      00FF353FH   LINE      CODE     ---       #200
      00FF354AH   LINE      CODE     ---       #203
      00FF355EH   LINE      CODE     ---       #204
      00FF356CH   LINE      CODE     ---       #207
      00FF3582H   LINE      CODE     ---       #208
      00FF3596H   LINE      CODE     ---       #210
      00FF35BEH   LINE      CODE     ---       #212
      00FF35BEH   LINE      CODE     ---       #213
      00FF35CBH   LINE      CODE     ---       #214
      00FF35CEH   LINE      CODE     ---       #216
      00FF35CEH   LINE      CODE     ---       #217
      00FF35DBH   LINE      CODE     ---       #218
      00FF35DEH   LINE      CODE     ---       #220
      00FF35DEH   LINE      CODE     ---       #221
      00FF35EBH   LINE      CODE     ---       #222
      00FF35F8H   LINE      CODE     ---       #223
      00FF35FAH   LINE      CODE     ---       #225
      00FF35FAH   LINE      CODE     ---       #226
      00FF3607H   LINE      CODE     ---       #227
      00FF3609H   LINE      CODE     ---       #229
      00FF3609H   LINE      CODE     ---       #230
      00FF3616H   LINE      CODE     ---       #231
      00FF3618H   LINE      CODE     ---       #233
      00FF3618H   LINE      CODE     ---       #234
      00FF3625H   LINE      CODE     ---       #235
      00FF3632H   LINE      CODE     ---       #236
      00FF3634H   LINE      CODE     ---       #238
      00FF3634H   LINE      CODE     ---       #239
      00FF3641H   LINE      CODE     ---       #240
      00FF364EH   LINE      CODE     ---       #241
      00FF365BH   LINE      CODE     ---       #242
      00FF3668H   LINE      CODE     ---       #243
      00FF3668H   LINE      CODE     ---       #245
      00FF3668H   LINE      CODE     ---       #246
      00FF3668H   LINE      CODE     ---       #247
      00FF3668H   LINE      CODE     ---       #248
      ---         BLOCKEND  ---      ---       LVL=0
      000006DEH   SYMBOL    EDATA    INT       wheel_select
      000006E0H   SYMBOL    EDATA    WORD      speed
      000006E2H   SYMBOL    EDATA    WORD      pwm_duty_value

      00FF4B7EH   BLOCK     CODE     ---       LVL=0
      00FF4B7EH   LINE      CODE     ---       #304
      00FF4B7EH   LINE      CODE     ---       #306
      00FF4B87H   LINE      CODE     ---       #307
      00FF4B92H   LINE      CODE     ---       #308
      00FF4B9DH   LINE      CODE     ---       #309
      00FF4BA8H   LINE      CODE     ---       #310
      ---         BLOCKEND  ---      ---       LVL=0

      00FF4995H   BLOCK     CODE     ---       LVL=0
      00FF4995H   LINE      CODE     ---       #317
      00FF4995H   LINE      CODE     ---       #319
      00FF49A4H   LINE      CODE     ---       #320
      00FF49B4H   LINE      CODE     ---       #321
      00FF49C3H   LINE      CODE     ---       #322
      00FF49D3H   LINE      CODE     ---       #323
      ---         BLOCKEND  ---      ---       LVL=0

L251 LINKER/LOCATER V4.66.93.0                                                        05/04/2024  19:25:53  PAGE 78


      00FF4556H   BLOCK     CODE     ---       LVL=0
      00FF4556H   LINE      CODE     ---       #325
      00FF4556H   LINE      CODE     ---       #327
      00FF456BH   LINE      CODE     ---       #328
      00FF4580H   LINE      CODE     ---       #329
      00FF4595H   LINE      CODE     ---       #330
      00FF45AAH   LINE      CODE     ---       #331
      ---         BLOCKEND  ---      ---       LVL=0

      ---         MODULE    ---      ---       servo
      00FF44A8H   PUBLIC    CODE     ---       servo_claw_get_duty
      00FF4C0EH   PUBLIC    CODE     ---       servo_pitch_set_angle
      00FF4A10H   PUBLIC    CODE     ---       servo_init
      00FF4C27H   PUBLIC    CODE     ---       servo_claw_set_angle
      00FF4C40H   PUBLIC    CODE     ---       servo_pan_set_angle
      00FF44FFH   PUBLIC    CODE     ---       servo_pitch_get_duty
      000000D0H   SFRSYM    DATA     BYTE      PSW
      0000009DH   SFRSYM    DATA     BYTE      IRCBAND
      00000097H   SFRSYM    DATA     BYTE      AUXR2
      000000EFH   SFRSYM    DATA     BYTE      AUXINTIF
      000000FDH   SFRSYM    DATA     BYTE      S4CON
      000000ACH   SFRSYM    DATA     BYTE      S3CON
      0000009AH   SFRSYM    DATA     BYTE      S2CON
      000000B7H   SFRSYM    DATA     BYTE      IPH
      000000CDH   SFRSYM    DATA     BYTE      SPSTAT
      000000DDH   SFRSYM    DATA     BYTE      T4T3M
      000000C1H   SFRSYM    DATA     BYTE      WDT_CONTR
      000000DFH   SFRSYM    DATA     BYTE      IP3
      000000F4H   SFRSYM    DATA     BYTE      USBCON
      000000B5H   SFRSYM    DATA     BYTE      IP2
      000000FFH   SFRSYM    DATA     BYTE      RSTCFG
      000000F9H   SFRSYM    DATA     BYTE      LINICR
      0000008EH   SFRSYM    DATA     BYTE      AUXR
      000000AFH   SFRSYM    DATA     BYTE      IE2
      00000088H   SFRSYM    DATA     BYTE      TCON
      00000098H   SFRSYM    DATA     BYTE      SCON
      000000F1H   SFRSYM    DATA     BYTE      CANICR
      00000087H   SFRSYM    DATA     BYTE      PCON
      000000BCH   SFRSYM    DATA     BYTE      ADC_CONTR
      000000E7H   SFRSYM    DATA     BYTE      CMPCR2
      000000E6H   SFRSYM    DATA     BYTE      CMPCR1
      000000B8H   SFRSYM    DATA     BYTE      IP
      0000008FH   SFRSYM    DATA     BYTE      INTCLKO
      000000EEH   SFRSYM    DATA     BYTE      IP3H
      000000B6H   SFRSYM    DATA     BYTE      IP2H
      000000A8H   SFRSYM    DATA     BYTE      IE
      000000BBH   SFRSYM    DATA     BYTE      P_SW3
      000000BAH   SFRSYM    DATA     BYTE      P_SW2
      000000A2H   SFRSYM    DATA     BYTE      P_SW1
      000000CEH   SFRSYM    DATA     BYTE      SPCTL
      000000F8H   SFRSYM    DATA     BYTE      P7
      000000E8H   SFRSYM    DATA     BYTE      P6
      000000C8H   SFRSYM    DATA     BYTE      P5
      000000C0H   SFRSYM    DATA     BYTE      P4
      000000B0H   SFRSYM    DATA     BYTE      P3
      000000A0H   SFRSYM    DATA     BYTE      P2
      00000090H   SFRSYM    DATA     BYTE      P1
      00000080H   SFRSYM    DATA     BYTE      P0

      00FF44A8H   BLOCK     CODE     ---       LVL=0
      000006E4H   SYMBOL    EDATA    FLOAT     angle
      00FF44ACH   BLOCK     CODE     NEAR LAB  LVL=1
      000006E8H   SYMBOL    EDATA    WORD      duty
      ---         BLOCKEND  ---      ---       LVL=1
      00FF44A8H   LINE      CODE     ---       #19
L251 LINKER/LOCATER V4.66.93.0                                                        05/04/2024  19:25:53  PAGE 79


      00FF44ACH   LINE      CODE     ---       #20
      00FF44ACH   LINE      CODE     ---       #23
      00FF44BFH   LINE      CODE     ---       #24
      00FF44D8H   LINE      CODE     ---       #25
      00FF44FEH   LINE      CODE     ---       #26
      00FF44FEH   LINE      CODE     ---       #27
      ---         BLOCKEND  ---      ---       LVL=0

      00FF44FFH   BLOCK     CODE     ---       LVL=0
      000006EAH   SYMBOL    EDATA    FLOAT     angle
      00FF4503H   BLOCK     CODE     NEAR LAB  LVL=1
      000006EEH   SYMBOL    EDATA    WORD      duty
      ---         BLOCKEND  ---      ---       LVL=1
      00FF44FFH   LINE      CODE     ---       #37
      00FF4503H   LINE      CODE     ---       #38
      00FF4503H   LINE      CODE     ---       #41
      00FF4516H   LINE      CODE     ---       #42
      00FF452FH   LINE      CODE     ---       #43
      00FF4555H   LINE      CODE     ---       #44
      00FF4555H   LINE      CODE     ---       #45
      ---         BLOCKEND  ---      ---       LVL=0
      000006F0H   SYMBOL    EDATA    FLOAT     angle
      000006F4H   SYMBOL    EDATA    WORD      duty

      00FF4A10H   BLOCK     CODE     ---       LVL=0
      00FF4A10H   LINE      CODE     ---       #65
      00FF4A10H   LINE      CODE     ---       #67
      00FF4A23H   LINE      CODE     ---       #68
      00FF4A36H   LINE      CODE     ---       #69
      00FF4A49H   LINE      CODE     ---       #70
      ---         BLOCKEND  ---      ---       LVL=0

      00FF4C27H   BLOCK     CODE     ---       LVL=0
      000006F6H   SYMBOL    EDATA    FLOAT     angle
      00FF4C2BH   BLOCK     CODE     NEAR LAB  LVL=1
      000006FAH   SYMBOL    EDATA    WORD      duty
      ---         BLOCKEND  ---      ---       LVL=1
      00FF4C27H   LINE      CODE     ---       #72
      00FF4C2BH   LINE      CODE     ---       #73
      00FF4C2BH   LINE      CODE     ---       #74
      00FF4C32H   LINE      CODE     ---       #75
      00FF4C3FH   LINE      CODE     ---       #76
      ---         BLOCKEND  ---      ---       LVL=0

      00FF4C0EH   BLOCK     CODE     ---       LVL=0
      000006FCH   SYMBOL    EDATA    FLOAT     angle
      00FF4C12H   BLOCK     CODE     NEAR LAB  LVL=1
      00000700H   SYMBOL    EDATA    WORD      duty
      ---         BLOCKEND  ---      ---       LVL=1
      00FF4C0EH   LINE      CODE     ---       #78
      00FF4C12H   LINE      CODE     ---       #79
      00FF4C12H   LINE      CODE     ---       #80
      00FF4C19H   LINE      CODE     ---       #81
      00FF4C26H   LINE      CODE     ---       #82
      ---         BLOCKEND  ---      ---       LVL=0

      00FF4C40H   BLOCK     CODE     ---       LVL=0
      00000702H   SYMBOL    EDATA    FLOAT     angle
      00FF4C44H   BLOCK     CODE     NEAR LAB  LVL=1
      00000706H   SYMBOL    EDATA    WORD      duty
      ---         BLOCKEND  ---      ---       LVL=1
      00FF4C40H   LINE      CODE     ---       #84
      00FF4C44H   LINE      CODE     ---       #85
      00FF4C44H   LINE      CODE     ---       #86
      00FF4C4BH   LINE      CODE     ---       #87
L251 LINKER/LOCATER V4.66.93.0                                                        05/04/2024  19:25:53  PAGE 80


      00FF4C58H   LINE      CODE     ---       #88
      ---         BLOCKEND  ---      ---       LVL=0

      ---         MODULE    ---      ---       stepper
      00FF0003H   PUBLIC    CODE     ---       stepper_init
      00FF4D10H   PUBLIC    CODE     ---       stepper_oled_init
      00FF4C59H   PUBLIC    CODE     ---       Timer0_Init
      00FF3E3CH   PUBLIC    CODE     ---       Timer0_Isr
      00FF4CC9H   PUBLIC    CODE     ---       stepper_oled_update
      00FF49D4H   PUBLIC    CODE     ---       stepper_adjust
      0000061FH   PUBLIC    EDATA    WORD      stepper_steps_setted
      00000621H   PUBLIC    EDATA    WORD      stepper_pulses_remaining
      00000623H   PUBLIC    EDATA    WORD      timer0_counter
      00000625H   PUBLIC    EDATA    WORD      stepper_steps_remaining
      00000627H   PUBLIC    EDATA    BYTE      stepper_pulses_counter
      000000D0H   SFRSYM    DATA     BYTE      PSW
      0000009DH   SFRSYM    DATA     BYTE      IRCBAND
      00000097H   SFRSYM    DATA     BYTE      AUXR2
      000000EFH   SFRSYM    DATA     BYTE      AUXINTIF
      000000FDH   SFRSYM    DATA     BYTE      S4CON
      000000ACH   SFRSYM    DATA     BYTE      S3CON
      0000009AH   SFRSYM    DATA     BYTE      S2CON
      000000B7H   SFRSYM    DATA     BYTE      IPH
      000000CDH   SFRSYM    DATA     BYTE      SPSTAT
      000000DDH   SFRSYM    DATA     BYTE      T4T3M
      000000C1H   SFRSYM    DATA     BYTE      WDT_CONTR
      00000088H.4 SFRSYM    DATA     BIT       TR0
      0000008AH   SFRSYM    DATA     BYTE      TL0
      0000008CH   SFRSYM    DATA     BYTE      TH0
      000000DFH   SFRSYM    DATA     BYTE      IP3
      000000F4H   SFRSYM    DATA     BYTE      USBCON
      000000B5H   SFRSYM    DATA     BYTE      IP2
      000000FFH   SFRSYM    DATA     BYTE      RSTCFG
      00000088H.5 SFRSYM    DATA     BIT       TF0
      000000A8H.1 SFRSYM    DATA     BIT       ET0
      000000F9H   SFRSYM    DATA     BYTE      LINICR
      0000008EH   SFRSYM    DATA     BYTE      AUXR
      00000080H.4 SFRSYM    DATA     BIT       stepper_stp
      000000AFH   SFRSYM    DATA     BYTE      IE2
      00000080H.5 SFRSYM    DATA     BIT       stepper_en
      00000088H   SFRSYM    DATA     BYTE      TCON
      00000089H   SFRSYM    DATA     BYTE      TMOD
      00000098H   SFRSYM    DATA     BYTE      SCON
      000000F1H   SFRSYM    DATA     BYTE      CANICR
      00000087H   SFRSYM    DATA     BYTE      PCON
      000000BCH   SFRSYM    DATA     BYTE      ADC_CONTR
      000000E7H   SFRSYM    DATA     BYTE      CMPCR2
      00000080H.3 SFRSYM    DATA     BIT       stepper_dir
      000000E6H   SFRSYM    DATA     BYTE      CMPCR1
      000000B8H   SFRSYM    DATA     BYTE      IP
      0000008FH   SFRSYM    DATA     BYTE      INTCLKO
      000000EEH   SFRSYM    DATA     BYTE      IP3H
      000000B6H   SFRSYM    DATA     BYTE      IP2H
      000000A8H   SFRSYM    DATA     BYTE      IE
      000000BBH   SFRSYM    DATA     BYTE      P_SW3
      000000BAH   SFRSYM    DATA     BYTE      P_SW2
      000000A2H   SFRSYM    DATA     BYTE      P_SW1
      000000CEH   SFRSYM    DATA     BYTE      SPCTL
      000000F8H   SFRSYM    DATA     BYTE      P7
      000000E8H   SFRSYM    DATA     BYTE      P6
      000000C8H   SFRSYM    DATA     BYTE      P5
      000000C0H   SFRSYM    DATA     BYTE      P4
      000000B0H   SFRSYM    DATA     BYTE      P3
      000000A0H   SFRSYM    DATA     BYTE      P2
      00000090H   SFRSYM    DATA     BYTE      P1
L251 LINKER/LOCATER V4.66.93.0                                                        05/04/2024  19:25:53  PAGE 81


      00000080H   SFRSYM    DATA     BYTE      P0

      00FF3E3CH   BLOCK     CODE     ---       LVL=0
      00FF3E42H   BLOCK     CODE     NEAR LAB  LVL=1
      00000748H   SYMBOL    EDATA    WORD      stepper_timer_period
      0000074AH   SYMBOL    EDATA    INT       stepper_steps_diff
      ---         BLOCKEND  ---      ---       LVL=1
      00FF3E3CH   LINE      CODE     ---       #14
      00FF3E42H   LINE      CODE     ---       #15
      00FF3E42H   LINE      CODE     ---       #16
      00FF3E4AH   LINE      CODE     ---       #17
      00FF3E58H   LINE      CODE     ---       #18
      00FF3E66H   LINE      CODE     ---       #21
      00FF3E72H   LINE      CODE     ---       #23
      00FF3E80H   LINE      CODE     ---       #24
      00FF3E82H   LINE      CODE     ---       #26
      00FF3E8EH   LINE      CODE     ---       #28
      00FF3E9CH   LINE      CODE     ---       #29
      00FF3E9EH   LINE      CODE     ---       #33
      00FF3EA6H   LINE      CODE     ---       #34
      00FF3EA6H   LINE      CODE     ---       #36
      00FF3EB2H   LINE      CODE     ---       #38
      00FF3EBCH   LINE      CODE     ---       #40
      00FF3EC5H   LINE      CODE     ---       #41
      00FF3ED3H   LINE      CODE     ---       #42
      00FF3EE0H   LINE      CODE     ---       #43
      00FF3EE0H   LINE      CODE     ---       #44
      00FF3EEAH   LINE      CODE     ---       #46
      00FF3EEFH   LINE      CODE     ---       #47
      00FF3EFDH   LINE      CODE     ---       #48
      00FF3EFDH   LINE      CODE     ---       #49
      00FF3F03H   LINE      CODE     ---       #50
      ---         BLOCKEND  ---      ---       LVL=0

      00FF4C59H   BLOCK     CODE     ---       LVL=0
      00FF4C59H   LINE      CODE     ---       #53
      00FF4C59H   LINE      CODE     ---       #55
      00FF4C5CH   LINE      CODE     ---       #56
      00FF4C5FH   LINE      CODE     ---       #57
      00FF4C63H   LINE      CODE     ---       #58
      00FF4C67H   LINE      CODE     ---       #59
      00FF4C6AH   LINE      CODE     ---       #60
      00FF4C6DH   LINE      CODE     ---       #61
      00FF4C70H   LINE      CODE     ---       #62
      ---         BLOCKEND  ---      ---       LVL=0

      00FF0003H   BLOCK     CODE     ---       LVL=0
      00FF0003H   LINE      CODE     ---       #64
      00FF0003H   LINE      CODE     ---       #66
      00FF0006H   LINE      CODE     ---       #67
      00FF0009H   LINE      CODE     ---       #69
      ---         BLOCKEND  ---      ---       LVL=0

      00FF4D10H   BLOCK     CODE     ---       LVL=0
      00FF4D10H   LINE      CODE     ---       #71
      00FF4D10H   LINE      CODE     ---       #73
      00FF4D1FH   LINE      CODE     ---       #74
      ---         BLOCKEND  ---      ---       LVL=0

      00FF4CC9H   BLOCK     CODE     ---       LVL=0
      00FF4CC9H   LINE      CODE     ---       #76
      00FF4CC9H   LINE      CODE     ---       #78
      00FF4CDCH   LINE      CODE     ---       #79
      ---         BLOCKEND  ---      ---       LVL=0

L251 LINKER/LOCATER V4.66.93.0                                                        05/04/2024  19:25:53  PAGE 82


      00FF49D4H   BLOCK     CODE     ---       LVL=0
      00000786H   SYMBOL    EDATA    INT       step
      00FF49D4H   LINE      CODE     ---       #88
      00FF49D8H   LINE      CODE     ---       #90
      00FF49E7H   LINE      CODE     ---       #91
      00FF49EAH   LINE      CODE     ---       #93
      00FF49F9H   LINE      CODE     ---       #94
      00FF4A04H   LINE      CODE     ---       #95
      00FF4A0FH   LINE      CODE     ---       #96
      ---         BLOCKEND  ---      ---       LVL=0

      ---         MODULE    ---      ---       wt61
      0000038AH   PUBLIC    EDATA    FLOAT     acc_x
      0000038EH   PUBLIC    EDATA    ---       wt61_cmd_calibrate_acc
      00000391H   PUBLIC    EDATA    FLOAT     acc_y
      00000395H   PUBLIC    EDATA    FLOAT     acc_z
      00000399H   PUBLIC    EDATA    FLOAT     x_roll
      0000039DH   PUBLIC    EDATA    ---       wt61_cmd_set_band_10Hz
      000003A0H   PUBLIC    EDATA    ---       wt61_cmd_set_band_20Hz
      000003A3H   PUBLIC    EDATA    ---       wt61_cmd_set_band_42Hz
      000003A6H   PUBLIC    EDATA    FLOAT     gyro_x
      000003AAH   PUBLIC    EDATA    FLOAT     gyro_y
      000003AEH   PUBLIC    EDATA    FLOAT     gyro_z
      000003B2H   PUBLIC    EDATA    ---       wt61_cmd_set_band_98Hz
      000003B5H   PUBLIC    EDATA    FLOAT     z_yaw
      000003B9H   PUBLIC    EDATA    ---       wt61_cmd_set_axis_z_zero
      000003BCH   PUBLIC    EDATA    FLOAT     temperature
      000003C0H   PUBLIC    EDATA    ---       wt61_cmd_set_iic_mode
      000003C3H   PUBLIC    EDATA    ---       wt61_cmd_set_uart_mode
      000003C6H   PUBLIC    EDATA    ---       wt61_cmd_set_uart_115200
      000003C9H   PUBLIC    EDATA    ---       wt61_cmd_set_horizontal
      000003CCH   PUBLIC    EDATA    ---       wt61_cmd_set_band_265Hz
      000003CFH   PUBLIC    EDATA    ---       wt61_cmd_set_band_188Hz
      000003D2H   PUBLIC    EDATA    ---       wt61_cmd_set_vertical
      000003D5H   PUBLIC    EDATA    ---       wt61_cmd_set_uart_9600
      000003D8H   PUBLIC    EDATA    ---       wt61_cmd_set_band_5Hz
      000003DBH   PUBLIC    EDATA    ---       wt61_cmd_switch_power
      000003DEH   PUBLIC    EDATA    FLOAT     y_pitch
      00000022H.6 PUBLIC    BIT      BIT       wt61_oled_disp_flag
      000000D0H   SFRSYM    DATA     BYTE      PSW
      0000009DH   SFRSYM    DATA     BYTE      IRCBAND
      00000097H   SFRSYM    DATA     BYTE      AUXR2
      000000EFH   SFRSYM    DATA     BYTE      AUXINTIF
      000000FDH   SFRSYM    DATA     BYTE      S4CON
      000000ACH   SFRSYM    DATA     BYTE      S3CON
      0000009AH   SFRSYM    DATA     BYTE      S2CON
      000000B7H   SFRSYM    DATA     BYTE      IPH
      000000CDH   SFRSYM    DATA     BYTE      SPSTAT
      000000DDH   SFRSYM    DATA     BYTE      T4T3M
      000000C1H   SFRSYM    DATA     BYTE      WDT_CONTR
      000000DFH   SFRSYM    DATA     BYTE      IP3
      000000F4H   SFRSYM    DATA     BYTE      USBCON
      000000B5H   SFRSYM    DATA     BYTE      IP2
      000000FFH   SFRSYM    DATA     BYTE      RSTCFG
      000000F9H   SFRSYM    DATA     BYTE      LINICR
      0000008EH   SFRSYM    DATA     BYTE      AUXR
      000000AFH   SFRSYM    DATA     BYTE      IE2
      00000088H   SFRSYM    DATA     BYTE      TCON
      00000098H   SFRSYM    DATA     BYTE      SCON
      000000F1H   SFRSYM    DATA     BYTE      CANICR
      00000087H   SFRSYM    DATA     BYTE      PCON
      000000BCH   SFRSYM    DATA     BYTE      ADC_CONTR
      000000E7H   SFRSYM    DATA     BYTE      CMPCR2
      000000E6H   SFRSYM    DATA     BYTE      CMPCR1
      000000B8H   SFRSYM    DATA     BYTE      IP
L251 LINKER/LOCATER V4.66.93.0                                                        05/04/2024  19:25:53  PAGE 83


      0000008FH   SFRSYM    DATA     BYTE      INTCLKO
      000000EEH   SFRSYM    DATA     BYTE      IP3H
      000000B6H   SFRSYM    DATA     BYTE      IP2H
      000000A8H   SFRSYM    DATA     BYTE      IE
      000000BBH   SFRSYM    DATA     BYTE      P_SW3
      000000BAH   SFRSYM    DATA     BYTE      P_SW2
      000000A2H   SFRSYM    DATA     BYTE      P_SW1
      000000CEH   SFRSYM    DATA     BYTE      SPCTL
      000000F8H   SFRSYM    DATA     BYTE      P7
      000000E8H   SFRSYM    DATA     BYTE      P6
      000000C8H   SFRSYM    DATA     BYTE      P5
      000000C0H   SFRSYM    DATA     BYTE      P4
      000000B0H   SFRSYM    DATA     BYTE      P3
      000000A0H   SFRSYM    DATA     BYTE      P2
      00000090H   SFRSYM    DATA     BYTE      P1
      00000080H   SFRSYM    DATA     BYTE      P0
      0000074CH   SYMBOL    EDATA    ---       buf

      ---         MODULE    ---      ---       ?C?FPADD
      00FF1E12H   PUBLIC    CODE     ---       ?C?FPADD
      00FF1E0FH   PUBLIC    CODE     ---       ?C?FPSUB

      ---         MODULE    ---      ---       ?C?FPMUL
      00FF1ECAH   PUBLIC    CODE     ---       ?C?FPMUL

      ---         MODULE    ---      ---       ?C?FPDIV
      00FF1F6AH   PUBLIC    CODE     ---       ?C?FPDIV

      ---         MODULE    ---      ---       ?C?FPCMP
      00FF1FEDH   PUBLIC    CODE     ---       ?C?FPCMP
      00FF1FEBH   PUBLIC    CODE     ---       ?C?FPCMP3

      ---         MODULE    ---      ---       ?C?FCAST
      00FF203BH   PUBLIC    CODE     NEAR LAB  ?C?FCASTC
      00FF2036H   PUBLIC    CODE     NEAR LAB  ?C?FCASTI
      00FF2031H   PUBLIC    CODE     NEAR LAB  ?C?FCASTL

      ---         MODULE    ---      ---       ?C?CASTF
      00FF206EH   PUBLIC    CODE     NEAR LAB  ?C?CASTF

      ---         MODULE    ---      ---       ATOF?_
      00FF20ABH   PUBLIC    CODE     NEAR LAB  ATOF?_

      ---         MODULE    ---      ---       ?C?FPGETOPN
      00FF20CAH   PUBLIC    CODE     ---       ?C?FPGETOPN2
      00FF2107H   PUBLIC    CODE     ---       ?C?FPNANRESULT
      00FF210FH   PUBLIC    CODE     ---       ?C?FPOVERFLOW
      00FF20E3H   PUBLIC    CODE     ---       ?C?FPRESULT
      00FF20F9H   PUBLIC    CODE     ---       ?C?FPRESULT2
      00FF210CH   PUBLIC    CODE     ---       ?C?FPUNDERFLOW

      ---         MODULE    ---      ---       ?C?ATOF
      00FF211BH   PUBLIC    CODE     NEAR LAB  ?C?FPATOF

      ---         MODULE    ---      ---       ?C?FPNEG
      00FF21D7H   PUBLIC    CODE     ---       ?C?FPNEG

      ---         MODULE    ---      ---       ?C?FTNPWR
      00FF2215H   PUBLIC    CODE     ---       ?C?FTNPWR

      ---         MODULE    ---      ---       ?C_START
      00FF0000H   PUBLIC    CODE     ---       ?C?STARTUP
      00FF0000H   PUBLIC    CODE     ---       ?C_STARTUP

      ---         MODULE    ---      ---       ?C?INITEDATA
L251 LINKER/LOCATER V4.66.93.0                                                        05/04/2024  19:25:53  PAGE 84


      00FF47B8H   PUBLIC    CODE     ---       ?C?INITEDATA

      ---         MODULE    ---      ---       ?C?LIMUL
      00FF224CH   PUBLIC    CODE     ---       ?C?LIMUL

      ---         MODULE    ---      ---       ?C?ULDIV
      00FF2257H   PUBLIC    CODE     NEAR LAB  ?C?ULDIV
      00FF2255H   PUBLIC    CODE     NEAR LAB  ?C?ULIDIV

      ---         MODULE    ---      ---       ?C?SLDIV
      00FF22A8H   PUBLIC    CODE     NEAR LAB  ?C?SLDIV

      ---         MODULE    ---      ---       ISSPACE

      ---         MODULE    ---      ---       ABS
      00FF4D20H   PUBLIC    CODE     ---       abs?_

      ---         MODULE    ---      ---       memcpy
      00FF4BD0H   PUBLIC    CODE     ---       memcpy?_

      ---         MODULE    ---      ---       memset
      00FF0026H   PUBLIC    CODE     ---       memset?_

      ---         MODULE    ---      ---       ?C?INITEDATA_END
      00FF4F44H   PUBLIC    HCONST   WORD      ?C?INITEDATA_END

Program Size: data=10.7 edata+hdata=2189 xdata=294 const=819 code=19765
L251 RUN COMPLETE.  0 WARNING(S),  0 ERROR(S)
