L251 LINKER/LOCATER V4.66.93.0                                                          05/03/2024  16:07:18  PAGE 1


L251 LINKER/LOCATER V4.66.93.0, INVOKED BY:
C:\KEIL_V5\C251\BIN\L251.EXE .\Out_File\board.obj, .\Out_File\common.obj, .\Out_File\zf_adc.obj, .\Out_File\zf_delay.obj
>> , .\Out_File\zf_eeprom.obj, .\Out_File\zf_exti.obj, .\Out_File\zf_gpio.obj, .\Out_File\zf_nvic.obj, .\Out_File\zf_pwm
>> .obj, .\Out_File\zf_spi.obj, .\Out_File\zf_tim.obj, .\Out_File\zf_uart.obj, .\Out_File\zf_fifo.obj, .\Out_File\zf_iic
>> .obj, .\Out_File\SEEKFREE_18TFT.obj, .\Out_File\SEEKFREE_BLUETOOTH_CH9141.obj, Libraries\seekfree_peripheral\SEEKFREE
>> _CONFIG.LIB, .\Out_File\SEEKFREE_DL1A.obj, .\Out_File\SEEKFREE_DL1B.obj, .\Out_File\SEEKFREE_FONT.obj, .\Out_File\SEE
>> KFREE_ICM20602.obj, .\Out_File\SEEKFREE_IMU660RA.obj, .\Out_File\SEEKFREE_IMU963RA.obj, .\Out_File\SEEKFREE_IPS114_SP
>> I.obj, .\Out_File\SEEKFREE_MPU6050.obj, .\Out_File\SEEKFREE_OLED.obj, .\Out_File\SEEKFREE_PRINTF.obj, .\Out_File\SEEK
>> FREE_TSL1401.obj, .\Out_File\SEEKFREE_VIRSCO.obj, .\Out_File\SEEKFREE_WIRELESS.obj, .\Out_File\SEEKFREE_WIRELESS_CH57
>> 3.obj, .\Out_File\main.obj, .\Out_File\uart.obj, .\Out_File\isr.obj, .\Out_File\key.obj, .\Out_File\ui.obj, .\Out_Fil
>> e\seekfree_assistant.obj, .\Out_File\seekfree_assistant_inface.obj, .\Out_File\host_comm.obj, .\Out_File\laser_rangin
>> g.obj, .\Out_File\motor_driver_boards.obj, .\Out_File\qmc5883.obj, .\Out_File\servo.obj, .\Out_File\stepper.obj, .\Ou
>> t_File\wt61.obj TO .\Out_File\SEEKFREE PRINT (.\Out_File\SEEKFREE.map) CASE DISABLEWARNING (15, 16, 57) REMOVEUNUSED 
>> CLASSES (EDATA (0X0-0XFFF), HDATA (0X0-0XFFF))


CPU MODE:     251 SOURCE MODE
INTR FRAME:   2 BYTES SAVED ON INTERRUPT
MEMORY MODEL: XSMALL WITH FLOATING POINT ARITHMETIC


INPUT MODULES INCLUDED:
  .\Out_File\board.obj (board)
         COMMENT TYPE 0: C251 V5.60.0
  .\Out_File\common.obj (common)
         COMMENT TYPE 0: C251 V5.60.0
  .\Out_File\zf_adc.obj (zf_adc)
         COMMENT TYPE 0: C251 V5.60.0
  .\Out_File\zf_delay.obj (zf_delay)
         COMMENT TYPE 0: C251 V5.60.0
  .\Out_File\zf_eeprom.obj (zf_eeprom)
         COMMENT TYPE 0: C251 V5.60.0
  .\Out_File\zf_exti.obj (zf_exti)
         COMMENT TYPE 0: C251 V5.60.0
  .\Out_File\zf_gpio.obj (zf_gpio)
         COMMENT TYPE 0: C251 V5.60.0
  .\Out_File\zf_nvic.obj (zf_nvic)
         COMMENT TYPE 0: C251 V5.60.0
  .\Out_File\zf_pwm.obj (zf_pwm)
         COMMENT TYPE 0: C251 V5.60.0
  .\Out_File\zf_spi.obj (zf_spi)
         COMMENT TYPE 0: C251 V5.60.0
  .\Out_File\zf_tim.obj (zf_tim)
         COMMENT TYPE 0: C251 V5.60.0
  .\Out_File\zf_uart.obj (zf_uart)
         COMMENT TYPE 0: C251 V5.60.0
  .\Out_File\zf_fifo.obj (zf_fifo)
         COMMENT TYPE 0: C251 V5.60.0
  .\Out_File\zf_iic.obj (zf_iic)
         COMMENT TYPE 0: C251 V5.60.0
  .\Out_File\SEEKFREE_18TFT.obj (SEEKFREE_18TFT)
         COMMENT TYPE 0: C251 V5.60.0
  .\Out_File\SEEKFREE_BLUETOOTH_CH9141.obj (SEEKFREE_BLUETOOTH_CH9141)
         COMMENT TYPE 0: C251 V5.60.0
  .\Out_File\SEEKFREE_DL1A.obj (SEEKFREE_DL1A)
         COMMENT TYPE 0: C251 V5.60.0
  .\Out_File\SEEKFREE_DL1B.obj (SEEKFREE_DL1B)
         COMMENT TYPE 0: C251 V5.60.0
  .\Out_File\SEEKFREE_FONT.obj (SEEKFREE_FONT)
         COMMENT TYPE 0: C251 V5.60.0
  .\Out_File\SEEKFREE_ICM20602.obj (SEEKFREE_ICM20602)
         COMMENT TYPE 0: C251 V5.60.0
  .\Out_File\SEEKFREE_IMU660RA.obj (SEEKFREE_IMU660RA)
         COMMENT TYPE 0: C251 V5.60.0
  .\Out_File\SEEKFREE_IMU963RA.obj (SEEKFREE_IMU963RA)
         COMMENT TYPE 0: C251 V5.60.0
L251 LINKER/LOCATER V4.66.93.0                                                        05/03/2024  16:07:18  PAGE 2


  .\Out_File\SEEKFREE_IPS114_SPI.obj (SEEKFREE_IPS114_SPI)
         COMMENT TYPE 0: C251 V5.60.0
  .\Out_File\SEEKFREE_MPU6050.obj (SEEKFREE_MPU6050)
         COMMENT TYPE 0: C251 V5.60.0
  .\Out_File\SEEKFREE_OLED.obj (SEEKFREE_OLED)
         COMMENT TYPE 0: C251 V5.60.0
  .\Out_File\SEEKFREE_PRINTF.obj (SEEKFREE_PRINTF)
         COMMENT TYPE 0: C251 V5.60.0
  .\Out_File\SEEKFREE_TSL1401.obj (SEEKFREE_TSL1401)
         COMMENT TYPE 0: C251 V5.60.0
  .\Out_File\SEEKFREE_VIRSCO.obj (SEEKFREE_VIRSCO)
         COMMENT TYPE 0: C251 V5.60.0
  .\Out_File\SEEKFREE_WIRELESS.obj (SEEKFREE_WIRELESS)
         COMMENT TYPE 0: C251 V5.60.0
  .\Out_File\SEEKFREE_WIRELESS_CH573.obj (SEEKFREE_WIRELESS_CH573)
         COMMENT TYPE 0: C251 V5.60.0
  .\Out_File\main.obj (main)
         COMMENT TYPE 0: C251 V5.60.0
  .\Out_File\uart.obj (uart)
         COMMENT TYPE 0: C251 V5.60.0
  .\Out_File\isr.obj (isr)
         COMMENT TYPE 0: C251 V5.60.0
  .\Out_File\key.obj (key)
         COMMENT TYPE 0: C251 V5.60.0
  .\Out_File\ui.obj (ui)
         COMMENT TYPE 0: C251 V5.60.0
  .\Out_File\seekfree_assistant.obj (seekfree_assistant)
         COMMENT TYPE 0: C251 V5.60.0
  .\Out_File\seekfree_assistant_inface.obj (seekfree_assistant_inface)
         COMMENT TYPE 0: C251 V5.60.0
  .\Out_File\host_comm.obj (host_comm)
         COMMENT TYPE 0: C251 V5.60.0
  .\Out_File\laser_ranging.obj (laser_ranging)
         COMMENT TYPE 0: C251 V5.60.0
  .\Out_File\motor_driver_boards.obj (motor_driver_boards)
         COMMENT TYPE 0: C251 V5.60.0
  .\Out_File\qmc5883.obj (qmc5883)
         COMMENT TYPE 0: C251 V5.60.0
  .\Out_File\servo.obj (servo)
         COMMENT TYPE 0: C251 V5.60.0
  .\Out_File\stepper.obj (stepper)
         COMMENT TYPE 0: C251 V5.60.0
  .\Out_File\wt61.obj (wt61)
         COMMENT TYPE 0: C251 V5.60.0
  Libraries\seekfree_peripheral\SEEKFREE_CONFIG.LIB (SEEKFREE_CONFIG)
         COMMENT TYPE 0: C251 V5.60.0
  C:\KEIL_V5\C251\LIB\C2SFPXS.LIB (?C?FPADD)
         COMMENT TYPE 0: A251 V4.69.6.0
  C:\KEIL_V5\C251\LIB\C2SFPXS.LIB (?C?FPMUL)
         COMMENT TYPE 0: A251 V4.69.6.0
  C:\KEIL_V5\C251\LIB\C2SFPXS.LIB (?C?FPDIV)
         COMMENT TYPE 0: A251 V4.69.6.0
  C:\KEIL_V5\C251\LIB\C2SFPXS.LIB (?C?FPCMP)
         COMMENT TYPE 0: A251 V4.69.6.0
  C:\KEIL_V5\C251\LIB\C2SFPXS.LIB (?C?FCAST)
         COMMENT TYPE 0: A251 V4.69.6.0
  C:\KEIL_V5\C251\LIB\C2SFPXS.LIB (?C?CASTF)
         COMMENT TYPE 0: A251 V4.69.6.0
  C:\KEIL_V5\C251\LIB\C2SFPXS.LIB (PRINTF)
         COMMENT TYPE 0: A251 V4.69.6.0
  C:\KEIL_V5\C251\LIB\C2SFPXS.LIB (ATOF?_)
         COMMENT TYPE 0: A251 V4.69.6.0
  C:\KEIL_V5\C251\LIB\C2SFPXS.LIB (?C?FPGETOPN)
         COMMENT TYPE 0: A251 V4.69.6.0
  C:\KEIL_V5\C251\LIB\C2SFPXS.LIB (?C?ATOF)
L251 LINKER/LOCATER V4.66.93.0                                                        05/03/2024  16:07:18  PAGE 3


         COMMENT TYPE 0: A251 V4.69.6.0
  C:\KEIL_V5\C251\LIB\C2SFPXS.LIB (?C?PRNFMT)
         COMMENT TYPE 0: A251 V4.69.6.0
  C:\KEIL_V5\C251\LIB\C2SFPXS.LIB (?C?FPNEG)
         COMMENT TYPE 0: A251 V4.69.6.0
  C:\KEIL_V5\C251\LIB\C2SFPXS.LIB (?C?FTNPWR)
         COMMENT TYPE 0: A251 V4.69.6.0
  C:\KEIL_V5\C251\LIB\C2SFPXS.LIB (?C?FPCONVERT)
         COMMENT TYPE 0: A251 V4.69.6.0
  C:\KEIL_V5\C251\LIB\C2SXS.LIB (?C_START)
         COMMENT TYPE 0: A251 V4.69.6.0
  C:\KEIL_V5\C251\LIB\C2SXS.LIB (?C?INITEDATA)
         COMMENT TYPE 0: A251 V4.69.6.0
  C:\KEIL_V5\C251\LIB\C2SXS.LIB (?C?INITHDATA)
         COMMENT TYPE 0: A251 V4.69.6.0
  C:\KEIL_V5\C251\LIB\C2SXS.LIB (?C?SIDIV)
         COMMENT TYPE 0: A251 V4.69.6.0
  C:\KEIL_V5\C251\LIB\C2SXS.LIB (?C?LMUL)
         COMMENT TYPE 0: A251 V4.69.6.0
  C:\KEIL_V5\C251\LIB\C2SXS.LIB (?C?LIMUL)
         COMMENT TYPE 0: A251 V4.69.6.0
  C:\KEIL_V5\C251\LIB\C2SXS.LIB (?C?ULDIV)
         COMMENT TYPE 0: A251 V4.69.6.0
  C:\KEIL_V5\C251\LIB\C2SXS.LIB (?C?SLDIV)
         COMMENT TYPE 0: A251 V4.69.6.0
  C:\KEIL_V5\C251\LIB\C2SXS.LIB (ISSPACE)
         COMMENT TYPE 0: C251 V5.58.7
  C:\KEIL_V5\C251\LIB\C2SXS.LIB (memcpy)
         COMMENT TYPE 0: C251 V5.58.7
  C:\KEIL_V5\C251\LIB\C2SXS.LIB (memset)
         COMMENT TYPE 0: C251 V5.58.7
  C:\KEIL_V5\C251\LIB\C2SXS.LIB (?C?INITEDATA_END)
         COMMENT TYPE 0: A251 V4.69.6.0
  C:\KEIL_V5\C251\LIB\C2SXS.LIB (?C?INITHDATA_END)
         COMMENT TYPE 0: A251 V4.69.6.0


ACTIVE MEMORY CLASSES OF MODULE:  .\Out_File\SEEKFREE (board)

BASE        START       END         USED      MEMORY CLASS
==========================================================
000000H     000000H     000FFFH     000CE0H   EDATA
000000H     000000H     000FFFH               HDATA
FF0000H     FF0000H     FFFFFFH     00869DH   CODE
000000H     FF0000H     FFFFFFH     00054AH   HCONST
010000H     010000H     01FFFFH     0006DDH   XDATA
000020H.0   000020H.0   00002FH.7   000002H.7 BIT
FF0000H     FF0000H     FFFFFFH     000004H   CONST
000000H     000000H     00007FH     000008H   DATA


MEMORY MAP OF MODULE:  .\Out_File\SEEKFREE (board)


START     STOP      LENGTH    ALIGN  RELOC    MEMORY CLASS   SEGMENT NAME
=========================================================================
000000H   000007H   000008H   ---    AT..     DATA           "REG BANK 0"
000008H   00001FH   000018H   BYTE   UNIT     EDATA          ?ED?FIFO_READ_BUFFER?ZF_FIFO
000020H.0 000021H.7 000002H.0 BIT    UNIT     BIT            ?BI?UART
000022H.0 000022H.4 000000H.5 BIT    UNIT     BIT            ?BI?HOST_COMM
000022H.5 000022H.5 000000H.1 BIT    UNIT     BIT            ?BI?MOTOR_DRIVER_BOARDS
000022H.6 000022H.6 000000H.1 BIT    UNIT     BIT            ?BI?WT61
000022H.7 000022H   000000H.1 ---    ---      **GAP**
000023H   00015DH   00013BH   BYTE   UNIT     EDATA          ?ED?UART
00015EH   00026DH   000110H   BYTE   UNIT     EDATA          ?ED?QMC5883
L251 LINKER/LOCATER V4.66.93.0                                                        05/03/2024  16:07:18  PAGE 4


00026EH   00033AH   0000CDH   BYTE   UNIT     EDATA          ?ED?LASER_RANGING
00033BH   0003C7H   00008DH   BYTE   UNIT     EDATA          ?ED?SEEKFREE_ASSISTANT_DATA_ANALYSIS?SEEKFREE_ASSISTANT
0003C8H   000426H   00005FH   BYTE   UNIT     EDATA          ?ED?ZF_SPRINTF?SEEKFREE_PRINTF
000427H   000480H   00005AH   BYTE   UNIT     EDATA          ?ED?SEEKFREE_ASSISTANT
000481H   0004D8H   000058H   BYTE   UNIT     EDATA          ?ED?WT61
0004D9H   000508H   000030H   BYTE   UNIT     EDATA          ?ED?OLED_PRINTF_FLOAT?SEEKFREE_OLED
000509H   000538H   000030H   BYTE   UNIT     EDATA          ?ED?OLED_PRINTF_FLOAT_SPI?SEEKFREE_OLED
000539H   000564H   00002CH   BYTE   UNIT     EDATA          ?ED?OLED_PRINTF_INT32?SEEKFREE_OLED
000565H   000590H   00002CH   BYTE   UNIT     EDATA          ?ED?OLED_PRINTF_INT32_SPI?SEEKFREE_OLED
000591H   0005BAH   00002AH   BYTE   UNIT     EDATA          ?ED?SEEKFREE_ASSISTANT_OSCILLOSCOPE_SEND?SEEKFREE_ASSISTAN
                                                             -T
0005BBH   0005D9H   00001FH   BYTE   UNIT     EDATA          ?ED?DL1A_SET_MEASUREMENT_TIMING_BUDGET?SEEKFREE_DL1A
0005DAH   0005F8H   00001FH   BYTE   UNIT     EDATA          ?ED?SEEKFREE_ASSISTANT_CAMERA_BOUNDARY_CONFIG?SEEKFREE_ASS
                                                             -ISTANT
0005F9H   000613H   00001BH   BYTE   UNIT     EDATA          ?ED?DL1A_GET_MEASUREMENT_TIMING_BUDGET?SEEKFREE_DL1A
000614H   00062BH   000018H   BYTE   UNIT     EDATA          ?ED?FIFO_READ_TAIL_BUFFER?ZF_FIFO
00062CH   000641H   000016H   BYTE   UNIT     EDATA          ?ED?ATOF?QMC5883
000642H   000655H   000014H   BYTE   UNIT     EDATA          ?ED?PWM_INIT?ZF_PWM
000656H   000669H   000014H   BYTE   UNIT     EDATA          ?ED?PWM_FREQ?ZF_PWM
00066AH   00067DH   000014H   BYTE   UNIT     EDATA          ?ED?NUMBER_CONVERSION_ASCII?SEEKFREE_PRINTF
00067EH   00068FH   000012H   BYTE   UNIT     EDATA          ?ED?FIFO_WRITE_BUFFER?ZF_FIFO
000690H   0006A1H   000012H   BYTE   UNIT     EDATA          ?ED?SEEKFREE_IMU963RA
0006A2H   0006B1H   000010H   BYTE   UNIT     EDATA          ?ED?FIFO_INIT?ZF_FIFO
0006B2H   0006C1H   000010H   BYTE   UNIT     EDATA          ?ED?DL1B_IIC_TRANSFER_8BIT_ARRAY?SEEKFREE_DL1B
0006C2H   0006D1H   000010H   BYTE   UNIT     EDATA          ?ED?OLED_DIS_BMP?SEEKFREE_OLED
0006D2H   0006E1H   000010H   BYTE   UNIT     EDATA          ?ED?OLED_DIS_BMP_SPI?SEEKFREE_OLED
0006E2H   0006F1H   000010H   BYTE   UNIT     EDATA          ?ED?HOST_COMM_IRQHANDLER?HOST_COMM
0006F2H   000700H   00000FH   BYTE   UNIT     EDATA          ?ED?SEEKFREE_ASSISTANT_CAMERA_DATA_SEND?SEEKFREE_ASSISTANT
000701H   00070EH   00000EH   BYTE   UNIT     EDATA          ?ED?PWM_DUTY?ZF_PWM
00070FH   00071CH   00000EH   BYTE   UNIT     EDATA          ?ED?UART_INIT?ZF_UART
00071DH   00072AH   00000EH   BYTE   UNIT     EDATA          ?ED?OLED_PRINT_CHINESE?SEEKFREE_OLED
00072BH   000738H   00000EH   BYTE   UNIT     EDATA          ?ED?OLED_PRINT_CHINESE_SPI?SEEKFREE_OLED
000739H   000746H   00000EH   BYTE   UNIT     EDATA          ?ED?DATA_CONVERSION?SEEKFREE_VIRSCO
000747H   000753H   00000DH   BYTE   UNIT     EDATA          ?ED?SPI_INIT?ZF_SPI
000754H   000760H   00000DH   BYTE   UNIT     EDATA          ?ED?PRINTF_REVERSE_ORDER?SEEKFREE_PRINTF
000761H   00076CH   00000CH   BYTE   UNIT     EDATA          ?ED?FIFO_READ_ELEMENT?ZF_FIFO
00076DH   000778H   00000CH   BYTE   UNIT     EDATA          ?ED?LCD_SHOWFLOAT_SIMSPI?SEEKFREE_18TFT
000779H   000784H   00000CH   BYTE   UNIT     EDATA          ?ED?LCD_SHOWFLOAT?SEEKFREE_18TFT
000785H   000790H   00000CH   BYTE   UNIT     EDATA          ?ED?SHOWIMAGE?SEEKFREE_18TFT
000791H   00079CH   00000CH   BYTE   UNIT     EDATA          ?ED?SEEKFREE_ICM20602
00079DH   0007A8H   00000CH   BYTE   UNIT     EDATA          ?ED?SEEKFREE_IMU660RA
0007A9H   0007B4H   00000CH   BYTE   UNIT     EDATA          ?ED?IPS114_SHOWFLOAT_SIMSPI?SEEKFREE_IPS114_SPI
0007B5H   0007C0H   00000CH   BYTE   UNIT     EDATA          ?ED?IPS114_SHOWFLOAT?SEEKFREE_IPS114_SPI
0007C1H   0007CCH   00000CH   BYTE   UNIT     EDATA          ?ED?SEEKFREE_MPU6050
0007CDH   0007D8H   00000CH   BYTE   UNIT     EDATA          ?ED?MOTOR_DRIVER_BOARDS
0007D9H   0007E3H   00000BH   BYTE   UNIT     EDATA          ?ED?OLED_UINT16?SEEKFREE_OLED
0007E4H   0007EEH   00000BH   BYTE   UNIT     EDATA          ?ED?OLED_INT16?SEEKFREE_OLED
0007EFH   0007F9H   00000BH   BYTE   UNIT     EDATA          ?ED?OLED_UINT16_SPI?SEEKFREE_OLED
0007FAH   000804H   00000BH   BYTE   UNIT     EDATA          ?ED?OLED_INT16_SPI?SEEKFREE_OLED
000805H   00080EH   00000AH   BYTE   UNIT     EDATA          ?ED?IAP_READ_BYTES?ZF_EEPROM
00080FH   000818H   00000AH   BYTE   UNIT     EDATA          ?ED?IAP_WRITE_BYTES?ZF_EEPROM
000819H   000822H   00000AH   BYTE   UNIT     EDATA          ?ED?UART_PUTBUFF?ZF_UART
000823H   00082CH   00000AH   BYTE   UNIT     EDATA          ?ED?FIFO_WRITE_ELEMENT?ZF_FIFO
00082DH   000836H   00000AH   BYTE   UNIT     EDATA          ?ED?DL1A_SIMIIC_READ_REGS?SEEKFREE_DL1A
000837H   000840H   00000AH   BYTE   UNIT     EDATA          ?ED?DL1A_SIMIIC_READ_REGS_1?SEEKFREE_DL1A
000841H   00084AH   00000AH   BYTE   UNIT     EDATA          ?ED?DL1A_GET_SPAD_INFO?SEEKFREE_DL1A
00084BH   000854H   00000AH   BYTE   UNIT     EDATA          ?ED?SEEKFREE_VIRSCO
000855H   00085EH   00000AH   BYTE   UNIT     EDATA          ?ED?SEEKFREE_ASSISTANT_CAMERA_INFORMATION_CONFIG?SEEKFREE_
                                                             -ASSISTANT
00085FH   000868H   00000AH   BYTE   UNIT     EDATA          ?ED?WHEEL_SPEED_PARSER?HOST_COMM
000869H   000872H   00000AH   BYTE   UNIT     EDATA          ?ED?ATOI?QMC5883
000873H   00087BH   000009H   BYTE   UNIT     EDATA          ?ED?LCD_SHOWINT32_SIMSPI?SEEKFREE_18TFT
00087CH   000884H   000009H   BYTE   UNIT     EDATA          ?ED?LCD_SHOWINT32?SEEKFREE_18TFT
000885H   00088DH   000009H   BYTE   UNIT     EDATA          ?ED?DL1A_SIMIIC_WRITE_DATS?SEEKFREE_DL1A
00088EH   000896H   000009H   BYTE   UNIT     EDATA          ?ED?ICM20602_SIMSPI_R_REG_BYTES?SEEKFREE_ICM20602
L251 LINKER/LOCATER V4.66.93.0                                                        05/03/2024  16:07:18  PAGE 5


000897H   00089FH   000009H   BYTE   UNIT     EDATA          ?ED?ICM20602_READ_REGISTERS?SEEKFREE_ICM20602
0008A0H   0008A8H   000009H   BYTE   UNIT     EDATA          ?ED?IMU660RA_SIMSPI_W_REG_BYTES?SEEKFREE_IMU660RA
0008A9H   0008B1H   000009H   BYTE   UNIT     EDATA          ?ED?IMU660RA_SIMSPI_R_REG_BYTES?SEEKFREE_IMU660RA
0008B2H   0008BAH   000009H   BYTE   UNIT     EDATA          ?ED?IMU660RA_WRITE_REGISTERS?SEEKFREE_IMU660RA
0008BBH   0008C3H   000009H   BYTE   UNIT     EDATA          ?ED?IMU660RA_READ_REGISTERS?SEEKFREE_IMU660RA
0008C4H   0008CCH   000009H   BYTE   UNIT     EDATA          ?ED?IMU963RA_SIMSPI_R_REG_BYTES?SEEKFREE_IMU963RA
0008CDH   0008D5H   000009H   BYTE   UNIT     EDATA          ?ED?IMU963RA_READ_ACC_GYRO_REGISTERS?SEEKFREE_IMU963RA
0008D6H   0008DEH   000009H   BYTE   UNIT     EDATA          ?ED?IPS114_SHOWINT32_SIMSPI?SEEKFREE_IPS114_SPI
0008DFH   0008E7H   000009H   BYTE   UNIT     EDATA          ?ED?IPS114_SHOWINT32?SEEKFREE_IPS114_SPI
0008E8H   0008F0H   000009H   BYTE   UNIT     EDATA          ?ED?CRC_CHECK?SEEKFREE_VIRSCO
0008F1H   0008F9H   000009H   BYTE   UNIT     EDATA          ?ED?SEEKFREE_ASSISTANT_SUM?SEEKFREE_ASSISTANT
0008FAH   000902H   000009H   BYTE   UNIT     EDATA          ?ED?QMC5883_DATA_PARSE?QMC5883
000903H   00090AH   000008H   BYTE   UNIT     EDATA          ?ED?FIFO_HEAD_OFFSET?ZF_FIFO
00090BH   000912H   000008H   BYTE   UNIT     EDATA          ?ED?FIFO_END_OFFSET?ZF_FIFO
000913H   00091AH   000008H   BYTE   UNIT     EDATA          ?ED?LCD_SET_REGION_SIMSPI?SEEKFREE_18TFT
00091BH   000922H   000008H   BYTE   UNIT     EDATA          ?ED?LCD_SHOWSTR_SIMSPI?SEEKFREE_18TFT
000923H   00092AH   000008H   BYTE   UNIT     EDATA          ?ED?LCD_SET_REGION?SEEKFREE_18TFT
00092BH   000932H   000008H   BYTE   UNIT     EDATA          ?ED?LCD_SHOWSTR?SEEKFREE_18TFT
000933H   00093AH   000008H   BYTE   UNIT     EDATA          ?ED?BLUETOOTH_CH9141_SEND_BUFF?SEEKFREE_BLUETOOTH_CH9141
00093BH   000942H   000008H   BYTE   UNIT     EDATA          ?ED?BLUETOOTH_CH9141_READ_BUFF?SEEKFREE_BLUETOOTH_CH9141
000943H   00094AH   000008H   BYTE   UNIT     EDATA          ?ED?DL1A_GET_SEQUENCE_STEP_TIMEOUTS?SEEKFREE_DL1A
00094BH   000952H   000008H   BYTE   UNIT     EDATA          ?ED?IPS114_SET_REGION_SIMSPI?SEEKFREE_IPS114_SPI
000953H   00095AH   000008H   BYTE   UNIT     EDATA          ?ED?IPS114_SHOWSTR_SIMSPI?SEEKFREE_IPS114_SPI
00095BH   000962H   000008H   BYTE   UNIT     EDATA          ?ED?IPS114_SET_REGION?SEEKFREE_IPS114_SPI
000963H   00096AH   000008H   BYTE   UNIT     EDATA          ?ED?IPS114_SHOWSTR?SEEKFREE_IPS114_SPI
00096BH   000972H   000008H   BYTE   UNIT     EDATA          ?ED?OLED_P6X8STR?SEEKFREE_OLED
000973H   00097AH   000008H   BYTE   UNIT     EDATA          ?ED?OLED_P8X16STR?SEEKFREE_OLED
00097BH   000982H   000008H   BYTE   UNIT     EDATA          ?ED?OLED_P6X8STR_SPI?SEEKFREE_OLED
000983H   00098AH   000008H   BYTE   UNIT     EDATA          ?ED?OLED_P8X16STR_SPI?SEEKFREE_OLED
00098BH   000992H   000008H   BYTE   UNIT     EDATA          ?ED?WIRELESS_UART_SEND_BUFF?SEEKFREE_WIRELESS
000993H   00099AH   000008H   BYTE   UNIT     EDATA          ?ED?WIRELESS_UART_READ_BUFF?SEEKFREE_WIRELESS
00099BH   0009A2H   000008H   BYTE   UNIT     EDATA          ?ED?WIRELESS_CH573_READ_BUFF?SEEKFREE_WIRELESS_CH573
0009A3H   0009A9H   000007H   BYTE   UNIT     EDATA          ?ED?IIC_READ_REG_BYTES?ZF_IIC
0009AAH   0009B0H   000007H   BYTE   UNIT     EDATA          ?ED?MPU6050_SIMIIC_READ_REGS?SEEKFREE_MPU6050
0009B1H   0009B7H   000007H   BYTE   UNIT     EDATA          ?ED?CCD_SEND_DATA?SEEKFREE_TSL1401
0009B8H   0009BEH   000007H   BYTE   UNIT     EDATA          ?ED?UART_SENDCMD?UART
0009BFH   0009C5H   000007H   BYTE   UNIT     EDATA          ?ED?SEEKFREE_ASSISTANT_CAMERA_DOT_SEND?SEEKFREE_ASSISTANT
0009C6H   0009CBH   000006H   BYTE   UNIT     EDATA          ?ED?ADC_ONCE?ZF_ADC
0009CCH   0009D1H   000006H   BYTE   UNIT     EDATA          ?ED?DELAY_US?ZF_DELAY
0009D2H   0009D7H   000006H   BYTE   UNIT     EDATA          ?ED?PIT_TIMER_MS?ZF_TIM
0009D8H   0009DDH   000006H   BYTE   UNIT     EDATA          ?ED?UART_PUTSTR?ZF_UART
0009DEH   0009E3H   000006H   BYTE   UNIT     EDATA          ?ED?FIFO_CLEAR?ZF_FIFO
0009E4H   0009E9H   000006H   BYTE   UNIT     EDATA          ?ED?IIC_INIT?ZF_IIC
0009EAH   0009EFH   000006H   BYTE   UNIT     EDATA          ?ED?IIC_READ_REG?ZF_IIC
0009F0H   0009F5H   000006H   BYTE   UNIT     EDATA          ?ED?LCD_DRAWPOINT_SIMSPI?SEEKFREE_18TFT
0009F6H   0009FBH   000006H   BYTE   UNIT     EDATA          ?ED?LCD_SHOWCHAR_SIMSPI?SEEKFREE_18TFT
0009FCH   000A01H   000006H   BYTE   UNIT     EDATA          ?ED?LCD_SHOWINT16_SIMSPI?SEEKFREE_18TFT
000A02H   000A07H   000006H   BYTE   UNIT     EDATA          ?ED?LCD_SHOWUINT16_SIMSPI?SEEKFREE_18TFT
000A08H   000A0DH   000006H   BYTE   UNIT     EDATA          ?ED?LCD_DRAWPOINT?SEEKFREE_18TFT
000A0EH   000A13H   000006H   BYTE   UNIT     EDATA          ?ED?LCD_SHOWCHAR?SEEKFREE_18TFT
000A14H   000A19H   000006H   BYTE   UNIT     EDATA          ?ED?LCD_SHOWINT16?SEEKFREE_18TFT
000A1AH   000A1FH   000006H   BYTE   UNIT     EDATA          ?ED?LCD_SHOWUINT16?SEEKFREE_18TFT
000A20H   000A25H   000006H   BYTE   UNIT     EDATA          ?ED?ICM20602_ACC_TRANSITION?SEEKFREE_ICM20602
000A26H   000A2BH   000006H   BYTE   UNIT     EDATA          ?ED?ICM20602_GYRO_TRANSITION?SEEKFREE_ICM20602
000A2CH   000A31H   000006H   BYTE   UNIT     EDATA          ?ED?IMU660RA_ACC_TRANSITION?SEEKFREE_IMU660RA
000A32H   000A37H   000006H   BYTE   UNIT     EDATA          ?ED?IMU660RA_GYRO_TRANSITION?SEEKFREE_IMU660RA
000A38H   000A3DH   000006H   BYTE   UNIT     EDATA          ?ED?IMU963RA_ACC_TRANSITION?SEEKFREE_IMU963RA
000A3EH   000A43H   000006H   BYTE   UNIT     EDATA          ?ED?IMU963RA_GYRO_TRANSITION?SEEKFREE_IMU963RA
000A44H   000A49H   000006H   BYTE   UNIT     EDATA          ?ED?IMU963RA_MAG_TRANSITION?SEEKFREE_IMU963RA
000A4AH   000A4FH   000006H   BYTE   UNIT     EDATA          ?ED?IPS114_DRAWPOINT_SIMSPI?SEEKFREE_IPS114_SPI
000A50H   000A55H   000006H   BYTE   UNIT     EDATA          ?ED?IPS114_SHOWCHAR_SIMSPI?SEEKFREE_IPS114_SPI
000A56H   000A5BH   000006H   BYTE   UNIT     EDATA          ?ED?IPS114_SHOWINT16_SIMSPI?SEEKFREE_IPS114_SPI
000A5CH   000A61H   000006H   BYTE   UNIT     EDATA          ?ED?IPS114_SHOWUINT16_SIMSPI?SEEKFREE_IPS114_SPI
000A62H   000A67H   000006H   BYTE   UNIT     EDATA          ?ED?IPS114_DRAWPOINT?SEEKFREE_IPS114_SPI
000A68H   000A6DH   000006H   BYTE   UNIT     EDATA          ?ED?IPS114_SHOWCHAR?SEEKFREE_IPS114_SPI
L251 LINKER/LOCATER V4.66.93.0                                                        05/03/2024  16:07:18  PAGE 6


000A6EH   000A73H   000006H   BYTE   UNIT     EDATA          ?ED?IPS114_SHOWINT16?SEEKFREE_IPS114_SPI
000A74H   000A79H   000006H   BYTE   UNIT     EDATA          ?ED?IPS114_SHOWUINT16?SEEKFREE_IPS114_SPI
000A7AH   000A7FH   000006H   BYTE   UNIT     EDATA          ?ED?OLED_HEXASCII?SEEKFREE_OLED
000A80H   000A85H   000006H   BYTE   UNIT     EDATA          ?ED?OLED_HEXASCII_SPI?SEEKFREE_OLED
000A86H   000A8BH   000006H   BYTE   UNIT     EDATA          ?ED?WIRELESS_CH573_SEND_BUFF?SEEKFREE_WIRELESS_CH573
000A8CH   000A91H   000006H   BYTE   UNIT     EDATA          ?ED?WHEEL_ADJUST?MOTOR_DRIVER_BOARDS
000A92H   000A97H   000006H   BYTE   UNIT     EDATA          ?ED?WHEEL_SPEED?MOTOR_DRIVER_BOARDS
000A98H   000A9DH   000006H   BYTE   UNIT     EDATA          ?ED?SERVO_CLAW_GET_DUTY?SERVO
000A9EH   000AA3H   000006H   BYTE   UNIT     EDATA          ?ED?SERVO_PITCH_GET_DUTY?SERVO
000AA4H   000AA9H   000006H   BYTE   UNIT     EDATA          ?ED?SERVO_PAN_GET_DUTY?SERVO
000AAAH   000AAFH   000006H   BYTE   UNIT     EDATA          ?ED?SERVO_CLAW_SET_ANGLE?SERVO
000AB0H   000AB5H   000006H   BYTE   UNIT     EDATA          ?ED?SERVO_PITCH_SET_ANGLE?SERVO
000AB6H   000ABBH   000006H   BYTE   UNIT     EDATA          ?ED?SERVO_PAN_SET_ANGLE?SERVO
000ABCH   000AC0H   000005H   BYTE   UNIT     EDATA          ?ED?ZF_UART
000AC1H   000AC5H   000005H   BYTE   UNIT     EDATA          ?ED?LCD_SHOWINT8_SIMSPI?SEEKFREE_18TFT
000AC6H   000ACAH   000005H   BYTE   UNIT     EDATA          ?ED?LCD_SHOWUINT8_SIMSPI?SEEKFREE_18TFT
000ACBH   000ACFH   000005H   BYTE   UNIT     EDATA          ?ED?LCD_SHOWINT8?SEEKFREE_18TFT
000AD0H   000AD4H   000005H   BYTE   UNIT     EDATA          ?ED?LCD_SHOWUINT8?SEEKFREE_18TFT
000AD5H   000AD9H   000005H   BYTE   UNIT     EDATA          ?ED?DL1A_TIMEOUT_MICROSECONDS_TO_MCLKS?SEEKFREE_DL1A
000ADAH   000ADEH   000005H   BYTE   UNIT     EDATA          ?ED?ICM20602_SIMSPI_R_REG_BYTE?SEEKFREE_ICM20602
000ADFH   000AE3H   000005H   BYTE   UNIT     EDATA          ?ED?IMU963RA_SIMSPI_R_REG_BYTE?SEEKFREE_IMU963RA
000AE4H   000AE8H   000005H   BYTE   UNIT     EDATA          ?ED?IPS114_SHOWINT8_SIMSPI?SEEKFREE_IPS114_SPI
000AE9H   000AEDH   000005H   BYTE   UNIT     EDATA          ?ED?IPS114_SHOWUINT8_SIMSPI?SEEKFREE_IPS114_SPI
000AEEH   000AF2H   000005H   BYTE   UNIT     EDATA          ?ED?IPS114_SHOWINT8?SEEKFREE_IPS114_SPI
000AF3H   000AF7H   000005H   BYTE   UNIT     EDATA          ?ED?IPS114_SHOWUINT8?SEEKFREE_IPS114_SPI
000AF8H   000AFCH   000005H   BYTE   UNIT     EDATA          ?ED?UART_SENDSTRING?UART
000AFDH   000B01H   000005H   BYTE   UNIT     EDATA          ?ED?KEY
000B02H   000B06H   000005H   BYTE   UNIT     EDATA          ?ED?LASER_RANGING?LASER_RANGING
000B07H   000B0AH   000004H   BYTE   UNIT     EDATA          ?ED?BOARD
000B0BH   000B0EH   000004H   BYTE   UNIT     EDATA          ?ED?ADC_INIT?ZF_ADC
000B0FH   000B12H   000004H   BYTE   UNIT     EDATA          ?ED?ZF_DELAY
000B13H   000B16H   000004H   BYTE   UNIT     EDATA          ?ED?DELAY_MS?ZF_DELAY
000B17H   000B1AH   000004H   BYTE   UNIT     EDATA          ?ED?IAP_ERASE_PAGE?ZF_EEPROM
000B1BH   000B1EH   000004H   BYTE   UNIT     EDATA          ?ED?EXIT_INIT?ZF_EXTI
000B1FH   000B22H   000004H   BYTE   UNIT     EDATA          ?ED?GPIO_PULL_SET?ZF_GPIO
000B23H   000B26H   000004H   BYTE   UNIT     EDATA          ?ED?GPIO_MODE?ZF_GPIO
000B27H   000B2AH   000004H   BYTE   UNIT     EDATA          ?ED?CTIMER_COUNT_READ?ZF_TIM
000B2BH   000B2EH   000004H   BYTE   UNIT     EDATA          ?ED?FIFO_USED?ZF_FIFO
000B2FH   000B32H   000004H   BYTE   UNIT     EDATA          ?ED?DL1A_GET_SEQUENCE_STEP_ENABLES?SEEKFREE_DL1A
000B33H   000B36H   000004H   BYTE   UNIT     EDATA          ?ED?DL1A_SET_SIGNAL_RATE_LIMIT?SEEKFREE_DL1A
000B37H   000B3AH   000004H   BYTE   UNIT     EDATA          ?ED?SEEKFREE_DL1B
000B3BH   000B3EH   000004H   BYTE   UNIT     EDATA          ?ED?IPS114_CLEAR_SIMSPI?SEEKFREE_IPS114_SPI
000B3FH   000B42H   000004H   BYTE   UNIT     EDATA          ?ED?IPS114_CLEAR?SEEKFREE_IPS114_SPI
000B43H   000B46H   000004H   BYTE   UNIT     EDATA          ?ED?SEEKFREE_ASSISTANT_INFACE
000B47H   000B4AH   000004H   BYTE   UNIT     EDATA          ?ED?WHEEL_DIRECTION?MOTOR_DRIVER_BOARDS
000B4BH   000B4EH   000004H   BYTE   UNIT     EDATA          ?ED?WT61_DATA_PARSE?WT61
000B4FH   000B51H   000003H   BYTE   UNIT     EDATA          ?ED?NVIC_SETPRIORITY?ZF_NVIC
000B52H   000B54H   000003H   BYTE   UNIT     EDATA          ?ED?UART_PUTCHAR?ZF_UART
000B55H   000B57H   000003H   BYTE   UNIT     EDATA          ?ED?IIC_DELAY_US?ZF_IIC
000B58H   000B5AH   000003H   BYTE   UNIT     EDATA          ?ED?WAIT?ZF_IIC
000B5BH   000B5DH   000003H   BYTE   UNIT     EDATA          ?ED?IIC_WRITE_REG?ZF_IIC
000B5EH   000B60H   000003H   BYTE   UNIT     EDATA          ?ED?LCD_CLEAR_SIMSPI?SEEKFREE_18TFT
000B61H   000B63H   000003H   BYTE   UNIT     EDATA          ?ED?LCD_CLEAR?SEEKFREE_18TFT
000B64H   000B66H   000003H   BYTE   UNIT     EDATA          ?ED?SEEKFREE_DL1A
000B67H   000B69H   000003H   BYTE   UNIT     EDATA          ?ED?DL1A_SIMIIC_WRITE_REG?SEEKFREE_DL1A
000B6AH   000B6CH   000003H   BYTE   UNIT     EDATA          ?ED?DL1A_TIMEOUT_MCLKS_TO_MICROSECONDS?SEEKFREE_DL1A
000B6DH   000B6FH   000003H   BYTE   UNIT     EDATA          ?ED?DL1A_PERFORM_SINGLE_REF_CALIBRATION?SEEKFREE_DL1A
000B70H   000B72H   000003H   BYTE   UNIT     EDATA          ?ED?IMU963RA_WRITE_MAG_REGISTER?SEEKFREE_IMU963RA
000B73H   000B75H   000003H   BYTE   UNIT     EDATA          ?ED?MPU6050_SIMIIC_WRITE_REG?SEEKFREE_MPU6050
000B76H   000B78H   000003H   BYTE   UNIT     EDATA          ?ED?OLED_PUTPIXEL?SEEKFREE_OLED
000B79H   000B7BH   000003H   BYTE   UNIT     EDATA          ?ED?OLED_PUTPIXEL_SPI?SEEKFREE_OLED
000B7CH   000B7EH   000003H   BYTE   UNIT     EDATA          ?ED?LASER_RANGING_IRQHANDLER?LASER_RANGING
000B7FH   000B80H   000002H   BYTE   UNIT     EDATA          ?ED?COMMON
000B81H   000B82H   000002H   BYTE   UNIT     EDATA          ?ED?PWM_SET_GPIO?ZF_PWM
000B83H   000B84H   000002H   BYTE   UNIT     EDATA          ?ED?SPI_CHANGE_PIN?ZF_SPI
L251 LINKER/LOCATER V4.66.93.0                                                        05/03/2024  16:07:18  PAGE 7


000B85H   000B86H   000002H   BYTE   UNIT     EDATA          ?ED?CTIMER_COUNT_INIT?ZF_TIM
000B87H   000B88H   000002H   BYTE   UNIT     EDATA          ?ED?CTIMER_COUNT_CLEAN?ZF_TIM
000B89H   000B8AH   000002H   BYTE   UNIT     EDATA          ?ED?SEND_DATA?ZF_IIC
000B8BH   000B8CH   000002H   BYTE   UNIT     EDATA          ?ED?IIC_CHANGE_PIN?ZF_IIC
000B8DH   000B8EH   000002H   BYTE   UNIT     EDATA          ?ED?LCD_WRITEDATA_16BIT_SIMSPI?SEEKFREE_18TFT
000B8FH   000B90H   000002H   BYTE   UNIT     EDATA          ?ED?LCD_WRITEDATA_16BIT?SEEKFREE_18TFT
000B91H   000B92H   000002H   BYTE   UNIT     EDATA          ?ED?DL1A_SIMIIC_READ_REG?SEEKFREE_DL1A
000B93H   000B94H   000002H   BYTE   UNIT     EDATA          ?ED?DL1A_DECODE_TIMEOUT?SEEKFREE_DL1A
000B95H   000B96H   000002H   BYTE   UNIT     EDATA          ?ED?DL1A_ENCODE_TIMEOUT?SEEKFREE_DL1A
000B97H   000B98H   000002H   BYTE   UNIT     EDATA          ?ED?DL1A_GET_VCSEL_PULSE_PERIOD?SEEKFREE_DL1A
000B99H   000B9AH   000002H   BYTE   UNIT     EDATA          ?ED?DL1B_GET_DISTANCE?SEEKFREE_DL1B
000B9BH   000B9CH   000002H   BYTE   UNIT     EDATA          ?ED?ICM20602_SIMSPI_W_REG_BYTE?SEEKFREE_ICM20602
000B9DH   000B9EH   000002H   BYTE   UNIT     EDATA          ?ED?ICM20602_WRITE_REGISTER?SEEKFREE_ICM20602
000B9FH   000BA0H   000002H   BYTE   UNIT     EDATA          ?ED?IMU660RA_SIMSPI_W_REG_BYTE?SEEKFREE_IMU660RA
000BA1H   000BA2H   000002H   BYTE   UNIT     EDATA          ?ED?IMU660RA_WRITE_REGISTER?SEEKFREE_IMU660RA
000BA3H   000BA4H   000002H   BYTE   UNIT     EDATA          ?ED?IMU963RA_SIMSPI_W_REG_BYTE?SEEKFREE_IMU963RA
000BA5H   000BA6H   000002H   BYTE   UNIT     EDATA          ?ED?IMU963RA_WRITE_ACC_GYRO_REGISTER?SEEKFREE_IMU963RA
000BA7H   000BA8H   000002H   BYTE   UNIT     EDATA          ?ED?IMU963RA_READ_MAG_REGISTER?SEEKFREE_IMU963RA
000BA9H   000BAAH   000002H   BYTE   UNIT     EDATA          ?ED?IMU963RA_CONNECT_MAG?SEEKFREE_IMU963RA
000BABH   000BACH   000002H   BYTE   UNIT     EDATA          ?ED?IPS114_WRITEDATAI_16BIT_SIMSPI?SEEKFREE_IPS114_SPI
000BADH   000BAEH   000002H   BYTE   UNIT     EDATA          ?ED?IPS114_WRITEDATA_16BIT?SEEKFREE_IPS114_SPI
000BAFH   000BB0H   000002H   BYTE   UNIT     EDATA          ?ED?MPU6050_SIMIIC_READ_REG?SEEKFREE_MPU6050
000BB1H   000BB2H   000002H   BYTE   UNIT     EDATA          ?ED?OLED_SET_POS?SEEKFREE_OLED
000BB3H   000BB4H   000002H   BYTE   UNIT     EDATA          ?ED?OLED_FILL?SEEKFREE_OLED
000BB5H   000BB6H   000002H   BYTE   UNIT     EDATA          ?ED?OLED_CLRPIXEL?SEEKFREE_OLED
000BB7H   000BB8H   000002H   BYTE   UNIT     EDATA          ?ED?OLED_SET_POS_SPI?SEEKFREE_OLED
000BB9H   000BBAH   000002H   BYTE   UNIT     EDATA          ?ED?OLED_FILL_SPI?SEEKFREE_OLED
000BBBH   000BBCH   000002H   BYTE   UNIT     EDATA          ?ED?OLED_CLRPIXEL_SPI?SEEKFREE_OLED
000BBDH   000BBEH   000002H   BYTE   UNIT     EDATA          ?ED?UART_SENDBYTE?UART
000BBFH   000BBFH   000001H   BYTE   UNIT     EDATA          ?ED?PUTCHAR?BOARD
000BC0H   000BC0H   000001H   BYTE   UNIT     EDATA          ?ED?IAP_SET_TPS?ZF_EEPROM
000BC1H   000BC1H   000001H   BYTE   UNIT     EDATA          ?ED?SPI_MOSI?ZF_SPI
000BC2H   000BC2H   000001H   BYTE   UNIT     EDATA          ?ED?SPI_CHANGE_MODE?ZF_SPI
000BC3H   000BC3H   000001H   BYTE   UNIT     EDATA          ?ED?START?ZF_IIC
000BC4H   000BC4H   000001H   BYTE   UNIT     EDATA          ?ED?RECV_ACK?ZF_IIC
000BC5H   000BC5H   000001H   BYTE   UNIT     EDATA          ?ED?SEND_ACK?ZF_IIC
000BC6H   000BC6H   000001H   BYTE   UNIT     EDATA          ?ED?STOP?ZF_IIC
000BC7H   000BC7H   000001H   BYTE   UNIT     EDATA          ?ED?LCD_WRITEINDEX_SIMSPI?SEEKFREE_18TFT
000BC8H   000BC8H   000001H   BYTE   UNIT     EDATA          ?ED?LCD_WRITEDATA_SIMSPI?SEEKFREE_18TFT
000BC9H   000BC9H   000001H   BYTE   UNIT     EDATA          ?ED?LCD_WRITEINDEX?SEEKFREE_18TFT
000BCAH   000BCAH   000001H   BYTE   UNIT     EDATA          ?ED?LCD_WRITEDATA?SEEKFREE_18TFT
000BCBH   000BCBH   000001H   BYTE   UNIT     EDATA          ?ED?DL1A_SIMIIC_SENDACK?SEEKFREE_DL1A
000BCCH   000BCCH   000001H   BYTE   UNIT     EDATA          ?ED?DL1A_SEND_CH?SEEKFREE_DL1A
000BCDH   000BCDH   000001H   BYTE   UNIT     EDATA          ?ED?DL1A_READ_CH?SEEKFREE_DL1A
000BCEH   000BCEH   000001H   BYTE   UNIT     EDATA          ?ED?DL1B_SIMIIC_SENDACK?SEEKFREE_DL1B
000BCFH   000BCFH   000001H   BYTE   UNIT     EDATA          ?ED?DL1B_SEND_CH?SEEKFREE_DL1B
000BD0H   000BD0H   000001H   BYTE   UNIT     EDATA          ?ED?DL1B_READ_CH?SEEKFREE_DL1B
000BD1H   000BD1H   000001H   BYTE   UNIT     EDATA          ?ED?ICM20602_SIMSPI_WR_BYTE?SEEKFREE_ICM20602
000BD2H   000BD2H   000001H   BYTE   UNIT     EDATA          ?ED?ICM20602_READ_REGISTER?SEEKFREE_ICM20602
000BD3H   000BD3H   000001H   BYTE   UNIT     EDATA          ?ED?ICM20602_SELF_CHECK?SEEKFREE_ICM20602
000BD4H   000BD4H   000001H   BYTE   UNIT     EDATA          ?ED?ICM20602_INIT?SEEKFREE_ICM20602
000BD5H   000BD5H   000001H   BYTE   UNIT     EDATA          ?ED?IMU660RA_SIMSPI_WR_BYTE?SEEKFREE_IMU660RA
000BD6H   000BD6H   000001H   BYTE   UNIT     EDATA          ?ED?IMU660RA_READ_REGISTER?SEEKFREE_IMU660RA
000BD7H   000BD7H   000001H   BYTE   UNIT     EDATA          ?ED?IMU660RA_SELF_CHECK?SEEKFREE_IMU660RA
000BD8H   000BD8H   000001H   BYTE   UNIT     EDATA          ?ED?IMU963RA_SIMSPI_WR_BYTE?SEEKFREE_IMU963RA
000BD9H   000BD9H   000001H   BYTE   UNIT     EDATA          ?ED?IMU963RA_READ_ACC_GYRO_REGISTER?SEEKFREE_IMU963RA
000BDAH   000BDAH   000001H   BYTE   UNIT     EDATA          ?ED?IPS114_WRITEINDEX_SIMSPI?SEEKFREE_IPS114_SPI
000BDBH   000BDBH   000001H   BYTE   UNIT     EDATA          ?ED?IPS114_WRITEDATA_SIMSPI?SEEKFREE_IPS114_SPI
000BDCH   000BDCH   000001H   BYTE   UNIT     EDATA          ?ED?IPS114_WRITEINDEX?SEEKFREE_IPS114_SPI
000BDDH   000BDDH   000001H   BYTE   UNIT     EDATA          ?ED?IPS114_WRITEDATA?SEEKFREE_IPS114_SPI
000BDEH   000BDEH   000001H   BYTE   UNIT     EDATA          ?ED?MPU6050_SIMIIC_SENDACK?SEEKFREE_MPU6050
000BDFH   000BDFH   000001H   BYTE   UNIT     EDATA          ?ED?MPU6050_SEND_CH?SEEKFREE_MPU6050
000BE0H   000BE0H   000001H   BYTE   UNIT     EDATA          ?ED?MPU6050_READ_CH?SEEKFREE_MPU6050
000BE1H   000BE1H   000001H   BYTE   UNIT     EDATA          ?ED?OLED_WRDAT?SEEKFREE_OLED
000BE2H   000BE2H   000001H   BYTE   UNIT     EDATA          ?ED?OLED_WRCMD?SEEKFREE_OLED
L251 LINKER/LOCATER V4.66.93.0                                                        05/03/2024  16:07:18  PAGE 8


000BE3H   000BE3H   000001H   BYTE   UNIT     EDATA          ?ED?OLED_WRDAT_SPI?SEEKFREE_OLED
000BE4H   000BE4H   000001H   BYTE   UNIT     EDATA          ?ED?OLED_WRCMD_SPI?SEEKFREE_OLED
000BE5H   000BE5H   000001H   BYTE   UNIT     EDATA          ?ED?CCD_COLLECT?SEEKFREE_TSL1401
000BE6H   000BE6H   000001H   BYTE   UNIT     EDATA          ?ED?UART_INITIALIZE?UART
000BE7H   000BE7H   000001H   BYTE   UNIT     EDATA          ?ED?UART_RUNNING?UART
000BE8H   000BE8H   000001H   BYTE   UNIT     EDATA          ?ED?UI
000BE9H   000BE9H   000001H   BYTE   UNIT     EDATA          ?ED?HOST_COMM_SENDER?HOST_COMM
000BEAH   000BEAH   000001H   BYTE   UNIT     EDATA          ?ED?LASER_RANGING_GET_UART_VALUE?LASER_RANGING
000BEBH   000CEAH   000100H   BYTE   UNIT     EDATA          ?STACK
000CEBH   00FFFFH   00F315H   ---    ---      **GAP**
010000H   010200H   000201H   BYTE   INSEG    XDATA          ?XD?SEEKFREE_TSL1401
010201H   0102E3H   0000E3H   BYTE   INSEG    XDATA          ?XD?SEEKFREE_ASSISTANT
0102E4H   01036FH   00008CH   BYTE   UNIT     XDATA          ?XD?DL1B_INIT?SEEKFREE_DL1B
010370H   0103C7H   000058H   BYTE   INSEG    XDATA          ?XD?SEEKFREE_BLUETOOTH_CH9141
0103C8H   01041FH   000058H   BYTE   INSEG    XDATA          ?XD?SEEKFREE_WIRELESS
010420H   010477H   000058H   BYTE   INSEG    XDATA          ?XD?SEEKFREE_WIRELESS_CH573
010478H   01049BH   000024H   BYTE   UNIT     XDATA          ?XD?LCD_SHOWFLOAT_SIMSPI?SEEKFREE_18TFT
01049CH   0104BFH   000024H   BYTE   UNIT     XDATA          ?XD?LCD_SHOWFLOAT?SEEKFREE_18TFT
0104C0H   0104E3H   000024H   BYTE   UNIT     XDATA          ?XD?IPS114_SHOWFLOAT_SIMSPI?SEEKFREE_IPS114_SPI
0104E4H   010507H   000024H   BYTE   UNIT     XDATA          ?XD?IPS114_SHOWFLOAT?SEEKFREE_IPS114_SPI
010508H   01052AH   000023H   BYTE   UNIT     XDATA          ?XD?LCD_SHOWINT32_SIMSPI?SEEKFREE_18TFT
01052BH   01054DH   000023H   BYTE   UNIT     XDATA          ?XD?LCD_SHOWINT32?SEEKFREE_18TFT
01054EH   010570H   000023H   BYTE   UNIT     XDATA          ?XD?IPS114_SHOWINT32_SIMSPI?SEEKFREE_IPS114_SPI
010571H   010593H   000023H   BYTE   UNIT     XDATA          ?XD?IPS114_SHOWINT32?SEEKFREE_IPS114_SPI
010594H   0105A8H   000015H   BYTE   UNIT     XDATA          ?XD?DL1A_INIT?SEEKFREE_DL1A
0105A9H   0105B8H   000010H   BYTE   UNIT     XDATA          ?XD?DL1A_SET_MEASUREMENT_TIMING_BUDGET?SEEKFREE_DL1A
0105B9H   0105C0H   000008H   BYTE   UNIT     XDATA          ?XD?DL1A_ENCODE_TIMEOUT?SEEKFREE_DL1A
0105C1H   0105C7H   000007H   BYTE   UNIT     XDATA          ?XD?IMU660RA_GET_ACC?SEEKFREE_IMU660RA
0105C8H   0105CEH   000007H   BYTE   UNIT     XDATA          ?XD?IMU660RA_GET_GYRO?SEEKFREE_IMU660RA
0105CFH   0105D5H   000007H   BYTE   UNIT     XDATA          ?XD?IMU963RA_GET_MAG?SEEKFREE_IMU963RA
0105D6H   0105DBH   000006H   BYTE   UNIT     XDATA          ?XD?LCD_SHOWINT16_SIMSPI?SEEKFREE_18TFT
0105DCH   0105E1H   000006H   BYTE   UNIT     XDATA          ?XD?LCD_SHOWUINT16_SIMSPI?SEEKFREE_18TFT
0105E2H   0105E7H   000006H   BYTE   UNIT     XDATA          ?XD?LCD_SHOWINT16?SEEKFREE_18TFT
0105E8H   0105EDH   000006H   BYTE   UNIT     XDATA          ?XD?LCD_SHOWUINT16?SEEKFREE_18TFT
0105EEH   0105F3H   000006H   BYTE   UNIT     XDATA          ?XD?ICM20602_GET_ACC?SEEKFREE_ICM20602
0105F4H   0105F9H   000006H   BYTE   UNIT     XDATA          ?XD?ICM20602_GET_GYRO?SEEKFREE_ICM20602
0105FAH   0105FFH   000006H   BYTE   UNIT     XDATA          ?XD?IMU963RA_GET_ACC?SEEKFREE_IMU963RA
010600H   010605H   000006H   BYTE   UNIT     XDATA          ?XD?IMU963RA_GET_GYRO?SEEKFREE_IMU963RA
010606H   01060BH   000006H   BYTE   UNIT     XDATA          ?XD?IPS114_SHOWINT16_SIMSPI?SEEKFREE_IPS114_SPI
01060CH   010611H   000006H   BYTE   UNIT     XDATA          ?XD?IPS114_SHOWUINT16_SIMSPI?SEEKFREE_IPS114_SPI
010612H   010617H   000006H   BYTE   UNIT     XDATA          ?XD?IPS114_SHOWINT16?SEEKFREE_IPS114_SPI
010618H   01061DH   000006H   BYTE   UNIT     XDATA          ?XD?IPS114_SHOWUINT16?SEEKFREE_IPS114_SPI
01061EH   010623H   000006H   BYTE   UNIT     XDATA          ?XD?MPU6050_GET_ACCDATA?SEEKFREE_MPU6050
010624H   010629H   000006H   BYTE   UNIT     XDATA          ?XD?MPU6050_GET_GYRO?SEEKFREE_MPU6050
01062AH   01062EH   000005H   BYTE   UNIT     XDATA          ?XD?DL1A_SET_SIGNAL_RATE_LIMIT?SEEKFREE_DL1A
01062FH   010632H   000004H   BYTE   UNIT     XDATA          ?XD?LCD_SHOWINT8_SIMSPI?SEEKFREE_18TFT
010633H   010636H   000004H   BYTE   UNIT     XDATA          ?XD?LCD_SHOWUINT8_SIMSPI?SEEKFREE_18TFT
010637H   01063AH   000004H   BYTE   UNIT     XDATA          ?XD?LCD_SHOWINT8?SEEKFREE_18TFT
01063BH   01063EH   000004H   BYTE   UNIT     XDATA          ?XD?LCD_SHOWUINT8?SEEKFREE_18TFT
01063FH   010642H   000004H   BYTE   UNIT     XDATA          ?XD?BLUETOOTH_CH9141_READ_BUFF?SEEKFREE_BLUETOOTH_CH9141
010643H   010646H   000004H   BYTE   UNIT     XDATA          ?XD?DL1A_TIMEOUT_MCLKS_TO_MICROSECONDS?SEEKFREE_DL1A
010647H   01064AH   000004H   BYTE   UNIT     XDATA          ?XD?DL1A_TIMEOUT_MICROSECONDS_TO_MCLKS?SEEKFREE_DL1A
01064BH   01064EH   000004H   BYTE   UNIT     XDATA          ?XD?DL1A_GET_SEQUENCE_STEP_TIMEOUTS?SEEKFREE_DL1A
01064FH   010652H   000004H   BYTE   UNIT     XDATA          ?XD?DL1A_GET_MEASUREMENT_TIMING_BUDGET?SEEKFREE_DL1A
010653H   010656H   000004H   BYTE   UNIT     XDATA          ?XD?ICM20602_SIMSPI_R_REG_BYTES?SEEKFREE_ICM20602
010657H   01065AH   000004H   BYTE   UNIT     XDATA          ?XD?IMU963RA_ACC_GYRO_SELF_CHECK?SEEKFREE_IMU963RA
01065BH   01065EH   000004H   BYTE   UNIT     XDATA          ?XD?IMU963RA_MAG_SELF_CHECK?SEEKFREE_IMU963RA
01065FH   010662H   000004H   BYTE   UNIT     XDATA          ?XD?IPS114_SHOWINT8_SIMSPI?SEEKFREE_IPS114_SPI
010663H   010666H   000004H   BYTE   UNIT     XDATA          ?XD?IPS114_SHOWUINT8_SIMSPI?SEEKFREE_IPS114_SPI
010667H   01066AH   000004H   BYTE   UNIT     XDATA          ?XD?IPS114_SHOWINT8?SEEKFREE_IPS114_SPI
01066BH   01066EH   000004H   BYTE   UNIT     XDATA          ?XD?IPS114_SHOWUINT8?SEEKFREE_IPS114_SPI
01066FH   010672H   000004H   BYTE   UNIT     XDATA          ?XD?WIRELESS_UART_READ_BUFF?SEEKFREE_WIRELESS
010673H   010676H   000004H   BYTE   UNIT     XDATA          ?XD?WIRELESS_CH573_READ_BUFF?SEEKFREE_WIRELESS_CH573
010677H   010679H   000003H   BYTE   UNIT     XDATA          ?XD?DL1A_GET_DISTANCE?SEEKFREE_DL1A
01067AH   01067CH   000003H   BYTE   UNIT     XDATA          ?XD?DL1B_GET_DISTANCE?SEEKFREE_DL1B
L251 LINKER/LOCATER V4.66.93.0                                                        05/03/2024  16:07:18  PAGE 9


01067DH   01067FH   000003H   BYTE   UNIT     XDATA          ?XD?ICM20602_SELF_CHECK?SEEKFREE_ICM20602
010680H   010682H   000003H   BYTE   UNIT     XDATA          ?XD?ICM20602_INIT?SEEKFREE_ICM20602
010683H   010685H   000003H   BYTE   UNIT     XDATA          ?XD?IMU660RA_SELF_CHECK?SEEKFREE_IMU660RA
010686H   010688H   000003H   BYTE   UNIT     XDATA          ?XD?IMU963RA_WRITE_MAG_REGISTER?SEEKFREE_IMU963RA
010689H   01068AH   000002H   BYTE   UNIT     XDATA          ?XD?LCD_SHOWCHAR_SIMSPI?SEEKFREE_18TFT
01068BH   01068CH   000002H   BYTE   UNIT     XDATA          ?XD?LCD_SHOWSTR_SIMSPI?SEEKFREE_18TFT
01068DH   01068EH   000002H   BYTE   UNIT     XDATA          ?XD?LCD_WRITEDATA_16BIT?SEEKFREE_18TFT
01068FH   010690H   000002H   BYTE   UNIT     XDATA          ?XD?LCD_SHOWCHAR?SEEKFREE_18TFT
010691H   010692H   000002H   BYTE   UNIT     XDATA          ?XD?LCD_SHOWSTR?SEEKFREE_18TFT
010693H   010694H   000002H   BYTE   UNIT     XDATA          ?XD?BLUETOOTH_CH9141_SEND_BUFF?SEEKFREE_BLUETOOTH_CH9141
010695H   010696H   000002H   BYTE   UNIT     XDATA          ?XD?DL1A_SIMIIC_DELAY?SEEKFREE_DL1A
010697H   010698H   000002H   BYTE   UNIT     XDATA          ?XD?DL1A_READ_CH?SEEKFREE_DL1A
010699H   01069AH   000002H   BYTE   UNIT     XDATA          ?XD?DL1A_GET_SPAD_INFO?SEEKFREE_DL1A
01069BH   01069CH   000002H   BYTE   UNIT     XDATA          ?XD?DL1A_PERFORM_SINGLE_REF_CALIBRATION?SEEKFREE_DL1A
01069DH   01069EH   000002H   BYTE   UNIT     XDATA          ?XD?DL1B_SIMIIC_DELAY?SEEKFREE_DL1B
01069FH   0106A0H   000002H   BYTE   UNIT     XDATA          ?XD?DL1B_READ_CH?SEEKFREE_DL1B
0106A1H   0106A2H   000002H   BYTE   UNIT     XDATA          ?XD?IMU660RA_READ_REGISTER?SEEKFREE_IMU660RA
0106A3H   0106A4H   000002H   BYTE   UNIT     XDATA          ?XD?IMU963RA_READ_MAG_REGISTER?SEEKFREE_IMU963RA
0106A5H   0106A6H   000002H   BYTE   UNIT     XDATA          ?XD?IPS114_CLEAR_SIMSPI?SEEKFREE_IPS114_SPI
0106A7H   0106A8H   000002H   BYTE   UNIT     XDATA          ?XD?IPS114_SHOWCHAR_SIMSPI?SEEKFREE_IPS114_SPI
0106A9H   0106AAH   000002H   BYTE   UNIT     XDATA          ?XD?IPS114_SHOWSTR_SIMSPI?SEEKFREE_IPS114_SPI
0106ABH   0106ACH   000002H   BYTE   UNIT     XDATA          ?XD?IPS114_WRITEDATA_16BIT?SEEKFREE_IPS114_SPI
0106ADH   0106AEH   000002H   BYTE   UNIT     XDATA          ?XD?IPS114_CLEAR?SEEKFREE_IPS114_SPI
0106AFH   0106B0H   000002H   BYTE   UNIT     XDATA          ?XD?IPS114_SHOWCHAR?SEEKFREE_IPS114_SPI
0106B1H   0106B2H   000002H   BYTE   UNIT     XDATA          ?XD?IPS114_SHOWSTR?SEEKFREE_IPS114_SPI
0106B3H   0106B4H   000002H   BYTE   UNIT     XDATA          ?XD?MPU6050_SIMIIC_DELAY?SEEKFREE_MPU6050
0106B5H   0106B6H   000002H   BYTE   UNIT     XDATA          ?XD?MPU6050_READ_CH?SEEKFREE_MPU6050
0106B7H   0106B8H   000002H   BYTE   UNIT     XDATA          ?XD?OLED_HEXASCII?SEEKFREE_OLED
0106B9H   0106BAH   000002H   BYTE   UNIT     XDATA          ?XD?OLED_DIS_BMP?SEEKFREE_OLED
0106BBH   0106BCH   000002H   BYTE   UNIT     XDATA          ?XD?OLED_HEXASCII_SPI?SEEKFREE_OLED
0106BDH   0106BEH   000002H   BYTE   UNIT     XDATA          ?XD?OLED_DIS_BMP_SPI?SEEKFREE_OLED
0106BFH   0106BFH   000001H   BYTE   UNIT     XDATA          ?XD?LCD_WRITEINDEX_SIMSPI?SEEKFREE_18TFT
0106C0H   0106C0H   000001H   BYTE   UNIT     XDATA          ?XD?LCD_WRITEDATA_SIMSPI?SEEKFREE_18TFT
0106C1H   0106C1H   000001H   BYTE   UNIT     XDATA          ?XD?LCD_WRITEDATA_16BIT_SIMSPI?SEEKFREE_18TFT
0106C2H   0106C2H   000001H   BYTE   UNIT     XDATA          ?XD?LCD_CLEAR_SIMSPI?SEEKFREE_18TFT
0106C3H   0106C3H   000001H   BYTE   UNIT     XDATA          ?XD?LCD_CLEAR?SEEKFREE_18TFT
0106C4H   0106C4H   000001H   BYTE   UNIT     XDATA          ?XD?DL1A_SEND_CH?SEEKFREE_DL1A
0106C5H   0106C5H   000001H   BYTE   UNIT     XDATA          ?XD?DL1A_SIMIIC_READ_REG?SEEKFREE_DL1A
0106C6H   0106C6H   000001H   BYTE   UNIT     XDATA          ?XD?DL1A_GET_SEQUENCE_STEP_ENABLES?SEEKFREE_DL1A
0106C7H   0106C7H   000001H   BYTE   UNIT     XDATA          ?XD?DL1A_GET_VCSEL_PULSE_PERIOD?SEEKFREE_DL1A
0106C8H   0106C8H   000001H   BYTE   UNIT     XDATA          ?XD?DL1B_SEND_CH?SEEKFREE_DL1B
0106C9H   0106C9H   000001H   BYTE   UNIT     XDATA          ?XD?ICM20602_SIMSPI_WR_BYTE?SEEKFREE_ICM20602
0106CAH   0106CAH   000001H   BYTE   UNIT     XDATA          ?XD?ICM20602_READ_REGISTER?SEEKFREE_ICM20602
0106CBH   0106CBH   000001H   BYTE   UNIT     XDATA          ?XD?IMU660RA_SIMSPI_WR_BYTE?SEEKFREE_IMU660RA
0106CCH   0106CCH   000001H   BYTE   UNIT     XDATA          ?XD?IMU660RA_INIT?SEEKFREE_IMU660RA
0106CDH   0106CDH   000001H   BYTE   UNIT     XDATA          ?XD?IMU963RA_SIMSPI_WR_BYTE?SEEKFREE_IMU963RA
0106CEH   0106CEH   000001H   BYTE   UNIT     XDATA          ?XD?IMU963RA_READ_ACC_GYRO_REGISTER?SEEKFREE_IMU963RA
0106CFH   0106CFH   000001H   BYTE   UNIT     XDATA          ?XD?IMU963RA_INIT?SEEKFREE_IMU963RA
0106D0H   0106D0H   000001H   BYTE   UNIT     XDATA          ?XD?IPS114_WRITEINDEX_SIMSPI?SEEKFREE_IPS114_SPI
0106D1H   0106D1H   000001H   BYTE   UNIT     XDATA          ?XD?IPS114_WRITEDATA_SIMSPI?SEEKFREE_IPS114_SPI
0106D2H   0106D2H   000001H   BYTE   UNIT     XDATA          ?XD?IPS114_WRITEDATAI_16BIT_SIMSPI?SEEKFREE_IPS114_SPI
0106D3H   0106D3H   000001H   BYTE   UNIT     XDATA          ?XD?MPU6050_SEND_CH?SEEKFREE_MPU6050
0106D4H   0106D4H   000001H   BYTE   UNIT     XDATA          ?XD?MPU6050_SIMIIC_READ_REG?SEEKFREE_MPU6050
0106D5H   0106D5H   000001H   BYTE   UNIT     XDATA          ?XD?OLED_WRDAT?SEEKFREE_OLED
0106D6H   0106D6H   000001H   BYTE   UNIT     XDATA          ?XD?OLED_WRCMD?SEEKFREE_OLED
0106D7H   0106D7H   000001H   BYTE   UNIT     XDATA          ?XD?OLED_FILL?SEEKFREE_OLED
0106D8H   0106D8H   000001H   BYTE   UNIT     XDATA          ?XD?OLED_P6X8STR?SEEKFREE_OLED
0106D9H   0106D9H   000001H   BYTE   UNIT     XDATA          ?XD?OLED_P8X16STR?SEEKFREE_OLED
0106DAH   0106DAH   000001H   BYTE   UNIT     XDATA          ?XD?OLED_FILL_SPI?SEEKFREE_OLED
0106DBH   0106DBH   000001H   BYTE   UNIT     XDATA          ?XD?OLED_P6X8STR_SPI?SEEKFREE_OLED
0106DCH   0106DCH   000001H   BYTE   UNIT     XDATA          ?XD?OLED_P8X16STR_SPI?SEEKFREE_OLED
0106DDH   FEFFFFH   FDF923H   ---    ---      **GAP**
FF0000H   FF0002H   000003H   ---    OFFS..   CODE           ?CO?start251?4
FF0003H   FF0022H   000020H   BYTE   INSEG    CODE           ?PR?DL1A_SIMIIC_DELAY?SEEKFREE_DL1A
FF0023H   FF0025H   000003H   ---    OFFS..   CODE           ?PR?IV?4
L251 LINKER/LOCATER V4.66.93.0                                                        05/03/2024  16:07:18  PAGE 10


FF0026H   FF0042H   00001DH   BYTE   INSEG    CODE           ?PR?GPIO_INIT?MAIN
FF0043H   FF0045H   000003H   ---    OFFS..   CODE           ?PR?IV?8
FF0046H   FF0087H   000042H   BYTE   INSEG    CODE           ?PR?DL1A_SIMIIC_WRITE_DATS?SEEKFREE_DL1A
FF0088H   FF008AH   000003H   ---    ---      **GAP**
FF008BH   FF008DH   000003H   ---    OFFS..   CODE           ?PR?IV?17
FF008EH   FF0091H   000004H   BYTE   INSEG    CODE           ?PR?ENABLEGLOBALIRQ?BOARD
FF0092H   FF0092H   000001H   ---    ---      **GAP**
FF0093H   FF0095H   000003H   ---    OFFS..   CODE           ?PR?IV?18
FF0096H   FF211CH   002087H   BYTE   UNIT     CODE           ?CO?SEEKFREE_CONFIG
FF211DH   FF2F24H   000E08H   BYTE   UNIT     CODE           ?CO?SEEKFREE_FONT
FF2F25H   FF39A8H   000A84H   BYTE   UNIT     CODE           ?C?LIB_CODE
FF39A9H   FF42B5H   00090DH   BYTE   INSEG    CODE           ?PR?GPIO_MODE?ZF_GPIO
FF42B6H   FF4916H   000661H   BYTE   INSEG    CODE           ?PR?ZF_SPRINTF?SEEKFREE_PRINTF
FF4917H   FF4CF0H   0003DAH   BYTE   INSEG    CODE           ?PR?PWM_INIT?ZF_PWM
FF4CF1H   FF50A8H   0003B8H   BYTE   INSEG    CODE           ?PR?PWM_SET_GPIO?ZF_PWM
FF50A9H   FF53A2H   0002FAH   BYTE   INSEG    CODE           ?PR?WT61_DATA_PARSE?WT61
FF53A3H   FF5696H   0002F4H   BYTE   INSEG    CODE           ?PR?HOST_COMM_IRQHANDLER?HOST_COMM
FF5697H   FF5948H   0002B2H   BYTE   INSEG    CODE           ?PR?UART_INIT?ZF_UART
FF5949H   FF5B8FH   000247H   BYTE   INSEG    CODE           ?PR?WHEEL_DIRECTION?MOTOR_DRIVER_BOARDS
FF5B90H   FF5D95H   000206H   BYTE   INSEG    CODE           ?PR?SET_CLK?BOARD
FF5D96H   FF5F1CH   000187H   BYTE   INSEG    CODE           ?PR?DL1A_GET_SEQUENCE_STEP_TIMEOUTS?SEEKFREE_DL1A
FF5F1DH   FF607AH   00015EH   BYTE   INSEG    CODE           ?PR?WHEEL_ADJUST?MOTOR_DRIVER_BOARDS
FF607BH   FF61BFH   000145H   BYTE   INSEG    CODE           ?PR?OLED_PRINTF_FLOAT_SPI?SEEKFREE_OLED
FF61C0H   FF62D7H   000118H   BYTE   INSEG    CODE           ?PR?PWM_DUTY?ZF_PWM
FF62D8H   FF63EEH   000117H   BYTE   INSEG    CODE           ?PR?NUMBER_CONVERSION_ASCII?SEEKFREE_PRINTF
FF63EFH   FF6504H   000116H   BYTE   INSEG    CODE           ?PR?WHEEL_SPEED_PARSER?HOST_COMM
FF6505H   FF660BH   000107H   BYTE   INSEG    CODE           ?PR?UART_SENDCMD?UART
FF660CH   FF6707H   0000FCH   BYTE   INSEG    CODE           ?PR?KEY3_SHORT_PRESS?KEY
FF6708H   FF67EFH   0000E8H   BYTE   INSEG    CODE           ?PR?KEY2_SHORT_PRESS?KEY
FF67F0H   FF68C8H   0000D9H   BYTE   INSEG    CODE           ?PR?UART1_ISR?UART
FF68C9H   FF699AH   0000D2H   BYTE   INSEG    CODE           ?PR?OLED_P6X8STR_SPI?SEEKFREE_OLED
FF699BH   FF6A68H   0000CEH   BYTE   INSEG    CODE           ?PR?SPI_INIT?ZF_SPI
FF6A69H   FF6B36H   0000CEH   BYTE   INSEG    CODE           ?PR?OLED_PRINTF_INT32_SPI?SEEKFREE_OLED
FF6B37H   FF6BFBH   0000C5H   BYTE   INSEG    CODE           ?PR?OLED_INIT_SPI?SEEKFREE_OLED
FF6BFCH   FF6CBAH   0000BFH   BYTE   INSEG    CODE           ?PR?UART_SENDSTRING?UART
FF6CBBH   FF6D6AH   0000B0H   BYTE   INSEG    CODE           ?PR?LASER_RANGING_INIT?LASER_RANGING
FF6D6BH   FF6E16H   0000ACH   BYTE   INSEG    CODE           ?PR?HOST_COMM_SENDER?HOST_COMM
FF6E17H   FF6EC1H   0000ABH   BYTE   INSEG    CODE           ?PR?DL1A_ENCODE_TIMEOUT?SEEKFREE_DL1A
FF6EC2H   FF6F68H   0000A7H   BYTE   INSEG    CODE           ?PR?UART4_ISR?UART
FF6F69H   FF7004H   00009CH   BYTE   INSEG    CODE           ?PR?DL1A_GET_SEQUENCE_STEP_ENABLES?SEEKFREE_DL1A
FF7005H   FF709BH   000097H   BYTE   INSEG    CODE           ?PR?BOARD_INIT?BOARD
FF709CH   FF7132H   000097H   BYTE   INSEG    CODE           ?PR?UART2_ISR?UART
FF7133H   FF71C9H   000097H   BYTE   INSEG    CODE           ?PR?UART3_ISR?UART
FF71CAH   FF725EH   000095H   BYTE   INSEG    CODE           ?PR?PRINTF_REVERSE_ORDER?SEEKFREE_PRINTF
FF725FH   FF72E0H   000082H   BYTE   INSEG    CODE           ?PR?DL1A_GET_VCSEL_PULSE_PERIOD?SEEKFREE_DL1A
FF72E1H   FF72F3H   000013H   BYTE   UNIT     CODE           ?C_C51STARTUP
FF72F4H   FF7301H   00000EH   BYTE   UNIT     CODE           ?C_C51STARTUP?1
FF7302H   FF735BH   00005AH   BYTE   UNIT     CODE           ?C_C51STARTUP?2
FF735CH   FF735EH   000003H   BYTE   UNIT     CODE           ?C_C51STARTUP?3
FF735FH   FF73D3H   000075H   BYTE   INSEG    CODE           ?PR?UART_PUTCHAR?ZF_UART
FF73D4H   FF7443H   000070H   BYTE   INSEG    CODE           ?PR?FIFO_HEAD_OFFSET?ZF_FIFO
FF7444H   FF74B2H   00006FH   BYTE   INSEG    CODE           ?PR?IMU963RA_READ_MAG_REGISTER?SEEKFREE_IMU963RA
FF74B3H   FF751AH   000068H   BYTE   INSEG    CODE           ?PR?DL1A_SIMIIC_READ_REGS?SEEKFREE_DL1A
FF751BH   FF757FH   000065H   BYTE   INSEG    CODE           ?PR?DL1A_TIMEOUT_MCLKS_TO_MICROSECONDS?SEEKFREE_DL1A
FF7580H   FF75E4H   000065H   BYTE   INSEG    CODE           ?PR?DL1A_READ_CH?SEEKFREE_DL1A
FF75E5H   FF7649H   000065H   BYTE   INSEG    CODE           ?PR?DL1B_READ_CH?SEEKFREE_DL1B
FF764AH   FF76ADH   000064H   BYTE   INSEG    CODE           ?PR?LCD_SET_REGION_SIMSPI?SEEKFREE_18TFT
FF76AEH   FF7711H   000064H   BYTE   INSEG    CODE           ?PR?LCD_SET_REGION?SEEKFREE_18TFT
FF7712H   FF7774H   000063H   BYTE   INSEG    CODE           ?PR?DL1A_TIMEOUT_MICROSECONDS_TO_MCLKS?SEEKFREE_DL1A
FF7775H   FF77D3H   00005FH   BYTE   INSEG    CODE           ?PR?OLED_FILL_SPI?SEEKFREE_OLED
FF77D4H   FF782CH   000059H   BYTE   INSEG    CODE           ?PR?ICM20602_SIMSPI_WR_BYTE?SEEKFREE_ICM20602
FF782DH   FF7885H   000059H   BYTE   INSEG    CODE           ?PR?IMU660RA_SIMSPI_WR_BYTE?SEEKFREE_IMU660RA
FF7886H   FF78DEH   000059H   BYTE   INSEG    CODE           ?PR?IMU963RA_SIMSPI_WR_BYTE?SEEKFREE_IMU963RA
FF78DFH   FF7935H   000057H   BYTE   INSEG    CODE           ?PR?WAIT?ZF_IIC
FF7936H   FF798CH   000057H   BYTE   INSEG    CODE           ?PR?ICM20602_SIMSPI_R_REG_BYTES?SEEKFREE_ICM20602
L251 LINKER/LOCATER V4.66.93.0                                                        05/03/2024  16:07:18  PAGE 11


FF798DH   FF79E3H   000057H   BYTE   INSEG    CODE           ?PR?MOTOR_DRIVERS_PWM_INIT?MAIN
FF79E4H   FF7A3AH   000057H   BYTE   INSEG    CODE           ?PR?SERVO_CLAW_GET_DUTY?SERVO
FF7A3BH   FF7A91H   000057H   BYTE   INSEG    CODE           ?PR?SERVO_PITCH_GET_DUTY?SERVO
FF7A92H   FF7AE6H   000055H   BYTE   INSEG    CODE           ?PR?WHEEL_OLED_UPDATE?MOTOR_DRIVER_BOARDS
FF7AE7H   FF7B3AH   000054H   BYTE   INSEG    CODE           ?PR?LCD_WRITEDATA_16BIT_SIMSPI?SEEKFREE_18TFT
FF7B3BH   FF7B8EH   000054H   BYTE   INSEG    CODE           ?PR?IPS114_WRITEDATAI_16BIT_SIMSPI?SEEKFREE_IPS114_SPI
FF7B8FH   FF7BE1H   000053H   BYTE   INSEG    CODE           ?PR?KEY2_CHECK?KEY
FF7BE2H   FF7C34H   000053H   BYTE   INSEG    CODE           ?PR?KEY3_CHECK?KEY
FF7C35H   FF7C87H   000053H   BYTE   INSEG    CODE           ?PR?KEY4_CHECK?KEY
FF7C88H   FF7CD8H   000051H   BYTE   INSEG    CODE           ?PR?KEY1_CHECK?KEY
FF7CD9H   FF7D28H   000050H   BYTE   INSEG    CODE           ?PR?KEY5_CHECK?KEY
FF7D29H   FF7D75H   00004DH   BYTE   INSEG    CODE           ?PR?UART_SENDBYTE?UART
FF7D76H   FF7DC1H   00004CH   BYTE   INSEG    CODE           ?PR?MAIN?MAIN
FF7DC2H   FF7E0CH   00004BH   BYTE   INSEG    CODE           ?PR?LCD_WRITEINDEX_SIMSPI?SEEKFREE_18TFT
FF7E0DH   FF7E57H   00004BH   BYTE   INSEG    CODE           ?PR?LCD_WRITEDATA_SIMSPI?SEEKFREE_18TFT
FF7E58H   FF7EA2H   00004BH   BYTE   INSEG    CODE           ?PR?IMU660RA_SIMSPI_R_REG_BYTES?SEEKFREE_IMU660RA
FF7EA3H   FF7EEDH   00004BH   BYTE   INSEG    CODE           ?PR?IPS114_WRITEINDEX_SIMSPI?SEEKFREE_IPS114_SPI
FF7EEEH   FF7F38H   00004BH   BYTE   INSEG    CODE           ?PR?OLED_WRCMD?SEEKFREE_OLED
FF7F39H   FF7F83H   00004BH   BYTE   INSEG    CODE           ?PR?OLED_WRDAT?SEEKFREE_OLED
FF7F84H   FF7FCBH   000048H   BYTE   INSEG    CODE           ?PR?DL1A_SEND_CH?SEEKFREE_DL1A
FF7FCCH   FF8013H   000048H   BYTE   INSEG    CODE           ?PR?DL1B_SEND_CH?SEEKFREE_DL1B
FF8014H   FF8054H   000041H   BYTE   INSEG    CODE           ?PR?DELAY_INIT?ZF_DELAY
FF8055H   FF8094H   000040H   BYTE   INSEG    CODE           ?PR?UI_INIT?UI
FF8095H   FF80D3H   00003FH   BYTE   INSEG    CODE           ?PR?WHEEL_OLED_INIT?MOTOR_DRIVER_BOARDS
FF80D4H   FF810DH   00003AH   BYTE   INSEG    CODE           ?PR?SERVO_INIT?SERVO
FF810EH   FF8143H   000036H   BYTE   INSEG    CODE           ?PR?OLED_SET_POS_SPI?SEEKFREE_OLED
FF8144H   FF8178H   000035H   BYTE   INSEG    CODE           ?PR?DELAY_MS?ZF_DELAY
FF8179H   FF81ADH   000035H   BYTE   INSEG    CODE           ?PR?IIC_DELAY_US?ZF_IIC
FF81AEH   FF81E2H   000035H   BYTE   INSEG    CODE           ?PR?OLED_SET_POS?SEEKFREE_OLED
FF81E3H   FF820FH   00002DH   BYTE   INSEG    CODE           ?PR?IMU963RA_SIMSPI_R_REG_BYTE?SEEKFREE_IMU963RA
FF8210H   FF823BH   00002CH   BYTE   INSEG    CODE           ?PR?LCD_WRITEDATA_16BIT?SEEKFREE_18TFT
FF823CH   FF8267H   00002CH   BYTE   INSEG    CODE           ?PR?IPS114_WRITEDATA_16BIT?SEEKFREE_IPS114_SPI
FF8268H   FF8293H   00002CH   BYTE   INSEG    CODE           ?PR?HOST_COMM_UART_INIT?HOST_COMM
FF8294H   FF82BEH   00002BH   BYTE   INSEG    CODE           ?PR?WHEEL_DYNAMIC_ADJUSTING?MOTOR_DRIVER_BOARDS
FF82BFH   FF82E8H   00002AH   BYTE   INSEG    CODE           ?PR?DL1A_DECODE_TIMEOUT?SEEKFREE_DL1A
FF82E9H   FF8310H   000028H   BYTE   INSEG    CODE           ?PR?DL1A_SIMIIC_SENDACK?SEEKFREE_DL1A
FF8311H   FF8338H   000028H   BYTE   INSEG    CODE           ?PR?DL1B_SIMIIC_SENDACK?SEEKFREE_DL1B
FF8339H   FF8360H   000028H   BYTE   INSEG    CODE           ?PR?MPU6050_SIMIIC_SENDACK?SEEKFREE_MPU6050
FF8361H   FF8387H   000027H   BYTE   INSEG    CODE           ?PR?ICM20602_SIMSPI_R_REG_BYTE?SEEKFREE_ICM20602
FF8388H   FF83AEH   000027H   BYTE   INSEG    CODE           ?PR?IMU963RA_READ_ACC_GYRO_REGISTER?SEEKFREE_IMU963RA
FF83AFH   FF83D5H   000027H   BYTE   INSEG    CODE           ?PR?UART_TX_SEND_BUFFER?UART
FF83D6H   FF83FBH   000026H   BYTE   INSEG    CODE           ?PR?IMU660RA_READ_REGISTER?SEEKFREE_IMU660RA
FF83FCH   FF8420H   000025H   BYTE   INSEG    CODE           ?PR?MEMCPY?_?MEMCPY
FF8421H   FF8443H   000023H   BYTE   INSEG    CODE           ?PR?LASER_RANGING?LASER_RANGING
FF8444H   FF8465H   000022H   BYTE   INSEG    CODE           ?PR?ICM20602_READ_REGISTER?SEEKFREE_ICM20602
FF8466H   FF8486H   000021H   BYTE   INSEG    CODE           ?PR?DL1A_SCCB_WAITACK?SEEKFREE_DL1A
FF8487H   FF84A7H   000021H   BYTE   INSEG    CODE           ?PR?DL1B_SCCB_WAITACK?SEEKFREE_DL1B
FF84A8H   FF84C8H   000021H   BYTE   INSEG    CODE           ?PR?IMU963RA_SIMSPI_W_REG_BYTE?SEEKFREE_IMU963RA
FF84C9H   FF84E8H   000020H   BYTE   INSEG    CODE           ?PR?DL1B_SIMIIC_DELAY?SEEKFREE_DL1B
FF84E9H   FF8508H   000020H   BYTE   INSEG    CODE           ?PR?MPU6050_SIMIIC_DELAY?SEEKFREE_MPU6050
FF8509H   FF8522H   00001AH   BYTE   INSEG    CODE           ?PR?IMU963RA_WRITE_ACC_GYRO_REGISTER?SEEKFREE_IMU963RA
FF8523H   FF853CH   00001AH   BYTE   INSEG    CODE           ?PR?MEMSET?_?MEMSET
FF853DH   FF8555H   000019H   BYTE   INSEG    CODE           ?PR?SERVO_PITCH_SET_ANGLE?SERVO
FF8556H   FF856EH   000019H   BYTE   INSEG    CODE           ?PR?SERVO_CLAW_SET_ANGLE?SERVO
FF856FH   FF8587H   000019H   BYTE   INSEG    CODE           ?PR?SERVO_PAN_SET_ANGLE?SERVO
FF8588H   FF859DH   000016H   BYTE   INSEG    CODE           ?PR?DL1A_SIMIIC_STOP?SEEKFREE_DL1A
FF859EH   FF85B3H   000016H   BYTE   INSEG    CODE           ?PR?MPU6050_SIMIIC_STOP?SEEKFREE_MPU6050
FF85B4H   FF85C9H   000016H   BYTE   INSEG    CODE           ?PR?LASER_RANGING_GET_UART_VALUE?LASER_RANGING
FF85CAH   FF85DEH   000015H   BYTE   INSEG    CODE           ?PR?LCD_WRITEINDEX?SEEKFREE_18TFT
FF85DFH   FF85F3H   000015H   BYTE   INSEG    CODE           ?PR?LCD_WRITEDATA?SEEKFREE_18TFT
FF85F4H   FF8608H   000015H   BYTE   INSEG    CODE           ?PR?IPS114_WRITEINDEX?SEEKFREE_IPS114_SPI
FF8609H   FF861DH   000015H   BYTE   INSEG    CODE           ?PR?OLED_WRCMD_SPI?SEEKFREE_OLED
FF861EH   FF8632H   000015H   BYTE   INSEG    CODE           ?PR?OLED_WRDAT_SPI?SEEKFREE_OLED
FF8633H   FF8645H   000013H   BYTE   INSEG    CODE           ?PR?DL1A_SIMIIC_START?SEEKFREE_DL1A
FF8646H   FF8658H   000013H   BYTE   INSEG    CODE           ?PR?MPU6050_SIMIIC_START?SEEKFREE_MPU6050
L251 LINKER/LOCATER V4.66.93.0                                                        05/03/2024  16:07:18  PAGE 12


FF8659H   FF866AH   000012H   BYTE   INSEG    CODE           ?PR?PUTCHAR?BOARD
FF866BH   FF867CH   000012H   BYTE   INSEG    CODE           ?PR?SPI_MOSI?ZF_SPI
FF867DH   FF868CH   000010H   BYTE   INSEG    CODE           ?PR?UI_KEYS_INIT?UI
FF868DH   FF8696H   00000AH   BYTE   INSEG    CODE           ?PR?KEY1_SHORT_PRESS?KEY
FF8697H   FF86A0H   00000AH   BYTE   INSEG    CODE           ?PR?KEY4_SHORT_PRESS?KEY
FF86A1H   FF86A4H   000004H   BYTE   UNIT     CONST          ?CO?PRINTF
FF86A5H   FF89B3H   00030FH   BYTE   UNIT     HCONST         ?C_INITEDATA
FF89B4H   FF8A0BH   000058H   BYTE   UNIT     HCONST         ?HC?ZF_PWM
FF8A0CH   FF8A5AH   00004FH   BYTE   UNIT     HCONST         ?HC?HOST_COMM
FF8A5BH   FF8AA5H   00004BH   BYTE   UNIT     HCONST         ?HC?SEEKFREE_IMU963RA
FF8AA6H   FF8ADAH   000035H   BYTE   UNIT     HCONST         ?HC?KEY
FF8ADBH   FF8B0EH   000034H   BYTE   UNIT     HCONST         ?HC?SEEKFREE_IMU660RA
FF8B0FH   FF8B42H   000034H   BYTE   UNIT     HCONST         ?C_INITHDATA
FF8B43H   FF8B75H   000033H   BYTE   UNIT     HCONST         ?HC?SEEKFREE_ICM20602
FF8B76H   FF8B9AH   000025H   BYTE   UNIT     HCONST         ?HC?UI
FF8B9BH   FF8BB0H   000016H   BYTE   UNIT     HCONST         ?HC?SEEKFREE_MPU6050
FF8BB1H   FF8BC3H   000013H   BYTE   UNIT     HCONST         ?HC?SEEKFREE_DL1A
FF8BC4H   FF8BCFH   00000CH   BYTE   UNIT     HCONST         ?HC?MOTOR_DRIVER_BOARDS
FF8BD0H   FF8BD9H   00000AH   BYTE   UNIT     HCONST         ?HC?SEEKFREE_OLED
FF8BDAH   FF8BE2H   000009H   BYTE   UNIT     HCONST         ?HC?WT61
FF8BE3H   FF8BE8H   000006H   BYTE   UNIT     HCONST         ?HC?SEEKFREE_18TFT
FF8BE9H   FF8BEEH   000006H   BYTE   UNIT     HCONST         ?HC?SEEKFREE_IPS114_SPI

* * * * * * * * *   R E M O V E D     S E G M E N T S   * * * * * * * *
   *DEL*:           000004H   BYTE   INSEG    CODE           ?PR?DISABLEGLOBALIRQ?BOARD
   *DEL*:           000056H   BYTE   INSEG    CODE           ?PR?ADC_ONCE?ZF_ADC
   *DEL*:           0000B5H   BYTE   INSEG    CODE           ?PR?ADC_INIT?ZF_ADC
   *DEL*:           000033H   BYTE   INSEG    CODE           ?PR?DELAY_US?ZF_DELAY
   *DEL*:           00001AH   BYTE   INSEG    CODE           ?PR?IAP_SET_TPS?ZF_EEPROM
   *DEL*:           000015H   BYTE   INSEG    CODE           ?PR?EEPROM_TRIG?ZF_EEPROM
   *DEL*:           000029H   BYTE   INSEG    CODE           ?PR?IAP_ERASE_PAGE?ZF_EEPROM
   *DEL*:           000004H   BYTE   INSEG    CODE           ?PR?IAP_IDLE?ZF_EEPROM
   *DEL*:           000062H   BYTE   INSEG    CODE           ?PR?IAP_READ_BYTES?ZF_EEPROM
   *DEL*:           000008H   BYTE   INSEG    CODE           ?PR?IAP_INIT?ZF_EEPROM
   *DEL*:           00005EH   BYTE   INSEG    CODE           ?PR?IAP_WRITE_BYTES?ZF_EEPROM
   *DEL*:           000012H   BYTE   INSEG    CODE           ?PR?IAP_GET_CMD_STATE?ZF_EEPROM
   *DEL*:           000066H   BYTE   INSEG    CODE           ?PR?EXIT_INIT?ZF_EXTI
   *DEL*:           000095H   BYTE   INSEG    CODE           ?PR?GPIO_PULL_SET?ZF_GPIO
   *DEL*:           0000B9H   BYTE   INSEG    CODE           ?PR?NVIC_SETPRIORITY?ZF_NVIC
   *DEL*:           0001ABH   BYTE   INSEG    CODE           ?PR?PWM_FREQ?ZF_PWM
   *DEL*:           000026H   BYTE   INSEG    CODE           ?PR?SPI_CHANGE_MODE?ZF_SPI
   *DEL*:           0000CCH   BYTE   INSEG    CODE           ?PR?SPI_CHANGE_PIN?ZF_SPI
   *DEL*:           0000B4H   BYTE   INSEG    CODE           ?PR?CTIMER_COUNT_READ?ZF_TIM
   *DEL*:           0000E5H   BYTE   INSEG    CODE           ?PR?PIT_TIMER_MS?ZF_TIM
   *DEL*:           000054H   BYTE   INSEG    CODE           ?PR?CTIMER_COUNT_INIT?ZF_TIM
   *DEL*:           00005DH   BYTE   INSEG    CODE           ?PR?CTIMER_COUNT_CLEAN?ZF_TIM
   *DEL*:           000033H   BYTE   INSEG    CODE           ?PR?UART_PUTBUFF?ZF_UART
   *DEL*:           00002BH   BYTE   INSEG    CODE           ?PR?UART_PUTSTR?ZF_UART
   *DEL*:           0003ACH   BYTE   INSEG    CODE           ?PR?FIFO_READ_BUFFER?ZF_FIFO
   *DEL*:           00013BH   BYTE   INSEG    CODE           ?PR?FIFO_WRITE_ELEMENT?ZF_FIFO
   *DEL*:           000434H   BYTE   INSEG    CODE           ?PR?FIFO_READ_TAIL_BUFFER?ZF_FIFO
   *DEL*:           0000EAH   BYTE   INSEG    CODE           ?PR?FIFO_CLEAR?ZF_FIFO
   *DEL*:           000392H   BYTE   INSEG    CODE           ?PR?FIFO_WRITE_BUFFER?ZF_FIFO
   *DEL*:           000070H   BYTE   INSEG    CODE           ?PR?FIFO_END_OFFSET?ZF_FIFO
   *DEL*:           000025H   BYTE   INSEG    CODE           ?PR?FIFO_USED?ZF_FIFO
   *DEL*:           000083H   BYTE   INSEG    CODE           ?PR?FIFO_INIT?ZF_FIFO
   *DEL*:           00018BH   BYTE   INSEG    CODE           ?PR?FIFO_READ_ELEMENT?ZF_FIFO
   *DEL*:           000028H   BYTE   INSEG    CODE           ?PR?SEND_DATA?ZF_IIC
   *DEL*:           000037H   BYTE   INSEG    CODE           ?PR?IIC_CHANGE_PIN?ZF_IIC
   *DEL*:           00001CH   BYTE   INSEG    CODE           ?PR?RECV_DATA?ZF_IIC
   *DEL*:           000015H   BYTE   INSEG    CODE           ?PR?START?ZF_IIC
   *DEL*:           000021H   BYTE   INSEG    CODE           ?PR?SEND_ACK?ZF_IIC
   *DEL*:           000015H   BYTE   INSEG    CODE           ?PR?RECV_ACK?ZF_IIC
   *DEL*:           000015H   BYTE   INSEG    CODE           ?PR?STOP?ZF_IIC
   *DEL*:           00001EH   BYTE   INSEG    CODE           ?PR?SEND_NAK?ZF_IIC
L251 LINKER/LOCATER V4.66.93.0                                                        05/03/2024  16:07:18  PAGE 13


   *DEL*:           00007AH   BYTE   INSEG    CODE           ?PR?IIC_INIT?ZF_IIC
   *DEL*:           000099H   BYTE   INSEG    CODE           ?PR?IIC_READ_REG?ZF_IIC
   *DEL*:           0000D4H   BYTE   INSEG    CODE           ?PR?IIC_READ_REG_BYTES?ZF_IIC
   *DEL*:           00007CH   BYTE   INSEG    CODE           ?PR?IIC_WRITE_REG?ZF_IIC
   *DEL*:           0000D1H   BYTE   INSEG    CODE           ?PR?LCD_SHOWUINT16?SEEKFREE_18TFT
   *DEL*:           0000E5H   BYTE   INSEG    CODE           ?PR?LCD_SHOWINT32_SIMSPI?SEEKFREE_18TFT
   *DEL*:           00011FH   BYTE   INSEG    CODE           ?PR?LCD_SHOWINT16_SIMSPI?SEEKFREE_18TFT
   *DEL*:           0000E5H   BYTE   INSEG    CODE           ?PR?LCD_SHOWINT32?SEEKFREE_18TFT
   *DEL*:           00011FH   BYTE   INSEG    CODE           ?PR?LCD_SHOWINT16?SEEKFREE_18TFT
   *DEL*:           000057H   BYTE   INSEG    CODE           ?PR?LCD_CLEAR_SIMSPI?SEEKFREE_18TFT
   *DEL*:           000057H   BYTE   INSEG    CODE           ?PR?LCD_CLEAR?SEEKFREE_18TFT
   *DEL*:           00006AH   BYTE   INSEG    CODE           ?PR?LCD_SHOWSTR_SIMSPI?SEEKFREE_18TFT
   *DEL*:           00006AH   BYTE   INSEG    CODE           ?PR?LCD_SHOWSTR?SEEKFREE_18TFT
   *DEL*:           0001FDH   BYTE   INSEG    CODE           ?PR?LCD_INIT_SIMSPI?SEEKFREE_18TFT
   *DEL*:           0000ECH   BYTE   INSEG    CODE           ?PR?SHOWIMAGE?SEEKFREE_18TFT
   *DEL*:           0001F3H   BYTE   INSEG    CODE           ?PR?LCD_INIT?SEEKFREE_18TFT
   *DEL*:           0000ADH   BYTE   INSEG    CODE           ?PR?LCD_SHOWUINT8_SIMSPI?SEEKFREE_18TFT
   *DEL*:           0000ADH   BYTE   INSEG    CODE           ?PR?LCD_SHOWUINT8?SEEKFREE_18TFT
   *DEL*:           0000F1H   BYTE   INSEG    CODE           ?PR?LCD_SHOWINT8_SIMSPI?SEEKFREE_18TFT
   *DEL*:           0000F1H   BYTE   INSEG    CODE           ?PR?LCD_SHOWINT8?SEEKFREE_18TFT
   *DEL*:           000169H   BYTE   INSEG    CODE           ?PR?LCD_SHOWFLOAT_SIMSPI?SEEKFREE_18TFT
   *DEL*:           000023H   BYTE   INSEG    CODE           ?PR?LCD_DRAWPOINT_SIMSPI?SEEKFREE_18TFT
   *DEL*:           000169H   BYTE   INSEG    CODE           ?PR?LCD_SHOWFLOAT?SEEKFREE_18TFT
   *DEL*:           000023H   BYTE   INSEG    CODE           ?PR?LCD_DRAWPOINT?SEEKFREE_18TFT
   *DEL*:           0000BCH   BYTE   INSEG    CODE           ?PR?LCD_SHOWCHAR_SIMSPI?SEEKFREE_18TFT
   *DEL*:           0000BCH   BYTE   INSEG    CODE           ?PR?LCD_SHOWCHAR?SEEKFREE_18TFT
   *DEL*:           0000D1H   BYTE   INSEG    CODE           ?PR?LCD_SHOWUINT16_SIMSPI?SEEKFREE_18TFT
   *DEL*:           000022H   BYTE   INSEG    CODE           ?PR?BLUETOOTH_CH9141_UART_CALLBACK?SEEKFREE_BLUETOOTH_CH91
                                                             -41
   *DEL*:           000042H   BYTE   INSEG    CODE           ?PR?BLUETOOTH_CH9141_READ_BUFF?SEEKFREE_BLUETOOTH_CH9141
   *DEL*:           0000E0H   BYTE   INSEG    CODE           ?PR?BLUETOOTH_CH9141_SEND_BUFF?SEEKFREE_BLUETOOTH_CH9141
   *DEL*:           00004AH   BYTE   INSEG    CODE           ?PR?BLUETOOTH_CH9141_INIT?SEEKFREE_BLUETOOTH_CH9141
   *DEL*:           00004AH   BYTE   INSEG    CODE           ?PR?DL1A_SET_SIGNAL_RATE_LIMIT?SEEKFREE_DL1A
   *DEL*:           0001ACH   BYTE   INSEG    CODE           ?PR?DL1A_GET_SPAD_INFO?SEEKFREE_DL1A
   *DEL*:           000076H   BYTE   INSEG    CODE           ?PR?DL1A_GET_DISTANCE?SEEKFREE_DL1A
   *DEL*:           0000B5H   BYTE   INSEG    CODE           ?PR?DL1A_PERFORM_SINGLE_REF_CALIBRATION?SEEKFREE_DL1A
   *DEL*:           0000EFH   BYTE   INSEG    CODE           ?PR?DL1A_GET_MEASUREMENT_TIMING_BUDGET?SEEKFREE_DL1A
   *DEL*:           00003BH   BYTE   INSEG    CODE           ?PR?DL1A_SIMIIC_READ_REG?SEEKFREE_DL1A
   *DEL*:           000068H   BYTE   INSEG    CODE           ?PR?DL1A_SIMIIC_READ_REGS_1?SEEKFREE_DL1A
   *DEL*:           0001ACH   BYTE   INSEG    CODE           ?PR?DL1A_SET_MEASUREMENT_TIMING_BUDGET?SEEKFREE_DL1A
   *DEL*:           00002AH   BYTE   INSEG    CODE           ?PR?DL1A_SIMIIC_WRITE_REG?SEEKFREE_DL1A
   *DEL*:           0006F9H   BYTE   INSEG    CODE           ?PR?DL1A_INIT?SEEKFREE_DL1A
   *DEL*:           000079H   BYTE   INSEG    CODE           ?PR?DL1B_IIC_TRANSFER_8BIT_ARRAY?SEEKFREE_DL1B
   *DEL*:           000156H   BYTE   INSEG    CODE           ?PR?DL1B_GET_DISTANCE?SEEKFREE_DL1B
   *DEL*:           000013H   BYTE   INSEG    CODE           ?PR?DL1B_SIMIIC_START?SEEKFREE_DL1B
   *DEL*:           000016H   BYTE   INSEG    CODE           ?PR?DL1B_SIMIIC_STOP?SEEKFREE_DL1B
   *DEL*:           000133H   BYTE   INSEG    CODE           ?PR?DL1B_INIT?SEEKFREE_DL1B
   *DEL*:           00008DH   BYTE   INSEG    CODE           ?PR?ICM20602_GYRO_TRANSITION?SEEKFREE_ICM20602
   *DEL*:           00001AH   BYTE   INSEG    CODE           ?PR?ICM20602_WRITE_REGISTER?SEEKFREE_ICM20602
   *DEL*:           000051H   BYTE   INSEG    CODE           ?PR?ICM20602_SELF_CHECK?SEEKFREE_ICM20602
   *DEL*:           00001BH   BYTE   INSEG    CODE           ?PR?ICM20602_SIMSPI_W_REG_BYTE?SEEKFREE_ICM20602
   *DEL*:           0000C5H   BYTE   INSEG    CODE           ?PR?ICM20602_INIT?SEEKFREE_ICM20602
   *DEL*:           000054H   BYTE   INSEG    CODE           ?PR?ICM20602_GET_ACC?SEEKFREE_ICM20602
   *DEL*:           000089H   BYTE   INSEG    CODE           ?PR?ICM20602_ACC_TRANSITION?SEEKFREE_ICM20602
   *DEL*:           000026H   BYTE   INSEG    CODE           ?PR?ICM20602_READ_REGISTERS?SEEKFREE_ICM20602
   *DEL*:           000054H   BYTE   INSEG    CODE           ?PR?ICM20602_GET_GYRO?SEEKFREE_ICM20602
   *DEL*:           000054H   BYTE   INSEG    CODE           ?PR?IMU660RA_GET_GYRO?SEEKFREE_IMU660RA
   *DEL*:           000022H   BYTE   INSEG    CODE           ?PR?IMU660RA_WRITE_REGISTERS?SEEKFREE_IMU660RA
   *DEL*:           0000A8H   BYTE   INSEG    CODE           ?PR?IMU660RA_GYRO_TRANSITION?SEEKFREE_IMU660RA
   *DEL*:           00001AH   BYTE   INSEG    CODE           ?PR?IMU660RA_WRITE_REGISTER?SEEKFREE_IMU660RA
   *DEL*:           00004EH   BYTE   INSEG    CODE           ?PR?IMU660RA_SELF_CHECK?SEEKFREE_IMU660RA
   *DEL*:           00003EH   BYTE   INSEG    CODE           ?PR?IMU660RA_SIMSPI_W_REG_BYTES?SEEKFREE_IMU660RA
   *DEL*:           00001BH   BYTE   INSEG    CODE           ?PR?IMU660RA_SIMSPI_W_REG_BYTE?SEEKFREE_IMU660RA
   *DEL*:           0000AEH   BYTE   INSEG    CODE           ?PR?IMU660RA_INIT?SEEKFREE_IMU660RA
   *DEL*:           000054H   BYTE   INSEG    CODE           ?PR?IMU660RA_GET_ACC?SEEKFREE_IMU660RA
L251 LINKER/LOCATER V4.66.93.0                                                        05/03/2024  16:07:18  PAGE 14


   *DEL*:           00007CH   BYTE   INSEG    CODE           ?PR?IMU660RA_ACC_TRANSITION?SEEKFREE_IMU660RA
   *DEL*:           000026H   BYTE   INSEG    CODE           ?PR?IMU660RA_READ_REGISTERS?SEEKFREE_IMU660RA
   *DEL*:           00008DH   BYTE   INSEG    CODE           ?PR?IMU963RA_ACC_TRANSITION?SEEKFREE_IMU963RA
   *DEL*:           000054H   BYTE   INSEG    CODE           ?PR?IMU963RA_GET_GYRO?SEEKFREE_IMU963RA
   *DEL*:           000051H   BYTE   INSEG    CODE           ?PR?IMU963RA_MAG_TRANSITION?SEEKFREE_IMU963RA
   *DEL*:           0000D2H   BYTE   INSEG    CODE           ?PR?IMU963RA_GYRO_TRANSITION?SEEKFREE_IMU963RA
   *DEL*:           00003AH   BYTE   INSEG    CODE           ?PR?IMU963RA_CONNECT_MAG?SEEKFREE_IMU963RA
   *DEL*:           000026H   BYTE   INSEG    CODE           ?PR?IMU963RA_READ_ACC_GYRO_REGISTERS?SEEKFREE_IMU963RA
   *DEL*:           000082H   BYTE   INSEG    CODE           ?PR?IMU963RA_WRITE_MAG_REGISTER?SEEKFREE_IMU963RA
   *DEL*:           00004BH   BYTE   INSEG    CODE           ?PR?IMU963RA_SIMSPI_R_REG_BYTES?SEEKFREE_IMU963RA
   *DEL*:           000054H   BYTE   INSEG    CODE           ?PR?IMU963RA_MAG_SELF_CHECK?SEEKFREE_IMU963RA
   *DEL*:           00011DH   BYTE   INSEG    CODE           ?PR?IMU963RA_INIT?SEEKFREE_IMU963RA
   *DEL*:           000051H   BYTE   INSEG    CODE           ?PR?IMU963RA_ACC_GYRO_SELF_CHECK?SEEKFREE_IMU963RA
   *DEL*:           000054H   BYTE   INSEG    CODE           ?PR?IMU963RA_GET_ACC?SEEKFREE_IMU963RA
   *DEL*:           000073H   BYTE   INSEG    CODE           ?PR?IMU963RA_GET_MAG?SEEKFREE_IMU963RA
   *DEL*:           0000ADH   BYTE   INSEG    CODE           ?PR?IPS114_SHOWUINT8_SIMSPI?SEEKFREE_IPS114_SPI
   *DEL*:           0000A9H   BYTE   INSEG    CODE           ?PR?IPS114_SHOWUINT8?SEEKFREE_IPS114_SPI
   *DEL*:           0000F1H   BYTE   INSEG    CODE           ?PR?IPS114_SHOWINT8_SIMSPI?SEEKFREE_IPS114_SPI
   *DEL*:           0000EDH   BYTE   INSEG    CODE           ?PR?IPS114_SHOWINT8?SEEKFREE_IPS114_SPI
   *DEL*:           000169H   BYTE   INSEG    CODE           ?PR?IPS114_SHOWFLOAT_SIMSPI?SEEKFREE_IPS114_SPI
   *DEL*:           000023H   BYTE   INSEG    CODE           ?PR?IPS114_DRAWPOINT_SIMSPI?SEEKFREE_IPS114_SPI
   *DEL*:           000169H   BYTE   INSEG    CODE           ?PR?IPS114_SHOWFLOAT?SEEKFREE_IPS114_SPI
   *DEL*:           000023H   BYTE   INSEG    CODE           ?PR?IPS114_DRAWPOINT?SEEKFREE_IPS114_SPI
   *DEL*:           0000BCH   BYTE   INSEG    CODE           ?PR?IPS114_SHOWCHAR_SIMSPI?SEEKFREE_IPS114_SPI
   *DEL*:           0000BCH   BYTE   INSEG    CODE           ?PR?IPS114_SHOWCHAR?SEEKFREE_IPS114_SPI
   *DEL*:           0000D1H   BYTE   INSEG    CODE           ?PR?IPS114_SHOWUINT16_SIMSPI?SEEKFREE_IPS114_SPI
   *DEL*:           0000D1H   BYTE   INSEG    CODE           ?PR?IPS114_SHOWUINT16?SEEKFREE_IPS114_SPI
   *DEL*:           0000E5H   BYTE   INSEG    CODE           ?PR?IPS114_SHOWINT32_SIMSPI?SEEKFREE_IPS114_SPI
   *DEL*:           00011FH   BYTE   INSEG    CODE           ?PR?IPS114_SHOWINT16_SIMSPI?SEEKFREE_IPS114_SPI
   *DEL*:           0000E5H   BYTE   INSEG    CODE           ?PR?IPS114_SHOWINT32?SEEKFREE_IPS114_SPI
   *DEL*:           00011BH   BYTE   INSEG    CODE           ?PR?IPS114_SHOWINT16?SEEKFREE_IPS114_SPI
   *DEL*:           000064H   BYTE   INSEG    CODE           ?PR?IPS114_CLEAR_SIMSPI?SEEKFREE_IPS114_SPI
   *DEL*:           000064H   BYTE   INSEG    CODE           ?PR?IPS114_CLEAR?SEEKFREE_IPS114_SPI
   *DEL*:           00006AH   BYTE   INSEG    CODE           ?PR?IPS114_SHOWSTR_SIMSPI?SEEKFREE_IPS114_SPI
   *DEL*:           00006AH   BYTE   INSEG    CODE           ?PR?IPS114_SHOWSTR?SEEKFREE_IPS114_SPI
   *DEL*:           00004BH   BYTE   INSEG    CODE           ?PR?IPS114_WRITEDATA_SIMSPI?SEEKFREE_IPS114_SPI
   *DEL*:           000015H   BYTE   INSEG    CODE           ?PR?IPS114_WRITEDATA?SEEKFREE_IPS114_SPI
   *DEL*:           000054H   BYTE   INSEG    CODE           ?PR?IPS114_SET_REGION_SIMSPI?SEEKFREE_IPS114_SPI
   *DEL*:           000154H   BYTE   INSEG    CODE           ?PR?IPS114_INIT_SIMSPI?SEEKFREE_IPS114_SPI
   *DEL*:           000054H   BYTE   INSEG    CODE           ?PR?IPS114_SET_REGION?SEEKFREE_IPS114_SPI
   *DEL*:           000174H   BYTE   INSEG    CODE           ?PR?IPS114_INIT?SEEKFREE_IPS114_SPI
   *DEL*:           00006CH   BYTE   INSEG    CODE           ?PR?MPU6050_SIMIIC_READ_REGS?SEEKFREE_MPU6050
   *DEL*:           00003BH   BYTE   INSEG    CODE           ?PR?MPU6050_SIMIIC_READ_REG?SEEKFREE_MPU6050
   *DEL*:           00002AH   BYTE   INSEG    CODE           ?PR?MPU6050_SIMIIC_WRITE_REG?SEEKFREE_MPU6050
   *DEL*:           000060H   BYTE   INSEG    CODE           ?PR?MPU6050_INIT?SEEKFREE_MPU6050
   *DEL*:           000033H   BYTE   INSEG    CODE           ?PR?MPU6050_SELF1_CHECK?SEEKFREE_MPU6050
   *DEL*:           000065H   BYTE   INSEG    CODE           ?PR?MPU6050_READ_CH?SEEKFREE_MPU6050
   *DEL*:           000048H   BYTE   INSEG    CODE           ?PR?MPU6050_SEND_CH?SEEKFREE_MPU6050
   *DEL*:           000056H   BYTE   INSEG    CODE           ?PR?MPU6050_GET_GYRO?SEEKFREE_MPU6050
   *DEL*:           000021H   BYTE   INSEG    CODE           ?PR?MPU6050_SCCB_WAITACK?SEEKFREE_MPU6050
   *DEL*:           000056H   BYTE   INSEG    CODE           ?PR?MPU6050_GET_ACCDATA?SEEKFREE_MPU6050
   *DEL*:           000047H   BYTE   INSEG    CODE           ?PR?OLED_PUTPIXEL?SEEKFREE_OLED
   *DEL*:           000074H   BYTE   INSEG    CODE           ?PR?OLED_HEXASCII_SPI?SEEKFREE_OLED
   *DEL*:           000474H   BYTE   INSEG    CODE           ?PR?OLED_DIS_BMP_SPI?SEEKFREE_OLED
   *DEL*:           000145H   BYTE   INSEG    CODE           ?PR?OLED_PRINTF_FLOAT?SEEKFREE_OLED
   *DEL*:           000123H   BYTE   INSEG    CODE           ?PR?OLED_P8X16STR_SPI?SEEKFREE_OLED
   *DEL*:           000041H   BYTE   INSEG    CODE           ?PR?OLED_CLRPIXEL_SPI?SEEKFREE_OLED
   *DEL*:           0000C0H   BYTE   INSEG    CODE           ?PR?OLED_PRINT_CHINESE_SPI?SEEKFREE_OLED
   *DEL*:           00005FH   BYTE   INSEG    CODE           ?PR?OLED_FILL?SEEKFREE_OLED
   *DEL*:           0000CEH   BYTE   INSEG    CODE           ?PR?OLED_PRINTF_INT32?SEEKFREE_OLED
   *DEL*:           000027H   BYTE   INSEG    CODE           ?PR?OLED_UINT16?SEEKFREE_OLED
   *DEL*:           000048H   BYTE   INSEG    CODE           ?PR?OLED_PUTPIXEL_SPI?SEEKFREE_OLED
   *DEL*:           0000D2H   BYTE   INSEG    CODE           ?PR?OLED_P6X8STR?SEEKFREE_OLED
   *DEL*:           000073H   BYTE   INSEG    CODE           ?PR?OLED_INT16?SEEKFREE_OLED
   *DEL*:           0000A8H   BYTE   INSEG    CODE           ?PR?OLED_INIT?SEEKFREE_OLED
L251 LINKER/LOCATER V4.66.93.0                                                        05/03/2024  16:07:18  PAGE 15


   *DEL*:           000074H   BYTE   INSEG    CODE           ?PR?OLED_HEXASCII?SEEKFREE_OLED
   *DEL*:           000027H   BYTE   INSEG    CODE           ?PR?OLED_UINT16_SPI?SEEKFREE_OLED
   *DEL*:           000073H   BYTE   INSEG    CODE           ?PR?OLED_INT16_SPI?SEEKFREE_OLED
   *DEL*:           000481H   BYTE   INSEG    CODE           ?PR?OLED_DIS_BMP?SEEKFREE_OLED
   *DEL*:           000123H   BYTE   INSEG    CODE           ?PR?OLED_P8X16STR?SEEKFREE_OLED
   *DEL*:           000040H   BYTE   INSEG    CODE           ?PR?OLED_CLRPIXEL?SEEKFREE_OLED
   *DEL*:           0000C0H   BYTE   INSEG    CODE           ?PR?OLED_PRINT_CHINESE?SEEKFREE_OLED
   *DEL*:           00008AH   BYTE   INSEG    CODE           ?PR?CCD_SEND_DATA?SEEKFREE_TSL1401
   *DEL*:           000022H   BYTE   INSEG    CODE           ?PR?CCD_INIT?SEEKFREE_TSL1401
   *DEL*:           000088H   BYTE   INSEG    CODE           ?PR?CCD_COLLECT?SEEKFREE_TSL1401
   *DEL*:           00009AH   BYTE   INSEG    CODE           ?PR?CRC_CHECK?SEEKFREE_VIRSCO
   *DEL*:           0000DCH   BYTE   INSEG    CODE           ?PR?DATA_CONVERSION?SEEKFREE_VIRSCO
   *DEL*:           000042H   BYTE   INSEG    CODE           ?PR?WIRELESS_UART_READ_BUFF?SEEKFREE_WIRELESS
   *DEL*:           000075H   BYTE   INSEG    CODE           ?PR?WIRELESS_UART_SEND_BUFF?SEEKFREE_WIRELESS
   *DEL*:           000022H   BYTE   INSEG    CODE           ?PR?WIRELESS_UART_CALLBACK?SEEKFREE_WIRELESS
   *DEL*:           00004CH   BYTE   INSEG    CODE           ?PR?WIRELESS_UART_INIT?SEEKFREE_WIRELESS
   *DEL*:           000042H   BYTE   INSEG    CODE           ?PR?WIRELESS_CH573_READ_BUFF?SEEKFREE_WIRELESS_CH573
   *DEL*:           00007DH   BYTE   INSEG    CODE           ?PR?WIRELESS_CH573_SEND_BUFF?SEEKFREE_WIRELESS_CH573
   *DEL*:           000022H   BYTE   INSEG    CODE           ?PR?WIRELESS_CH573_CALLBACK?SEEKFREE_WIRELESS_CH573
   *DEL*:           00004CH   BYTE   INSEG    CODE           ?PR?WIRELESS_CH573_INIT?SEEKFREE_WIRELESS_CH573
   *DEL*:           000012H   BYTE   INSEG    CODE           ?PR?STEPPER_PWM_INIT?MAIN
   *DEL*:           000121H   BYTE   INSEG    CODE           ?PR?UART_RUNNING?UART
   *DEL*:           00003BH   BYTE   INSEG    CODE           ?PR?UART_INITIALIZE?UART
   *DEL*:           000007H   BYTE   INSEG    CODE           ?PR?UART_PORT_INIT?UART
   *DEL*:           000010H   BYTE   INSEG    CODE           ?PR?KEYS_UI_INIT?KEY
   *DEL*:           00000AH   BYTE   INSEG    CODE           ?PR?KEY5_SHORT_PRESS?KEY
   *DEL*:           000064H   BYTE   INSEG    CODE           ?PR?UI_RUNNING?UI
   *DEL*:           0003F2H   BYTE   INSEG    CODE           ?PR?SEEKFREE_ASSISTANT_CAMERA_BOUNDARY_CONFIG?SEEKFREE_ASS
                                                             -ISTANT
   *DEL*:           000101H   BYTE   INSEG    CODE           ?PR?SEEKFREE_ASSISTANT_CAMERA_DOT_SEND?SEEKFREE_ASSISTANT
   *DEL*:           000138H   BYTE   INSEG    CODE           ?PR?SEEKFREE_ASSISTANT_OSCILLOSCOPE_SEND?SEEKFREE_ASSISTAN
                                                             -T
   *DEL*:           000022H   BYTE   INSEG    CODE           ?PR?SEEKFREE_ASSISTANT_INIT?SEEKFREE_ASSISTANT
   *DEL*:           00003FH   BYTE   INSEG    CODE           ?PR?SEEKFREE_ASSISTANT_SUM?SEEKFREE_ASSISTANT
   *DEL*:           00003FH   BYTE   INSEG    CODE           ?PR?SEEKFREE_ASSISTANT_CAMERA_INFORMATION_CONFIG?SEEKFREE_
                                                             -ASSISTANT
   *DEL*:           0001B8H   BYTE   INSEG    CODE           ?PR?SEEKFREE_ASSISTANT_DATA_ANALYSIS?SEEKFREE_ASSISTANT
   *DEL*:           000101H   BYTE   INSEG    CODE           ?PR?SEEKFREE_ASSISTANT_CAMERA_DATA_SEND?SEEKFREE_ASSISTANT
   *DEL*:           000034H   BYTE   INSEG    CODE           ?PR?SEEKFREE_ASSISTANT_CAMERA_SEND?SEEKFREE_ASSISTANT
   *DEL*:           00029AH   BYTE   INSEG    CODE           ?PR?LASER_RANGING_IRQHANDLER?LASER_RANGING
   *DEL*:           0000EFH   BYTE   INSEG    CODE           ?PR?WHEEL_SPEED?MOTOR_DRIVER_BOARDS
   *DEL*:           0000F8H   BYTE   INSEG    CODE           ?PR?WHEEL_YAW_CALIBRATING?MOTOR_DRIVER_BOARDS
   *DEL*:           000001H   BYTE   INSEG    CODE           ?PR?WHEEL_DYNAMIC_CALIBRATING?MOTOR_DRIVER_BOARDS
   *DEL*:           0002D9H   BYTE   INSEG    CODE           ?PR?QMC5883_DATA_PARSE?QMC5883
   *DEL*:           0001A8H   BYTE   INSEG    CODE           ?PR?ATOF?QMC5883
   *DEL*:           000062H   BYTE   INSEG    CODE           ?PR?QMC5883_IRQHANDLER?QMC5883
   *DEL*:           0000FFH   BYTE   INSEG    CODE           ?PR?ATOI?QMC5883
   *DEL*:           000057H   BYTE   INSEG    CODE           ?PR?SERVO_PAN_GET_DUTY?SERVO
   *DEL*:           00004DH   BYTE   INSEG    CODE           ?PR?WT61_INIT?WT61
   *DEL*:           000001H   BYTE   INSEG    CODE           ?PR?WT61_OLED_DISP?WT61
   *DEL*:           00002EH   BYTE   INSEG    CODE           ?PR?WT61_OLED_INIT?WT61
   *DEL*:           000028H   BYTE   UNIT     EDATA          ?ED?PRINTF
   *DEL*:           000014H   BYTE   INSEG    CODE           ?PR?ISSPACE?_?ISSPACE



OVERLAY MAP OF MODULE:   .\Out_File\SEEKFREE (board)


FUNCTION/MODULE                                BIT_GROUP   DATA_GROUP 
--> CALLED FUNCTION/MODULE                    START  STOP  START  STOP
======================================================================
uart1_isr/uart                                ----- -----  ----- -----
  +--> memset?_/memset
  +--> host_comm_irqhandler/host_comm
L251 LINKER/LOCATER V4.66.93.0                                                        05/03/2024  16:07:18  PAGE 16



memset?_/memset                               ----- -----  ----- -----

host_comm_irqhandler/host_comm                ----- -----  ----- -----
  +--> wheel_speed_parser/host_comm
  +--> servo_claw_set_angle/servo
  +--> servo_pitch_set_angle/servo
  +--> servo_pan_set_angle/servo

wheel_speed_parser/host_comm                  ----- -----  ----- -----

servo_claw_set_angle/servo                    ----- -----  ----- -----
  +--> servo_claw_get_duty/servo
  +--> pwm_duty/zf_pwm

servo_claw_get_duty/servo                     ----- -----  ----- -----

pwm_duty/zf_pwm                               ----- -----  ----- -----

servo_pitch_set_angle/servo                   ----- -----  ----- -----
  +--> servo_pitch_get_duty/servo
  +--> pwm_duty/zf_pwm

servo_pitch_get_duty/servo                    ----- -----  ----- -----

servo_pan_set_angle/servo                     ----- -----  ----- -----
  +--> servo_pitch_get_duty/servo
  +--> pwm_duty/zf_pwm

*** NEW ROOT ********************************

uart2_isr/uart                                ----- -----  ----- -----

*** NEW ROOT ********************************

uart3_isr/uart                                ----- -----  ----- -----

*** NEW ROOT ********************************

uart4_isr/uart                                ----- -----  ----- -----
  +--> memset?_/memset
  +--> wt61_data_parse/wt61

wt61_data_parse/wt61                          ----- -----  ----- -----
  +--> ?C?SLDIV/?C?SLDIV
  +--> oled_printf_float_spi/SEEKFREE_OLED

?C?SLDIV/?C?SLDIV                             ----- -----  ----- -----
  +--> ?C?ULIDIV/?C?ULDIV

?C?ULIDIV/?C?ULDIV                            ----- -----  ----- -----

oled_printf_float_spi/SEEKFREE_OLED           ----- -----  ----- -----
  +--> zf_sprintf/SEEKFREE_PRINTF
  +--> oled_p6x8str_spi/SEEKFREE_OLED

zf_sprintf/SEEKFREE_PRINTF                    ----- -----  ----- -----
  +--> number_conversion_ascii/SEEKFREE_PRINTF
  +--> printf_reverse_order/SEEKFREE_PRINTF
  +--> memcpy?_/memcpy

number_conversion_ascii/SEEKFREE_PRINTF       ----- -----  ----- -----
  +--> ?C?SLDIV/?C?SLDIV
  +--> ?C?ULIDIV/?C?ULDIV

L251 LINKER/LOCATER V4.66.93.0                                                        05/03/2024  16:07:18  PAGE 17


printf_reverse_order/SEEKFREE_PRINTF          ----- -----  ----- -----

memcpy?_/memcpy                               ----- -----  ----- -----

oled_p6x8str_spi/SEEKFREE_OLED                ----- -----  ----- -----
  +--> oled_set_pos_spi/SEEKFREE_OLED
  +--> oled_wrdat_spi/SEEKFREE_OLED

oled_set_pos_spi/SEEKFREE_OLED                ----- -----  ----- -----
  +--> oled_wrcmd_spi/SEEKFREE_OLED

oled_wrcmd_spi/SEEKFREE_OLED                  ----- -----  ----- -----
  +--> spi_mosi/zf_spi

spi_mosi/zf_spi                               ----- -----  ----- -----

oled_wrdat_spi/SEEKFREE_OLED                  ----- -----  ----- -----
  +--> spi_mosi/zf_spi

*** NEW ROOT ********************************

?C_C51STARTUP?1                               ----- -----  ----- -----

*** NEW ROOT ********************************

?C_C51STARTUP                                 ----- -----  ----- -----

*** NEW ROOT ********************************

?C_C51STARTUP?3                               ----- -----  ----- -----
  +--> main/main

main/main                                     ----- -----  ----- -----
  +--> board_init/board
  +--> motor_drivers_pwm_init/main
  +--> gpio_init/main
  +--> oled_init_spi/SEEKFREE_OLED
  +--> wheel_oled_init/motor_driver_boards
  +--> ui_init/ui
  +--> delay_ms/zf_delay
  +--> laser_ranging_init/laser_ranging
  +--> host_comm_uart_init/host_comm
  +--> servo_init/servo
  +--> key1_check/key
  +--> key2_check/key
  +--> key3_check/key
  +--> key4_check/key
  +--> key5_check/key
  +--> host_comm_sender/host_comm
  +--> wheel_dynamic_adjusting/motor_driver_boards
  +--> uart_tx_send_buffer/uart
  +--> wheel_oled_update/motor_driver_boards

board_init/board                              ----- -----  ----- -----
  +--> set_clk/board
  +--> delay_init/zf_delay
  +--> uart_init/zf_uart
  +--> EnableGlobalIRQ/board

set_clk/board                                 ----- -----  ----- -----

delay_init/zf_delay                           ----- -----  ----- -----
  +--> ?C?SLDIV/?C?SLDIV

uart_init/zf_uart                             ----- -----  ----- -----
L251 LINKER/LOCATER V4.66.93.0                                                        05/03/2024  16:07:18  PAGE 18


  +--> ?C?ULIDIV/?C?ULDIV

EnableGlobalIRQ/board                         ----- -----  ----- -----

motor_drivers_pwm_init/main                   ----- -----  ----- -----
  +--> pwm_init/zf_pwm
  +--> wheel_adjust/motor_driver_boards

pwm_init/zf_pwm                               ----- -----  ----- -----
  +--> pwm_set_gpio/zf_pwm
  +--> ?C?ULIDIV/?C?ULDIV

pwm_set_gpio/zf_pwm                           ----- -----  ----- -----
  +--> gpio_mode/zf_gpio

gpio_mode/zf_gpio                             ----- -----  ----- -----

wheel_adjust/motor_driver_boards              ----- -----  ----- -----
  +--> wheel_direction/motor_driver_boards
  +--> pwm_duty/zf_pwm

wheel_direction/motor_driver_boards           ----- -----  ----- -----

gpio_init/main                                ----- -----  ----- -----

oled_init_spi/SEEKFREE_OLED                   ----- -----  ----- -----
  +--> spi_init/zf_spi
  +--> delay_ms/zf_delay
  +--> oled_wrcmd_spi/SEEKFREE_OLED
  +--> oled_fill_spi/SEEKFREE_OLED
  +--> oled_set_pos_spi/SEEKFREE_OLED

spi_init/zf_spi                               ----- -----  ----- -----
  +--> gpio_mode/zf_gpio

delay_ms/zf_delay                             ----- -----  ----- -----

oled_fill_spi/SEEKFREE_OLED                   ----- -----  ----- -----
  +--> oled_wrcmd_spi/SEEKFREE_OLED
  +--> oled_wrdat_spi/SEEKFREE_OLED

wheel_oled_init/motor_driver_boards           ----- -----  ----- -----
  +--> oled_p6x8str_spi/SEEKFREE_OLED

ui_init/ui                                    ----- -----  ----- -----
  +--> oled_p6x8str_spi/SEEKFREE_OLED
  +--> ui_keys_init/ui

ui_keys_init/ui                               ----- -----  ----- -----
  +--> oled_p6x8str_spi/SEEKFREE_OLED

laser_ranging_init/laser_ranging              ----- -----  ----- -----
  +--> uart_init/zf_uart
  +--> laser_ranging/laser_ranging
  +--> delay_ms/zf_delay

laser_ranging/laser_ranging                   ----- -----  ----- -----
  +--> laser_ranging_get_uart_value/laser_ranging
  +--> uart_sendcmd/uart

laser_ranging_get_uart_value/laser_rangi+     ----- -----  ----- -----
... ng

uart_sendcmd/uart                             ----- -----  ----- -----

L251 LINKER/LOCATER V4.66.93.0                                                        05/03/2024  16:07:18  PAGE 19


host_comm_uart_init/host_comm                 ----- -----  ----- -----
  +--> uart_sendstring/uart

uart_sendstring/uart                          ----- -----  ----- -----

servo_init/servo                              ----- -----  ----- -----
  +--> pwm_init/zf_pwm

key1_check/key                                ----- -----  ----- -----
  +--> oled_p6x8str_spi/SEEKFREE_OLED
  +--> key1_short_press/key

key1_short_press/key                          ----- -----  ----- -----

key2_check/key                                ----- -----  ----- -----
  +--> oled_p6x8str_spi/SEEKFREE_OLED
  +--> key2_short_press/key

key2_short_press/key                          ----- -----  ----- -----
  +--> servo_pitch_set_angle/servo
  +--> delay_ms/zf_delay

key3_check/key                                ----- -----  ----- -----
  +--> oled_p6x8str_spi/SEEKFREE_OLED
  +--> key3_short_press/key

key3_short_press/key                          ----- -----  ----- -----
  +--> pwm_duty/zf_pwm
  +--> delay_ms/zf_delay

key4_check/key                                ----- -----  ----- -----
  +--> oled_p6x8str_spi/SEEKFREE_OLED
  +--> key4_short_press/key

key4_short_press/key                          ----- -----  ----- -----

key5_check/key                                ----- -----  ----- -----
  +--> oled_p6x8str_spi/SEEKFREE_OLED

host_comm_sender/host_comm                    ----- -----  ----- -----
  +--> uart_sendbyte/uart
  +--> uart_sendstring/uart

uart_sendbyte/uart                            ----- -----  ----- -----

wheel_dynamic_adjusting/motor_driver_boa+     ----- -----  ----- -----
... rds
  +--> wheel_adjust/motor_driver_boards

uart_tx_send_buffer/uart                      ----- -----  ----- -----
  +--> uart_sendstring/uart

wheel_oled_update/motor_driver_boards         ----- -----  ----- -----
  +--> oled_printf_int32_spi/SEEKFREE_OLED

oled_printf_int32_spi/SEEKFREE_OLED           ----- -----  ----- -----
  +--> zf_sprintf/SEEKFREE_PRINTF
  +--> oled_p6x8str_spi/SEEKFREE_OLED

*** NEW ROOT ********************************

?C_C51STARTUP?2                               ----- -----  ----- -----



L251 LINKER/LOCATER V4.66.93.0                                                        05/03/2024  16:07:18  PAGE 20


PUBLIC SYMBOLS OF MODULE:  .\Out_File\SEEKFREE (board)


      VALUE       CLASS    TYPE      PUBLIC SYMBOL NAME
      =================================================
      00FF3187H   CODE     NEAR LAB  ?C?CASTF
      000000FFH   NUMBER   ---       ?C?CODESEG
      00FF3154H   CODE     NEAR LAB  ?C?FCASTC
      00FF314FH   CODE     NEAR LAB  ?C?FCASTI
      00FF314AH   CODE     NEAR LAB  ?C?FCASTL
      00FF2F2BH   CODE     ---       ?C?FPADD
      00FF3260H   CODE     NEAR LAB  ?C?FPATOF
      00FF3106H   CODE     ---       ?C?FPCMP
      00FF3104H   CODE     ---       ?C?FPCMP3
      00FF37DBH   CODE     ---       ?C?FPCONVERT
      00FF3083H   CODE     ---       ?C?FPDIV
      00FF320FH   CODE     ---       ?C?FPGETOPN2
      00FF2FE3H   CODE     ---       ?C?FPMUL
      00FF324CH   CODE     ---       ?C?FPNANRESULT
      00FF3758H   CODE     ---       ?C?FPNEG
      00FF3254H   CODE     ---       ?C?FPOVERFLOW
      00FF3228H   CODE     ---       ?C?FPRESULT
      00FF323EH   CODE     ---       ?C?FPRESULT2
      00FF3893H   CODE     ---       ?C?FPROUND
      00FF2F28H   CODE     ---       ?C?FPSUB
      00FF3251H   CODE     ---       ?C?FPUNDERFLOW
      00FF3796H   CODE     ---       ?C?FTNPWR
      00FF7302H   CODE     ---       ?C?INITEDATA
      00FF89B2H   HCONST   WORD      ?C?INITEDATA_END
      00FF732BH   CODE     ---       ?C?INITHDATA
      00FF8B41H   HCONST   WORD      ?C?INITHDATA_END
      00FF3919H   CODE     ---       ?C?LIMUL
      00FF3908H   CODE     ---       ?C?LMUL
      00FF3349H   CODE     ---       ?C?PRNFMT
      00FF38D6H   CODE     ---       ?C?SIDIV
      00FF3975H   CODE     NEAR LAB  ?C?SLDIV
      00FF0000H   CODE     ---       ?C?STARTUP
      00FF3924H   CODE     NEAR LAB  ?C?ULDIV
      00FF3922H   CODE     NEAR LAB  ?C?ULIDIV
      00000001H   NUMBER   ---       ?C?XDATASEG
      00FF0000H   CODE     ---       ?C_STARTUP
      00000739H   EDATA    BYTE      ?data_conversion?BYTE
      000006B2H   EDATA    BYTE      ?dl1b_iic_transfer_8bit_array?BYTE
      000006A2H   EDATA    BYTE      ?fifo_init?BYTE
      00000008H   EDATA    BYTE      ?fifo_read_buffer?BYTE
      00000761H   EDATA    BYTE      ?fifo_read_element?BYTE
      00000614H   EDATA    BYTE      ?fifo_read_tail_buffer?BYTE
      0000067EH   EDATA    BYTE      ?fifo_write_buffer?BYTE
      00000805H   EDATA    BYTE      ?iap_read_bytes?BYTE
      0000080FH   EDATA    BYTE      ?iap_write_bytes?BYTE
      000009E0H   EDATA    BYTE      ?iic_init?BYTE
      000007B5H   EDATA    BYTE      ?ips114_showfloat?BYTE
      000007A9H   EDATA    BYTE      ?ips114_showfloat_simspi?BYTE
      00000779H   EDATA    BYTE      ?lcd_showfloat?BYTE
      0000076DH   EDATA    BYTE      ?lcd_showfloat_simspi?BYTE
      0000066AH   EDATA    BYTE      ?number_conversion_ascii?BYTE
      000004D9H   EDATA    BYTE      ?oled_printf_float?BYTE
      00000509H   EDATA    BYTE      ?oled_printf_float_spi?BYTE
*DEL*:00000028H   EDATA    ---       ?printf?BYTE
      00000656H   EDATA    BYTE      ?pwm_freq?BYTE
      00000642H   EDATA    BYTE      ?pwm_init?BYTE
      000005DAH   EDATA    BYTE      ?seekfree_assistant_camera_boundary_config?BYTE
      000006F2H   EDATA    BYTE      ?seekfree_assistant_camera_data_send?BYTE
      00000855H   EDATA    BYTE      ?seekfree_assistant_camera_information_config?BYTE
      00000747H   EDATA    BYTE      ?spi_init?BYTE
L251 LINKER/LOCATER V4.66.93.0                                                        05/03/2024  16:07:18  PAGE 21


      0000070FH   EDATA    BYTE      ?uart_init?BYTE
      00000819H   EDATA    BYTE      ?uart_putbuff?BYTE
      000003F0H   EDATA    BYTE      ?zf_sprintf?BYTE
      00000484H   EDATA    FLOAT     acc_x
      00000488H   EDATA    FLOAT     acc_y
      0000048CH   EDATA    FLOAT     acc_z
*SFR* 000000BCH   DATA     BYTE      ADC_CONTR
*DEL*:00000000H   CODE     ---       adc_init
*DEL*:00000000H   CODE     ---       adc_once
*SFR* 000000BDH   DATA     BYTE      ADC_RES
*SFR* 000000BEH   DATA     BYTE      ADC_RESL
*SFR* 000000DEH   DATA     BYTE      ADCCFG
*DEL*:00000000H   CODE     ---       atof
      00FF31F0H   CODE     NEAR LAB  atof?_
*DEL*:00000000H   CODE     ---       atoi
*SFR* 000000EFH   DATA     BYTE      AUXINTIF
*SFR* 0000008EH   DATA     BYTE      AUXR
*SFR* 00000097H   DATA     BYTE      AUXR2
*DEL*:00000000H   CODE     ---       bluetooth_ch9141_init
*DEL*:00000000H   CODE     ---       bluetooth_ch9141_read_buff
*DEL*:00000000H   CODE     ---       bluetooth_ch9141_send_buff
*DEL*:00000000H   CODE     ---       bluetooth_ch9141_uart_callback
      00FF7005H   CODE     ---       board_init
      00000ABCH   EDATA    ---       busy
*SFR* 000000F1H   DATA     BYTE      CANICR
*DEL*:00000000H   CODE     ---       ccd_collect
      00010001H   XDATA    ---       ccd_data_ch1
      00010101H   XDATA    ---       ccd_data_ch2
*DEL*:00000000H   CODE     ---       ccd_init
*DEL*:00000000H   CODE     ---       ccd_send_data
*SFR* 000000EAH   DATA     BYTE      CKCON
*SFR* 000000E6H   DATA     BYTE      CMPCR1
*SFR* 000000E7H   DATA     BYTE      CMPCR2
*DEL*:00000000H   CODE     ---       CRC_CHECK
*DEL*:00000000H   CODE     ---       ctimer_count_clean
*DEL*:00000000H   CODE     ---       ctimer_count_init
*DEL*:00000000H   CODE     ---       ctimer_count_read
*DEL*:00000000H   CODE     ---       data_conversion
      00FF8014H   CODE     ---       delay_init
      00FF8144H   CODE     ---       delay_ms
*DEL*:00000000H   CODE     ---       delay_us
*DEL*:00000000H   CODE     ---       DisableGlobalIRQ
      00000B64H   EDATA    WORD      dl1a_distance_mm
      00000B66H   EDATA    BYTE      dl1a_finsh_flag
*DEL*:00000000H   CODE     ---       dl1a_get_distance
*DEL*:00000000H   CODE     ---       dl1a_init
      00FF0096H   CODE     ---       dl1b_default_configuration
      00000B37H   EDATA    WORD      dl1b_distance_mm
      00000B39H   EDATA    BYTE      dl1b_finsh_flag
*DEL*:00000000H   CODE     ---       dl1b_get_distance
*DEL*:00000000H   CODE     ---       dl1b_iic_transfer_8bit_array
*DEL*:00000000H   CODE     ---       dl1b_init
      00000B3AH   EDATA    BYTE      dl1b_init_flag
*SFR* 000000A8H.7 DATA     BIT       EA
*SFR* 000000BAH.7 DATA     BIT       EAXFR
*DEL*:00000000H   CODE     ---       eeprom_trig
      00FF008EH   CODE     ---       EnableGlobalIRQ
*SFR* 000000A8H.4 DATA     BIT       ES
*SFR* 000000A8H.1 DATA     BIT       ET0
*SFR* 000000A8H.3 DATA     BIT       ET1
*SFR* 000000A8H.0 DATA     BIT       EX0
*SFR* 000000A8H.2 DATA     BIT       EX1
*DEL*:00000000H   CODE     ---       exit_init
*SFR* 000000D0H.5 DATA     BIT       F0
*DEL*:00000000H   CODE     ---       fifo_clear
L251 LINKER/LOCATER V4.66.93.0                                                        05/03/2024  16:07:18  PAGE 22


*DEL*:00000000H   CODE     ---       fifo_init
*DEL*:00000000H   CODE     ---       fifo_read_buffer
*DEL*:00000000H   CODE     ---       fifo_read_element
*DEL*:00000000H   CODE     ---       fifo_read_tail_buffer
*DEL*:00000000H   CODE     ---       fifo_used
*DEL*:00000000H   CODE     ---       fifo_write_buffer
*DEL*:00000000H   CODE     ---       fifo_write_element
      00FF0026H   CODE     ---       gpio_init
      00FF39A9H   CODE     ---       gpio_mode
*DEL*:00000000H   CODE     ---       gpio_pull_set
*SFR* 000000E8H.1 DATA     BIT       gpio_wheel_x_front_backward
*SFR* 000000E8H.2 DATA     BIT       gpio_wheel_x_front_forward
*SFR* 000000E8H.5 DATA     BIT       gpio_wheel_x_rear_backward
*SFR* 000000E8H.4 DATA     BIT       gpio_wheel_x_rear_forward
*SFR* 00000090H.1 DATA     BIT       gpio_wheel_y_front_backward
*SFR* 00000090H.0 DATA     BIT       gpio_wheel_y_front_forward
*SFR* 00000090H.5 DATA     BIT       gpio_wheel_y_rear_backward
*SFR* 00000090H.6 DATA     BIT       gpio_wheel_y_rear_forward
      0000049DH   EDATA    FLOAT     gyro_x
      000004A1H   EDATA    FLOAT     gyro_y
      000004A5H   EDATA    FLOAT     gyro_z
      00FF53A3H   CODE     ---       host_comm_irqhandler
      00FF6D6BH   CODE     ---       host_comm_sender
      00FF8268H   CODE     ---       host_comm_uart_init
*SFR* 000000F6H   DATA     BYTE      IAP_ADDRE
*SFR* 000000C3H   DATA     BYTE      IAP_ADDRH
*SFR* 000000C4H   DATA     BYTE      IAP_ADDRL
*SFR* 000000C5H   DATA     BYTE      IAP_CMD
*SFR* 000000C7H   DATA     BYTE      IAP_CONTR
*SFR* 000000C2H   DATA     BYTE      IAP_DATA
*DEL*:00000000H   CODE     ---       iap_erase_page
*DEL*:00000000H   CODE     ---       iap_get_cmd_state
*DEL*:00000000H   CODE     ---       iap_idle
*DEL*:00000000H   CODE     ---       iap_init
*DEL*:00000000H   CODE     ---       iap_read_bytes
*DEL*:00000000H   CODE     ---       iap_set_tps
*SFR* 000000F5H   DATA     BYTE      IAP_TPS
*SFR* 000000C6H   DATA     BYTE      IAP_TRIG
*DEL*:00000000H   CODE     ---       iap_write_bytes
*DEL*:00000000H   CODE     ---       icm20602_acc_transition
      00000791H   EDATA    INT       icm20602_acc_x
      00000793H   EDATA    INT       icm20602_acc_y
      00000795H   EDATA    INT       icm20602_acc_z
*DEL*:00000000H   CODE     ---       icm20602_get_acc
*DEL*:00000000H   CODE     ---       icm20602_get_gyro
*DEL*:00000000H   CODE     ---       icm20602_gyro_transition
      00000797H   EDATA    INT       icm20602_gyro_x
      00000799H   EDATA    INT       icm20602_gyro_y
      0000079BH   EDATA    INT       icm20602_gyro_z
*DEL*:00000000H   CODE     ---       icm20602_init
*SFR* 000000A8H   DATA     BYTE      IE
*SFR* 000000AFH   DATA     BYTE      IE2
*DEL*:00000000H   CODE     ---       iic_change_pin
      00FF8179H   CODE     ---       iic_delay_us
*DEL*:00000000H   CODE     ---       iic_init
*DEL*:00000000H   CODE     ---       iic_read_reg
*DEL*:00000000H   CODE     ---       iic_read_reg_bytes
*DEL*:00000000H   CODE     ---       iic_write_reg
*DEL*:00000000H   CODE     ---       imu660ra_acc_transition
      0000079DH   EDATA    INT       imu660ra_acc_x
      0000079FH   EDATA    INT       imu660ra_acc_y
      000007A1H   EDATA    INT       imu660ra_acc_z
      00FF011DH   CODE     ---       imu660ra_config_file
*DEL*:00000000H   CODE     ---       imu660ra_get_acc
*DEL*:00000000H   CODE     ---       imu660ra_get_gyro
L251 LINKER/LOCATER V4.66.93.0                                                        05/03/2024  16:07:18  PAGE 23


*DEL*:00000000H   CODE     ---       imu660ra_gyro_transition
      000007A3H   EDATA    INT       imu660ra_gyro_x
      000007A5H   EDATA    INT       imu660ra_gyro_y
      000007A7H   EDATA    INT       imu660ra_gyro_z
*DEL*:00000000H   CODE     ---       imu660ra_init
*DEL*:00000000H   CODE     ---       imu963ra_acc_transition
      00000690H   EDATA    INT       imu963ra_acc_x
      00000692H   EDATA    INT       imu963ra_acc_y
      00000694H   EDATA    INT       imu963ra_acc_z
*DEL*:00000000H   CODE     ---       imu963ra_get_acc
*DEL*:00000000H   CODE     ---       imu963ra_get_gyro
*DEL*:00000000H   CODE     ---       imu963ra_get_mag
*DEL*:00000000H   CODE     ---       imu963ra_gyro_transition
      0000069CH   EDATA    INT       imu963ra_gyro_x
      0000069EH   EDATA    INT       imu963ra_gyro_y
      000006A0H   EDATA    INT       imu963ra_gyro_z
*DEL*:00000000H   CODE     ---       imu963ra_init
*DEL*:00000000H   CODE     ---       imu963ra_mag_transition
      00000696H   EDATA    INT       imu963ra_mag_x
      00000698H   EDATA    INT       imu963ra_mag_y
      0000069AH   EDATA    INT       imu963ra_mag_z
*SFR* 0000008FH   DATA     BYTE      INTCLKO
*SFR* 000000B8H   DATA     BYTE      IP
*SFR* 000000B5H   DATA     BYTE      IP2
*SFR* 000000B6H   DATA     BYTE      IP2H
*SFR* 000000DFH   DATA     BYTE      IP3
*SFR* 000000EEH   DATA     BYTE      IP3H
*SFR* 000000B7H   DATA     BYTE      IPH
*DEL*:00000000H   CODE     ---       ips114_clear
*DEL*:00000000H   CODE     ---       ips114_clear_simspi
*DEL*:00000000H   CODE     ---       ips114_drawpoint
*DEL*:00000000H   CODE     ---       ips114_drawpoint_simspi
*DEL*:00000000H   CODE     ---       ips114_init
*DEL*:00000000H   CODE     ---       ips114_init_simspi
*DEL*:00000000H   CODE     ---       ips114_set_region
*DEL*:00000000H   CODE     ---       ips114_set_region_simspi
*DEL*:00000000H   CODE     ---       ips114_showchar
*DEL*:00000000H   CODE     ---       ips114_showchar_simspi
*DEL*:00000000H   CODE     ---       ips114_showfloat
*DEL*:00000000H   CODE     ---       ips114_showfloat_simspi
*DEL*:00000000H   CODE     ---       ips114_showint16
*DEL*:00000000H   CODE     ---       ips114_showint16_simspi
*DEL*:00000000H   CODE     ---       ips114_showint32
*DEL*:00000000H   CODE     ---       ips114_showint32_simspi
*DEL*:00000000H   CODE     ---       ips114_showint8
*DEL*:00000000H   CODE     ---       ips114_showint8_simspi
*DEL*:00000000H   CODE     ---       ips114_showstr
*DEL*:00000000H   CODE     ---       ips114_showstr_simspi
*DEL*:00000000H   CODE     ---       ips114_showuint16
*DEL*:00000000H   CODE     ---       ips114_showuint16_simspi
*DEL*:00000000H   CODE     ---       ips114_showuint8
*DEL*:00000000H   CODE     ---       ips114_showuint8_simspi
*DEL*:00000000H   CODE     ---       ips114_writeData
      00FF823CH   CODE     ---       ips114_writedata_16bit
*DEL*:00000000H   CODE     ---       ips114_writeData_simspi
      00FF7B3BH   CODE     ---       ips114_writeDatai_16bit_simspi
      00FF85F4H   CODE     ---       ips114_writeIndex
      00FF7EA3H   CODE     ---       ips114_writeIndex_simspi
*SFR* 0000009DH   DATA     BYTE      IRCBAND
*SFR* 0000009FH   DATA     BYTE      IRTRIM
*DEL*:00000000H   CODE     ---       ISSPACE?_
*SFR* 00000088H.0 DATA     BIT       IT0
*SFR* 00000088H.2 DATA     BIT       IT1
*SFR* 000000C0H.1 DATA     BIT       key1
      00FF7C88H   CODE     ---       key1_check
L251 LINKER/LOCATER V4.66.93.0                                                        05/03/2024  16:07:18  PAGE 24


      00FF868DH   CODE     ---       key1_short_press
      00000AFDH   EDATA    BYTE      key1_up_store
*SFR* 000000F8H.3 DATA     BIT       key2
      00FF7B8FH   CODE     ---       key2_check
      00FF6708H   CODE     ---       key2_short_press
      00000AFEH   EDATA    BYTE      key2_up_store
*SFR* 000000C0H.3 DATA     BIT       key3
      00FF7BE2H   CODE     ---       key3_check
      00FF660CH   CODE     ---       key3_short_press
      00000AFFH   EDATA    BYTE      key3_up_store
*SFR* 000000C0H.2 DATA     BIT       key4
      00FF7C35H   CODE     ---       key4_check
      00FF8697H   CODE     ---       key4_short_press
      00000B00H   EDATA    BYTE      key4_up_store
*SFR* 000000C0H.4 DATA     BIT       key5
      00FF7CD9H   CODE     ---       key5_check
*DEL*:00000000H   CODE     ---       key5_short_press
      00000B01H   EDATA    BYTE      key5_up_store
*DEL*:00000000H   CODE     ---       keys_ui_init
      00FF8421H   CODE     ---       laser_ranging
      000002F1H   EDATA    ---       laser_ranging_cmd_arr_continous
      000002E2H   EDATA    ---       laser_ranging_cmd_arr_laseroff
      00000336H   EDATA    ---       laser_ranging_cmd_arr_laseron
      000002ADH   EDATA    ---       laser_ranging_cmd_arr_readcache
      000002C9H   EDATA    ---       laser_ranging_cmd_arr_setfreq_10hz
      000002CEH   EDATA    ---       laser_ranging_cmd_arr_setfreq_20hz
      00000304H   EDATA    ---       laser_ranging_cmd_arr_setfreq_5hz
      00000294H   EDATA    ---       laser_ranging_cmd_arr_setrange_10m
      00000299H   EDATA    ---       laser_ranging_cmd_arr_setrange_30m
      0000029EH   EDATA    ---       laser_ranging_cmd_arr_setrange_50m
      000002ECH   EDATA    ---       laser_ranging_cmd_arr_setrange_5m
      000002A8H   EDATA    ---       laser_ranging_cmd_arr_setrange_80m
      000002D3H   EDATA    ---       laser_ranging_cmd_arr_setresolution_0_1mm
      000002B6H   EDATA    ---       laser_ranging_cmd_arr_setresolution_1mm
      00000273H   EDATA    ---       laser_ranging_cmd_arr_shutdown
      00000281H   EDATA    ---       laser_ranging_cmd_arr_single
      000002C5H   EDATA    ---       laser_ranging_cmd_arr_single_broadcast
      00FF85B4H   CODE     ---       laser_ranging_get_uart_value
      00FF6CBBH   CODE     ---       laser_ranging_init
*DEL*:00000000H   CODE     ---       laser_ranging_irqhandler
*DEL*:00000000H   CODE     ---       lcd_clear
*DEL*:00000000H   CODE     ---       lcd_clear_simspi
*DEL*:00000000H   CODE     ---       lcd_drawpoint
*DEL*:00000000H   CODE     ---       lcd_drawpoint_simspi
*DEL*:00000000H   CODE     ---       lcd_init
*DEL*:00000000H   CODE     ---       lcd_init_simspi
      00FF76AEH   CODE     ---       lcd_set_region
      00FF764AH   CODE     ---       lcd_set_region_simspi
*DEL*:00000000H   CODE     ---       lcd_showchar
*DEL*:00000000H   CODE     ---       lcd_showchar_simspi
*DEL*:00000000H   CODE     ---       lcd_showfloat
*DEL*:00000000H   CODE     ---       lcd_showfloat_simspi
*DEL*:00000000H   CODE     ---       lcd_showint16
*DEL*:00000000H   CODE     ---       lcd_showint16_simspi
*DEL*:00000000H   CODE     ---       lcd_showint32
*DEL*:00000000H   CODE     ---       lcd_showint32_simspi
*DEL*:00000000H   CODE     ---       lcd_showint8
*DEL*:00000000H   CODE     ---       lcd_showint8_simspi
*DEL*:00000000H   CODE     ---       lcd_showstr
*DEL*:00000000H   CODE     ---       lcd_showstr_simspi
*DEL*:00000000H   CODE     ---       lcd_showuint16
*DEL*:00000000H   CODE     ---       lcd_showuint16_simspi
*DEL*:00000000H   CODE     ---       lcd_showuint8
*DEL*:00000000H   CODE     ---       lcd_showuint8_simspi
      00FF85DFH   CODE     ---       lcd_writeData
L251 LINKER/LOCATER V4.66.93.0                                                        05/03/2024  16:07:18  PAGE 25


      00FF8210H   CODE     ---       lcd_writedata_16bit
      00FF7AE7H   CODE     ---       lcd_writeData_16bit_simspi
      00FF7E0DH   CODE     ---       lcd_writeData_simspi
      00FF85CAH   CODE     ---       lcd_writeIndex
      00FF7DC2H   CODE     ---       lcd_writeIndex_simspi
*SFR* 000000C0H.5 DATA     BIT       led_1
*SFR* 000000F8H.7 DATA     BIT       led_2
*SFR* 000000F8H.6 DATA     BIT       led_3
*SFR* 000000F8H.5 DATA     BIT       led_4
*SFR* 000000F9H   DATA     BYTE      LINICR
      000002E7H   EDATA    ---       lrcmd_continous
      000002D8H   EDATA    ---       lrcmd_laseroff
      000002FAH   EDATA    ---       lrcmd_laseron
      0000028AH   EDATA    ---       lrcmd_readcache
      000002B1H   EDATA    ---       lrcmd_setfreq_10hz
      000002BBH   EDATA    ---       lrcmd_setfreq_20hz
      000002F5H   EDATA    ---       lrcmd_setfreq_5hz
      0000026EH   EDATA    ---       lrcmd_setrange_10m
      00000277H   EDATA    ---       lrcmd_setrange_30m
      0000027CH   EDATA    ---       lrcmd_setrange_50m
      000002DDH   EDATA    ---       lrcmd_setrange_5m
      00000285H   EDATA    ---       lrcmd_setrange_80m
      000002C0H   EDATA    ---       lrcmd_setresolution_0_1mm
      0000028FH   EDATA    ---       lrcmd_setresolution_1mm
      000002FFH   EDATA    ---       lrcmd_shutdown
      00000331H   EDATA    ---       lrcmd_single
      000002A3H   EDATA    ---       lrcmd_single_broadcast
      00000309H   EDATA    ---       lrdata
      00FF7D76H   CODE     ---       main
      00FF83FCH   CODE     ---       memcpy?_
      00FF8523H   CODE     ---       memset?_
      00FF798DH   CODE     ---       motor_drivers_pwm_init
      000007C1H   EDATA    INT       mpu6050_acc_x
      000007C3H   EDATA    INT       mpu6050_acc_y
      000007C5H   EDATA    INT       mpu6050_acc_z
*DEL*:00000000H   CODE     ---       mpu6050_get_accdata
*DEL*:00000000H   CODE     ---       mpu6050_get_gyro
      000007C7H   EDATA    INT       mpu6050_gyro_x
      000007C9H   EDATA    INT       mpu6050_gyro_y
      000007CBH   EDATA    INT       mpu6050_gyro_z
*DEL*:00000000H   CODE     ---       mpu6050_init
*DEL*:00000000H   CODE     ---       mpu6050_simiic_read_reg
*DEL*:00000000H   CODE     ---       mpu6050_simiic_read_regs
      00FF62D8H   CODE     ---       number_conversion_ascii
*DEL*:00000000H   CODE     ---       NVIC_SetPriority
      00FF2CFDH   CODE     ---       oled_6x8
      00FF211DH   CODE     ---       oled_8x16
*DEL*:00000000H   CODE     ---       oled_clrpixel
*DEL*:00000000H   CODE     ---       oled_clrpixel_spi
*DEL*:00000000H   CODE     ---       oled_dis_bmp
*DEL*:00000000H   CODE     ---       oled_dis_bmp_spi
*DEL*:00000000H   CODE     ---       oled_fill
      00FF7775H   CODE     ---       oled_fill_spi
*DEL*:00000000H   CODE     ---       oled_hexascii
*DEL*:00000000H   CODE     ---       oled_hexascii_spi
*DEL*:00000000H   CODE     ---       oled_init
      00FF6B37H   CODE     ---       oled_init_spi
*DEL*:00000000H   CODE     ---       oled_int16
*DEL*:00000000H   CODE     ---       oled_int16_spi
*DEL*:00000000H   CODE     ---       oled_p6x8str
      00FF68C9H   CODE     ---       oled_p6x8str_spi
*DEL*:00000000H   CODE     ---       oled_p8x16str
*DEL*:00000000H   CODE     ---       oled_p8x16str_spi
*DEL*:00000000H   CODE     ---       oled_print_chinese
*DEL*:00000000H   CODE     ---       oled_print_chinese_spi
L251 LINKER/LOCATER V4.66.93.0                                                        05/03/2024  16:07:18  PAGE 26


*DEL*:00000000H   CODE     ---       oled_printf_float
      00FF607BH   CODE     ---       oled_printf_float_spi
*DEL*:00000000H   CODE     ---       oled_printf_int32
      00FF6A69H   CODE     ---       oled_printf_int32_spi
*DEL*:00000000H   CODE     ---       oled_putpixel
*DEL*:00000000H   CODE     ---       oled_putpixel_spi
      00FF81AEH   CODE     ---       oled_set_pos
      00FF810EH   CODE     ---       oled_set_pos_spi
*DEL*:00000000H   CODE     ---       oled_uint16
*DEL*:00000000H   CODE     ---       oled_uint16_spi
      00FF7EEEH   CODE     ---       oled_wrcmd
      00FF8609H   CODE     ---       oled_wrcmd_spi
      00FF7F39H   CODE     ---       oled_wrdat
      00FF861EH   CODE     ---       oled_wrdat_spi
*SFR* 00000080H   DATA     BYTE      P0
*SFR* 00000080H.7 DATA     BIT       P07
*SFR* 00000094H   DATA     BYTE      P0M0
*SFR* 00000093H   DATA     BYTE      P0M1
*SFR* 00000090H   DATA     BYTE      P1
*SFR* 00000092H   DATA     BYTE      P1M0
*SFR* 00000091H   DATA     BYTE      P1M1
*SFR* 000000A0H   DATA     BYTE      P2
*SFR* 000000A0H.0 DATA     BIT       P20
*SFR* 000000A0H.1 DATA     BIT       P21
*SFR* 000000A0H.2 DATA     BIT       P22
*SFR* 000000A0H.3 DATA     BIT       P23
*SFR* 000000A0H.5 DATA     BIT       P25
*SFR* 000000A0H.7 DATA     BIT       P27
*SFR* 00000096H   DATA     BYTE      P2M0
*SFR* 00000095H   DATA     BYTE      P2M1
*SFR* 000000B0H   DATA     BYTE      P3
*SFR* 000000B0H.6 DATA     BIT       P36
*SFR* 000000B0H.7 DATA     BIT       P37
*SFR* 000000B2H   DATA     BYTE      P3M0
*SFR* 000000B1H   DATA     BYTE      P3M1
*SFR* 000000C0H   DATA     BYTE      P4
*SFR* 000000C0H.0 DATA     BIT       P40
*SFR* 000000C0H.1 DATA     BIT       P41
*SFR* 000000C0H.2 DATA     BIT       P42
*SFR* 000000C0H.3 DATA     BIT       P43
*SFR* 000000C0H.7 DATA     BIT       P47
*SFR* 000000B4H   DATA     BYTE      P4M0
*SFR* 000000B3H   DATA     BYTE      P4M1
*SFR* 000000C8H   DATA     BYTE      P5
*SFR* 000000CAH   DATA     BYTE      P5M0
*SFR* 000000C9H   DATA     BYTE      P5M1
*SFR* 000000E8H   DATA     BYTE      P6
*SFR* 000000E8H.3 DATA     BIT       P63
*SFR* 000000E8H.5 DATA     BIT       P65
*SFR* 000000CCH   DATA     BYTE      P6M0
*SFR* 000000CBH   DATA     BYTE      P6M1
*SFR* 000000F8H   DATA     BYTE      P7
*SFR* 000000E2H   DATA     BYTE      P7M0
*SFR* 000000E1H   DATA     BYTE      P7M1
*SFR* 000000A2H   DATA     BYTE      P_SW1
*SFR* 000000BAH   DATA     BYTE      P_SW2
*SFR* 000000BBH   DATA     BYTE      P_SW3
*SFR* 00000087H   DATA     BYTE      PCON
*DEL*:00000000H   CODE     ---       pit_timer_ms
      00FF31C4H   CODE     NEAR LAB  printf
      00FF71CAH   CODE     ---       printf_reverse_order
*SFR* 000000D0H   DATA     BYTE      PSW
      00FF8659H   CODE     ---       putchar
      00FF89D4H   HCONST   ---       PWM_ARR_ADDR
      00FF89DCH   HCONST   ---       PWM_CCER_ADDR
L251 LINKER/LOCATER V4.66.93.0                                                        05/03/2024  16:07:18  PAGE 27


      00FF89ECH   HCONST   ---       PWM_CCMR_ADDR
      00FF89B4H   HCONST   ---       PWM_CCR_ADDR
      00FF61C0H   CODE     ---       pwm_duty
*DEL*:00000000H   CODE     ---       pwm_freq
      00FF4917H   CODE     ---       pwm_init
      00FF4CF1H   CODE     ---       pwm_set_gpio
      000001FCH   EDATA    ---       qmc5883_char_magx
      00000208H   EDATA    ---       qmc5883_char_magy
      00000214H   EDATA    ---       qmc5883_char_magz
      00000222H   EDATA    ---       qmc5883_char_yaw
      0000022CH   EDATA    ---       qmc5883_cmd_buf
      00000197H   EDATA    ---       qmc5883_data
*DEL*:00000000H   CODE     ---       qmc5883_data_parse
*DEL*:00000000H   CODE     ---       qmc5883_irqhandler
      000001FAH   EDATA    INT       qmc5883_magx
      00000206H   EDATA    INT       qmc5883_magy
      00000212H   EDATA    INT       qmc5883_magz
      0000021EH   EDATA    FLOAT     qmc5883_yaw
      00000261H   EDATA    ---       qmccmd_check_connection
      0000024CH   EDATA    ---       qmccmd_clear_mag_offset
      000001D7H   EDATA    ---       qmccmd_disable_filter
      000001E1H   EDATA    ---       qmccmd_get_device_id
      0000017CH   EDATA    ---       qmccmd_init_sensor
      000001F3H   EDATA    ---       qmccmd_set_device_id
      00000184H   EDATA    ---       qmccmd_set_filter_value
      00000172H   EDATA    ---       qmccmd_set_measure_rate
      00000256H   EDATA    ---       qmccmd_set_single_measure_mode
      0000015EH   EDATA    ---       qmccmd_set_uart_baudrate_115200
      00000168H   EDATA    ---       qmccmd_set_uart_baudrate_460800
      000001E9H   EDATA    ---       qmccmd_set_uart_baudrate_9600
      00000264H   EDATA    ---       qmccmd_start_calibration
      0000018DH   EDATA    ---       qmccmd_stop_calibration
*DEL*:00000000H   CODE     ---       recv_ack
*DEL*:00000000H   CODE     ---       recv_data
*SFR* 00000098H.0 DATA     BIT       RI
*SFR* 000000FFH   DATA     BYTE      RSTCFG
*SFR* 0000009BH   DATA     BYTE      S2BUF
*SFR* 0000009AH   DATA     BYTE      S2CON
*SFR* 000000ADH   DATA     BYTE      S3BUF
*SFR* 000000ACH   DATA     BYTE      S3CON
*SFR* 000000FEH   DATA     BYTE      S4BUF
*SFR* 000000FDH   DATA     BYTE      S4CON
*SFR* 00000099H   DATA     BYTE      SBUF
*SFR* 00000098H   DATA     BYTE      SCON
*DEL*:00000000H   CODE     ---       seekfree_assistant_camera_boundary_config
*DEL*:00000000H   CODE     ---       seekfree_assistant_camera_data_send
*DEL*:00000000H   CODE     ---       seekfree_assistant_camera_dot_send
*DEL*:00000000H   CODE     ---       seekfree_assistant_camera_information_config
*DEL*:00000000H   CODE     ---       seekfree_assistant_camera_send
*DEL*:00000000H   CODE     ---       seekfree_assistant_data_analysis
*DEL*:00000000H   CODE     ---       seekfree_assistant_init
      00010201H   XDATA    ---       seekfree_assistant_oscilloscope_data
*DEL*:00000000H   CODE     ---       seekfree_assistant_oscilloscope_send
      00010244H   XDATA    ---       seekfree_assistant_parameter
      0001023CH   XDATA    ---       seekfree_assistant_parameter_update_flag
      00000B43H   EDATA    ---       seekfree_assistant_receive
      00000B45H   EDATA    ---       seekfree_assistant_transfer
*DEL*:00000000H   CODE     ---       send_ack
*DEL*:00000000H   CODE     ---       send_data
*DEL*:00000000H   CODE     ---       send_nak
      00000022H.4 BIT      BIT       senderr
      00000022H.0 BIT      BIT       sendok
      00000022H.2 BIT      BIT       sendwheelok
      00000022H.3 BIT      BIT       sendwheelwarnexceed
      00000022H.1 BIT      BIT       sendwrongcmd
L251 LINKER/LOCATER V4.66.93.0                                                        05/03/2024  16:07:18  PAGE 28


      00FF79E4H   CODE     ---       servo_claw_get_duty
      00FF8556H   CODE     ---       servo_claw_set_angle
      00FF80D4H   CODE     ---       servo_init
*DEL*:00000000H   CODE     ---       servo_pan_get_duty
      00FF856FH   CODE     ---       servo_pan_set_angle
      00FF7A3BH   CODE     ---       servo_pitch_get_duty
      00FF853DH   CODE     ---       servo_pitch_set_angle
      00FF5B90H   CODE     ---       set_clk
*DEL*:00000000H   CODE     ---       showimage
*SFR* 000000CEH   DATA     BYTE      SPCTL
*SFR* 000000CFH   DATA     BYTE      SPDAT
*DEL*:00000000H   CODE     ---       spi_change_mode
*DEL*:00000000H   CODE     ---       spi_change_pin
      00FF699BH   CODE     ---       spi_init
      00FF866BH   CODE     ---       spi_mosi
*SFR* 000000CDH   DATA     BYTE      SPSTAT
*DEL*:00000000H   CODE     ---       start
*DEL*:00000000H   CODE     ---       stepper_pwm_init
*DEL*:00000000H   CODE     ---       stop
      00000B07H   EDATA    LONG      sys_clk
*SFR* 000000D6H   DATA     BYTE      T2H
*SFR* 000000D7H   DATA     BYTE      T2L
*SFR* 000000D4H   DATA     BYTE      T3H
*SFR* 000000D5H   DATA     BYTE      T3L
*SFR* 000000D2H   DATA     BYTE      T4H
*SFR* 000000D3H   DATA     BYTE      T4L
*SFR* 000000DDH   DATA     BYTE      T4T3M
*SFR* 00000088H   DATA     BYTE      TCON
      000004B3H   EDATA    FLOAT     temperature
      00FF270DH   CODE     ---       tft_ascii
*SFR* 0000008CH   DATA     BYTE      TH0
*SFR* 0000008DH   DATA     BYTE      TH1
*SFR* 00000098H.1 DATA     BIT       TI
*SFR* 0000008AH   DATA     BYTE      TL0
*SFR* 0000008BH   DATA     BYTE      TL1
*SFR* 00000089H   DATA     BYTE      TMOD
*SFR* 00000088H.4 DATA     BIT       TR0
*SFR* 00000088H.6 DATA     BIT       TR1
      00010000H   XDATA    BYTE      tsl1401_finish_flag
      00000020H.4 BIT      BIT       uart1_cr
      00FF67F0H   CODE     ---       uart1_isr
      00000020H.0 BIT      BIT       uart1_lf
      00000056H   EDATA    ---       uart1_rx_buffer
      00000156H   EDATA    BYTE      uart1_rx_counter
      00000021H.4 BIT      BIT       uart1_rx_rdy
      00000026H   EDATA    ---       uart1_tx_buffer_from_uart2
      00000023H   EDATA    BYTE      uart1_tx_buffer_from_uart2_index
      00000036H   EDATA    ---       uart1_tx_buffer_from_uart3
      00000024H   EDATA    BYTE      uart1_tx_buffer_from_uart3_index
      00000046H   EDATA    ---       uart1_tx_buffer_from_uart4
      00000025H   EDATA    BYTE      uart1_tx_buffer_from_uart4_index
      00000021H.0 BIT      BIT       uart1_tx_busy
      00000159H   EDATA    BYTE      uart1_tx_counter
      00000020H.5 BIT      BIT       uart2_cr
      00FF709CH   CODE     ---       uart2_isr
      00000020H.1 BIT      BIT       uart2_lf
      00000096H   EDATA    ---       uart2_rx_buffer
      00000157H   EDATA    BYTE      uart2_rx_counter
      00000021H.5 BIT      BIT       uart2_rx_rdy
      00000021H.1 BIT      BIT       uart2_tx_busy
      0000015BH   EDATA    BYTE      uart2_tx_counter
      00000020H.6 BIT      BIT       uart3_cr
      00FF7133H   CODE     ---       uart3_isr
      00000020H.2 BIT      BIT       uart3_lf
      000000D6H   EDATA    ---       uart3_rx_buffer
L251 LINKER/LOCATER V4.66.93.0                                                        05/03/2024  16:07:18  PAGE 29


      00000158H   EDATA    BYTE      uart3_rx_counter
      00000021H.6 BIT      BIT       uart3_rx_rdy
      00000021H.2 BIT      BIT       uart3_tx_busy
      0000015CH   EDATA    BYTE      uart3_tx_counter
      00000020H.7 BIT      BIT       uart4_cr
      00FF6EC2H   CODE     ---       uart4_isr
      00000020H.3 BIT      BIT       uart4_lf
      00000116H   EDATA    ---       uart4_rx_buffer
      0000015AH   EDATA    BYTE      uart4_rx_counter
      00000021H.7 BIT      BIT       uart4_rx_rdy
      00000021H.3 BIT      BIT       uart4_tx_busy
      0000015DH   EDATA    BYTE      uart4_tx_counter
      00FF5697H   CODE     ---       uart_init
*DEL*:00000000H   CODE     ---       uart_initialize
*DEL*:00000000H   CODE     ---       uart_port_init
*DEL*:00000000H   CODE     ---       uart_putbuff
      00FF735FH   CODE     ---       uart_putchar
*DEL*:00000000H   CODE     ---       uart_putstr
*DEL*:00000000H   CODE     ---       uart_running
      00FF7D29H   CODE     ---       uart_sendbyte
      00FF6505H   CODE     ---       uart_sendcmd
      00FF6BFCH   CODE     ---       uart_sendstring
      00FF83AFH   CODE     ---       uart_tx_send_buffer
      00FF8055H   CODE     ---       ui_init
      00FF867DH   CODE     ---       ui_keys_init
      00000BE8H   EDATA    BYTE      ui_loading_index
*DEL*:00000000H   CODE     ---       ui_running
*SFR* 000000F4H   DATA     BYTE      USBCON
      0000084BH   EDATA    ---       virtual_scope_data
*SFR* 000000A6H   DATA     BYTE      VRTRIM
      00FF78DFH   CODE     ---       wait
*SFR* 000000C1H   DATA     BYTE      WDT_CONTR
      00FF5F1DH   CODE     ---       wheel_adjust
      00FF5949H   CODE     ---       wheel_direction
      00FF8294H   CODE     ---       wheel_dynamic_adjusting
*DEL*:00000000H   CODE     ---       wheel_dynamic_calibrating
      00FF8095H   CODE     ---       wheel_oled_init
      00FF7A92H   CODE     ---       wheel_oled_update
*DEL*:00000000H   CODE     ---       wheel_speed
      00FF63EFH   CODE     ---       wheel_speed_parser
      000007CDH   EDATA    FLOAT     wheel_target_yaw
      000007D3H   EDATA    INT       wheel_x_front_speed
      000007D1H   EDATA    INT       wheel_x_rear_speed
      000007D7H   EDATA    INT       wheel_y_front_speed
      000007D5H   EDATA    INT       wheel_y_rear_speed
*DEL*:00000000H   CODE     ---       wheel_yaw_calibrating
      00000022H.5 BIT      BIT       wheel_yaw_calibrating_flag
*DEL*:00000000H   CODE     ---       wireless_ch573_callback
*DEL*:00000000H   CODE     ---       wireless_ch573_init
*DEL*:00000000H   CODE     ---       wireless_ch573_read_buff
*DEL*:00000000H   CODE     ---       wireless_ch573_send_buff
      00000B7FH   EDATA    INT       wireless_type
*DEL*:00000000H   CODE     ---       wireless_uart_callback
*DEL*:00000000H   CODE     ---       wireless_uart_init
*DEL*:00000000H   CODE     ---       wireless_uart_read_buff
*DEL*:00000000H   CODE     ---       wireless_uart_send_buff
      00000481H   EDATA    ---       wt61_cmd_calibrate_acc
      000004B0H   EDATA    ---       wt61_cmd_set_axis_z_zero
      00000494H   EDATA    ---       wt61_cmd_set_band_10Hz
      000004C6H   EDATA    ---       wt61_cmd_set_band_188Hz
      00000497H   EDATA    ---       wt61_cmd_set_band_20Hz
      000004C3H   EDATA    ---       wt61_cmd_set_band_265Hz
      0000049AH   EDATA    ---       wt61_cmd_set_band_42Hz
      000004CFH   EDATA    ---       wt61_cmd_set_band_5Hz
      000004A9H   EDATA    ---       wt61_cmd_set_band_98Hz
L251 LINKER/LOCATER V4.66.93.0                                                        05/03/2024  16:07:18  PAGE 30


      000004C0H   EDATA    ---       wt61_cmd_set_horizontal
      000004B7H   EDATA    ---       wt61_cmd_set_iic_mode
      000004BDH   EDATA    ---       wt61_cmd_set_uart_115200
      000004CCH   EDATA    ---       wt61_cmd_set_uart_9600
      000004BAH   EDATA    ---       wt61_cmd_set_uart_mode
      000004C9H   EDATA    ---       wt61_cmd_set_vertical
      000004D2H   EDATA    ---       wt61_cmd_switch_power
      00FF50A9H   CODE     ---       wt61_data_parse
*DEL*:00000000H   CODE     ---       wt61_init
*DEL*:00000000H   CODE     ---       wt61_oled_disp
      00000022H.6 BIT      BIT       wt61_oled_disp_flag
*DEL*:00000000H   CODE     ---       wt61_oled_init
*SFR* 000000E9H   DATA     BYTE      WTST
      00000490H   EDATA    FLOAT     x_roll
      000004D5H   EDATA    FLOAT     y_pitch
      000004ACH   EDATA    FLOAT     z_yaw
      00000B0FH   EDATA    WORD      zf_delay_ms
      00000B11H   EDATA    WORD      zf_delay_us
      00FF42B6H   CODE     ---       zf_sprintf



SYMBOL TABLE OF MODULE:  .\Out_File\SEEKFREE (board)

      VALUE       REP       CLASS    TYPE      SYMBOL NAME
      ====================================================
      ---         MODULE    ---      ---       board
      00FF008EH   PUBLIC    CODE     ---       EnableGlobalIRQ
      00FF7005H   PUBLIC    CODE     ---       board_init
      00FF5B90H   PUBLIC    CODE     ---       set_clk
      00FF8659H   PUBLIC    CODE     ---       putchar
      00000B07H   PUBLIC    EDATA    LONG      sys_clk
      00000094H   SFRSYM    DATA     BYTE      P0M0
      000000D0H   SFRSYM    DATA     BYTE      PSW
      000000BAH.7 SFRSYM    DATA     BIT       EAXFR
      0000009DH   SFRSYM    DATA     BYTE      IRCBAND
      00000097H   SFRSYM    DATA     BYTE      AUXR2
      000000EAH   SFRSYM    DATA     BYTE      CKCON
      000000EFH   SFRSYM    DATA     BYTE      AUXINTIF
      000000FDH   SFRSYM    DATA     BYTE      S4CON
      000000ACH   SFRSYM    DATA     BYTE      S3CON
      0000009AH   SFRSYM    DATA     BYTE      S2CON
      000000A6H   SFRSYM    DATA     BYTE      VRTRIM
      000000B7H   SFRSYM    DATA     BYTE      IPH
      000000CDH   SFRSYM    DATA     BYTE      SPSTAT
      000000DDH   SFRSYM    DATA     BYTE      T4T3M
      0000009FH   SFRSYM    DATA     BYTE      IRTRIM
      000000C1H   SFRSYM    DATA     BYTE      WDT_CONTR
      000000E9H   SFRSYM    DATA     BYTE      WTST
      000000DFH   SFRSYM    DATA     BYTE      IP3
      000000F4H   SFRSYM    DATA     BYTE      USBCON
      000000B5H   SFRSYM    DATA     BYTE      IP2
      000000FFH   SFRSYM    DATA     BYTE      RSTCFG
      000000F9H   SFRSYM    DATA     BYTE      LINICR
      0000008EH   SFRSYM    DATA     BYTE      AUXR
      000000AFH   SFRSYM    DATA     BYTE      IE2
      00000088H   SFRSYM    DATA     BYTE      TCON
      00000089H   SFRSYM    DATA     BYTE      TMOD
      00000098H   SFRSYM    DATA     BYTE      SCON
      000000F1H   SFRSYM    DATA     BYTE      CANICR
      00000087H   SFRSYM    DATA     BYTE      PCON
      000000BCH   SFRSYM    DATA     BYTE      ADC_CONTR
      000000E7H   SFRSYM    DATA     BYTE      CMPCR2
      000000E6H   SFRSYM    DATA     BYTE      CMPCR1
      000000DEH   SFRSYM    DATA     BYTE      ADCCFG
L251 LINKER/LOCATER V4.66.93.0                                                        05/03/2024  16:07:18  PAGE 31


      000000B8H   SFRSYM    DATA     BYTE      IP
      0000008FH   SFRSYM    DATA     BYTE      INTCLKO
      000000EEH   SFRSYM    DATA     BYTE      IP3H
      000000B6H   SFRSYM    DATA     BYTE      IP2H
      000000A8H   SFRSYM    DATA     BYTE      IE
      000000BBH   SFRSYM    DATA     BYTE      P_SW3
      000000BAH   SFRSYM    DATA     BYTE      P_SW2
      000000A2H   SFRSYM    DATA     BYTE      P_SW1
      000000CEH   SFRSYM    DATA     BYTE      SPCTL
      000000F8H   SFRSYM    DATA     BYTE      P7
      000000A8H.7 SFRSYM    DATA     BIT       EA
      000000E1H   SFRSYM    DATA     BYTE      P7M1
      000000E8H   SFRSYM    DATA     BYTE      P6
      000000C8H   SFRSYM    DATA     BYTE      P5
      000000CBH   SFRSYM    DATA     BYTE      P6M1
      000000E2H   SFRSYM    DATA     BYTE      P7M0
      000000C0H   SFRSYM    DATA     BYTE      P4
      000000C9H   SFRSYM    DATA     BYTE      P5M1
      000000CCH   SFRSYM    DATA     BYTE      P6M0
      000000B0H   SFRSYM    DATA     BYTE      P3
      000000B3H   SFRSYM    DATA     BYTE      P4M1
      000000CAH   SFRSYM    DATA     BYTE      P5M0
      000000A0H   SFRSYM    DATA     BYTE      P2
      000000B1H   SFRSYM    DATA     BYTE      P3M1
      000000B4H   SFRSYM    DATA     BYTE      P4M0
      00000090H   SFRSYM    DATA     BYTE      P1
      00000095H   SFRSYM    DATA     BYTE      P2M1
      000000B2H   SFRSYM    DATA     BYTE      P3M0
      00000080H   SFRSYM    DATA     BYTE      P0
      00000091H   SFRSYM    DATA     BYTE      P1M1
      00000096H   SFRSYM    DATA     BYTE      P2M0
      00000092H   SFRSYM    DATA     BYTE      P1M0
      00000093H   SFRSYM    DATA     BYTE      P0M1

      00FF5B90H   BLOCK     CODE     ---       LVL=0
      00FF5B90H   LINE      CODE     ---       #43
      00FF5B90H   LINE      CODE     ---       #46
      00FF5B93H   LINE      CODE     ---       #48
      00FF5BA3H   LINE      CODE     ---       #51
      00FF5BB0H   LINE      CODE     ---       #52
      00FF5BBDH   LINE      CODE     ---       #53
      00FF5BCAH   LINE      CODE     ---       #54
      00FF5BCEH   LINE      CODE     ---       #55
      00FF5BDAH   LINE      CODE     ---       #56
      00FF5BDDH   LINE      CODE     ---       #57
      00FF5BEDH   LINE      CODE     ---       #60
      00FF5BFAH   LINE      CODE     ---       #61
      00FF5C07H   LINE      CODE     ---       #62
      00FF5C14H   LINE      CODE     ---       #63
      00FF5C18H   LINE      CODE     ---       #64
      00FF5C24H   LINE      CODE     ---       #65
      00FF5C27H   LINE      CODE     ---       #66
      00FF5C37H   LINE      CODE     ---       #69
      00FF5C44H   LINE      CODE     ---       #70
      00FF5C51H   LINE      CODE     ---       #71
      00FF5C5EH   LINE      CODE     ---       #72
      00FF5C62H   LINE      CODE     ---       #73
      00FF5C6EH   LINE      CODE     ---       #74
      00FF5C71H   LINE      CODE     ---       #75
      00FF5C81H   LINE      CODE     ---       #79
      00FF5C8EH   LINE      CODE     ---       #80
      00FF5C9BH   LINE      CODE     ---       #81
      00FF5CA8H   LINE      CODE     ---       #82
      00FF5CACH   LINE      CODE     ---       #83
      00FF5CB8H   LINE      CODE     ---       #84
L251 LINKER/LOCATER V4.66.93.0                                                        05/03/2024  16:07:18  PAGE 32


      00FF5CBBH   LINE      CODE     ---       #85
      00FF5CCBH   LINE      CODE     ---       #88
      00FF5CD8H   LINE      CODE     ---       #89
      00FF5CE5H   LINE      CODE     ---       #90
      00FF5CF2H   LINE      CODE     ---       #91
      00FF5CF6H   LINE      CODE     ---       #92
      00FF5D02H   LINE      CODE     ---       #93
      00FF5D05H   LINE      CODE     ---       #94
      00FF5D15H   LINE      CODE     ---       #97
      00FF5D22H   LINE      CODE     ---       #98
      00FF5D2FH   LINE      CODE     ---       #99
      00FF5D3CH   LINE      CODE     ---       #100
      00FF5D40H   LINE      CODE     ---       #101
      00FF5D4CH   LINE      CODE     ---       #102
      00FF5D4EH   LINE      CODE     ---       #105
      00FF5D5AH   LINE      CODE     ---       #107
      00FF5D67H   LINE      CODE     ---       #108
      00FF5D74H   LINE      CODE     ---       #109
      00FF5D81H   LINE      CODE     ---       #110
      00FF5D85H   LINE      CODE     ---       #111
      00FF5D91H   LINE      CODE     ---       #112
      00FF5D91H   LINE      CODE     ---       #114
      00FF5D95H   LINE      CODE     ---       #115
      ---         BLOCKEND  ---      ---       LVL=0

      00FF7005H   BLOCK     CODE     ---       LVL=0
      00FF7005H   LINE      CODE     ---       #121
      00FF7005H   LINE      CODE     ---       #123
      00FF7009H   LINE      CODE     ---       #124
      00FF700CH   LINE      CODE     ---       #125
      00FF700FH   LINE      CODE     ---       #126
      00FF7012H   LINE      CODE     ---       #127
      00FF7016H   LINE      CODE     ---       #137
      00FF701DH   LINE      CODE     ---       #143
      00FF7020H   LINE      CODE     ---       #145
      00FF7023H   LINE      CODE     ---       #146
      00FF7026H   LINE      CODE     ---       #147
      00FF7032H   LINE      CODE     ---       #149
      00FF7035H   LINE      CODE     ---       #150
      00FF7038H   LINE      CODE     ---       #151
      00FF703BH   LINE      CODE     ---       #152
      00FF703EH   LINE      CODE     ---       #153
      00FF7041H   LINE      CODE     ---       #154
      00FF7044H   LINE      CODE     ---       #155
      00FF7047H   LINE      CODE     ---       #156
      00FF704AH   LINE      CODE     ---       #157
      00FF704DH   LINE      CODE     ---       #158
      00FF7050H   LINE      CODE     ---       #159
      00FF7053H   LINE      CODE     ---       #160
      00FF7056H   LINE      CODE     ---       #161
      00FF7059H   LINE      CODE     ---       #162
      00FF705CH   LINE      CODE     ---       #163
      00FF705FH   LINE      CODE     ---       #164
      00FF7062H   LINE      CODE     ---       #166
      00FF7065H   LINE      CODE     ---       #167
      00FF7068H   LINE      CODE     ---       #168
      00FF706BH   LINE      CODE     ---       #169
      00FF706EH   LINE      CODE     ---       #170
      00FF7071H   LINE      CODE     ---       #171
      00FF7074H   LINE      CODE     ---       #172
      00FF7077H   LINE      CODE     ---       #173
      00FF707AH   LINE      CODE     ---       #174
      00FF707DH   LINE      CODE     ---       #176
      00FF7098H   LINE      CODE     ---       #177
      00FF709BH   LINE      CODE     ---       #178
L251 LINKER/LOCATER V4.66.93.0                                                        05/03/2024  16:07:18  PAGE 33


      ---         BLOCKEND  ---      ---       LVL=0

      00FF8659H   BLOCK     CODE     ---       LVL=0
      00000BBFH   SYMBOL    EDATA    CHAR      c
      00FF8659H   LINE      CODE     ---       #183
      00FF865DH   LINE      CODE     ---       #185
      00FF8666H   LINE      CODE     ---       #187
      00FF866AH   LINE      CODE     ---       #188
      ---         BLOCKEND  ---      ---       LVL=0

      00FF008EH   BLOCK     CODE     ---       LVL=0
      00FF008EH   LINE      CODE     ---       #197
      00FF008EH   LINE      CODE     ---       #199
      00FF0091H   LINE      CODE     ---       #200
      ---         BLOCKEND  ---      ---       LVL=0

      ---         MODULE    ---      ---       common
      00000B7FH   PUBLIC    EDATA    INT       wireless_type
      000000D0H   SFRSYM    DATA     BYTE      PSW
      0000009DH   SFRSYM    DATA     BYTE      IRCBAND
      00000097H   SFRSYM    DATA     BYTE      AUXR2
      000000EFH   SFRSYM    DATA     BYTE      AUXINTIF
      000000FDH   SFRSYM    DATA     BYTE      S4CON
      000000ACH   SFRSYM    DATA     BYTE      S3CON
      0000009AH   SFRSYM    DATA     BYTE      S2CON
      000000B7H   SFRSYM    DATA     BYTE      IPH
      000000CDH   SFRSYM    DATA     BYTE      SPSTAT
      000000DDH   SFRSYM    DATA     BYTE      T4T3M
      000000C1H   SFRSYM    DATA     BYTE      WDT_CONTR
      000000DFH   SFRSYM    DATA     BYTE      IP3
      000000F4H   SFRSYM    DATA     BYTE      USBCON
      000000B5H   SFRSYM    DATA     BYTE      IP2
      000000FFH   SFRSYM    DATA     BYTE      RSTCFG
      000000F9H   SFRSYM    DATA     BYTE      LINICR
      0000008EH   SFRSYM    DATA     BYTE      AUXR
      000000AFH   SFRSYM    DATA     BYTE      IE2
      00000088H   SFRSYM    DATA     BYTE      TCON
      00000098H   SFRSYM    DATA     BYTE      SCON
      000000F1H   SFRSYM    DATA     BYTE      CANICR
      00000087H   SFRSYM    DATA     BYTE      PCON
      000000BCH   SFRSYM    DATA     BYTE      ADC_CONTR
      000000E7H   SFRSYM    DATA     BYTE      CMPCR2
      000000E6H   SFRSYM    DATA     BYTE      CMPCR1
      000000B8H   SFRSYM    DATA     BYTE      IP
      0000008FH   SFRSYM    DATA     BYTE      INTCLKO
      000000EEH   SFRSYM    DATA     BYTE      IP3H
      000000B6H   SFRSYM    DATA     BYTE      IP2H
      000000A8H   SFRSYM    DATA     BYTE      IE
      000000BBH   SFRSYM    DATA     BYTE      P_SW3
      000000BAH   SFRSYM    DATA     BYTE      P_SW2
      000000A2H   SFRSYM    DATA     BYTE      P_SW1
      000000CEH   SFRSYM    DATA     BYTE      SPCTL
      000000F8H   SFRSYM    DATA     BYTE      P7
      000000E8H   SFRSYM    DATA     BYTE      P6
      000000C8H   SFRSYM    DATA     BYTE      P5
      000000C0H   SFRSYM    DATA     BYTE      P4
      000000B0H   SFRSYM    DATA     BYTE      P3
      000000A0H   SFRSYM    DATA     BYTE      P2
      00000090H   SFRSYM    DATA     BYTE      P1
      00000080H   SFRSYM    DATA     BYTE      P0

      ---         MODULE    ---      ---       zf_adc
      00000094H   SFRSYM    DATA     BYTE      P0M0
      000000D0H   SFRSYM    DATA     BYTE      PSW
      0000009DH   SFRSYM    DATA     BYTE      IRCBAND
L251 LINKER/LOCATER V4.66.93.0                                                        05/03/2024  16:07:18  PAGE 34


      00000097H   SFRSYM    DATA     BYTE      AUXR2
      000000EFH   SFRSYM    DATA     BYTE      AUXINTIF
      000000FDH   SFRSYM    DATA     BYTE      S4CON
      000000ACH   SFRSYM    DATA     BYTE      S3CON
      0000009AH   SFRSYM    DATA     BYTE      S2CON
      000000B7H   SFRSYM    DATA     BYTE      IPH
      000000CDH   SFRSYM    DATA     BYTE      SPSTAT
      000000BEH   SFRSYM    DATA     BYTE      ADC_RESL
      000000DDH   SFRSYM    DATA     BYTE      T4T3M
      000000C1H   SFRSYM    DATA     BYTE      WDT_CONTR
      000000DFH   SFRSYM    DATA     BYTE      IP3
      000000F4H   SFRSYM    DATA     BYTE      USBCON
      000000B5H   SFRSYM    DATA     BYTE      IP2
      000000FFH   SFRSYM    DATA     BYTE      RSTCFG
      000000F9H   SFRSYM    DATA     BYTE      LINICR
      0000008EH   SFRSYM    DATA     BYTE      AUXR
      000000AFH   SFRSYM    DATA     BYTE      IE2
      00000088H   SFRSYM    DATA     BYTE      TCON
      00000098H   SFRSYM    DATA     BYTE      SCON
      000000F1H   SFRSYM    DATA     BYTE      CANICR
      00000087H   SFRSYM    DATA     BYTE      PCON
      000000BCH   SFRSYM    DATA     BYTE      ADC_CONTR
      000000E7H   SFRSYM    DATA     BYTE      CMPCR2
      000000E6H   SFRSYM    DATA     BYTE      CMPCR1
      000000DEH   SFRSYM    DATA     BYTE      ADCCFG
      000000B8H   SFRSYM    DATA     BYTE      IP
      0000008FH   SFRSYM    DATA     BYTE      INTCLKO
      000000EEH   SFRSYM    DATA     BYTE      IP3H
      000000B6H   SFRSYM    DATA     BYTE      IP2H
      000000BDH   SFRSYM    DATA     BYTE      ADC_RES
      000000A8H   SFRSYM    DATA     BYTE      IE
      000000BBH   SFRSYM    DATA     BYTE      P_SW3
      000000BAH   SFRSYM    DATA     BYTE      P_SW2
      000000A2H   SFRSYM    DATA     BYTE      P_SW1
      000000CEH   SFRSYM    DATA     BYTE      SPCTL
      000000F8H   SFRSYM    DATA     BYTE      P7
      000000E8H   SFRSYM    DATA     BYTE      P6
      000000C8H   SFRSYM    DATA     BYTE      P5
      000000C0H   SFRSYM    DATA     BYTE      P4
      000000B0H   SFRSYM    DATA     BYTE      P3
      000000A0H   SFRSYM    DATA     BYTE      P2
      00000090H   SFRSYM    DATA     BYTE      P1
      00000080H   SFRSYM    DATA     BYTE      P0
      00000091H   SFRSYM    DATA     BYTE      P1M1
      00000092H   SFRSYM    DATA     BYTE      P1M0
      00000093H   SFRSYM    DATA     BYTE      P0M1
      00000B0BH   SYMBOL    EDATA    INT       adcn
      00000B0DH   SYMBOL    EDATA    INT       speed
      000009C6H   SYMBOL    EDATA    INT       adcn
      000009C8H   SYMBOL    EDATA    INT       resolution
      000009CAH   SYMBOL    EDATA    WORD      adc_value

      ---         MODULE    ---      ---       zf_delay
      00FF8014H   PUBLIC    CODE     ---       delay_init
      00FF8144H   PUBLIC    CODE     ---       delay_ms
      00000B0FH   PUBLIC    EDATA    WORD      zf_delay_ms
      00000B11H   PUBLIC    EDATA    WORD      zf_delay_us
      000000D0H   SFRSYM    DATA     BYTE      PSW
      0000009DH   SFRSYM    DATA     BYTE      IRCBAND
      00000097H   SFRSYM    DATA     BYTE      AUXR2
      000000EFH   SFRSYM    DATA     BYTE      AUXINTIF
      000000FDH   SFRSYM    DATA     BYTE      S4CON
      000000ACH   SFRSYM    DATA     BYTE      S3CON
      0000009AH   SFRSYM    DATA     BYTE      S2CON
      000000B7H   SFRSYM    DATA     BYTE      IPH
L251 LINKER/LOCATER V4.66.93.0                                                        05/03/2024  16:07:18  PAGE 35


      000000CDH   SFRSYM    DATA     BYTE      SPSTAT
      000000DDH   SFRSYM    DATA     BYTE      T4T3M
      000000C1H   SFRSYM    DATA     BYTE      WDT_CONTR
      000000DFH   SFRSYM    DATA     BYTE      IP3
      000000F4H   SFRSYM    DATA     BYTE      USBCON
      000000B5H   SFRSYM    DATA     BYTE      IP2
      000000FFH   SFRSYM    DATA     BYTE      RSTCFG
      000000F9H   SFRSYM    DATA     BYTE      LINICR
      0000008EH   SFRSYM    DATA     BYTE      AUXR
      000000AFH   SFRSYM    DATA     BYTE      IE2
      00000088H   SFRSYM    DATA     BYTE      TCON
      00000098H   SFRSYM    DATA     BYTE      SCON
      000000F1H   SFRSYM    DATA     BYTE      CANICR
      00000087H   SFRSYM    DATA     BYTE      PCON
      000000BCH   SFRSYM    DATA     BYTE      ADC_CONTR
      000000E7H   SFRSYM    DATA     BYTE      CMPCR2
      000000E6H   SFRSYM    DATA     BYTE      CMPCR1
      000000B8H   SFRSYM    DATA     BYTE      IP
      0000008FH   SFRSYM    DATA     BYTE      INTCLKO
      000000EEH   SFRSYM    DATA     BYTE      IP3H
      000000B6H   SFRSYM    DATA     BYTE      IP2H
      000000A8H   SFRSYM    DATA     BYTE      IE
      000000BBH   SFRSYM    DATA     BYTE      P_SW3
      000000BAH   SFRSYM    DATA     BYTE      P_SW2
      000000A2H   SFRSYM    DATA     BYTE      P_SW1
      000000CEH   SFRSYM    DATA     BYTE      SPCTL
      000000F8H   SFRSYM    DATA     BYTE      P7
      000000E8H   SFRSYM    DATA     BYTE      P6
      000000C8H   SFRSYM    DATA     BYTE      P5
      000000C0H   SFRSYM    DATA     BYTE      P4
      000000B0H   SFRSYM    DATA     BYTE      P3
      000000A0H   SFRSYM    DATA     BYTE      P2
      00000090H   SFRSYM    DATA     BYTE      P1
      00000080H   SFRSYM    DATA     BYTE      P0

      00FF8014H   BLOCK     CODE     ---       LVL=0
      00FF8014H   LINE      CODE     ---       #34
      00FF8014H   LINE      CODE     ---       #36
      00FF8023H   LINE      CODE     ---       #37
      00FF8036H   LINE      CODE     ---       #38
      00FF8054H   LINE      CODE     ---       #40
      ---         BLOCKEND  ---      ---       LVL=0

      00FF8144H   BLOCK     CODE     ---       LVL=0
      00000B13H   SYMBOL    EDATA    WORD      ms
      00FF8148H   BLOCK     CODE     NEAR LAB  LVL=1
      00000B15H   SYMBOL    EDATA    WORD      i
      ---         BLOCKEND  ---      ---       LVL=1
      00FF8144H   LINE      CODE     ---       #48
      00FF8148H   LINE      CODE     ---       #49
      00FF8148H   LINE      CODE     ---       #51
      00FF8148H   LINE      CODE     ---       #52
      00FF8150H   LINE      CODE     ---       #54
      00FF8164H   LINE      CODE     ---       #55
      00FF8178H   LINE      CODE     ---       #56
      ---         BLOCKEND  ---      ---       LVL=0
      000009CCH   SYMBOL    EDATA    DWORD     us
      000009D0H   SYMBOL    EDATA    WORD      i

      ---         MODULE    ---      ---       zf_eeprom
      00000805H   PUBLIC    EDATA    BYTE      ?iap_read_bytes?BYTE
      0000080FH   PUBLIC    EDATA    BYTE      ?iap_write_bytes?BYTE
      000000D0H   SFRSYM    DATA     BYTE      PSW
      0000009DH   SFRSYM    DATA     BYTE      IRCBAND
      000000D0H.5 SFRSYM    DATA     BIT       F0
L251 LINKER/LOCATER V4.66.93.0                                                        05/03/2024  16:07:18  PAGE 36


      00000097H   SFRSYM    DATA     BYTE      AUXR2
      000000C6H   SFRSYM    DATA     BYTE      IAP_TRIG
      000000EFH   SFRSYM    DATA     BYTE      AUXINTIF
      000000FDH   SFRSYM    DATA     BYTE      S4CON
      000000ACH   SFRSYM    DATA     BYTE      S3CON
      0000009AH   SFRSYM    DATA     BYTE      S2CON
      000000B7H   SFRSYM    DATA     BYTE      IPH
      000000CDH   SFRSYM    DATA     BYTE      SPSTAT
      000000DDH   SFRSYM    DATA     BYTE      T4T3M
      000000C1H   SFRSYM    DATA     BYTE      WDT_CONTR
      000000C2H   SFRSYM    DATA     BYTE      IAP_DATA
      000000DFH   SFRSYM    DATA     BYTE      IP3
      000000F4H   SFRSYM    DATA     BYTE      USBCON
      000000B5H   SFRSYM    DATA     BYTE      IP2
      000000FFH   SFRSYM    DATA     BYTE      RSTCFG
      000000C7H   SFRSYM    DATA     BYTE      IAP_CONTR
      000000F9H   SFRSYM    DATA     BYTE      LINICR
      0000008EH   SFRSYM    DATA     BYTE      AUXR
      000000AFH   SFRSYM    DATA     BYTE      IE2
      00000088H   SFRSYM    DATA     BYTE      TCON
      00000098H   SFRSYM    DATA     BYTE      SCON
      000000F5H   SFRSYM    DATA     BYTE      IAP_TPS
      000000F1H   SFRSYM    DATA     BYTE      CANICR
      00000087H   SFRSYM    DATA     BYTE      PCON
      000000BCH   SFRSYM    DATA     BYTE      ADC_CONTR
      000000E7H   SFRSYM    DATA     BYTE      CMPCR2
      000000E6H   SFRSYM    DATA     BYTE      CMPCR1
      000000C4H   SFRSYM    DATA     BYTE      IAP_ADDRL
      000000C3H   SFRSYM    DATA     BYTE      IAP_ADDRH
      000000F6H   SFRSYM    DATA     BYTE      IAP_ADDRE
      000000B8H   SFRSYM    DATA     BYTE      IP
      0000008FH   SFRSYM    DATA     BYTE      INTCLKO
      000000EEH   SFRSYM    DATA     BYTE      IP3H
      000000B6H   SFRSYM    DATA     BYTE      IP2H
      000000C5H   SFRSYM    DATA     BYTE      IAP_CMD
      000000A8H   SFRSYM    DATA     BYTE      IE
      000000BBH   SFRSYM    DATA     BYTE      P_SW3
      000000BAH   SFRSYM    DATA     BYTE      P_SW2
      000000A2H   SFRSYM    DATA     BYTE      P_SW1
      000000CEH   SFRSYM    DATA     BYTE      SPCTL
      000000F8H   SFRSYM    DATA     BYTE      P7
      000000A8H.7 SFRSYM    DATA     BIT       EA
      000000E8H   SFRSYM    DATA     BYTE      P6
      000000C8H   SFRSYM    DATA     BYTE      P5
      000000C0H   SFRSYM    DATA     BYTE      P4
      000000B0H   SFRSYM    DATA     BYTE      P3
      000000A0H   SFRSYM    DATA     BYTE      P2
      00000090H   SFRSYM    DATA     BYTE      P1
      00000080H   SFRSYM    DATA     BYTE      P0
      00000BC0H   SYMBOL    EDATA    BYTE      write_time
      00000805H   SYMBOL    EDATA    DWORD     addr
      00000809H   SYMBOL    EDATA    ---       buf
      0000080DH   SYMBOL    EDATA    WORD      len
      0000080FH   SYMBOL    EDATA    DWORD     addr
      00000813H   SYMBOL    EDATA    ---       buf
      00000817H   SYMBOL    EDATA    WORD      len
      00000B17H   SYMBOL    EDATA    DWORD     addr

      ---         MODULE    ---      ---       zf_exti
      000000D0H   SFRSYM    DATA     BYTE      PSW
      0000009DH   SFRSYM    DATA     BYTE      IRCBAND
      00000097H   SFRSYM    DATA     BYTE      AUXR2
      000000EFH   SFRSYM    DATA     BYTE      AUXINTIF
      000000FDH   SFRSYM    DATA     BYTE      S4CON
      000000ACH   SFRSYM    DATA     BYTE      S3CON
L251 LINKER/LOCATER V4.66.93.0                                                        05/03/2024  16:07:18  PAGE 37


      0000009AH   SFRSYM    DATA     BYTE      S2CON
      000000B7H   SFRSYM    DATA     BYTE      IPH
      000000CDH   SFRSYM    DATA     BYTE      SPSTAT
      000000DDH   SFRSYM    DATA     BYTE      T4T3M
      000000C1H   SFRSYM    DATA     BYTE      WDT_CONTR
      00000088H.2 SFRSYM    DATA     BIT       IT1
      000000A8H.2 SFRSYM    DATA     BIT       EX1
      00000088H.0 SFRSYM    DATA     BIT       IT0
      000000A8H.0 SFRSYM    DATA     BIT       EX0
      000000DFH   SFRSYM    DATA     BYTE      IP3
      000000F4H   SFRSYM    DATA     BYTE      USBCON
      000000B5H   SFRSYM    DATA     BYTE      IP2
      000000FFH   SFRSYM    DATA     BYTE      RSTCFG
      000000F9H   SFRSYM    DATA     BYTE      LINICR
      0000008EH   SFRSYM    DATA     BYTE      AUXR
      000000AFH   SFRSYM    DATA     BYTE      IE2
      00000088H   SFRSYM    DATA     BYTE      TCON
      00000098H   SFRSYM    DATA     BYTE      SCON
      000000F1H   SFRSYM    DATA     BYTE      CANICR
      00000087H   SFRSYM    DATA     BYTE      PCON
      000000BCH   SFRSYM    DATA     BYTE      ADC_CONTR
      000000E7H   SFRSYM    DATA     BYTE      CMPCR2
      000000E6H   SFRSYM    DATA     BYTE      CMPCR1
      000000B8H   SFRSYM    DATA     BYTE      IP
      0000008FH   SFRSYM    DATA     BYTE      INTCLKO
      000000EEH   SFRSYM    DATA     BYTE      IP3H
      000000B6H   SFRSYM    DATA     BYTE      IP2H
      000000A8H   SFRSYM    DATA     BYTE      IE
      000000BBH   SFRSYM    DATA     BYTE      P_SW3
      000000BAH   SFRSYM    DATA     BYTE      P_SW2
      000000A2H   SFRSYM    DATA     BYTE      P_SW1
      000000CEH   SFRSYM    DATA     BYTE      SPCTL
      000000F8H   SFRSYM    DATA     BYTE      P7
      000000E8H   SFRSYM    DATA     BYTE      P6
      000000C8H   SFRSYM    DATA     BYTE      P5
      000000C0H   SFRSYM    DATA     BYTE      P4
      000000B0H   SFRSYM    DATA     BYTE      P3
      000000A0H   SFRSYM    DATA     BYTE      P2
      00000090H   SFRSYM    DATA     BYTE      P1
      00000080H   SFRSYM    DATA     BYTE      P0
      00000B1BH   SYMBOL    EDATA    INT       int_n
      00000B1DH   SYMBOL    EDATA    INT       mode

      ---         MODULE    ---      ---       zf_gpio
      00FF39A9H   PUBLIC    CODE     ---       gpio_mode
      00000094H   SFRSYM    DATA     BYTE      P0M0
      000000D0H   SFRSYM    DATA     BYTE      PSW
      0000009DH   SFRSYM    DATA     BYTE      IRCBAND
      00000097H   SFRSYM    DATA     BYTE      AUXR2
      000000EFH   SFRSYM    DATA     BYTE      AUXINTIF
      000000FDH   SFRSYM    DATA     BYTE      S4CON
      000000ACH   SFRSYM    DATA     BYTE      S3CON
      0000009AH   SFRSYM    DATA     BYTE      S2CON
      000000B7H   SFRSYM    DATA     BYTE      IPH
      000000CDH   SFRSYM    DATA     BYTE      SPSTAT
      000000DDH   SFRSYM    DATA     BYTE      T4T3M
      000000C1H   SFRSYM    DATA     BYTE      WDT_CONTR
      000000DFH   SFRSYM    DATA     BYTE      IP3
      000000F4H   SFRSYM    DATA     BYTE      USBCON
      000000B5H   SFRSYM    DATA     BYTE      IP2
      000000FFH   SFRSYM    DATA     BYTE      RSTCFG
      000000F9H   SFRSYM    DATA     BYTE      LINICR
      0000008EH   SFRSYM    DATA     BYTE      AUXR
      000000AFH   SFRSYM    DATA     BYTE      IE2
      00000088H   SFRSYM    DATA     BYTE      TCON
L251 LINKER/LOCATER V4.66.93.0                                                        05/03/2024  16:07:18  PAGE 38


      00000098H   SFRSYM    DATA     BYTE      SCON
      000000F1H   SFRSYM    DATA     BYTE      CANICR
      00000087H   SFRSYM    DATA     BYTE      PCON
      000000BCH   SFRSYM    DATA     BYTE      ADC_CONTR
      000000E7H   SFRSYM    DATA     BYTE      CMPCR2
      000000E6H   SFRSYM    DATA     BYTE      CMPCR1
      000000B8H   SFRSYM    DATA     BYTE      IP
      0000008FH   SFRSYM    DATA     BYTE      INTCLKO
      000000EEH   SFRSYM    DATA     BYTE      IP3H
      000000B6H   SFRSYM    DATA     BYTE      IP2H
      000000A8H   SFRSYM    DATA     BYTE      IE
      000000BBH   SFRSYM    DATA     BYTE      P_SW3
      000000BAH   SFRSYM    DATA     BYTE      P_SW2
      000000A2H   SFRSYM    DATA     BYTE      P_SW1
      000000CEH   SFRSYM    DATA     BYTE      SPCTL
      000000F8H   SFRSYM    DATA     BYTE      P7
      000000E1H   SFRSYM    DATA     BYTE      P7M1
      000000E8H   SFRSYM    DATA     BYTE      P6
      000000C8H   SFRSYM    DATA     BYTE      P5
      000000CBH   SFRSYM    DATA     BYTE      P6M1
      000000E2H   SFRSYM    DATA     BYTE      P7M0
      000000C0H   SFRSYM    DATA     BYTE      P4
      000000C9H   SFRSYM    DATA     BYTE      P5M1
      000000CCH   SFRSYM    DATA     BYTE      P6M0
      000000B0H   SFRSYM    DATA     BYTE      P3
      000000B3H   SFRSYM    DATA     BYTE      P4M1
      000000CAH   SFRSYM    DATA     BYTE      P5M0
      000000A0H   SFRSYM    DATA     BYTE      P2
      000000B1H   SFRSYM    DATA     BYTE      P3M1
      000000B4H   SFRSYM    DATA     BYTE      P4M0
      00000090H   SFRSYM    DATA     BYTE      P1
      00000095H   SFRSYM    DATA     BYTE      P2M1
      000000B2H   SFRSYM    DATA     BYTE      P3M0
      00000080H   SFRSYM    DATA     BYTE      P0
      00000091H   SFRSYM    DATA     BYTE      P1M1
      00000096H   SFRSYM    DATA     BYTE      P2M0
      00000092H   SFRSYM    DATA     BYTE      P1M0
      00000093H   SFRSYM    DATA     BYTE      P0M1
      00000B1FH   SYMBOL    EDATA    INT       pin
      00000B21H   SYMBOL    EDATA    INT       pull

      00FF39A9H   BLOCK     CODE     ---       LVL=0
      00000B23H   SYMBOL    EDATA    INT       pin
      00000B25H   SYMBOL    EDATA    INT       mode
      00FF39A9H   LINE      CODE     ---       #54
      00FF39B1H   LINE      CODE     ---       #56
      00FF39BEH   LINE      CODE     ---       #58
      00FF39CEH   LINE      CODE     ---       #60
      00FF39E9H   LINE      CODE     ---       #61
      00FF3A04H   LINE      CODE     ---       #62
      00FF3A04H   LINE      CODE     ---       #63
      00FF3A16H   LINE      CODE     ---       #65
      00FF3A31H   LINE      CODE     ---       #66
      00FF3A4CH   LINE      CODE     ---       #67
      00FF3A4CH   LINE      CODE     ---       #68
      00FF3A5EH   LINE      CODE     ---       #70
      00FF3A79H   LINE      CODE     ---       #71
      00FF3A94H   LINE      CODE     ---       #72
      00FF3A94H   LINE      CODE     ---       #74
      00FF3AA6H   LINE      CODE     ---       #76
      00FF3AC1H   LINE      CODE     ---       #77
      00FF3ADCH   LINE      CODE     ---       #78
      00FF3ADCH   LINE      CODE     ---       #79
      00FF3AEEH   LINE      CODE     ---       #81
      00FF3B09H   LINE      CODE     ---       #82
L251 LINKER/LOCATER V4.66.93.0                                                        05/03/2024  16:07:18  PAGE 39


      00FF3B24H   LINE      CODE     ---       #83
      00FF3B24H   LINE      CODE     ---       #84
      00FF3B36H   LINE      CODE     ---       #86
      00FF3B51H   LINE      CODE     ---       #87
      00FF3B6CH   LINE      CODE     ---       #88
      00FF3B6CH   LINE      CODE     ---       #89
      00FF3B7EH   LINE      CODE     ---       #91
      00FF3B99H   LINE      CODE     ---       #92
      00FF3BB4H   LINE      CODE     ---       #93
      00FF3BB4H   LINE      CODE     ---       #94
      00FF3BC9H   LINE      CODE     ---       #96
      00FF3BE4H   LINE      CODE     ---       #97
      00FF3BFFH   LINE      CODE     ---       #98
      00FF3C02H   LINE      CODE     ---       #100
      00FF3C11H   LINE      CODE     ---       #102
      00FF3C21H   LINE      CODE     ---       #104
      00FF3C3CH   LINE      CODE     ---       #105
      00FF3C55H   LINE      CODE     ---       #106
      00FF3C55H   LINE      CODE     ---       #107
      00FF3C67H   LINE      CODE     ---       #109
      00FF3C82H   LINE      CODE     ---       #110
      00FF3C9BH   LINE      CODE     ---       #111
      00FF3C9BH   LINE      CODE     ---       #112
      00FF3CADH   LINE      CODE     ---       #114
      00FF3CC8H   LINE      CODE     ---       #115
      00FF3CE1H   LINE      CODE     ---       #116
      00FF3CE1H   LINE      CODE     ---       #118
      00FF3CF3H   LINE      CODE     ---       #120
      00FF3D0EH   LINE      CODE     ---       #121
      00FF3D27H   LINE      CODE     ---       #122
      00FF3D27H   LINE      CODE     ---       #123
      00FF3D39H   LINE      CODE     ---       #125
      00FF3D54H   LINE      CODE     ---       #126
      00FF3D6DH   LINE      CODE     ---       #127
      00FF3D6DH   LINE      CODE     ---       #128
      00FF3D7FH   LINE      CODE     ---       #130
      00FF3D9AH   LINE      CODE     ---       #131
      00FF3DB3H   LINE      CODE     ---       #132
      00FF3DB3H   LINE      CODE     ---       #133
      00FF3DC5H   LINE      CODE     ---       #135
      00FF3DE0H   LINE      CODE     ---       #136
      00FF3DF9H   LINE      CODE     ---       #137
      00FF3DF9H   LINE      CODE     ---       #138
      00FF3E0EH   LINE      CODE     ---       #140
      00FF3E29H   LINE      CODE     ---       #141
      00FF3E42H   LINE      CODE     ---       #142
      00FF3E45H   LINE      CODE     ---       #145
      00FF3E54H   LINE      CODE     ---       #147
      00FF3E64H   LINE      CODE     ---       #149
      00FF3E7DH   LINE      CODE     ---       #150
      00FF3E98H   LINE      CODE     ---       #151
      00FF3E98H   LINE      CODE     ---       #152
      00FF3EAAH   LINE      CODE     ---       #154
      00FF3EC3H   LINE      CODE     ---       #155
      00FF3EDEH   LINE      CODE     ---       #156
      00FF3EDEH   LINE      CODE     ---       #157
      00FF3EF0H   LINE      CODE     ---       #159
      00FF3F09H   LINE      CODE     ---       #160
      00FF3F24H   LINE      CODE     ---       #161
      00FF3F24H   LINE      CODE     ---       #163
      00FF3F36H   LINE      CODE     ---       #165
      00FF3F4FH   LINE      CODE     ---       #166
      00FF3F6AH   LINE      CODE     ---       #167
      00FF3F6AH   LINE      CODE     ---       #168
      00FF3F7CH   LINE      CODE     ---       #170
L251 LINKER/LOCATER V4.66.93.0                                                        05/03/2024  16:07:18  PAGE 40


      00FF3F95H   LINE      CODE     ---       #171
      00FF3FB0H   LINE      CODE     ---       #172
      00FF3FB0H   LINE      CODE     ---       #173
      00FF3FC2H   LINE      CODE     ---       #175
      00FF3FDBH   LINE      CODE     ---       #176
      00FF3FF6H   LINE      CODE     ---       #177
      00FF3FF6H   LINE      CODE     ---       #178
      00FF4008H   LINE      CODE     ---       #180
      00FF4021H   LINE      CODE     ---       #181
      00FF403CH   LINE      CODE     ---       #182
      00FF403CH   LINE      CODE     ---       #183
      00FF4051H   LINE      CODE     ---       #185
      00FF406AH   LINE      CODE     ---       #186
      00FF4085H   LINE      CODE     ---       #187
      00FF4088H   LINE      CODE     ---       #189
      00FF4097H   LINE      CODE     ---       #191
      00FF40A7H   LINE      CODE     ---       #193
      00FF40C0H   LINE      CODE     ---       #194
      00FF40D9H   LINE      CODE     ---       #195
      00FF40D9H   LINE      CODE     ---       #196
      00FF40EBH   LINE      CODE     ---       #198
      00FF4104H   LINE      CODE     ---       #199
      00FF411DH   LINE      CODE     ---       #200
      00FF411DH   LINE      CODE     ---       #201
      00FF412FH   LINE      CODE     ---       #203
      00FF4148H   LINE      CODE     ---       #204
      00FF4161H   LINE      CODE     ---       #205
      00FF4161H   LINE      CODE     ---       #207
      00FF4173H   LINE      CODE     ---       #209
      00FF418CH   LINE      CODE     ---       #210
      00FF41A5H   LINE      CODE     ---       #211
      00FF41A5H   LINE      CODE     ---       #212
      00FF41B7H   LINE      CODE     ---       #214
      00FF41D0H   LINE      CODE     ---       #215
      00FF41E9H   LINE      CODE     ---       #216
      00FF41E9H   LINE      CODE     ---       #217
      00FF41FBH   LINE      CODE     ---       #219
      00FF4214H   LINE      CODE     ---       #220
      00FF422DH   LINE      CODE     ---       #221
      00FF422DH   LINE      CODE     ---       #222
      00FF423FH   LINE      CODE     ---       #224
      00FF4258H   LINE      CODE     ---       #225
      00FF4271H   LINE      CODE     ---       #226
      00FF4271H   LINE      CODE     ---       #227
      00FF4283H   LINE      CODE     ---       #229
      00FF429CH   LINE      CODE     ---       #230
      00FF42B5H   LINE      CODE     ---       #231
      00FF42B5H   LINE      CODE     ---       #233
      ---         BLOCKEND  ---      ---       LVL=0

      ---         MODULE    ---      ---       zf_nvic
      000000D0H   SFRSYM    DATA     BYTE      PSW
      0000009DH   SFRSYM    DATA     BYTE      IRCBAND
      00000097H   SFRSYM    DATA     BYTE      AUXR2
      000000EFH   SFRSYM    DATA     BYTE      AUXINTIF
      000000FDH   SFRSYM    DATA     BYTE      S4CON
      000000ACH   SFRSYM    DATA     BYTE      S3CON
      0000009AH   SFRSYM    DATA     BYTE      S2CON
      000000B7H   SFRSYM    DATA     BYTE      IPH
      000000CDH   SFRSYM    DATA     BYTE      SPSTAT
      000000DDH   SFRSYM    DATA     BYTE      T4T3M
      000000C1H   SFRSYM    DATA     BYTE      WDT_CONTR
      000000DFH   SFRSYM    DATA     BYTE      IP3
      000000F4H   SFRSYM    DATA     BYTE      USBCON
      000000B5H   SFRSYM    DATA     BYTE      IP2
L251 LINKER/LOCATER V4.66.93.0                                                        05/03/2024  16:07:18  PAGE 41


      000000FFH   SFRSYM    DATA     BYTE      RSTCFG
      000000F9H   SFRSYM    DATA     BYTE      LINICR
      0000008EH   SFRSYM    DATA     BYTE      AUXR
      000000AFH   SFRSYM    DATA     BYTE      IE2
      00000088H   SFRSYM    DATA     BYTE      TCON
      00000098H   SFRSYM    DATA     BYTE      SCON
      000000F1H   SFRSYM    DATA     BYTE      CANICR
      00000087H   SFRSYM    DATA     BYTE      PCON
      000000BCH   SFRSYM    DATA     BYTE      ADC_CONTR
      000000E7H   SFRSYM    DATA     BYTE      CMPCR2
      000000E6H   SFRSYM    DATA     BYTE      CMPCR1
      000000B8H   SFRSYM    DATA     BYTE      IP
      0000008FH   SFRSYM    DATA     BYTE      INTCLKO
      000000EEH   SFRSYM    DATA     BYTE      IP3H
      000000B6H   SFRSYM    DATA     BYTE      IP2H
      000000A8H   SFRSYM    DATA     BYTE      IE
      000000BBH   SFRSYM    DATA     BYTE      P_SW3
      000000BAH   SFRSYM    DATA     BYTE      P_SW2
      000000A2H   SFRSYM    DATA     BYTE      P_SW1
      000000CEH   SFRSYM    DATA     BYTE      SPCTL
      000000F8H   SFRSYM    DATA     BYTE      P7
      000000E8H   SFRSYM    DATA     BYTE      P6
      000000C8H   SFRSYM    DATA     BYTE      P5
      000000C0H   SFRSYM    DATA     BYTE      P4
      000000B0H   SFRSYM    DATA     BYTE      P3
      000000A0H   SFRSYM    DATA     BYTE      P2
      00000090H   SFRSYM    DATA     BYTE      P1
      00000080H   SFRSYM    DATA     BYTE      P0
      00000B4FH   SYMBOL    EDATA    INT       irqn
      00000B51H   SYMBOL    EDATA    BYTE      priority

      ---         MODULE    ---      ---       zf_pwm
      00FF61C0H   PUBLIC    CODE     ---       pwm_duty
      00FF4CF1H   PUBLIC    CODE     ---       pwm_set_gpio
      00FF4917H   PUBLIC    CODE     ---       pwm_init
      00FF89B4H   PUBLIC    HCONST   ---       PWM_CCR_ADDR
      00FF89D4H   PUBLIC    HCONST   ---       PWM_ARR_ADDR
      00FF89DCH   PUBLIC    HCONST   ---       PWM_CCER_ADDR
      00FF89ECH   PUBLIC    HCONST   ---       PWM_CCMR_ADDR
      00000642H   PUBLIC    EDATA    BYTE      ?pwm_init?BYTE
      00000656H   PUBLIC    EDATA    BYTE      ?pwm_freq?BYTE
      000000D0H   SFRSYM    DATA     BYTE      PSW
      0000009DH   SFRSYM    DATA     BYTE      IRCBAND
      00000097H   SFRSYM    DATA     BYTE      AUXR2
      000000EFH   SFRSYM    DATA     BYTE      AUXINTIF
      000000FDH   SFRSYM    DATA     BYTE      S4CON
      000000ACH   SFRSYM    DATA     BYTE      S3CON
      0000009AH   SFRSYM    DATA     BYTE      S2CON
      000000B7H   SFRSYM    DATA     BYTE      IPH
      000000CDH   SFRSYM    DATA     BYTE      SPSTAT
      000000DDH   SFRSYM    DATA     BYTE      T4T3M
      000000C1H   SFRSYM    DATA     BYTE      WDT_CONTR
      000000DFH   SFRSYM    DATA     BYTE      IP3
      000000F4H   SFRSYM    DATA     BYTE      USBCON
      000000B5H   SFRSYM    DATA     BYTE      IP2
      000000FFH   SFRSYM    DATA     BYTE      RSTCFG
      000000F9H   SFRSYM    DATA     BYTE      LINICR
      0000008EH   SFRSYM    DATA     BYTE      AUXR
      000000AFH   SFRSYM    DATA     BYTE      IE2
      00000088H   SFRSYM    DATA     BYTE      TCON
      00000098H   SFRSYM    DATA     BYTE      SCON
      000000F1H   SFRSYM    DATA     BYTE      CANICR
      00000087H   SFRSYM    DATA     BYTE      PCON
      000000BCH   SFRSYM    DATA     BYTE      ADC_CONTR
      000000E7H   SFRSYM    DATA     BYTE      CMPCR2
L251 LINKER/LOCATER V4.66.93.0                                                        05/03/2024  16:07:18  PAGE 42


      000000E6H   SFRSYM    DATA     BYTE      CMPCR1
      000000B8H   SFRSYM    DATA     BYTE      IP
      0000008FH   SFRSYM    DATA     BYTE      INTCLKO
      000000EEH   SFRSYM    DATA     BYTE      IP3H
      000000B6H   SFRSYM    DATA     BYTE      IP2H
      000000A8H   SFRSYM    DATA     BYTE      IE
      000000BBH   SFRSYM    DATA     BYTE      P_SW3
      000000BAH   SFRSYM    DATA     BYTE      P_SW2
      000000A2H   SFRSYM    DATA     BYTE      P_SW1
      000000CEH   SFRSYM    DATA     BYTE      SPCTL
      000000F8H   SFRSYM    DATA     BYTE      P7
      000000E8H   SFRSYM    DATA     BYTE      P6
      000000C8H   SFRSYM    DATA     BYTE      P5
      000000C0H   SFRSYM    DATA     BYTE      P4
      000000B0H   SFRSYM    DATA     BYTE      P3
      000000A0H   SFRSYM    DATA     BYTE      P2
      00000090H   SFRSYM    DATA     BYTE      P1
      00000080H   SFRSYM    DATA     BYTE      P0

      00FF4CF1H   BLOCK     CODE     ---       LVL=0
      00000B81H   SYMBOL    EDATA    INT       pwmch
      00FF4CF1H   LINE      CODE     ---       #49
      00FF4CF5H   LINE      CODE     ---       #51
      00FF4E6AH   LINE      CODE     ---       #53
      00FF4E6AH   LINE      CODE     ---       #55
      00FF4E75H   LINE      CODE     ---       #56
      00FF4E78H   LINE      CODE     ---       #58
      00FF4E78H   LINE      CODE     ---       #60
      00FF4E83H   LINE      CODE     ---       #61
      00FF4E86H   LINE      CODE     ---       #63
      00FF4E86H   LINE      CODE     ---       #65
      00FF4E91H   LINE      CODE     ---       #66
      00FF4E94H   LINE      CODE     ---       #68
      00FF4E94H   LINE      CODE     ---       #70
      00FF4E9FH   LINE      CODE     ---       #71
      00FF4EA2H   LINE      CODE     ---       #73
      00FF4EA2H   LINE      CODE     ---       #75
      00FF4EADH   LINE      CODE     ---       #76
      00FF4EB0H   LINE      CODE     ---       #78
      00FF4EB0H   LINE      CODE     ---       #80
      00FF4EBBH   LINE      CODE     ---       #81
      00FF4EBEH   LINE      CODE     ---       #84
      00FF4EBEH   LINE      CODE     ---       #86
      00FF4EC9H   LINE      CODE     ---       #87
      00FF4ECCH   LINE      CODE     ---       #89
      00FF4ECCH   LINE      CODE     ---       #91
      00FF4ED7H   LINE      CODE     ---       #92
      00FF4EDAH   LINE      CODE     ---       #94
      00FF4EDAH   LINE      CODE     ---       #96
      00FF4EE5H   LINE      CODE     ---       #97
      00FF4EE8H   LINE      CODE     ---       #99
      00FF4EE8H   LINE      CODE     ---       #101
      00FF4EF3H   LINE      CODE     ---       #102
      00FF4EF6H   LINE      CODE     ---       #104
      00FF4EF6H   LINE      CODE     ---       #106
      00FF4F01H   LINE      CODE     ---       #107
      00FF4F04H   LINE      CODE     ---       #109
      00FF4F04H   LINE      CODE     ---       #111
      00FF4F0FH   LINE      CODE     ---       #112
      00FF4F12H   LINE      CODE     ---       #115
      00FF4F12H   LINE      CODE     ---       #117
      00FF4F1DH   LINE      CODE     ---       #118
      00FF4F20H   LINE      CODE     ---       #120
      00FF4F20H   LINE      CODE     ---       #122
      00FF4F2BH   LINE      CODE     ---       #123
L251 LINKER/LOCATER V4.66.93.0                                                        05/03/2024  16:07:18  PAGE 43


      00FF4F2EH   LINE      CODE     ---       #125
      00FF4F2EH   LINE      CODE     ---       #127
      00FF4F39H   LINE      CODE     ---       #128
      00FF4F3CH   LINE      CODE     ---       #130
      00FF4F3CH   LINE      CODE     ---       #132
      00FF4F47H   LINE      CODE     ---       #133
      00FF4F4AH   LINE      CODE     ---       #135
      00FF4F4AH   LINE      CODE     ---       #137
      00FF4F55H   LINE      CODE     ---       #138
      00FF4F58H   LINE      CODE     ---       #140
      00FF4F58H   LINE      CODE     ---       #142
      00FF4F63H   LINE      CODE     ---       #143
      00FF4F66H   LINE      CODE     ---       #147
      00FF4F66H   LINE      CODE     ---       #149
      00FF4F71H   LINE      CODE     ---       #150
      00FF4F74H   LINE      CODE     ---       #152
      00FF4F74H   LINE      CODE     ---       #154
      00FF4F7FH   LINE      CODE     ---       #155
      00FF4F82H   LINE      CODE     ---       #157
      00FF4F82H   LINE      CODE     ---       #159
      00FF4F8DH   LINE      CODE     ---       #160
      00FF4F90H   LINE      CODE     ---       #162
      00FF4F90H   LINE      CODE     ---       #164
      00FF4F9BH   LINE      CODE     ---       #165
      00FF4F9EH   LINE      CODE     ---       #167
      00FF4F9EH   LINE      CODE     ---       #169
      00FF4FA9H   LINE      CODE     ---       #170
      00FF4FACH   LINE      CODE     ---       #172
      00FF4FACH   LINE      CODE     ---       #174
      00FF4FB7H   LINE      CODE     ---       #175
      00FF4FBAH   LINE      CODE     ---       #177
      00FF4FBAH   LINE      CODE     ---       #179
      00FF4FC5H   LINE      CODE     ---       #180
      00FF4FC8H   LINE      CODE     ---       #182
      00FF4FC8H   LINE      CODE     ---       #184
      00FF4FD3H   LINE      CODE     ---       #185
      00FF4FD6H   LINE      CODE     ---       #189
      00FF4FD6H   LINE      CODE     ---       #191
      00FF4FE1H   LINE      CODE     ---       #192
      00FF4FE4H   LINE      CODE     ---       #194
      00FF4FE4H   LINE      CODE     ---       #196
      00FF4FEFH   LINE      CODE     ---       #197
      00FF4FF2H   LINE      CODE     ---       #199
      00FF4FF2H   LINE      CODE     ---       #201
      00FF4FFBH   LINE      CODE     ---       #202
      00FF4FFEH   LINE      CODE     ---       #204
      00FF4FFEH   LINE      CODE     ---       #206
      00FF5009H   LINE      CODE     ---       #207
      00FF500CH   LINE      CODE     ---       #210
      00FF500CH   LINE      CODE     ---       #212
      00FF5017H   LINE      CODE     ---       #213
      00FF501AH   LINE      CODE     ---       #215
      00FF501AH   LINE      CODE     ---       #217
      00FF5025H   LINE      CODE     ---       #218
      00FF5028H   LINE      CODE     ---       #220
      00FF5028H   LINE      CODE     ---       #222
      00FF5033H   LINE      CODE     ---       #223
      00FF5035H   LINE      CODE     ---       #225
      00FF5035H   LINE      CODE     ---       #227
      00FF5040H   LINE      CODE     ---       #228
      00FF5042H   LINE      CODE     ---       #232
      00FF5042H   LINE      CODE     ---       #234
      00FF504DH   LINE      CODE     ---       #235
      00FF504FH   LINE      CODE     ---       #237
      00FF504FH   LINE      CODE     ---       #239
L251 LINKER/LOCATER V4.66.93.0                                                        05/03/2024  16:07:18  PAGE 44


      00FF505AH   LINE      CODE     ---       #240
      00FF505CH   LINE      CODE     ---       #242
      00FF505CH   LINE      CODE     ---       #244
      00FF5067H   LINE      CODE     ---       #245
      00FF5069H   LINE      CODE     ---       #247
      00FF5069H   LINE      CODE     ---       #249
      00FF5074H   LINE      CODE     ---       #250
      00FF5076H   LINE      CODE     ---       #254
      00FF5076H   LINE      CODE     ---       #256
      00FF5081H   LINE      CODE     ---       #257
      00FF5083H   LINE      CODE     ---       #259
      00FF5083H   LINE      CODE     ---       #261
      00FF508EH   LINE      CODE     ---       #262
      00FF5090H   LINE      CODE     ---       #264
      00FF5090H   LINE      CODE     ---       #266
      00FF509BH   LINE      CODE     ---       #267
      00FF509DH   LINE      CODE     ---       #269
      00FF509DH   LINE      CODE     ---       #271
      00FF50A8H   LINE      CODE     ---       #272
      00FF50A8H   LINE      CODE     ---       #275
      00FF50A8H   LINE      CODE     ---       #277
      ---         BLOCKEND  ---      ---       LVL=0

      00FF4917H   BLOCK     CODE     ---       LVL=0
      00000642H   SYMBOL    EDATA    INT       pwmch
      00000644H   SYMBOL    EDATA    DWORD     freq
      00000648H   SYMBOL    EDATA    DWORD     duty
      00FF491FH   BLOCK     CODE     NEAR LAB  LVL=1
      0000064CH   SYMBOL    EDATA    DWORD     match_temp
      00000650H   SYMBOL    EDATA    DWORD     period_temp
      00000654H   SYMBOL    EDATA    WORD      freq_div
      ---         BLOCKEND  ---      ---       LVL=1
      00FF4917H   LINE      CODE     ---       #290
      00FF491FH   LINE      CODE     ---       #291
      00FF491FH   LINE      CODE     ---       #295
      00FF4925H   LINE      CODE     ---       #298
      00FF4928H   LINE      CODE     ---       #301
      00FF492FH   LINE      CODE     ---       #305
      00FF4942H   LINE      CODE     ---       #306
      00FF4951H   LINE      CODE     ---       #307
      00FF496CH   LINE      CODE     ---       #309
      00FF4976H   LINE      CODE     ---       #311
      00FF499DH   LINE      CODE     ---       #312
      00FF499FH   LINE      CODE     ---       #315
      00FF49ADH   LINE      CODE     ---       #316
      00FF49ADH   LINE      CODE     ---       #319
      00FF49BCH   LINE      CODE     ---       #322
      00FF49EDH   LINE      CODE     ---       #323
      00FF4A24H   LINE      CODE     ---       #326
      00FF4A76H   LINE      CODE     ---       #329
      00FF4A89H   LINE      CODE     ---       #330
      00FF4A98H   LINE      CODE     ---       #332
      00FF4AA5H   LINE      CODE     ---       #333
      00FF4AB2H   LINE      CODE     ---       #334
      00FF4AB5H   LINE      CODE     ---       #337
      00FF4AF3H   LINE      CODE     ---       #338
      00FF4B26H   LINE      CODE     ---       #341
      00FF4B86H   LINE      CODE     ---       #345
      00FF4B99H   LINE      CODE     ---       #346
      00FF4BA8H   LINE      CODE     ---       #348
      00FF4BB5H   LINE      CODE     ---       #349
      00FF4BC2H   LINE      CODE     ---       #350
      00FF4BC2H   LINE      CODE     ---       #353
      00FF4BF4H   LINE      CODE     ---       #354
      00FF4C2CH   LINE      CODE     ---       #357
L251 LINKER/LOCATER V4.66.93.0                                                        05/03/2024  16:07:18  PAGE 45


      00FF4C5AH   LINE      CODE     ---       #358
      00FF4C8EH   LINE      CODE     ---       #361
      00FF4CBFH   LINE      CODE     ---       #362
      00FF4CF0H   LINE      CODE     ---       #367
      ---         BLOCKEND  ---      ---       LVL=0

      00FF61C0H   BLOCK     CODE     ---       LVL=0
      00000701H   SYMBOL    EDATA    INT       pwmch
      00000703H   SYMBOL    EDATA    DWORD     duty
      00FF61C8H   BLOCK     CODE     NEAR LAB  LVL=1
      00000707H   SYMBOL    EDATA    DWORD     match_temp
      0000070BH   SYMBOL    EDATA    DWORD     arr
      ---         BLOCKEND  ---      ---       LVL=1
      00FF61C0H   LINE      CODE     ---       #377
      00FF61C8H   LINE      CODE     ---       #378
      00FF61C8H   LINE      CODE     ---       #380
      00FF6234H   LINE      CODE     ---       #384
      00FF623EH   LINE      CODE     ---       #386
      00FF6265H   LINE      CODE     ---       #387
      00FF6267H   LINE      CODE     ---       #390
      00FF6275H   LINE      CODE     ---       #391
      00FF6275H   LINE      CODE     ---       #396
      00FF62A3H   LINE      CODE     ---       #397
      00FF62D7H   LINE      CODE     ---       #401
      ---         BLOCKEND  ---      ---       LVL=0
      00000656H   SYMBOL    EDATA    INT       pwmch
      00000658H   SYMBOL    EDATA    DWORD     freq
      0000065CH   SYMBOL    EDATA    DWORD     duty
      00000660H   SYMBOL    EDATA    DWORD     match_temp
      00000664H   SYMBOL    EDATA    DWORD     period_temp
      00000668H   SYMBOL    EDATA    WORD      freq_div

      ---         MODULE    ---      ---       zf_spi
      00FF699BH   PUBLIC    CODE     ---       spi_init
      00FF866BH   PUBLIC    CODE     ---       spi_mosi
      00000747H   PUBLIC    EDATA    BYTE      ?spi_init?BYTE
      000000CFH   SFRSYM    DATA     BYTE      SPDAT
      000000D0H   SFRSYM    DATA     BYTE      PSW
      0000009DH   SFRSYM    DATA     BYTE      IRCBAND
      00000097H   SFRSYM    DATA     BYTE      AUXR2
      000000EFH   SFRSYM    DATA     BYTE      AUXINTIF
      000000FDH   SFRSYM    DATA     BYTE      S4CON
      000000ACH   SFRSYM    DATA     BYTE      S3CON
      0000009AH   SFRSYM    DATA     BYTE      S2CON
      000000B7H   SFRSYM    DATA     BYTE      IPH
      000000CDH   SFRSYM    DATA     BYTE      SPSTAT
      000000DDH   SFRSYM    DATA     BYTE      T4T3M
      000000C1H   SFRSYM    DATA     BYTE      WDT_CONTR
      000000DFH   SFRSYM    DATA     BYTE      IP3
      000000F4H   SFRSYM    DATA     BYTE      USBCON
      000000B5H   SFRSYM    DATA     BYTE      IP2
      000000FFH   SFRSYM    DATA     BYTE      RSTCFG
      000000F9H   SFRSYM    DATA     BYTE      LINICR
      0000008EH   SFRSYM    DATA     BYTE      AUXR
      000000AFH   SFRSYM    DATA     BYTE      IE2
      00000088H   SFRSYM    DATA     BYTE      TCON
      00000098H   SFRSYM    DATA     BYTE      SCON
      000000F1H   SFRSYM    DATA     BYTE      CANICR
      00000087H   SFRSYM    DATA     BYTE      PCON
      000000BCH   SFRSYM    DATA     BYTE      ADC_CONTR
      000000E7H   SFRSYM    DATA     BYTE      CMPCR2
      000000E6H   SFRSYM    DATA     BYTE      CMPCR1
      000000B8H   SFRSYM    DATA     BYTE      IP
      0000008FH   SFRSYM    DATA     BYTE      INTCLKO
      000000EEH   SFRSYM    DATA     BYTE      IP3H
L251 LINKER/LOCATER V4.66.93.0                                                        05/03/2024  16:07:18  PAGE 46


      000000B6H   SFRSYM    DATA     BYTE      IP2H
      000000A8H   SFRSYM    DATA     BYTE      IE
      000000BBH   SFRSYM    DATA     BYTE      P_SW3
      000000BAH   SFRSYM    DATA     BYTE      P_SW2
      000000A2H   SFRSYM    DATA     BYTE      P_SW1
      000000CEH   SFRSYM    DATA     BYTE      SPCTL
      000000F8H   SFRSYM    DATA     BYTE      P7
      000000E8H   SFRSYM    DATA     BYTE      P6
      000000C8H   SFRSYM    DATA     BYTE      P5
      000000C0H   SFRSYM    DATA     BYTE      P4
      000000B0H   SFRSYM    DATA     BYTE      P3
      000000A0H   SFRSYM    DATA     BYTE      P2
      00000090H   SFRSYM    DATA     BYTE      P1
      00000080H   SFRSYM    DATA     BYTE      P0

      00FF699BH   BLOCK     CODE     ---       LVL=0
      00000747H   SYMBOL    EDATA    INT       spi_n
      00000749H   SYMBOL    EDATA    INT       sck_pin
      0000074BH   SYMBOL    EDATA    INT       mosi_pin
      0000074DH   SYMBOL    EDATA    INT       miso_pin
      0000074FH   SYMBOL    EDATA    BYTE      mode
      00000750H   SYMBOL    EDATA    INT       mstr
      00000752H   SYMBOL    EDATA    INT       baud
      00FF699BH   LINE      CODE     ---       #39
      00FF69AFH   LINE      CODE     ---       #48
      00FF69BBH   LINE      CODE     ---       #50
      00FF69CAH   LINE      CODE     ---       #51
      00FF69CAH   LINE      CODE     ---       #53
      00FF69D6H   LINE      CODE     ---       #55
      00FF69E5H   LINE      CODE     ---       #56
      00FF69E5H   LINE      CODE     ---       #58
      00FF69F1H   LINE      CODE     ---       #60
      00FF6A00H   LINE      CODE     ---       #61
      00FF6A00H   LINE      CODE     ---       #64
      00FF6A03H   LINE      CODE     ---       #65
      00FF6A19H   LINE      CODE     ---       #67
      00FF6A19H   LINE      CODE     ---       #68
      00FF6A1DH   LINE      CODE     ---       #69
      00FF6A1FH   LINE      CODE     ---       #70
      00FF6A1FH   LINE      CODE     ---       #71
      00FF6A22H   LINE      CODE     ---       #72
      00FF6A24H   LINE      CODE     ---       #73
      00FF6A24H   LINE      CODE     ---       #74
      00FF6A27H   LINE      CODE     ---       #75
      00FF6A29H   LINE      CODE     ---       #76
      00FF6A29H   LINE      CODE     ---       #77
      00FF6A2CH   LINE      CODE     ---       #78
      00FF6A2CH   LINE      CODE     ---       #79
      00FF6A2CH   LINE      CODE     ---       #81
      00FF6A2FH   LINE      CODE     ---       #82
      00FF6A3EH   LINE      CODE     ---       #84
      00FF6A3EH   LINE      CODE     ---       #86
      00FF6A40H   LINE      CODE     ---       #87
      00FF6A40H   LINE      CODE     ---       #88
      00FF6A43H   LINE      CODE     ---       #89
      00FF6A45H   LINE      CODE     ---       #90
      00FF6A45H   LINE      CODE     ---       #91
      00FF6A48H   LINE      CODE     ---       #92
      00FF6A4AH   LINE      CODE     ---       #93
      00FF6A4AH   LINE      CODE     ---       #94
      00FF6A4DH   LINE      CODE     ---       #95
      00FF6A4DH   LINE      CODE     ---       #96
      00FF6A4DH   LINE      CODE     ---       #99
      00FF6A55H   LINE      CODE     ---       #101
      00FF6A5FH   LINE      CODE     ---       #103
L251 LINKER/LOCATER V4.66.93.0                                                        05/03/2024  16:07:18  PAGE 47


      00FF6A62H   LINE      CODE     ---       #104
      00FF6A65H   LINE      CODE     ---       #105
      00FF6A65H   LINE      CODE     ---       #109
      00FF6A65H   LINE      CODE     ---       #110
      00FF6A68H   LINE      CODE     ---       #111
      ---         BLOCKEND  ---      ---       LVL=0

      00FF866BH   BLOCK     CODE     ---       LVL=0
      00000BC1H   SYMBOL    EDATA    BYTE      dat
      00FF866BH   LINE      CODE     ---       #121
      00FF866FH   LINE      CODE     ---       #123
      00FF8671H   LINE      CODE     ---       #124
      00FF8676H   LINE      CODE     ---       #125
      00FF867AH   LINE      CODE     ---       #126
      00FF867CH   LINE      CODE     ---       #127
      ---         BLOCKEND  ---      ---       LVL=0
      00000B83H   SYMBOL    EDATA    INT       spi_n
      00000BC2H   SYMBOL    EDATA    BYTE      mode

      ---         MODULE    ---      ---       zf_tim
      000000D0H   SFRSYM    DATA     BYTE      PSW
      0000009DH   SFRSYM    DATA     BYTE      IRCBAND
      00000097H   SFRSYM    DATA     BYTE      AUXR2
      000000EFH   SFRSYM    DATA     BYTE      AUXINTIF
      000000FDH   SFRSYM    DATA     BYTE      S4CON
      000000ACH   SFRSYM    DATA     BYTE      S3CON
      0000009AH   SFRSYM    DATA     BYTE      S2CON
      000000B7H   SFRSYM    DATA     BYTE      IPH
      000000CDH   SFRSYM    DATA     BYTE      SPSTAT
      000000DDH   SFRSYM    DATA     BYTE      T4T3M
      000000C1H   SFRSYM    DATA     BYTE      WDT_CONTR
      00000088H.6 SFRSYM    DATA     BIT       TR1
      00000088H.4 SFRSYM    DATA     BIT       TR0
      000000D3H   SFRSYM    DATA     BYTE      T4L
      000000D5H   SFRSYM    DATA     BYTE      T3L
      000000D7H   SFRSYM    DATA     BYTE      T2L
      0000008BH   SFRSYM    DATA     BYTE      TL1
      0000008AH   SFRSYM    DATA     BYTE      TL0
      000000D2H   SFRSYM    DATA     BYTE      T4H
      000000D4H   SFRSYM    DATA     BYTE      T3H
      000000D6H   SFRSYM    DATA     BYTE      T2H
      0000008DH   SFRSYM    DATA     BYTE      TH1
      0000008CH   SFRSYM    DATA     BYTE      TH0
      000000DFH   SFRSYM    DATA     BYTE      IP3
      000000F4H   SFRSYM    DATA     BYTE      USBCON
      000000B5H   SFRSYM    DATA     BYTE      IP2
      000000FFH   SFRSYM    DATA     BYTE      RSTCFG
      000000A8H.3 SFRSYM    DATA     BIT       ET1
      000000A8H.1 SFRSYM    DATA     BIT       ET0
      000000F9H   SFRSYM    DATA     BYTE      LINICR
      0000008EH   SFRSYM    DATA     BYTE      AUXR
      000000AFH   SFRSYM    DATA     BYTE      IE2
      00000088H   SFRSYM    DATA     BYTE      TCON
      00000089H   SFRSYM    DATA     BYTE      TMOD
      00000098H   SFRSYM    DATA     BYTE      SCON
      000000F1H   SFRSYM    DATA     BYTE      CANICR
      00000087H   SFRSYM    DATA     BYTE      PCON
      000000BCH   SFRSYM    DATA     BYTE      ADC_CONTR
      000000E7H   SFRSYM    DATA     BYTE      CMPCR2
      000000E6H   SFRSYM    DATA     BYTE      CMPCR1
      000000B8H   SFRSYM    DATA     BYTE      IP
      0000008FH   SFRSYM    DATA     BYTE      INTCLKO
      000000EEH   SFRSYM    DATA     BYTE      IP3H
      000000B6H   SFRSYM    DATA     BYTE      IP2H
      000000A8H   SFRSYM    DATA     BYTE      IE
L251 LINKER/LOCATER V4.66.93.0                                                        05/03/2024  16:07:18  PAGE 48


      000000BBH   SFRSYM    DATA     BYTE      P_SW3
      000000BAH   SFRSYM    DATA     BYTE      P_SW2
      000000A2H   SFRSYM    DATA     BYTE      P_SW1
      000000CEH   SFRSYM    DATA     BYTE      SPCTL
      000000F8H   SFRSYM    DATA     BYTE      P7
      000000E8H   SFRSYM    DATA     BYTE      P6
      000000C8H   SFRSYM    DATA     BYTE      P5
      000000C0H   SFRSYM    DATA     BYTE      P4
      000000B0H   SFRSYM    DATA     BYTE      P3
      000000A0H   SFRSYM    DATA     BYTE      P2
      00000090H   SFRSYM    DATA     BYTE      P1
      00000080H   SFRSYM    DATA     BYTE      P0
      00000B85H   SYMBOL    EDATA    INT       tim_n
      00000B27H   SYMBOL    EDATA    INT       tim_n
      00000B29H   SYMBOL    EDATA    WORD      dat
      00000B87H   SYMBOL    EDATA    INT       tim_n
      000009D2H   SYMBOL    EDATA    INT       tim_n
      000009D4H   SYMBOL    EDATA    WORD      time_ms
      000009D6H   SYMBOL    EDATA    WORD      temp

      ---         MODULE    ---      ---       zf_uart
      00FF735FH   PUBLIC    CODE     ---       uart_putchar
      00FF5697H   PUBLIC    CODE     ---       uart_init
      00000ABCH   PUBLIC    EDATA    ---       busy
      0000070FH   PUBLIC    EDATA    BYTE      ?uart_init?BYTE
      00000819H   PUBLIC    EDATA    BYTE      ?uart_putbuff?BYTE
      000000D0H   SFRSYM    DATA     BYTE      PSW
      0000009DH   SFRSYM    DATA     BYTE      IRCBAND
      00000097H   SFRSYM    DATA     BYTE      AUXR2
      000000EFH   SFRSYM    DATA     BYTE      AUXINTIF
      000000FDH   SFRSYM    DATA     BYTE      S4CON
      000000ACH   SFRSYM    DATA     BYTE      S3CON
      0000009AH   SFRSYM    DATA     BYTE      S2CON
      000000FEH   SFRSYM    DATA     BYTE      S4BUF
      000000ADH   SFRSYM    DATA     BYTE      S3BUF
      0000009BH   SFRSYM    DATA     BYTE      S2BUF
      000000B7H   SFRSYM    DATA     BYTE      IPH
      000000CDH   SFRSYM    DATA     BYTE      SPSTAT
      000000DDH   SFRSYM    DATA     BYTE      T4T3M
      000000C1H   SFRSYM    DATA     BYTE      WDT_CONTR
      00000088H.6 SFRSYM    DATA     BIT       TR1
      000000D3H   SFRSYM    DATA     BYTE      T4L
      000000D5H   SFRSYM    DATA     BYTE      T3L
      000000D7H   SFRSYM    DATA     BYTE      T2L
      0000008BH   SFRSYM    DATA     BYTE      TL1
      000000D2H   SFRSYM    DATA     BYTE      T4H
      000000D4H   SFRSYM    DATA     BYTE      T3H
      000000D6H   SFRSYM    DATA     BYTE      T2H
      0000008DH   SFRSYM    DATA     BYTE      TH1
      000000DFH   SFRSYM    DATA     BYTE      IP3
      000000F4H   SFRSYM    DATA     BYTE      USBCON
      000000B5H   SFRSYM    DATA     BYTE      IP2
      000000FFH   SFRSYM    DATA     BYTE      RSTCFG
      000000F9H   SFRSYM    DATA     BYTE      LINICR
      0000008EH   SFRSYM    DATA     BYTE      AUXR
      000000AFH   SFRSYM    DATA     BYTE      IE2
      00000088H   SFRSYM    DATA     BYTE      TCON
      00000089H   SFRSYM    DATA     BYTE      TMOD
      00000098H   SFRSYM    DATA     BYTE      SCON
      000000F1H   SFRSYM    DATA     BYTE      CANICR
      00000087H   SFRSYM    DATA     BYTE      PCON
      00000099H   SFRSYM    DATA     BYTE      SBUF
      000000BCH   SFRSYM    DATA     BYTE      ADC_CONTR
      000000E7H   SFRSYM    DATA     BYTE      CMPCR2
      000000E6H   SFRSYM    DATA     BYTE      CMPCR1
L251 LINKER/LOCATER V4.66.93.0                                                        05/03/2024  16:07:18  PAGE 49


      000000B8H   SFRSYM    DATA     BYTE      IP
      000000A8H.4 SFRSYM    DATA     BIT       ES
      0000008FH   SFRSYM    DATA     BYTE      INTCLKO
      000000EEH   SFRSYM    DATA     BYTE      IP3H
      000000B6H   SFRSYM    DATA     BYTE      IP2H
      000000A8H   SFRSYM    DATA     BYTE      IE
      000000BBH   SFRSYM    DATA     BYTE      P_SW3
      000000BAH   SFRSYM    DATA     BYTE      P_SW2
      000000A2H   SFRSYM    DATA     BYTE      P_SW1
      000000CEH   SFRSYM    DATA     BYTE      SPCTL
      000000F8H   SFRSYM    DATA     BYTE      P7
      000000E8H   SFRSYM    DATA     BYTE      P6
      000000C8H   SFRSYM    DATA     BYTE      P5
      000000C0H   SFRSYM    DATA     BYTE      P4
      000000C9H   SFRSYM    DATA     BYTE      P5M1
      000000B0H   SFRSYM    DATA     BYTE      P3
      000000CAH   SFRSYM    DATA     BYTE      P5M0
      000000A0H   SFRSYM    DATA     BYTE      P2
      00000090H   SFRSYM    DATA     BYTE      P1
      00000080H   SFRSYM    DATA     BYTE      P0

      00FF5697H   BLOCK     CODE     ---       LVL=0
      0000070FH   SYMBOL    EDATA    INT       uart_n
      00000711H   SYMBOL    EDATA    INT       uart_rx_pin
      00000713H   SYMBOL    EDATA    INT       uart_tx_pin
      00000715H   SYMBOL    EDATA    DWORD     baud
      00000719H   SYMBOL    EDATA    INT       tim_n
      00FF56A7H   BLOCK     CODE     NEAR LAB  LVL=1
      0000071BH   SYMBOL    EDATA    WORD      brt
      ---         BLOCKEND  ---      ---       LVL=1
      00FF5697H   LINE      CODE     ---       #42
      00FF56A7H   LINE      CODE     ---       #43
      00FF56A7H   LINE      CODE     ---       #46
      00FF56CEH   LINE      CODE     ---       #49
      00FF56F0H   LINE      CODE     ---       #51
      00FF56F0H   LINE      CODE     ---       #53
      00FF56FCH   LINE      CODE     ---       #55
      00FF56FFH   LINE      CODE     ---       #56
      00FF5703H   LINE      CODE     ---       #57
      00FF5709H   LINE      CODE     ---       #58
      00FF5713H   LINE      CODE     ---       #59
      00FF5716H   LINE      CODE     ---       #60
      00FF5719H   LINE      CODE     ---       #61
      00FF571EH   LINE      CODE     ---       #62
      00FF5720H   LINE      CODE     ---       #63
      00FF572CH   LINE      CODE     ---       #65
      00FF572FH   LINE      CODE     ---       #66
      00FF5735H   LINE      CODE     ---       #67
      00FF573FH   LINE      CODE     ---       #68
      00FF5742H   LINE      CODE     ---       #69
      00FF5742H   LINE      CODE     ---       #70
      00FF5745H   LINE      CODE     ---       #71
      00FF575BH   LINE      CODE     ---       #73
      00FF575FH   LINE      CODE     ---       #74
      00FF5761H   LINE      CODE     ---       #75
      00FF5779H   LINE      CODE     ---       #77
      00FF577CH   LINE      CODE     ---       #78
      00FF577EH   LINE      CODE     ---       #79
      00FF5796H   LINE      CODE     ---       #81
      00FF5799H   LINE      CODE     ---       #82
      00FF579BH   LINE      CODE     ---       #83
      00FF57B3H   LINE      CODE     ---       #85
      00FF57B6H   LINE      CODE     ---       #86
      00FF57B6H   LINE      CODE     ---       #87
      00FF57BBH   LINE      CODE     ---       #88
L251 LINKER/LOCATER V4.66.93.0                                                        05/03/2024  16:07:18  PAGE 50


      00FF57BEH   LINE      CODE     ---       #89
      00FF57C1H   LINE      CODE     ---       #92
      00FF57C1H   LINE      CODE     ---       #94
      00FF57CDH   LINE      CODE     ---       #96
      00FF57D0H   LINE      CODE     ---       #97
      00FF57D6H   LINE      CODE     ---       #98
      00FF57E0H   LINE      CODE     ---       #99
      00FF57E3H   LINE      CODE     ---       #100
      00FF57E3H   LINE      CODE     ---       #102
      00FF57E6H   LINE      CODE     ---       #103
      00FF57FEH   LINE      CODE     ---       #105
      00FF5802H   LINE      CODE     ---       #106
      00FF5804H   LINE      CODE     ---       #107
      00FF581CH   LINE      CODE     ---       #109
      00FF581FH   LINE      CODE     ---       #110
      00FF581FH   LINE      CODE     ---       #112
      00FF5822H   LINE      CODE     ---       #113
      00FF5827H   LINE      CODE     ---       #114
      00FF582AH   LINE      CODE     ---       #117
      00FF582AH   LINE      CODE     ---       #119
      00FF5836H   LINE      CODE     ---       #121
      00FF5839H   LINE      CODE     ---       #122
      00FF583FH   LINE      CODE     ---       #123
      00FF5849H   LINE      CODE     ---       #124
      00FF584CH   LINE      CODE     ---       #125
      00FF584EH   LINE      CODE     ---       #126
      00FF585AH   LINE      CODE     ---       #128
      00FF585DH   LINE      CODE     ---       #129
      00FF5863H   LINE      CODE     ---       #130
      00FF586DH   LINE      CODE     ---       #131
      00FF5870H   LINE      CODE     ---       #132
      00FF5870H   LINE      CODE     ---       #134
      00FF5873H   LINE      CODE     ---       #135
      00FF588BH   LINE      CODE     ---       #137
      00FF588FH   LINE      CODE     ---       #138
      00FF5891H   LINE      CODE     ---       #139
      00FF58A9H   LINE      CODE     ---       #141
      00FF58ACH   LINE      CODE     ---       #142
      00FF58ACH   LINE      CODE     ---       #144
      00FF58AFH   LINE      CODE     ---       #145
      00FF58B4H   LINE      CODE     ---       #146
      00FF58B7H   LINE      CODE     ---       #149
      00FF58B7H   LINE      CODE     ---       #151
      00FF58C3H   LINE      CODE     ---       #153
      00FF58C6H   LINE      CODE     ---       #154
      00FF58CCH   LINE      CODE     ---       #155
      00FF58D6H   LINE      CODE     ---       #156
      00FF58D9H   LINE      CODE     ---       #157
      00FF58DBH   LINE      CODE     ---       #158
      00FF58E7H   LINE      CODE     ---       #160
      00FF58EAH   LINE      CODE     ---       #161
      00FF58F0H   LINE      CODE     ---       #162
      00FF58FAH   LINE      CODE     ---       #163
      00FF58FDH   LINE      CODE     ---       #164
      00FF58FDH   LINE      CODE     ---       #166
      00FF5900H   LINE      CODE     ---       #167
      00FF5918H   LINE      CODE     ---       #169
      00FF591CH   LINE      CODE     ---       #170
      00FF591EH   LINE      CODE     ---       #171
      00FF5936H   LINE      CODE     ---       #173
      00FF5939H   LINE      CODE     ---       #174
      00FF593DH   LINE      CODE     ---       #175
      00FF5940H   LINE      CODE     ---       #176
      00FF5940H   LINE      CODE     ---       #177
      00FF5943H   LINE      CODE     ---       #178
L251 LINKER/LOCATER V4.66.93.0                                                        05/03/2024  16:07:18  PAGE 51


      00FF5948H   LINE      CODE     ---       #179
      00FF5948H   LINE      CODE     ---       #182
      00FF5948H   LINE      CODE     ---       #184
      ---         BLOCKEND  ---      ---       LVL=0

      00FF735FH   BLOCK     CODE     ---       LVL=0
      00000B52H   SYMBOL    EDATA    INT       uart_n
      00000B54H   SYMBOL    EDATA    BYTE      dat
      00FF735FH   LINE      CODE     ---       #193
      00FF7367H   LINE      CODE     ---       #195
      00FF7379H   LINE      CODE     ---       #197
      00FF7379H   LINE      CODE     ---       #198
      00FF7382H   LINE      CODE     ---       #199
      00FF7388H   LINE      CODE     ---       #200
      00FF738EH   LINE      CODE     ---       #201
      00FF7390H   LINE      CODE     ---       #202
      00FF7390H   LINE      CODE     ---       #203
      00FF7399H   LINE      CODE     ---       #204
      00FF739FH   LINE      CODE     ---       #205
      00FF73A5H   LINE      CODE     ---       #206
      00FF73A7H   LINE      CODE     ---       #207
      00FF73A7H   LINE      CODE     ---       #208
      00FF73B0H   LINE      CODE     ---       #209
      00FF73B6H   LINE      CODE     ---       #210
      00FF73BCH   LINE      CODE     ---       #211
      00FF73BEH   LINE      CODE     ---       #212
      00FF73BEH   LINE      CODE     ---       #213
      00FF73C7H   LINE      CODE     ---       #214
      00FF73CDH   LINE      CODE     ---       #215
      00FF73D3H   LINE      CODE     ---       #216
      00FF73D3H   LINE      CODE     ---       #217
      00FF73D3H   LINE      CODE     ---       #218
      ---         BLOCKEND  ---      ---       LVL=0
      00000819H   SYMBOL    EDATA    INT       uart_n
      0000081BH   SYMBOL    EDATA    ---       p
      0000081FH   SYMBOL    EDATA    DWORD     len
      000009D8H   SYMBOL    EDATA    INT       uart_n
      000009DAH   SYMBOL    EDATA    ---       str

      ---         MODULE    ---      ---       zf_fifo
      0000067EH   PUBLIC    EDATA    BYTE      ?fifo_write_buffer?BYTE
      00000761H   PUBLIC    EDATA    BYTE      ?fifo_read_element?BYTE
      00000008H   PUBLIC    EDATA    BYTE      ?fifo_read_buffer?BYTE
      00000614H   PUBLIC    EDATA    BYTE      ?fifo_read_tail_buffer?BYTE
      000006A2H   PUBLIC    EDATA    BYTE      ?fifo_init?BYTE
      000000D0H   SFRSYM    DATA     BYTE      PSW
      0000009DH   SFRSYM    DATA     BYTE      IRCBAND
      00000097H   SFRSYM    DATA     BYTE      AUXR2
      000000EFH   SFRSYM    DATA     BYTE      AUXINTIF
      000000FDH   SFRSYM    DATA     BYTE      S4CON
      000000ACH   SFRSYM    DATA     BYTE      S3CON
      0000009AH   SFRSYM    DATA     BYTE      S2CON
      000000B7H   SFRSYM    DATA     BYTE      IPH
      000000CDH   SFRSYM    DATA     BYTE      SPSTAT
      000000DDH   SFRSYM    DATA     BYTE      T4T3M
      000000C1H   SFRSYM    DATA     BYTE      WDT_CONTR
      000000DFH   SFRSYM    DATA     BYTE      IP3
      000000F4H   SFRSYM    DATA     BYTE      USBCON
      000000B5H   SFRSYM    DATA     BYTE      IP2
      000000FFH   SFRSYM    DATA     BYTE      RSTCFG
      000000F9H   SFRSYM    DATA     BYTE      LINICR
      0000008EH   SFRSYM    DATA     BYTE      AUXR
      000000AFH   SFRSYM    DATA     BYTE      IE2
      00000088H   SFRSYM    DATA     BYTE      TCON
      00000098H   SFRSYM    DATA     BYTE      SCON
L251 LINKER/LOCATER V4.66.93.0                                                        05/03/2024  16:07:18  PAGE 52


      000000F1H   SFRSYM    DATA     BYTE      CANICR
      00000087H   SFRSYM    DATA     BYTE      PCON
      000000BCH   SFRSYM    DATA     BYTE      ADC_CONTR
      000000E7H   SFRSYM    DATA     BYTE      CMPCR2
      000000E6H   SFRSYM    DATA     BYTE      CMPCR1
      000000B8H   SFRSYM    DATA     BYTE      IP
      0000008FH   SFRSYM    DATA     BYTE      INTCLKO
      000000EEH   SFRSYM    DATA     BYTE      IP3H
      000000B6H   SFRSYM    DATA     BYTE      IP2H
      000000A8H   SFRSYM    DATA     BYTE      IE
      000000BBH   SFRSYM    DATA     BYTE      P_SW3
      000000BAH   SFRSYM    DATA     BYTE      P_SW2
      000000A2H   SFRSYM    DATA     BYTE      P_SW1
      000000CEH   SFRSYM    DATA     BYTE      SPCTL
      000000F8H   SFRSYM    DATA     BYTE      P7
      000000E8H   SFRSYM    DATA     BYTE      P6
      000000C8H   SFRSYM    DATA     BYTE      P5
      000000C0H   SFRSYM    DATA     BYTE      P4
      000000B0H   SFRSYM    DATA     BYTE      P3
      000000A0H   SFRSYM    DATA     BYTE      P2
      00000090H   SFRSYM    DATA     BYTE      P1
      00000080H   SFRSYM    DATA     BYTE      P0
      00FF73D4H   SYMBOL    CODE     ---       fifo_head_offset

      00FF73D4H   BLOCK     CODE     ---       LVL=0
      00000903H   SYMBOL    EDATA    ---       fifo
      00000907H   SYMBOL    EDATA    DWORD     offset
      00FF73D4H   LINE      CODE     ---       #42
      00FF73DCH   LINE      CODE     ---       #44
      00FF73F8H   LINE      CODE     ---       #46
      00FF73FAH   LINE      CODE     ---       #48
      00FF7421H   LINE      CODE     ---       #49
      00FF7443H   LINE      CODE     ---       #50
      ---         BLOCKEND  ---      ---       LVL=0
      0000090BH   SYMBOL    EDATA    ---       fifo
      0000090FH   SYMBOL    EDATA    DWORD     offset
      000009DEH   SYMBOL    EDATA    ---       fifo
      000009E2H   SYMBOL    EDATA    INT       return_state
      00000B2BH   SYMBOL    EDATA    ---       fifo
      00000823H   SYMBOL    EDATA    ---       fifo
      00000827H   SYMBOL    EDATA    DWORD     dat
      0000082BH   SYMBOL    EDATA    INT       return_state
      0000067EH   SYMBOL    EDATA    ---       fifo
      00000682H   SYMBOL    EDATA    ---       dat
      00000686H   SYMBOL    EDATA    DWORD     length
      0000068AH   SYMBOL    EDATA    INT       return_state
      0000068CH   SYMBOL    EDATA    DWORD     temp_length
      00000761H   SYMBOL    EDATA    ---       fifo
      00000765H   SYMBOL    EDATA    ---       dat
      00000769H   SYMBOL    EDATA    INT       flag
      0000076BH   SYMBOL    EDATA    INT       return_state
      00000008H   SYMBOL    EDATA    ---       fifo
      0000000CH   SYMBOL    EDATA    ---       dat
      00000010H   SYMBOL    EDATA    ---       length
      00000014H   SYMBOL    EDATA    INT       flag
      00000016H   SYMBOL    EDATA    INT       return_state
      00000018H   SYMBOL    EDATA    DWORD     temp_length
      0000001CH   SYMBOL    EDATA    DWORD     fifo_data_length
      00000614H   SYMBOL    EDATA    ---       fifo
      00000618H   SYMBOL    EDATA    ---       dat
      0000061CH   SYMBOL    EDATA    ---       length
      00000620H   SYMBOL    EDATA    INT       flag
      00000622H   SYMBOL    EDATA    INT       return_state
      00000624H   SYMBOL    EDATA    DWORD     temp_length
      00000628H   SYMBOL    EDATA    DWORD     fifo_data_length
L251 LINKER/LOCATER V4.66.93.0                                                        05/03/2024  16:07:18  PAGE 53


      000006A2H   SYMBOL    EDATA    ---       fifo
      000006A6H   SYMBOL    EDATA    INT       type
      000006A8H   SYMBOL    EDATA    ---       buffer_addr
      000006ACH   SYMBOL    EDATA    DWORD     len
      000006B0H   SYMBOL    EDATA    INT       return_state

      ---         MODULE    ---      ---       zf_iic
      00FF78DFH   PUBLIC    CODE     ---       wait
      00FF8179H   PUBLIC    CODE     ---       iic_delay_us
      000009E0H   PUBLIC    EDATA    BYTE      ?iic_init?BYTE
      000000D0H   SFRSYM    DATA     BYTE      PSW
      0000009DH   SFRSYM    DATA     BYTE      IRCBAND
      00000097H   SFRSYM    DATA     BYTE      AUXR2
      000000EFH   SFRSYM    DATA     BYTE      AUXINTIF
      000000FDH   SFRSYM    DATA     BYTE      S4CON
      000000ACH   SFRSYM    DATA     BYTE      S3CON
      0000009AH   SFRSYM    DATA     BYTE      S2CON
      000000B7H   SFRSYM    DATA     BYTE      IPH
      000000CDH   SFRSYM    DATA     BYTE      SPSTAT
      000000DDH   SFRSYM    DATA     BYTE      T4T3M
      000000C1H   SFRSYM    DATA     BYTE      WDT_CONTR
      000000DFH   SFRSYM    DATA     BYTE      IP3
      000000F4H   SFRSYM    DATA     BYTE      USBCON
      000000B5H   SFRSYM    DATA     BYTE      IP2
      000000FFH   SFRSYM    DATA     BYTE      RSTCFG
      000000F9H   SFRSYM    DATA     BYTE      LINICR
      0000008EH   SFRSYM    DATA     BYTE      AUXR
      000000AFH   SFRSYM    DATA     BYTE      IE2
      00000088H   SFRSYM    DATA     BYTE      TCON
      00000098H   SFRSYM    DATA     BYTE      SCON
      000000F1H   SFRSYM    DATA     BYTE      CANICR
      00000087H   SFRSYM    DATA     BYTE      PCON
      000000BCH   SFRSYM    DATA     BYTE      ADC_CONTR
      000000E7H   SFRSYM    DATA     BYTE      CMPCR2
      000000E6H   SFRSYM    DATA     BYTE      CMPCR1
      000000B8H   SFRSYM    DATA     BYTE      IP
      0000008FH   SFRSYM    DATA     BYTE      INTCLKO
      000000EEH   SFRSYM    DATA     BYTE      IP3H
      000000B6H   SFRSYM    DATA     BYTE      IP2H
      000000A8H   SFRSYM    DATA     BYTE      IE
      000000BBH   SFRSYM    DATA     BYTE      P_SW3
      000000BAH   SFRSYM    DATA     BYTE      P_SW2
      000000A2H   SFRSYM    DATA     BYTE      P_SW1
      000000CEH   SFRSYM    DATA     BYTE      SPCTL
      000000F8H   SFRSYM    DATA     BYTE      P7
      000000E8H   SFRSYM    DATA     BYTE      P6
      000000C8H   SFRSYM    DATA     BYTE      P5
      000000C0H   SFRSYM    DATA     BYTE      P4
      000000B0H   SFRSYM    DATA     BYTE      P3
      000000A0H   SFRSYM    DATA     BYTE      P2
      00000090H   SFRSYM    DATA     BYTE      P1
      00000080H   SFRSYM    DATA     BYTE      P0

      00FF8179H   BLOCK     CODE     ---       LVL=0
      00000B55H   SYMBOL    EDATA    WORD      x
      00FF817DH   BLOCK     CODE     NEAR LAB  LVL=1
      00000B57H   SYMBOL    EDATA    BYTE      i
      ---         BLOCKEND  ---      ---       LVL=1
      00FF8179H   LINE      CODE     ---       #30
      00FF817DH   LINE      CODE     ---       #31
      00FF817DH   LINE      CODE     ---       #33
      00FF817FH   LINE      CODE     ---       #35
      00FF8185H   LINE      CODE     ---       #36
      00FF8197H   LINE      CODE     ---       #37
      00FF81ADH   LINE      CODE     ---       #38
L251 LINKER/LOCATER V4.66.93.0                                                        05/03/2024  16:07:18  PAGE 54


      ---         BLOCKEND  ---      ---       LVL=0

      00FF78DFH   BLOCK     CODE     ---       LVL=0
      00000B58H   SYMBOL    EDATA    WORD      count
      00000B5AH   SYMBOL    EDATA    BYTE      ret
      00FF78DFH   LINE      CODE     ---       #47
      00FF78DFH   LINE      CODE     ---       #48
      00FF78DFH   LINE      CODE     ---       #49
      00FF78E5H   LINE      CODE     ---       #50
      00FF78EAH   LINE      CODE     ---       #51
      00FF78ECH   LINE      CODE     ---       #53
      00FF78F3H   LINE      CODE     ---       #54
      00FF7909H   LINE      CODE     ---       #56
      00FF790FH   LINE      CODE     ---       #57
      00FF7911H   LINE      CODE     ---       #58
      00FF791FH   LINE      CODE     ---       #60
      00FF7931H   LINE      CODE     ---       #61
      00FF7935H   LINE      CODE     ---       #62
      ---         BLOCKEND  ---      ---       LVL=0
      00000BC3H   SYMBOL    EDATA    BYTE      ret
      00000B89H   SYMBOL    EDATA    CHAR      dat
      00000B8AH   SYMBOL    EDATA    BYTE      ret
      00000BC4H   SYMBOL    EDATA    BYTE      ret
      00000BC5H   SYMBOL    EDATA    BYTE      ret
      00000BC6H   SYMBOL    EDATA    BYTE      ret
      000009E4H   SYMBOL    EDATA    INT       iic_n
      000009E6H   SYMBOL    EDATA    DWORD     wait_time
      00000B5BH   SYMBOL    EDATA    BYTE      dev_add
      00000B5CH   SYMBOL    EDATA    BYTE      reg
      00000B5DH   SYMBOL    EDATA    BYTE      dat
      000009EAH   SYMBOL    EDATA    BYTE      dev_add
      000009EBH   SYMBOL    EDATA    BYTE      reg
      000009ECH   SYMBOL    EDATA    ---       dat
      000009A3H   SYMBOL    EDATA    BYTE      dev_add
      000009A4H   SYMBOL    EDATA    BYTE      reg
      000009A5H   SYMBOL    EDATA    ---       dat
      000009A9H   SYMBOL    EDATA    BYTE      num
      00000B8BH   SYMBOL    EDATA    INT       iic_n

      ---         MODULE    ---      ---       SEEKFREE_18TFT
      00FF7DC2H   PUBLIC    CODE     ---       lcd_writeIndex_simspi
      00FF7E0DH   PUBLIC    CODE     ---       lcd_writeData_simspi
      00FF85CAH   PUBLIC    CODE     ---       lcd_writeIndex
      00FF85DFH   PUBLIC    CODE     ---       lcd_writeData
      00FF7AE7H   PUBLIC    CODE     ---       lcd_writeData_16bit_simspi
      00FF764AH   PUBLIC    CODE     ---       lcd_set_region_simspi
      00FF76AEH   PUBLIC    CODE     ---       lcd_set_region
      00FF8210H   PUBLIC    CODE     ---       lcd_writedata_16bit
      0000076DH   PUBLIC    EDATA    BYTE      ?lcd_showfloat_simspi?BYTE
      00000779H   PUBLIC    EDATA    BYTE      ?lcd_showfloat?BYTE
      000000D0H   SFRSYM    DATA     BYTE      PSW
      0000009DH   SFRSYM    DATA     BYTE      IRCBAND
      00000097H   SFRSYM    DATA     BYTE      AUXR2
      000000EFH   SFRSYM    DATA     BYTE      AUXINTIF
      000000FDH   SFRSYM    DATA     BYTE      S4CON
      000000ACH   SFRSYM    DATA     BYTE      S3CON
      0000009AH   SFRSYM    DATA     BYTE      S2CON
      000000B7H   SFRSYM    DATA     BYTE      IPH
      000000CDH   SFRSYM    DATA     BYTE      SPSTAT
      000000DDH   SFRSYM    DATA     BYTE      T4T3M
      000000C1H   SFRSYM    DATA     BYTE      WDT_CONTR
      000000DFH   SFRSYM    DATA     BYTE      IP3
      000000F4H   SFRSYM    DATA     BYTE      USBCON
      000000B5H   SFRSYM    DATA     BYTE      IP2
      000000FFH   SFRSYM    DATA     BYTE      RSTCFG
L251 LINKER/LOCATER V4.66.93.0                                                        05/03/2024  16:07:18  PAGE 55


      000000F9H   SFRSYM    DATA     BYTE      LINICR
      0000008EH   SFRSYM    DATA     BYTE      AUXR
      000000AFH   SFRSYM    DATA     BYTE      IE2
      000000A0H.5 SFRSYM    DATA     BIT       P25
      00000088H   SFRSYM    DATA     BYTE      TCON
      000000A0H.3 SFRSYM    DATA     BIT       P23
      00000098H   SFRSYM    DATA     BYTE      SCON
      000000A0H.2 SFRSYM    DATA     BIT       P22
      000000A0H.1 SFRSYM    DATA     BIT       P21
      000000A0H.0 SFRSYM    DATA     BIT       P20
      000000F1H   SFRSYM    DATA     BYTE      CANICR
      00000087H   SFRSYM    DATA     BYTE      PCON
      000000BCH   SFRSYM    DATA     BYTE      ADC_CONTR
      000000E7H   SFRSYM    DATA     BYTE      CMPCR2
      000000E6H   SFRSYM    DATA     BYTE      CMPCR1
      000000B8H   SFRSYM    DATA     BYTE      IP
      0000008FH   SFRSYM    DATA     BYTE      INTCLKO
      000000EEH   SFRSYM    DATA     BYTE      IP3H
      000000B6H   SFRSYM    DATA     BYTE      IP2H
      000000A8H   SFRSYM    DATA     BYTE      IE
      000000BBH   SFRSYM    DATA     BYTE      P_SW3
      000000BAH   SFRSYM    DATA     BYTE      P_SW2
      000000A2H   SFRSYM    DATA     BYTE      P_SW1
      000000CEH   SFRSYM    DATA     BYTE      SPCTL
      000000F8H   SFRSYM    DATA     BYTE      P7
      000000E8H   SFRSYM    DATA     BYTE      P6
      000000C8H   SFRSYM    DATA     BYTE      P5
      000000C0H   SFRSYM    DATA     BYTE      P4
      000000B0H   SFRSYM    DATA     BYTE      P3
      000000A0H   SFRSYM    DATA     BYTE      P2
      00000090H   SFRSYM    DATA     BYTE      P1
      00000080H   SFRSYM    DATA     BYTE      P0

      00FF7DC2H   BLOCK     CODE     ---       LVL=0
      00000BC7H   SYMBOL    EDATA    BYTE      dat
      00FF7DC6H   BLOCK     CODE     NEAR LAB  LVL=1
      000106BFH   SYMBOL    XDATA    BYTE      i
      ---         BLOCKEND  ---      ---       LVL=1
      00FF7DC2H   LINE      CODE     ---       #60
      00FF7DC6H   LINE      CODE     ---       #61
      00FF7DC6H   LINE      CODE     ---       #62
      00FF7DCCH   LINE      CODE     ---       #64
      00FF7DCFH   LINE      CODE     ---       #65
      00FF7DD2H   LINE      CODE     ---       #66
      00FF7DD5H   LINE      CODE     ---       #68
      00FF7DD7H   LINE      CODE     ---       #70
      00FF7DE3H   LINE      CODE     ---       #71
      00FF7DE6H   LINE      CODE     ---       #72
      00FF7DE9H   LINE      CODE     ---       #74
      00FF7DECH   LINE      CODE     ---       #75
      00FF7DF6H   LINE      CODE     ---       #76
      00FF7E09H   LINE      CODE     ---       #77
      00FF7E0CH   LINE      CODE     ---       #78
      ---         BLOCKEND  ---      ---       LVL=0

      00FF7E0DH   BLOCK     CODE     ---       LVL=0
      00000BC8H   SYMBOL    EDATA    BYTE      dat
      00FF7E11H   BLOCK     CODE     NEAR LAB  LVL=1
      000106C0H   SYMBOL    XDATA    BYTE      i
      ---         BLOCKEND  ---      ---       LVL=1
      00FF7E0DH   LINE      CODE     ---       #87
      00FF7E11H   LINE      CODE     ---       #88
      00FF7E11H   LINE      CODE     ---       #89
      00FF7E17H   LINE      CODE     ---       #91
      00FF7E1AH   LINE      CODE     ---       #92
L251 LINKER/LOCATER V4.66.93.0                                                        05/03/2024  16:07:18  PAGE 56


      00FF7E1DH   LINE      CODE     ---       #93
      00FF7E20H   LINE      CODE     ---       #94
      00FF7E22H   LINE      CODE     ---       #96
      00FF7E2EH   LINE      CODE     ---       #97
      00FF7E31H   LINE      CODE     ---       #98
      00FF7E34H   LINE      CODE     ---       #100
      00FF7E37H   LINE      CODE     ---       #101
      00FF7E41H   LINE      CODE     ---       #102
      00FF7E54H   LINE      CODE     ---       #103
      00FF7E57H   LINE      CODE     ---       #104
      ---         BLOCKEND  ---      ---       LVL=0

      00FF7AE7H   BLOCK     CODE     ---       LVL=0
      00000B8DH   SYMBOL    EDATA    WORD      dat
      00FF7AEBH   BLOCK     CODE     NEAR LAB  LVL=1
      000106C1H   SYMBOL    XDATA    BYTE      i
      ---         BLOCKEND  ---      ---       LVL=1
      00FF7AE7H   LINE      CODE     ---       #113
      00FF7AEBH   LINE      CODE     ---       #114
      00FF7AEBH   LINE      CODE     ---       #115
      00FF7AF1H   LINE      CODE     ---       #117
      00FF7AF4H   LINE      CODE     ---       #118
      00FF7AF7H   LINE      CODE     ---       #119
      00FF7AFAH   LINE      CODE     ---       #121
      00FF7AFCH   LINE      CODE     ---       #123
      00FF7B11H   LINE      CODE     ---       #124
      00FF7B14H   LINE      CODE     ---       #125
      00FF7B17H   LINE      CODE     ---       #127
      00FF7B1AH   LINE      CODE     ---       #128
      00FF7B24H   LINE      CODE     ---       #129
      00FF7B37H   LINE      CODE     ---       #131
      00FF7B3AH   LINE      CODE     ---       #133
      ---         BLOCKEND  ---      ---       LVL=0

      00FF764AH   BLOCK     CODE     ---       LVL=0
      00000913H   SYMBOL    EDATA    WORD      x_start
      00000915H   SYMBOL    EDATA    WORD      y_start
      00000917H   SYMBOL    EDATA    WORD      x_end
      00000919H   SYMBOL    EDATA    WORD      y_end
      00FF764AH   LINE      CODE     ---       #145
      00FF765AH   LINE      CODE     ---       #163
      00FF765FH   LINE      CODE     ---       #164
      00FF7663H   LINE      CODE     ---       #165
      00FF7670H   LINE      CODE     ---       #166
      00FF7674H   LINE      CODE     ---       #167
      00FF7681H   LINE      CODE     ---       #169
      00FF7686H   LINE      CODE     ---       #170
      00FF768AH   LINE      CODE     ---       #171
      00FF7697H   LINE      CODE     ---       #172
      00FF769BH   LINE      CODE     ---       #173
      00FF76A8H   LINE      CODE     ---       #177
      00FF76ADH   LINE      CODE     ---       #178
      ---         BLOCKEND  ---      ---       LVL=0
      00000B5EH   SYMBOL    EDATA    INT       color
      000106C2H   SYMBOL    XDATA    BYTE      i
      00000B60H   SYMBOL    EDATA    BYTE      j
      000009F0H   SYMBOL    EDATA    WORD      x
      000009F2H   SYMBOL    EDATA    WORD      y
      000009F4H   SYMBOL    EDATA    WORD      color
      000009F6H   SYMBOL    EDATA    WORD      x
      000009F8H   SYMBOL    EDATA    WORD      y
      000009FAH   SYMBOL    EDATA    CHAR      dat
      00010689H   SYMBOL    XDATA    BYTE      i
      000009FBH   SYMBOL    EDATA    BYTE      j
      0001068AH   SYMBOL    XDATA    BYTE      temp
L251 LINKER/LOCATER V4.66.93.0                                                        05/03/2024  16:07:18  PAGE 57


      0000091BH   SYMBOL    EDATA    WORD      x
      0000091DH   SYMBOL    EDATA    WORD      y
      0000091FH   SYMBOL    EDATA    ---       dat
      0001068BH   SYMBOL    XDATA    WORD      j
      00000AC1H   SYMBOL    EDATA    WORD      x
      00000AC3H   SYMBOL    EDATA    WORD      y
      00000AC5H   SYMBOL    EDATA    CHAR      dat
      0001062FH   SYMBOL    XDATA    ---       a
      00010632H   SYMBOL    XDATA    BYTE      i
      00000AC6H   SYMBOL    EDATA    WORD      x
      00000AC8H   SYMBOL    EDATA    WORD      y
      00000ACAH   SYMBOL    EDATA    BYTE      dat
      00010633H   SYMBOL    XDATA    ---       a
      00010636H   SYMBOL    XDATA    BYTE      i
      000009FCH   SYMBOL    EDATA    WORD      x
      000009FEH   SYMBOL    EDATA    WORD      y
      00000A00H   SYMBOL    EDATA    INT       dat
      000105D6H   SYMBOL    XDATA    ---       a
      000105DBH   SYMBOL    XDATA    BYTE      i
      00000A02H   SYMBOL    EDATA    WORD      x
      00000A04H   SYMBOL    EDATA    WORD      y
      00000A06H   SYMBOL    EDATA    WORD      dat
      000105DCH   SYMBOL    XDATA    ---       a
      000105E1H   SYMBOL    XDATA    BYTE      i
      00000873H   SYMBOL    EDATA    WORD      x
      00000875H   SYMBOL    EDATA    WORD      y
      00000877H   SYMBOL    EDATA    LONG      dat
      0000087BH   SYMBOL    EDATA    BYTE      num
      00010508H   SYMBOL    XDATA    ---       buff
      0001052AH   SYMBOL    XDATA    BYTE      length
      0000076DH   SYMBOL    EDATA    WORD      x
      0000076FH   SYMBOL    EDATA    WORD      y
      00000771H   SYMBOL    EDATA    FLOAT     dat
      00000775H   SYMBOL    EDATA    BYTE      num
      00000776H   SYMBOL    EDATA    BYTE      pointnum
      00010478H   SYMBOL    XDATA    BYTE      length
      00010479H   SYMBOL    XDATA    ---       buff
      0001049BH   SYMBOL    XDATA    CHAR      start
      00000777H   SYMBOL    EDATA    CHAR      end
      00000778H   SYMBOL    EDATA    CHAR      point

      00FF85CAH   BLOCK     CODE     ---       LVL=0
      00000BC9H   SYMBOL    EDATA    BYTE      dat
      00FF85CAH   LINE      CODE     ---       #607
      00FF85CEH   LINE      CODE     ---       #610
      00FF85D1H   LINE      CODE     ---       #611
      00FF85D4H   LINE      CODE     ---       #612
      00FF85DBH   LINE      CODE     ---       #613
      00FF85DEH   LINE      CODE     ---       #614
      ---         BLOCKEND  ---      ---       LVL=0

      00FF85DFH   BLOCK     CODE     ---       LVL=0
      00000BCAH   SYMBOL    EDATA    BYTE      dat
      00FF85DFH   LINE      CODE     ---       #623
      00FF85E3H   LINE      CODE     ---       #625
      00FF85E6H   LINE      CODE     ---       #626
      00FF85E9H   LINE      CODE     ---       #627
      00FF85F0H   LINE      CODE     ---       #628
      00FF85F3H   LINE      CODE     ---       #629
      ---         BLOCKEND  ---      ---       LVL=0

      00FF8210H   BLOCK     CODE     ---       LVL=0
      00000B8FH   SYMBOL    EDATA    WORD      dat
      00FF8214H   BLOCK     CODE     NEAR LAB  LVL=1
      0001068DH   SYMBOL    XDATA    ---       dat1
L251 LINKER/LOCATER V4.66.93.0                                                        05/03/2024  16:07:18  PAGE 58


      ---         BLOCKEND  ---      ---       LVL=1
      00FF8210H   LINE      CODE     ---       #638
      00FF8214H   LINE      CODE     ---       #639
      00FF8214H   LINE      CODE     ---       #642
      00FF821CH   LINE      CODE     ---       #643
      00FF8224H   LINE      CODE     ---       #645
      00FF8227H   LINE      CODE     ---       #646
      00FF822AH   LINE      CODE     ---       #647
      00FF8231H   LINE      CODE     ---       #648
      00FF8238H   LINE      CODE     ---       #649
      00FF823BH   LINE      CODE     ---       #651
      ---         BLOCKEND  ---      ---       LVL=0

      00FF76AEH   BLOCK     CODE     ---       LVL=0
      00000923H   SYMBOL    EDATA    WORD      x_start
      00000925H   SYMBOL    EDATA    WORD      y_start
      00000927H   SYMBOL    EDATA    WORD      x_end
      00000929H   SYMBOL    EDATA    WORD      y_end
      00FF76AEH   LINE      CODE     ---       #663
      00FF76BEH   LINE      CODE     ---       #681
      00FF76C3H   LINE      CODE     ---       #682
      00FF76C7H   LINE      CODE     ---       #683
      00FF76D4H   LINE      CODE     ---       #684
      00FF76D8H   LINE      CODE     ---       #685
      00FF76E5H   LINE      CODE     ---       #687
      00FF76EAH   LINE      CODE     ---       #688
      00FF76EEH   LINE      CODE     ---       #689
      00FF76FBH   LINE      CODE     ---       #690
      00FF76FFH   LINE      CODE     ---       #691
      00FF770CH   LINE      CODE     ---       #695
      00FF7711H   LINE      CODE     ---       #696
      ---         BLOCKEND  ---      ---       LVL=0
      00000B61H   SYMBOL    EDATA    INT       color
      000106C3H   SYMBOL    XDATA    BYTE      i
      00000B63H   SYMBOL    EDATA    BYTE      j
      00000A08H   SYMBOL    EDATA    WORD      x
      00000A0AH   SYMBOL    EDATA    WORD      y
      00000A0CH   SYMBOL    EDATA    WORD      color
      00000A0EH   SYMBOL    EDATA    WORD      x
      00000A10H   SYMBOL    EDATA    WORD      y
      00000A12H   SYMBOL    EDATA    CHAR      dat
      0001068FH   SYMBOL    XDATA    BYTE      i
      00000A13H   SYMBOL    EDATA    BYTE      j
      00010690H   SYMBOL    XDATA    BYTE      temp
      0000092BH   SYMBOL    EDATA    WORD      x
      0000092DH   SYMBOL    EDATA    WORD      y
      0000092FH   SYMBOL    EDATA    ---       dat
      00010691H   SYMBOL    XDATA    WORD      j
      00000ACBH   SYMBOL    EDATA    WORD      x
      00000ACDH   SYMBOL    EDATA    WORD      y
      00000ACFH   SYMBOL    EDATA    CHAR      dat
      00010637H   SYMBOL    XDATA    ---       a
      0001063AH   SYMBOL    XDATA    BYTE      i
      00000AD0H   SYMBOL    EDATA    WORD      x
      00000AD2H   SYMBOL    EDATA    WORD      y
      00000AD4H   SYMBOL    EDATA    BYTE      dat
      0001063BH   SYMBOL    XDATA    ---       a
      0001063EH   SYMBOL    XDATA    BYTE      i
      00000A14H   SYMBOL    EDATA    WORD      x
      00000A16H   SYMBOL    EDATA    WORD      y
      00000A18H   SYMBOL    EDATA    INT       dat
      000105E2H   SYMBOL    XDATA    ---       a
      000105E7H   SYMBOL    XDATA    BYTE      i
      00000A1AH   SYMBOL    EDATA    WORD      x
      00000A1CH   SYMBOL    EDATA    WORD      y
L251 LINKER/LOCATER V4.66.93.0                                                        05/03/2024  16:07:18  PAGE 59


      00000A1EH   SYMBOL    EDATA    WORD      dat
      000105E8H   SYMBOL    XDATA    ---       a
      000105EDH   SYMBOL    XDATA    BYTE      i
      0000087CH   SYMBOL    EDATA    WORD      x
      0000087EH   SYMBOL    EDATA    WORD      y
      00000880H   SYMBOL    EDATA    LONG      dat
      00000884H   SYMBOL    EDATA    BYTE      num
      0001052BH   SYMBOL    XDATA    ---       buff
      0001054DH   SYMBOL    XDATA    BYTE      length
      00000779H   SYMBOL    EDATA    WORD      x
      0000077BH   SYMBOL    EDATA    WORD      y
      0000077DH   SYMBOL    EDATA    FLOAT     dat
      00000781H   SYMBOL    EDATA    BYTE      num
      00000782H   SYMBOL    EDATA    BYTE      pointnum
      0001049CH   SYMBOL    XDATA    BYTE      length
      0001049DH   SYMBOL    XDATA    ---       buff
      000104BFH   SYMBOL    XDATA    CHAR      start
      00000783H   SYMBOL    EDATA    CHAR      end
      00000784H   SYMBOL    EDATA    CHAR      point
      00000785H   SYMBOL    EDATA    ---       p
      00000789H   SYMBOL    EDATA    INT       i
      0000078BH   SYMBOL    EDATA    INT       j
      0000078DH   SYMBOL    EDATA    INT       k
      0000078FH   SYMBOL    EDATA    BYTE      picH
      00000790H   SYMBOL    EDATA    BYTE      picL

      ---         MODULE    ---      ---       SEEKFREE_BLUETOOTH_CH9141
      000000D0H   SFRSYM    DATA     BYTE      PSW
      0000009DH   SFRSYM    DATA     BYTE      IRCBAND
      00000097H   SFRSYM    DATA     BYTE      AUXR2
      000000EFH   SFRSYM    DATA     BYTE      AUXINTIF
      000000FDH   SFRSYM    DATA     BYTE      S4CON
      000000ACH   SFRSYM    DATA     BYTE      S3CON
      0000009AH   SFRSYM    DATA     BYTE      S2CON
      000000FEH   SFRSYM    DATA     BYTE      S4BUF
      000000B7H   SFRSYM    DATA     BYTE      IPH
      000000CDH   SFRSYM    DATA     BYTE      SPSTAT
      000000DDH   SFRSYM    DATA     BYTE      T4T3M
      000000C1H   SFRSYM    DATA     BYTE      WDT_CONTR
      000000DFH   SFRSYM    DATA     BYTE      IP3
      000000F4H   SFRSYM    DATA     BYTE      USBCON
      000000B5H   SFRSYM    DATA     BYTE      IP2
      000000FFH   SFRSYM    DATA     BYTE      RSTCFG
      000000F9H   SFRSYM    DATA     BYTE      LINICR
      0000008EH   SFRSYM    DATA     BYTE      AUXR
      000000AFH   SFRSYM    DATA     BYTE      IE2
      00000080H.7 SFRSYM    DATA     BIT       P07
      00000088H   SFRSYM    DATA     BYTE      TCON
      00000098H   SFRSYM    DATA     BYTE      SCON
      000000F1H   SFRSYM    DATA     BYTE      CANICR
      00000087H   SFRSYM    DATA     BYTE      PCON
      000000BCH   SFRSYM    DATA     BYTE      ADC_CONTR
      000000E7H   SFRSYM    DATA     BYTE      CMPCR2
      000000E6H   SFRSYM    DATA     BYTE      CMPCR1
      000000B8H   SFRSYM    DATA     BYTE      IP
      0000008FH   SFRSYM    DATA     BYTE      INTCLKO
      000000EEH   SFRSYM    DATA     BYTE      IP3H
      000000B6H   SFRSYM    DATA     BYTE      IP2H
      000000A8H   SFRSYM    DATA     BYTE      IE
      000000BBH   SFRSYM    DATA     BYTE      P_SW3
      000000BAH   SFRSYM    DATA     BYTE      P_SW2
      000000A2H   SFRSYM    DATA     BYTE      P_SW1
      000000CEH   SFRSYM    DATA     BYTE      SPCTL
      000000F8H   SFRSYM    DATA     BYTE      P7
      000000E8H   SFRSYM    DATA     BYTE      P6
L251 LINKER/LOCATER V4.66.93.0                                                        05/03/2024  16:07:18  PAGE 60


      000000C8H   SFRSYM    DATA     BYTE      P5
      000000C0H   SFRSYM    DATA     BYTE      P4
      000000B0H   SFRSYM    DATA     BYTE      P3
      000000A0H   SFRSYM    DATA     BYTE      P2
      00000090H   SFRSYM    DATA     BYTE      P1
      00000080H   SFRSYM    DATA     BYTE      P0
      00010370H   SYMBOL    XDATA    ---       bluetooth_ch9141_buffer
      000103B0H   SYMBOL    XDATA    BYTE      bluetooth_ch9141_data
      000103B1H   SYMBOL    XDATA    ---       bluetooth_ch9141_fifo
      00000933H   SYMBOL    EDATA    ---       buff
      00000937H   SYMBOL    EDATA    DWORD     len
      00010693H   SYMBOL    XDATA    WORD      time_count
      0000093BH   SYMBOL    EDATA    ---       buff
      0000093FH   SYMBOL    EDATA    DWORD     len
      0001063FH   SYMBOL    XDATA    DWORD     data_len

      ---         MODULE    ---      ---       SEEKFREE_DL1A
      00000B64H   PUBLIC    EDATA    WORD      dl1a_distance_mm
      00000B66H   PUBLIC    EDATA    BYTE      dl1a_finsh_flag
      000000D0H   SFRSYM    DATA     BYTE      PSW
      0000009DH   SFRSYM    DATA     BYTE      IRCBAND
      00000097H   SFRSYM    DATA     BYTE      AUXR2
      000000EFH   SFRSYM    DATA     BYTE      AUXINTIF
      000000FDH   SFRSYM    DATA     BYTE      S4CON
      000000ACH   SFRSYM    DATA     BYTE      S3CON
      0000009AH   SFRSYM    DATA     BYTE      S2CON
      000000B7H   SFRSYM    DATA     BYTE      IPH
      000000CDH   SFRSYM    DATA     BYTE      SPSTAT
      000000DDH   SFRSYM    DATA     BYTE      T4T3M
      000000C1H   SFRSYM    DATA     BYTE      WDT_CONTR
      000000DFH   SFRSYM    DATA     BYTE      IP3
      000000F4H   SFRSYM    DATA     BYTE      USBCON
      000000B5H   SFRSYM    DATA     BYTE      IP2
      000000FFH   SFRSYM    DATA     BYTE      RSTCFG
      000000F9H   SFRSYM    DATA     BYTE      LINICR
      0000008EH   SFRSYM    DATA     BYTE      AUXR
      000000AFH   SFRSYM    DATA     BYTE      IE2
      000000C0H.7 SFRSYM    DATA     BIT       P47
      000000E8H.5 SFRSYM    DATA     BIT       P65
      000000E8H.3 SFRSYM    DATA     BIT       P63
      00000088H   SFRSYM    DATA     BYTE      TCON
      00000098H   SFRSYM    DATA     BYTE      SCON
      000000F1H   SFRSYM    DATA     BYTE      CANICR
      00000087H   SFRSYM    DATA     BYTE      PCON
      000000BCH   SFRSYM    DATA     BYTE      ADC_CONTR
      000000E7H   SFRSYM    DATA     BYTE      CMPCR2
      000000E6H   SFRSYM    DATA     BYTE      CMPCR1
      000000B8H   SFRSYM    DATA     BYTE      IP
      0000008FH   SFRSYM    DATA     BYTE      INTCLKO
      000000EEH   SFRSYM    DATA     BYTE      IP3H
      000000B6H   SFRSYM    DATA     BYTE      IP2H
      000000A8H   SFRSYM    DATA     BYTE      IE
      000000BBH   SFRSYM    DATA     BYTE      P_SW3
      000000BAH   SFRSYM    DATA     BYTE      P_SW2
      000000A2H   SFRSYM    DATA     BYTE      P_SW1
      000000CEH   SFRSYM    DATA     BYTE      SPCTL
      000000F8H   SFRSYM    DATA     BYTE      P7
      000000E8H   SFRSYM    DATA     BYTE      P6
      000000C8H   SFRSYM    DATA     BYTE      P5
      000000C0H   SFRSYM    DATA     BYTE      P4
      000000B0H   SFRSYM    DATA     BYTE      P3
      000000A0H   SFRSYM    DATA     BYTE      P2
      00000090H   SFRSYM    DATA     BYTE      P1
      00000080H   SFRSYM    DATA     BYTE      P0
      00FF82E9H   SYMBOL    CODE     ---       dl1a_simiic_sendack
L251 LINKER/LOCATER V4.66.93.0                                                        05/03/2024  16:07:18  PAGE 61


      00FF7712H   SYMBOL    CODE     ---       dl1a_timeout_microseconds_to_mclks
      00FF751BH   SYMBOL    CODE     ---       dl1a_timeout_mclks_to_microseconds
      00FF7580H   SYMBOL    CODE     ---       dl1a_read_ch
      00FF82BFH   SYMBOL    CODE     ---       dl1a_decode_timeout
      00FF7F84H   SYMBOL    CODE     ---       dl1a_send_ch
      00FF6E17H   SYMBOL    CODE     ---       dl1a_encode_timeout
      00FF6F69H   SYMBOL    CODE     ---       dl1a_get_sequence_step_enables
      00FF8466H   SYMBOL    CODE     ---       dl1a_sccb_waitack
      00FF0003H   SYMBOL    CODE     ---       dl1a_simiic_delay
      00FF5D96H   SYMBOL    CODE     ---       dl1a_get_sequence_step_timeouts
      00FF8633H   SYMBOL    CODE     ---       dl1a_simiic_start
      00FF74B3H   SYMBOL    CODE     ---       dl1a_simiic_read_regs
      00FF0046H   SYMBOL    CODE     ---       dl1a_simiic_write_dats
      00FF8588H   SYMBOL    CODE     ---       dl1a_simiic_stop
      00FF725FH   SYMBOL    CODE     ---       dl1a_get_vcsel_pulse_period

      00FF0003H   BLOCK     CODE     ---       LVL=0
      00010695H   SYMBOL    XDATA    WORD      j
      00FF0003H   LINE      CODE     ---       #59
      00FF0003H   LINE      CODE     ---       #60
      00FF0003H   LINE      CODE     ---       #61
      00FF000BH   LINE      CODE     ---       #62
      00FF0022H   LINE      CODE     ---       #63
      ---         BLOCKEND  ---      ---       LVL=0

      00FF8633H   BLOCK     CODE     ---       LVL=0
      00FF8633H   LINE      CODE     ---       #66
      00FF8633H   LINE      CODE     ---       #68
      00FF8636H   LINE      CODE     ---       #69
      00FF8639H   LINE      CODE     ---       #70
      00FF863CH   LINE      CODE     ---       #71
      00FF863FH   LINE      CODE     ---       #72
      00FF8642H   LINE      CODE     ---       #73
      00FF8645H   LINE      CODE     ---       #74
      ---         BLOCKEND  ---      ---       LVL=0

      00FF8588H   BLOCK     CODE     ---       LVL=0
      00FF8588H   LINE      CODE     ---       #77
      00FF8588H   LINE      CODE     ---       #79
      00FF858BH   LINE      CODE     ---       #80
      00FF858EH   LINE      CODE     ---       #81
      00FF8591H   LINE      CODE     ---       #82
      00FF8594H   LINE      CODE     ---       #83
      00FF8597H   LINE      CODE     ---       #84
      00FF859AH   LINE      CODE     ---       #85
      00FF859DH   LINE      CODE     ---       #86
      ---         BLOCKEND  ---      ---       LVL=0

      00FF82E9H   BLOCK     CODE     ---       LVL=0
      00000BCBH   SYMBOL    EDATA    BYTE      ack_dat
      00FF82E9H   LINE      CODE     ---       #90
      00FF82EDH   LINE      CODE     ---       #92
      00FF82F0H   LINE      CODE     ---       #93
      00FF82F3H   LINE      CODE     ---       #94
      00FF8301H   LINE      CODE     ---       #95
      00FF8304H   LINE      CODE     ---       #96
      00FF8307H   LINE      CODE     ---       #97
      00FF830AH   LINE      CODE     ---       #98
      00FF830DH   LINE      CODE     ---       #99
      00FF8310H   LINE      CODE     ---       #100
      ---         BLOCKEND  ---      ---       LVL=0

      00FF8466H   BLOCK     CODE     ---       LVL=0
      00FF8466H   LINE      CODE     ---       #103
      00FF8466H   LINE      CODE     ---       #105
L251 LINKER/LOCATER V4.66.93.0                                                        05/03/2024  16:07:18  PAGE 62


      00FF8469H   LINE      CODE     ---       #106
      00FF846CH   LINE      CODE     ---       #107
      00FF846FH   LINE      CODE     ---       #108
      00FF8472H   LINE      CODE     ---       #109
      00FF8475H   LINE      CODE     ---       #111
      00FF8478H   LINE      CODE     ---       #112
      00FF847CH   LINE      CODE     ---       #113
      00FF847CH   LINE      CODE     ---       #114
      00FF847FH   LINE      CODE     ---       #115
      00FF8482H   LINE      CODE     ---       #116
      00FF8486H   LINE      CODE     ---       #117
      ---         BLOCKEND  ---      ---       LVL=0

      00FF7F84H   BLOCK     CODE     ---       LVL=0
      00000BCCH   SYMBOL    EDATA    BYTE      c
      00FF7F88H   BLOCK     CODE     NEAR LAB  LVL=1
      000106C4H   SYMBOL    XDATA    BYTE      i
      ---         BLOCKEND  ---      ---       LVL=1
      00FF7F84H   LINE      CODE     ---       #123
      00FF7F88H   LINE      CODE     ---       #124
      00FF7F88H   LINE      CODE     ---       #125
      00FF7F8EH   LINE      CODE     ---       #126
      00FF7F90H   LINE      CODE     ---       #128
      00FF7F9CH   LINE      CODE     ---       #129
      00FF7F9FH   LINE      CODE     ---       #130
      00FF7FA9H   LINE      CODE     ---       #131
      00FF7FACH   LINE      CODE     ---       #132
      00FF7FAFH   LINE      CODE     ---       #133
      00FF7FB2H   LINE      CODE     ---       #134
      00FF7FB5H   LINE      CODE     ---       #135
      00FF7FC8H   LINE      CODE     ---       #136
      00FF7FCBH   LINE      CODE     ---       #137
      ---         BLOCKEND  ---      ---       LVL=0

      00FF7580H   BLOCK     CODE     ---       LVL=0
      00000BCDH   SYMBOL    EDATA    BYTE      ack_x
      00FF7584H   BLOCK     CODE     NEAR LAB  LVL=1
      00010697H   SYMBOL    XDATA    BYTE      i
      00010698H   SYMBOL    XDATA    BYTE      c
      ---         BLOCKEND  ---      ---       LVL=1
      00FF7580H   LINE      CODE     ---       #143
      00FF7584H   LINE      CODE     ---       #144
      00FF7584H   LINE      CODE     ---       #147
      00FF7589H   LINE      CODE     ---       #148
      00FF758CH   LINE      CODE     ---       #149
      00FF758FH   LINE      CODE     ---       #150
      00FF7592H   LINE      CODE     ---       #151
      00FF7599H   LINE      CODE     ---       #153
      00FF759CH   LINE      CODE     ---       #154
      00FF759FH   LINE      CODE     ---       #155
      00FF75A2H   LINE      CODE     ---       #156
      00FF75A5H   LINE      CODE     ---       #157
      00FF75A8H   LINE      CODE     ---       #158
      00FF75AFH   LINE      CODE     ---       #159
      00FF75B2H   LINE      CODE     ---       #161
      00FF75BCH   LINE      CODE     ---       #162
      00FF75D3H   LINE      CODE     ---       #164
      00FF75D6H   LINE      CODE     ---       #165
      00FF75D9H   LINE      CODE     ---       #166
      00FF75E0H   LINE      CODE     ---       #167
      00FF75E4H   LINE      CODE     ---       #168
      ---         BLOCKEND  ---      ---       LVL=0

      00FF0046H   BLOCK     CODE     ---       LVL=0
      00000885H   SYMBOL    EDATA    BYTE      dev_add
L251 LINKER/LOCATER V4.66.93.0                                                        05/03/2024  16:07:18  PAGE 63


      00000886H   SYMBOL    EDATA    ---       dat
      0000088AH   SYMBOL    EDATA    DWORD     len
      00FF0046H   LINE      CODE     ---       #180
      00FF0052H   LINE      CODE     ---       #182
      00FF0055H   LINE      CODE     ---       #183
      00FF005EH   LINE      CODE     ---       #184
      00FF0060H   LINE      CODE     ---       #186
      00FF0070H   LINE      CODE     ---       #187
      00FF0084H   LINE      CODE     ---       #188
      00FF0087H   LINE      CODE     ---       #189
      ---         BLOCKEND  ---      ---       LVL=0
      00000B67H   SYMBOL    EDATA    BYTE      dev_add
      00000B68H   SYMBOL    EDATA    BYTE      reg
      00000B69H   SYMBOL    EDATA    BYTE      dat
      00000B91H   SYMBOL    EDATA    BYTE      dev_add
      00000B92H   SYMBOL    EDATA    BYTE      reg
      000106C5H   SYMBOL    XDATA    BYTE      dat

      00FF74B3H   BLOCK     CODE     ---       LVL=0
      0000082DH   SYMBOL    EDATA    BYTE      dev_add
      0000082EH   SYMBOL    EDATA    BYTE      reg
      0000082FH   SYMBOL    EDATA    ---       dat_add
      00000833H   SYMBOL    EDATA    DWORD     num
      00FF74B3H   LINE      CODE     ---       #243
      00FF74BFH   LINE      CODE     ---       #245
      00FF74C2H   LINE      CODE     ---       #246
      00FF74CBH   LINE      CODE     ---       #247
      00FF74D2H   LINE      CODE     ---       #248
      00FF74D5H   LINE      CODE     ---       #249
      00FF74E2H   LINE      CODE     ---       #250
      00FF74E4H   LINE      CODE     ---       #252
      00FF74F0H   LINE      CODE     ---       #253
      00FF74FAH   LINE      CODE     ---       #254
      00FF750CH   LINE      CODE     ---       #255
      00FF7517H   LINE      CODE     ---       #256
      00FF751AH   LINE      CODE     ---       #257
      ---         BLOCKEND  ---      ---       LVL=0
      00000837H   SYMBOL    EDATA    BYTE      dev_add
      00000838H   SYMBOL    EDATA    BYTE      reg
      00000839H   SYMBOL    EDATA    ---       dat_add
      0000083DH   SYMBOL    EDATA    DWORD     num
      00000841H   SYMBOL    EDATA    ---       index
      00000845H   SYMBOL    EDATA    ---       type_is_aperture
      00010699H   SYMBOL    XDATA    BYTE      tmp
      0001069AH   SYMBOL    XDATA    BYTE      return_state
      00000849H   SYMBOL    EDATA    WORD      loop_count

      00FF751BH   BLOCK     CODE     ---       LVL=0
      00000B6AH   SYMBOL    EDATA    WORD      timeout_period_mclks
      00000B6CH   SYMBOL    EDATA    BYTE      vcsel_period_pclks
      00FF7523H   BLOCK     CODE     NEAR LAB  LVL=1
      00010643H   SYMBOL    XDATA    DWORD     macro_period_ns
      ---         BLOCKEND  ---      ---       LVL=1
      00FF751BH   LINE      CODE     ---       #374
      00FF7523H   LINE      CODE     ---       #375
      00FF7523H   LINE      CODE     ---       #376
      00FF7550H   LINE      CODE     ---       #377
      00FF757FH   LINE      CODE     ---       #378
      ---         BLOCKEND  ---      ---       LVL=0

      00FF7712H   BLOCK     CODE     ---       LVL=0
      00000AD5H   SYMBOL    EDATA    DWORD     timeout_period_us
      00000AD9H   SYMBOL    EDATA    BYTE      vcsel_period_pclks
      00FF771AH   BLOCK     CODE     NEAR LAB  LVL=1
      00010647H   SYMBOL    XDATA    DWORD     macro_period_ns
L251 LINKER/LOCATER V4.66.93.0                                                        05/03/2024  16:07:18  PAGE 64


      ---         BLOCKEND  ---      ---       LVL=1
      00FF7712H   LINE      CODE     ---       #388
      00FF771AH   LINE      CODE     ---       #389
      00FF771AH   LINE      CODE     ---       #390
      00FF7747H   LINE      CODE     ---       #391
      00FF7774H   LINE      CODE     ---       #392
      ---         BLOCKEND  ---      ---       LVL=0

      00FF82BFH   BLOCK     CODE     ---       LVL=0
      00000B93H   SYMBOL    EDATA    WORD      reg_val
      00FF82BFH   LINE      CODE     ---       #401
      00FF82C3H   LINE      CODE     ---       #404
      00FF82E8H   LINE      CODE     ---       #406
      ---         BLOCKEND  ---      ---       LVL=0

      00FF6E17H   BLOCK     CODE     ---       LVL=0
      00000B95H   SYMBOL    EDATA    WORD      timeout_mclks
      00FF6E1BH   BLOCK     CODE     NEAR LAB  LVL=1
      000105B9H   SYMBOL    XDATA    DWORD     ls_byte
      000105BDH   SYMBOL    XDATA    WORD      ms_byte
      000105BFH   SYMBOL    XDATA    WORD      return_data
      ---         BLOCKEND  ---      ---       LVL=1
      00FF6E17H   LINE      CODE     ---       #415
      00FF6E1BH   LINE      CODE     ---       #416
      00FF6E1BH   LINE      CODE     ---       #417
      00FF6E27H   LINE      CODE     ---       #418
      00FF6E2FH   LINE      CODE     ---       #419
      00FF6E37H   LINE      CODE     ---       #420
      00FF6E41H   LINE      CODE     ---       #423
      00FF6E57H   LINE      CODE     ---       #424
      00FF6E59H   LINE      CODE     ---       #426
      00FF6E73H   LINE      CODE     ---       #427
      00FF6E82H   LINE      CODE     ---       #428
      00FF6E99H   LINE      CODE     ---       #429
      00FF6EBBH   LINE      CODE     ---       #430
      00FF6EBBH   LINE      CODE     ---       #431
      00FF6EC1H   LINE      CODE     ---       #432
      ---         BLOCKEND  ---      ---       LVL=0

      00FF6F69H   BLOCK     CODE     ---       LVL=0
      00000B2FH   SYMBOL    EDATA    ---       enables
      00FF6F6DH   BLOCK     CODE     NEAR LAB  LVL=1
      000106C6H   SYMBOL    XDATA    BYTE      sequence_config
      ---         BLOCKEND  ---      ---       LVL=1
      00FF6F69H   LINE      CODE     ---       #441
      00FF6F6DH   LINE      CODE     ---       #442
      00FF6F6DH   LINE      CODE     ---       #443
      00FF6F72H   LINE      CODE     ---       #444
      00FF6F8AH   LINE      CODE     ---       #445
      00FF6FA0H   LINE      CODE     ---       #446
      00FF6FB9H   LINE      CODE     ---       #447
      00FF6FD1H   LINE      CODE     ---       #448
      00FF6FECH   LINE      CODE     ---       #449
      00FF7004H   LINE      CODE     ---       #450
      ---         BLOCKEND  ---      ---       LVL=0

      00FF725FH   BLOCK     CODE     ---       LVL=0
      00000B97H   SYMBOL    EDATA    INT       type
      00FF7263H   BLOCK     CODE     NEAR LAB  LVL=1
      000106C7H   SYMBOL    XDATA    BYTE      data_buffer
      ---         BLOCKEND  ---      ---       LVL=1
      00FF725FH   LINE      CODE     ---       #459
      00FF7263H   LINE      CODE     ---       #460
      00FF7263H   LINE      CODE     ---       #461
      00FF7268H   LINE      CODE     ---       #462
L251 LINKER/LOCATER V4.66.93.0                                                        05/03/2024  16:07:18  PAGE 65


      00FF7272H   LINE      CODE     ---       #464
      00FF728AH   LINE      CODE     ---       #465
      00FF729CH   LINE      CODE     ---       #466
      00FF729EH   LINE      CODE     ---       #467
      00FF72AAH   LINE      CODE     ---       #469
      00FF72C2H   LINE      CODE     ---       #470
      00FF72D4H   LINE      CODE     ---       #471
      00FF72D6H   LINE      CODE     ---       #474
      00FF72DCH   LINE      CODE     ---       #475
      00FF72DCH   LINE      CODE     ---       #476
      00FF72E0H   LINE      CODE     ---       #477
      ---         BLOCKEND  ---      ---       LVL=0

      00FF5D96H   BLOCK     CODE     ---       LVL=0
      00000943H   SYMBOL    EDATA    ---       enables
      00000947H   SYMBOL    EDATA    ---       timeouts
      00FF5D9EH   BLOCK     CODE     NEAR LAB  LVL=1
      0001064BH   SYMBOL    XDATA    ---       reg_buffer
      0001064DH   SYMBOL    XDATA    WORD      reg16_buffer
      ---         BLOCKEND  ---      ---       LVL=1
      00FF5D96H   LINE      CODE     ---       #487
      00FF5D9EH   LINE      CODE     ---       #488
      00FF5D9EH   LINE      CODE     ---       #490
      00FF5DA6H   LINE      CODE     ---       #491
      00FF5DB4H   LINE      CODE     ---       #492
      00FF5DCCH   LINE      CODE     ---       #493
      00FF5DE1H   LINE      CODE     ---       #494
      00FF5E05H   LINE      CODE     ---       #495
      00FF5E1DH   LINE      CODE     ---       #496
      00FF5E35H   LINE      CODE     ---       #497
      00FF5E4BH   LINE      CODE     ---       #498
      00FF5E71H   LINE      CODE     ---       #499
      00FF5E83H   LINE      CODE     ---       #500
      00FF5E9BH   LINE      CODE     ---       #501
      00FF5EB3H   LINE      CODE     ---       #502
      00FF5EC9H   LINE      CODE     ---       #503
      00FF5ED9H   LINE      CODE     ---       #505
      00FF5EF4H   LINE      CODE     ---       #506
      00FF5EF4H   LINE      CODE     ---       #507
      00FF5F1CH   LINE      CODE     ---       #508
      ---         BLOCKEND  ---      ---       LVL=0
      00000B6DH   SYMBOL    EDATA    BYTE      vhv_init_byte
      0001069BH   SYMBOL    XDATA    BYTE      return_state
      0001069CH   SYMBOL    XDATA    BYTE      data_buffer
      00000B6EH   SYMBOL    EDATA    WORD      loop_count
      000005BBH   SYMBOL    EDATA    DWORD     budget_us
      000105A9H   SYMBOL    XDATA    BYTE      return_state
      000105AAH   SYMBOL    XDATA    ---       data_buffer
      000105ADH   SYMBOL    XDATA    WORD      dat
      000105AFH   SYMBOL    XDATA    DWORD     used_budget_us
      000105B3H   SYMBOL    XDATA    DWORD     final_range_timeout_us
      000105B7H   SYMBOL    XDATA    WORD      final_range_timeout_mclks
      000005BFH   SYMBOL    EDATA    ---       enables
      000005C4H   SYMBOL    EDATA    ---       timeouts
      000005F9H   SYMBOL    EDATA    ---       enables
      000005FEH   SYMBOL    EDATA    ---       timeouts
      0001064FH   SYMBOL    XDATA    DWORD     budget_us
      00000B33H   SYMBOL    EDATA    FLOAT     limit_mcps
      0001062AH   SYMBOL    XDATA    ---       data_buffer
      0001062DH   SYMBOL    XDATA    WORD      limit_mcps_16bit
      00010677H   SYMBOL    XDATA    ---       reg_databuffer
      00010594H   SYMBOL    XDATA    DWORD     measurement_timing_budget_us
      00010598H   SYMBOL    XDATA    BYTE      stop_variable
      00010599H   SYMBOL    XDATA    BYTE      return_state
      0001059AH   SYMBOL    XDATA    BYTE      reg_data_buffer
L251 LINKER/LOCATER V4.66.93.0                                                        05/03/2024  16:07:18  PAGE 66


      0001059BH   SYMBOL    XDATA    ---       ref_spad_map
      000105A1H   SYMBOL    XDATA    ---       data_buffer
      000105A8H   SYMBOL    XDATA    BYTE      i

      ---         MODULE    ---      ---       SEEKFREE_DL1B
      00000B37H   PUBLIC    EDATA    WORD      dl1b_distance_mm
      00000B39H   PUBLIC    EDATA    BYTE      dl1b_finsh_flag
      00000B3AH   PUBLIC    EDATA    BYTE      dl1b_init_flag
      000006B2H   PUBLIC    EDATA    BYTE      ?dl1b_iic_transfer_8bit_array?BYTE
      000000D0H   SFRSYM    DATA     BYTE      PSW
      0000009DH   SFRSYM    DATA     BYTE      IRCBAND
      00000097H   SFRSYM    DATA     BYTE      AUXR2
      000000EFH   SFRSYM    DATA     BYTE      AUXINTIF
      000000FDH   SFRSYM    DATA     BYTE      S4CON
      000000ACH   SFRSYM    DATA     BYTE      S3CON
      0000009AH   SFRSYM    DATA     BYTE      S2CON
      000000B7H   SFRSYM    DATA     BYTE      IPH
      000000CDH   SFRSYM    DATA     BYTE      SPSTAT
      000000DDH   SFRSYM    DATA     BYTE      T4T3M
      000000C1H   SFRSYM    DATA     BYTE      WDT_CONTR
      000000DFH   SFRSYM    DATA     BYTE      IP3
      000000F4H   SFRSYM    DATA     BYTE      USBCON
      000000B5H   SFRSYM    DATA     BYTE      IP2
      000000FFH   SFRSYM    DATA     BYTE      RSTCFG
      000000F9H   SFRSYM    DATA     BYTE      LINICR
      0000008EH   SFRSYM    DATA     BYTE      AUXR
      000000AFH   SFRSYM    DATA     BYTE      IE2
      000000C0H.7 SFRSYM    DATA     BIT       P47
      000000E8H.5 SFRSYM    DATA     BIT       P65
      000000E8H.3 SFRSYM    DATA     BIT       P63
      00000088H   SFRSYM    DATA     BYTE      TCON
      00000098H   SFRSYM    DATA     BYTE      SCON
      000000F1H   SFRSYM    DATA     BYTE      CANICR
      00000087H   SFRSYM    DATA     BYTE      PCON
      000000BCH   SFRSYM    DATA     BYTE      ADC_CONTR
      000000E7H   SFRSYM    DATA     BYTE      CMPCR2
      000000E6H   SFRSYM    DATA     BYTE      CMPCR1
      000000B8H   SFRSYM    DATA     BYTE      IP
      0000008FH   SFRSYM    DATA     BYTE      INTCLKO
      000000EEH   SFRSYM    DATA     BYTE      IP3H
      000000B6H   SFRSYM    DATA     BYTE      IP2H
      000000A8H   SFRSYM    DATA     BYTE      IE
      000000BBH   SFRSYM    DATA     BYTE      P_SW3
      000000BAH   SFRSYM    DATA     BYTE      P_SW2
      000000A2H   SFRSYM    DATA     BYTE      P_SW1
      000000CEH   SFRSYM    DATA     BYTE      SPCTL
      000000F8H   SFRSYM    DATA     BYTE      P7
      000000E8H   SFRSYM    DATA     BYTE      P6
      000000C8H   SFRSYM    DATA     BYTE      P5
      000000C0H   SFRSYM    DATA     BYTE      P4
      000000B0H   SFRSYM    DATA     BYTE      P3
      000000A0H   SFRSYM    DATA     BYTE      P2
      00000090H   SFRSYM    DATA     BYTE      P1
      00000080H   SFRSYM    DATA     BYTE      P0
      00FF8311H   SYMBOL    CODE     ---       dl1b_simiic_sendack
      00FF75E5H   SYMBOL    CODE     ---       dl1b_read_ch
      00FF7FCCH   SYMBOL    CODE     ---       dl1b_send_ch
      00FF8487H   SYMBOL    CODE     ---       dl1b_sccb_waitack
      00FF84C9H   SYMBOL    CODE     ---       dl1b_simiic_delay

      00FF84C9H   BLOCK     CODE     ---       LVL=0
      0001069DH   SYMBOL    XDATA    WORD      j
      00FF84C9H   LINE      CODE     ---       #76
      00FF84C9H   LINE      CODE     ---       #77
      00FF84C9H   LINE      CODE     ---       #78
L251 LINKER/LOCATER V4.66.93.0                                                        05/03/2024  16:07:18  PAGE 67


      00FF84D1H   LINE      CODE     ---       #79
      00FF84E8H   LINE      CODE     ---       #80
      ---         BLOCKEND  ---      ---       LVL=0

      00FF8311H   BLOCK     CODE     ---       LVL=0
      00000BCEH   SYMBOL    EDATA    BYTE      ack_dat
      00FF8311H   LINE      CODE     ---       #107
      00FF8315H   LINE      CODE     ---       #109
      00FF8318H   LINE      CODE     ---       #110
      00FF831BH   LINE      CODE     ---       #111
      00FF8329H   LINE      CODE     ---       #112
      00FF832CH   LINE      CODE     ---       #113
      00FF832FH   LINE      CODE     ---       #114
      00FF8332H   LINE      CODE     ---       #115
      00FF8335H   LINE      CODE     ---       #116
      00FF8338H   LINE      CODE     ---       #117
      ---         BLOCKEND  ---      ---       LVL=0

      00FF8487H   BLOCK     CODE     ---       LVL=0
      00FF8487H   LINE      CODE     ---       #120
      00FF8487H   LINE      CODE     ---       #122
      00FF848AH   LINE      CODE     ---       #123
      00FF848DH   LINE      CODE     ---       #124
      00FF8490H   LINE      CODE     ---       #125
      00FF8493H   LINE      CODE     ---       #126
      00FF8496H   LINE      CODE     ---       #128
      00FF8499H   LINE      CODE     ---       #129
      00FF849DH   LINE      CODE     ---       #130
      00FF849DH   LINE      CODE     ---       #131
      00FF84A0H   LINE      CODE     ---       #132
      00FF84A3H   LINE      CODE     ---       #133
      00FF84A7H   LINE      CODE     ---       #134
      ---         BLOCKEND  ---      ---       LVL=0

      00FF7FCCH   BLOCK     CODE     ---       LVL=0
      00000BCFH   SYMBOL    EDATA    BYTE      c
      00FF7FD0H   BLOCK     CODE     NEAR LAB  LVL=1
      000106C8H   SYMBOL    XDATA    BYTE      i
      ---         BLOCKEND  ---      ---       LVL=1
      00FF7FCCH   LINE      CODE     ---       #140
      00FF7FD0H   LINE      CODE     ---       #141
      00FF7FD0H   LINE      CODE     ---       #142
      00FF7FD6H   LINE      CODE     ---       #143
      00FF7FD8H   LINE      CODE     ---       #145
      00FF7FE4H   LINE      CODE     ---       #146
      00FF7FE7H   LINE      CODE     ---       #147
      00FF7FF1H   LINE      CODE     ---       #148
      00FF7FF4H   LINE      CODE     ---       #149
      00FF7FF7H   LINE      CODE     ---       #150
      00FF7FFAH   LINE      CODE     ---       #151
      00FF7FFDH   LINE      CODE     ---       #152
      00FF8010H   LINE      CODE     ---       #153
      00FF8013H   LINE      CODE     ---       #154
      ---         BLOCKEND  ---      ---       LVL=0

      00FF75E5H   BLOCK     CODE     ---       LVL=0
      00000BD0H   SYMBOL    EDATA    BYTE      ack_x
      00FF75E9H   BLOCK     CODE     NEAR LAB  LVL=1
      0001069FH   SYMBOL    XDATA    BYTE      i
      000106A0H   SYMBOL    XDATA    BYTE      c
      ---         BLOCKEND  ---      ---       LVL=1
      00FF75E5H   LINE      CODE     ---       #160
      00FF75E9H   LINE      CODE     ---       #161
      00FF75E9H   LINE      CODE     ---       #164
      00FF75EEH   LINE      CODE     ---       #165
L251 LINKER/LOCATER V4.66.93.0                                                        05/03/2024  16:07:18  PAGE 68


      00FF75F1H   LINE      CODE     ---       #166
      00FF75F4H   LINE      CODE     ---       #167
      00FF75F7H   LINE      CODE     ---       #168
      00FF75FEH   LINE      CODE     ---       #170
      00FF7601H   LINE      CODE     ---       #171
      00FF7604H   LINE      CODE     ---       #172
      00FF7607H   LINE      CODE     ---       #173
      00FF760AH   LINE      CODE     ---       #174
      00FF760DH   LINE      CODE     ---       #175
      00FF7614H   LINE      CODE     ---       #176
      00FF7617H   LINE      CODE     ---       #178
      00FF7621H   LINE      CODE     ---       #179
      00FF7638H   LINE      CODE     ---       #181
      00FF763BH   LINE      CODE     ---       #182
      00FF763EH   LINE      CODE     ---       #183
      00FF7645H   LINE      CODE     ---       #184
      00FF7649H   LINE      CODE     ---       #185
      ---         BLOCKEND  ---      ---       LVL=0
      000006B2H   SYMBOL    EDATA    ---       write_data
      000006B6H   SYMBOL    EDATA    DWORD     write_len
      000006BAH   SYMBOL    EDATA    ---       read_data
      000006BEH   SYMBOL    EDATA    DWORD     read_len
      0001067AH   SYMBOL    XDATA    ---       data_buffer
      00000B99H   SYMBOL    EDATA    INT       dl1b_distance_temp
      000102E4H   SYMBOL    XDATA    BYTE      return_state
      000102E5H   SYMBOL    XDATA    ---       data_buffer
      0001036EH   SYMBOL    XDATA    WORD      time_out_count

      ---         MODULE    ---      ---       SEEKFREE_FONT
      00FF211DH   PUBLIC    CODE     ---       oled_8x16
      00FF270DH   PUBLIC    CODE     ---       tft_ascii
      00FF2CFDH   PUBLIC    CODE     ---       oled_6x8
      000000D0H   SFRSYM    DATA     BYTE      PSW
      0000009DH   SFRSYM    DATA     BYTE      IRCBAND
      00000097H   SFRSYM    DATA     BYTE      AUXR2
      000000EFH   SFRSYM    DATA     BYTE      AUXINTIF
      000000FDH   SFRSYM    DATA     BYTE      S4CON
      000000ACH   SFRSYM    DATA     BYTE      S3CON
      0000009AH   SFRSYM    DATA     BYTE      S2CON
      000000B7H   SFRSYM    DATA     BYTE      IPH
      000000CDH   SFRSYM    DATA     BYTE      SPSTAT
      000000DDH   SFRSYM    DATA     BYTE      T4T3M
      000000C1H   SFRSYM    DATA     BYTE      WDT_CONTR
      000000DFH   SFRSYM    DATA     BYTE      IP3
      000000F4H   SFRSYM    DATA     BYTE      USBCON
      000000B5H   SFRSYM    DATA     BYTE      IP2
      000000FFH   SFRSYM    DATA     BYTE      RSTCFG
      000000F9H   SFRSYM    DATA     BYTE      LINICR
      0000008EH   SFRSYM    DATA     BYTE      AUXR
      000000AFH   SFRSYM    DATA     BYTE      IE2
      00000088H   SFRSYM    DATA     BYTE      TCON
      00000098H   SFRSYM    DATA     BYTE      SCON
      000000F1H   SFRSYM    DATA     BYTE      CANICR
      00000087H   SFRSYM    DATA     BYTE      PCON
      000000BCH   SFRSYM    DATA     BYTE      ADC_CONTR
      000000E7H   SFRSYM    DATA     BYTE      CMPCR2
      000000E6H   SFRSYM    DATA     BYTE      CMPCR1
      000000B8H   SFRSYM    DATA     BYTE      IP
      0000008FH   SFRSYM    DATA     BYTE      INTCLKO
      000000EEH   SFRSYM    DATA     BYTE      IP3H
      000000B6H   SFRSYM    DATA     BYTE      IP2H
      000000A8H   SFRSYM    DATA     BYTE      IE
      000000BBH   SFRSYM    DATA     BYTE      P_SW3
      000000BAH   SFRSYM    DATA     BYTE      P_SW2
      000000A2H   SFRSYM    DATA     BYTE      P_SW1
L251 LINKER/LOCATER V4.66.93.0                                                        05/03/2024  16:07:18  PAGE 69


      000000CEH   SFRSYM    DATA     BYTE      SPCTL
      000000F8H   SFRSYM    DATA     BYTE      P7
      000000E8H   SFRSYM    DATA     BYTE      P6
      000000C8H   SFRSYM    DATA     BYTE      P5
      000000C0H   SFRSYM    DATA     BYTE      P4
      000000B0H   SFRSYM    DATA     BYTE      P3
      000000A0H   SFRSYM    DATA     BYTE      P2
      00000090H   SFRSYM    DATA     BYTE      P1
      00000080H   SFRSYM    DATA     BYTE      P0

      ---         MODULE    ---      ---       SEEKFREE_ICM20602
      00000791H   PUBLIC    EDATA    INT       icm20602_acc_x
      00000793H   PUBLIC    EDATA    INT       icm20602_acc_y
      00000795H   PUBLIC    EDATA    INT       icm20602_acc_z
      00000797H   PUBLIC    EDATA    INT       icm20602_gyro_x
      00000799H   PUBLIC    EDATA    INT       icm20602_gyro_y
      0000079BH   PUBLIC    EDATA    INT       icm20602_gyro_z
      000000D0H   SFRSYM    DATA     BYTE      PSW
      0000009DH   SFRSYM    DATA     BYTE      IRCBAND
      00000097H   SFRSYM    DATA     BYTE      AUXR2
      000000EFH   SFRSYM    DATA     BYTE      AUXINTIF
      000000FDH   SFRSYM    DATA     BYTE      S4CON
      000000ACH   SFRSYM    DATA     BYTE      S3CON
      0000009AH   SFRSYM    DATA     BYTE      S2CON
      000000B7H   SFRSYM    DATA     BYTE      IPH
      000000CDH   SFRSYM    DATA     BYTE      SPSTAT
      000000DDH   SFRSYM    DATA     BYTE      T4T3M
      000000C1H   SFRSYM    DATA     BYTE      WDT_CONTR
      000000DFH   SFRSYM    DATA     BYTE      IP3
      000000F4H   SFRSYM    DATA     BYTE      USBCON
      000000B5H   SFRSYM    DATA     BYTE      IP2
      000000FFH   SFRSYM    DATA     BYTE      RSTCFG
      000000F9H   SFRSYM    DATA     BYTE      LINICR
      0000008EH   SFRSYM    DATA     BYTE      AUXR
      000000AFH   SFRSYM    DATA     BYTE      IE2
      000000C0H.3 SFRSYM    DATA     BIT       P43
      000000C0H.2 SFRSYM    DATA     BIT       P42
      00000088H   SFRSYM    DATA     BYTE      TCON
      000000C0H.1 SFRSYM    DATA     BIT       P41
      00000098H   SFRSYM    DATA     BYTE      SCON
      000000C0H.0 SFRSYM    DATA     BIT       P40
      000000F1H   SFRSYM    DATA     BYTE      CANICR
      00000087H   SFRSYM    DATA     BYTE      PCON
      000000BCH   SFRSYM    DATA     BYTE      ADC_CONTR
      000000E7H   SFRSYM    DATA     BYTE      CMPCR2
      000000E6H   SFRSYM    DATA     BYTE      CMPCR1
      000000B8H   SFRSYM    DATA     BYTE      IP
      0000008FH   SFRSYM    DATA     BYTE      INTCLKO
      000000EEH   SFRSYM    DATA     BYTE      IP3H
      000000B6H   SFRSYM    DATA     BYTE      IP2H
      000000A8H   SFRSYM    DATA     BYTE      IE
      000000BBH   SFRSYM    DATA     BYTE      P_SW3
      000000BAH   SFRSYM    DATA     BYTE      P_SW2
      000000A2H   SFRSYM    DATA     BYTE      P_SW1
      000000CEH   SFRSYM    DATA     BYTE      SPCTL
      000000F8H   SFRSYM    DATA     BYTE      P7
      000000E8H   SFRSYM    DATA     BYTE      P6
      000000C8H   SFRSYM    DATA     BYTE      P5
      000000C0H   SFRSYM    DATA     BYTE      P4
      000000B0H   SFRSYM    DATA     BYTE      P3
      000000A0H   SFRSYM    DATA     BYTE      P2
      00000090H   SFRSYM    DATA     BYTE      P1
      00000080H   SFRSYM    DATA     BYTE      P0
      00FF8444H   SYMBOL    CODE     ---       icm20602_read_register
      00FF77D4H   SYMBOL    CODE     ---       icm20602_simspi_wr_byte
L251 LINKER/LOCATER V4.66.93.0                                                        05/03/2024  16:07:18  PAGE 70


      00FF7936H   SYMBOL    CODE     ---       icm20602_simspi_r_reg_bytes
      00FF8361H   SYMBOL    CODE     ---       icm20602_simspi_r_reg_byte

      00FF77D4H   BLOCK     CODE     ---       LVL=0
      00000BD1H   SYMBOL    EDATA    BYTE      byte
      00FF77D8H   BLOCK     CODE     NEAR LAB  LVL=1
      000106C9H   SYMBOL    XDATA    BYTE      i
      ---         BLOCKEND  ---      ---       LVL=1
      00FF77D4H   LINE      CODE     ---       #264
      00FF77D8H   LINE      CODE     ---       #265
      00FF77D8H   LINE      CODE     ---       #267
      00FF77DFH   LINE      CODE     ---       #269
      00FF77EDH   LINE      CODE     ---       #270
      00FF77F7H   LINE      CODE     ---       #271
      00FF77FAH   LINE      CODE     ---       #272
      00FF77FDH   LINE      CODE     ---       #273
      00FF7800H   LINE      CODE     ---       #274
      00FF7803H   LINE      CODE     ---       #275
      00FF7811H   LINE      CODE     ---       #276
      00FF7828H   LINE      CODE     ---       #277
      00FF782CH   LINE      CODE     ---       #278
      ---         BLOCKEND  ---      ---       LVL=0
      00000B9BH   SYMBOL    EDATA    BYTE      cmd
      00000B9CH   SYMBOL    EDATA    BYTE      val

      00FF8361H   BLOCK     CODE     ---       LVL=0
      00000ADAH   SYMBOL    EDATA    BYTE      cmd
      00000ADBH   SYMBOL    EDATA    ---       val
      00FF8361H   LINE      CODE     ---       #322
      00FF8369H   LINE      CODE     ---       #324
      00FF8375H   LINE      CODE     ---       #325
      00FF837CH   LINE      CODE     ---       #326
      00FF8387H   LINE      CODE     ---       #327
      ---         BLOCKEND  ---      ---       LVL=0

      00FF7936H   BLOCK     CODE     ---       LVL=0
      0000088EH   SYMBOL    EDATA    BYTE      cmd
      0000088FH   SYMBOL    EDATA    ---       val
      00000893H   SYMBOL    EDATA    DWORD     num
      00FF7942H   BLOCK     CODE     NEAR LAB  LVL=1
      00010653H   SYMBOL    XDATA    DWORD     i
      ---         BLOCKEND  ---      ---       LVL=1
      00FF7936H   LINE      CODE     ---       #337
      00FF7942H   LINE      CODE     ---       #338
      00FF7942H   LINE      CODE     ---       #339
      00FF794EH   LINE      CODE     ---       #340
      00FF795AH   LINE      CODE     ---       #341
      00FF7961H   LINE      CODE     ---       #342
      00FF7963H   LINE      CODE     ---       #344
      00FF7978H   LINE      CODE     ---       #345
      00FF798CH   LINE      CODE     ---       #346
      ---         BLOCKEND  ---      ---       LVL=0
      00000B9DH   SYMBOL    EDATA    BYTE      reg
      00000B9EH   SYMBOL    EDATA    BYTE      dat

      00FF8444H   BLOCK     CODE     ---       LVL=0
      00000BD2H   SYMBOL    EDATA    BYTE      reg
      00FF8448H   BLOCK     CODE     NEAR LAB  LVL=1
      000106CAH   SYMBOL    XDATA    BYTE      dat
      ---         BLOCKEND  ---      ---       LVL=1
      00FF8444H   LINE      CODE     ---       #386
      00FF8448H   LINE      CODE     ---       #387
      00FF8448H   LINE      CODE     ---       #389
      00FF844BH   LINE      CODE     ---       #390
      00FF845EH   LINE      CODE     ---       #391
L251 LINKER/LOCATER V4.66.93.0                                                        05/03/2024  16:07:18  PAGE 71


      00FF8461H   LINE      CODE     ---       #392
      00FF8465H   LINE      CODE     ---       #393
      ---         BLOCKEND  ---      ---       LVL=0
      00000897H   SYMBOL    EDATA    BYTE      reg
      00000898H   SYMBOL    EDATA    ---       dat
      0000089CH   SYMBOL    EDATA    DWORD     len
      0001067DH   SYMBOL    XDATA    BYTE      dat
      00000BD3H   SYMBOL    EDATA    BYTE      return_state
      0001067EH   SYMBOL    XDATA    WORD      timeout_count
      000105EEH   SYMBOL    XDATA    ---       dat
      000105F4H   SYMBOL    XDATA    ---       dat
      00000A20H   SYMBOL    EDATA    INT       acc_value
      00000A22H   SYMBOL    EDATA    FLOAT     acc_data
      00000A26H   SYMBOL    EDATA    INT       gyro_value
      00000A28H   SYMBOL    EDATA    FLOAT     gyro_data
      00010680H   SYMBOL    XDATA    BYTE      val
      00000BD4H   SYMBOL    EDATA    BYTE      return_state
      00010681H   SYMBOL    XDATA    WORD      timeout_count

      ---         MODULE    ---      ---       SEEKFREE_IMU660RA
      0000079DH   PUBLIC    EDATA    INT       imu660ra_acc_x
      0000079FH   PUBLIC    EDATA    INT       imu660ra_acc_y
      000007A1H   PUBLIC    EDATA    INT       imu660ra_acc_z
      000007A3H   PUBLIC    EDATA    INT       imu660ra_gyro_x
      000007A5H   PUBLIC    EDATA    INT       imu660ra_gyro_y
      000007A7H   PUBLIC    EDATA    INT       imu660ra_gyro_z
      000000D0H   SFRSYM    DATA     BYTE      PSW
      0000009DH   SFRSYM    DATA     BYTE      IRCBAND
      00000097H   SFRSYM    DATA     BYTE      AUXR2
      000000EFH   SFRSYM    DATA     BYTE      AUXINTIF
      000000FDH   SFRSYM    DATA     BYTE      S4CON
      000000ACH   SFRSYM    DATA     BYTE      S3CON
      0000009AH   SFRSYM    DATA     BYTE      S2CON
      000000B7H   SFRSYM    DATA     BYTE      IPH
      000000CDH   SFRSYM    DATA     BYTE      SPSTAT
      000000DDH   SFRSYM    DATA     BYTE      T4T3M
      000000C1H   SFRSYM    DATA     BYTE      WDT_CONTR
      000000DFH   SFRSYM    DATA     BYTE      IP3
      000000F4H   SFRSYM    DATA     BYTE      USBCON
      000000B5H   SFRSYM    DATA     BYTE      IP2
      000000FFH   SFRSYM    DATA     BYTE      RSTCFG
      000000F9H   SFRSYM    DATA     BYTE      LINICR
      0000008EH   SFRSYM    DATA     BYTE      AUXR
      000000AFH   SFRSYM    DATA     BYTE      IE2
      000000C0H.3 SFRSYM    DATA     BIT       P43
      000000C0H.2 SFRSYM    DATA     BIT       P42
      00000088H   SFRSYM    DATA     BYTE      TCON
      000000C0H.1 SFRSYM    DATA     BIT       P41
      00000098H   SFRSYM    DATA     BYTE      SCON
      000000C0H.0 SFRSYM    DATA     BIT       P40
      000000F1H   SFRSYM    DATA     BYTE      CANICR
      00000087H   SFRSYM    DATA     BYTE      PCON
      000000BCH   SFRSYM    DATA     BYTE      ADC_CONTR
      000000E7H   SFRSYM    DATA     BYTE      CMPCR2
      000000E6H   SFRSYM    DATA     BYTE      CMPCR1
      000000B8H   SFRSYM    DATA     BYTE      IP
      0000008FH   SFRSYM    DATA     BYTE      INTCLKO
      000000EEH   SFRSYM    DATA     BYTE      IP3H
      000000B6H   SFRSYM    DATA     BYTE      IP2H
      000000A8H   SFRSYM    DATA     BYTE      IE
      000000BBH   SFRSYM    DATA     BYTE      P_SW3
      000000BAH   SFRSYM    DATA     BYTE      P_SW2
      000000A2H   SFRSYM    DATA     BYTE      P_SW1
      000000CEH   SFRSYM    DATA     BYTE      SPCTL
      000000F8H   SFRSYM    DATA     BYTE      P7
L251 LINKER/LOCATER V4.66.93.0                                                        05/03/2024  16:07:18  PAGE 72


      000000E8H   SFRSYM    DATA     BYTE      P6
      000000C8H   SFRSYM    DATA     BYTE      P5
      000000C0H   SFRSYM    DATA     BYTE      P4
      000000B0H   SFRSYM    DATA     BYTE      P3
      000000A0H   SFRSYM    DATA     BYTE      P2
      00000090H   SFRSYM    DATA     BYTE      P1
      00000080H   SFRSYM    DATA     BYTE      P0
      00FF83D6H   SYMBOL    CODE     ---       imu660ra_read_register
      00FF782DH   SYMBOL    CODE     ---       imu660ra_simspi_wr_byte
      00FF7E58H   SYMBOL    CODE     ---       imu660ra_simspi_r_reg_bytes

      00FF782DH   BLOCK     CODE     ---       LVL=0
      00000BD5H   SYMBOL    EDATA    BYTE      byte
      00FF7831H   BLOCK     CODE     NEAR LAB  LVL=1
      000106CBH   SYMBOL    XDATA    BYTE      i
      ---         BLOCKEND  ---      ---       LVL=1
      00FF782DH   LINE      CODE     ---       #294
      00FF7831H   LINE      CODE     ---       #295
      00FF7831H   LINE      CODE     ---       #297
      00FF7838H   LINE      CODE     ---       #299
      00FF7846H   LINE      CODE     ---       #300
      00FF7850H   LINE      CODE     ---       #301
      00FF7853H   LINE      CODE     ---       #302
      00FF7856H   LINE      CODE     ---       #303
      00FF7859H   LINE      CODE     ---       #304
      00FF785CH   LINE      CODE     ---       #305
      00FF786AH   LINE      CODE     ---       #306
      00FF7881H   LINE      CODE     ---       #307
      00FF7885H   LINE      CODE     ---       #308
      ---         BLOCKEND  ---      ---       LVL=0
      00000B9FH   SYMBOL    EDATA    BYTE      cmd
      00000BA0H   SYMBOL    EDATA    BYTE      val
      000008A0H   SYMBOL    EDATA    BYTE      cmd
      000008A1H   SYMBOL    EDATA    ---       dat_addr
      000008A5H   SYMBOL    EDATA    DWORD     len

      00FF7E58H   BLOCK     CODE     ---       LVL=0
      000008A9H   SYMBOL    EDATA    BYTE      cmd
      000008AAH   SYMBOL    EDATA    ---       val
      000008AEH   SYMBOL    EDATA    DWORD     num
      00FF7E58H   LINE      CODE     ---       #365
      00FF7E64H   LINE      CODE     ---       #367
      00FF7E70H   LINE      CODE     ---       #368
      00FF7E77H   LINE      CODE     ---       #369
      00FF7E79H   LINE      CODE     ---       #371
      00FF7E8EH   LINE      CODE     ---       #372
      00FF7EA2H   LINE      CODE     ---       #373
      ---         BLOCKEND  ---      ---       LVL=0
      00000BA1H   SYMBOL    EDATA    BYTE      reg
      00000BA2H   SYMBOL    EDATA    BYTE      dat
      000008B2H   SYMBOL    EDATA    BYTE      reg
      000008B3H   SYMBOL    EDATA    ---       dat
      000008B7H   SYMBOL    EDATA    DWORD     len

      00FF83D6H   BLOCK     CODE     ---       LVL=0
      00000BD6H   SYMBOL    EDATA    BYTE      reg
      00FF83DAH   BLOCK     CODE     NEAR LAB  LVL=1
      000106A1H   SYMBOL    XDATA    ---       dat
      ---         BLOCKEND  ---      ---       LVL=1
      00FF83D6H   LINE      CODE     ---       #413
      00FF83DAH   LINE      CODE     ---       #414
      00FF83DAH   LINE      CODE     ---       #416
      00FF83DDH   LINE      CODE     ---       #417
      00FF83F4H   LINE      CODE     ---       #418
      00FF83F7H   LINE      CODE     ---       #419
L251 LINKER/LOCATER V4.66.93.0                                                        05/03/2024  16:07:18  PAGE 73


      00FF83FBH   LINE      CODE     ---       #420
      ---         BLOCKEND  ---      ---       LVL=0
      000008BBH   SYMBOL    EDATA    BYTE      reg
      000008BCH   SYMBOL    EDATA    ---       dat
      000008C0H   SYMBOL    EDATA    DWORD     len
      00010683H   SYMBOL    XDATA    BYTE      dat
      00000BD7H   SYMBOL    EDATA    BYTE      return_state
      00010684H   SYMBOL    XDATA    WORD      timeout_count
      000105C1H   SYMBOL    XDATA    ---       dat
      000105C8H   SYMBOL    XDATA    ---       dat
      00000A2CH   SYMBOL    EDATA    INT       acc_value
      00000A2EH   SYMBOL    EDATA    FLOAT     acc_dat
      00000A32H   SYMBOL    EDATA    INT       gyro_value
      00000A34H   SYMBOL    EDATA    FLOAT     gyro_dat
      000106CCH   SYMBOL    XDATA    BYTE      return_state

      ---         MODULE    ---      ---       SEEKFREE_IMU963RA
      00000690H   PUBLIC    EDATA    INT       imu963ra_acc_x
      00000692H   PUBLIC    EDATA    INT       imu963ra_acc_y
      00000694H   PUBLIC    EDATA    INT       imu963ra_acc_z
      00000696H   PUBLIC    EDATA    INT       imu963ra_mag_x
      00000698H   PUBLIC    EDATA    INT       imu963ra_mag_y
      0000069AH   PUBLIC    EDATA    INT       imu963ra_mag_z
      0000069CH   PUBLIC    EDATA    INT       imu963ra_gyro_x
      0000069EH   PUBLIC    EDATA    INT       imu963ra_gyro_y
      000006A0H   PUBLIC    EDATA    INT       imu963ra_gyro_z
      000000D0H   SFRSYM    DATA     BYTE      PSW
      0000009DH   SFRSYM    DATA     BYTE      IRCBAND
      00000097H   SFRSYM    DATA     BYTE      AUXR2
      000000EFH   SFRSYM    DATA     BYTE      AUXINTIF
      000000FDH   SFRSYM    DATA     BYTE      S4CON
      000000ACH   SFRSYM    DATA     BYTE      S3CON
      0000009AH   SFRSYM    DATA     BYTE      S2CON
      000000B7H   SFRSYM    DATA     BYTE      IPH
      000000CDH   SFRSYM    DATA     BYTE      SPSTAT
      000000DDH   SFRSYM    DATA     BYTE      T4T3M
      000000C1H   SFRSYM    DATA     BYTE      WDT_CONTR
      000000DFH   SFRSYM    DATA     BYTE      IP3
      000000F4H   SFRSYM    DATA     BYTE      USBCON
      000000B5H   SFRSYM    DATA     BYTE      IP2
      000000FFH   SFRSYM    DATA     BYTE      RSTCFG
      000000F9H   SFRSYM    DATA     BYTE      LINICR
      0000008EH   SFRSYM    DATA     BYTE      AUXR
      000000AFH   SFRSYM    DATA     BYTE      IE2
      000000C0H.3 SFRSYM    DATA     BIT       P43
      000000C0H.2 SFRSYM    DATA     BIT       P42
      00000088H   SFRSYM    DATA     BYTE      TCON
      000000C0H.1 SFRSYM    DATA     BIT       P41
      00000098H   SFRSYM    DATA     BYTE      SCON
      000000C0H.0 SFRSYM    DATA     BIT       P40
      000000F1H   SFRSYM    DATA     BYTE      CANICR
      00000087H   SFRSYM    DATA     BYTE      PCON
      000000BCH   SFRSYM    DATA     BYTE      ADC_CONTR
      000000E7H   SFRSYM    DATA     BYTE      CMPCR2
      000000E6H   SFRSYM    DATA     BYTE      CMPCR1
      000000B8H   SFRSYM    DATA     BYTE      IP
      0000008FH   SFRSYM    DATA     BYTE      INTCLKO
      000000EEH   SFRSYM    DATA     BYTE      IP3H
      000000B6H   SFRSYM    DATA     BYTE      IP2H
      000000A8H   SFRSYM    DATA     BYTE      IE
      000000BBH   SFRSYM    DATA     BYTE      P_SW3
      000000BAH   SFRSYM    DATA     BYTE      P_SW2
      000000A2H   SFRSYM    DATA     BYTE      P_SW1
      000000CEH   SFRSYM    DATA     BYTE      SPCTL
      000000F8H   SFRSYM    DATA     BYTE      P7
L251 LINKER/LOCATER V4.66.93.0                                                        05/03/2024  16:07:18  PAGE 74


      000000E8H   SFRSYM    DATA     BYTE      P6
      000000C8H   SFRSYM    DATA     BYTE      P5
      000000C0H   SFRSYM    DATA     BYTE      P4
      000000B0H   SFRSYM    DATA     BYTE      P3
      000000A0H   SFRSYM    DATA     BYTE      P2
      00000090H   SFRSYM    DATA     BYTE      P1
      00000080H   SFRSYM    DATA     BYTE      P0
      00FF7886H   SYMBOL    CODE     ---       imu963ra_simspi_wr_byte
      00FF7444H   SYMBOL    CODE     ---       imu963ra_read_mag_register
      00FF8388H   SYMBOL    CODE     ---       imu963ra_read_acc_gyro_register
      00FF81E3H   SYMBOL    CODE     ---       imu963ra_simspi_r_reg_byte
      00FF8509H   SYMBOL    CODE     ---       imu963ra_write_acc_gyro_register
      00FF84A8H   SYMBOL    CODE     ---       imu963ra_simspi_w_reg_byte

      00FF7886H   BLOCK     CODE     ---       LVL=0
      00000BD8H   SYMBOL    EDATA    BYTE      byte
      00FF788AH   BLOCK     CODE     NEAR LAB  LVL=1
      000106CDH   SYMBOL    XDATA    BYTE      i
      ---         BLOCKEND  ---      ---       LVL=1
      00FF7886H   LINE      CODE     ---       #331
      00FF788AH   LINE      CODE     ---       #332
      00FF788AH   LINE      CODE     ---       #334
      00FF7891H   LINE      CODE     ---       #336
      00FF789FH   LINE      CODE     ---       #337
      00FF78A9H   LINE      CODE     ---       #338
      00FF78ACH   LINE      CODE     ---       #339
      00FF78AFH   LINE      CODE     ---       #340
      00FF78B2H   LINE      CODE     ---       #341
      00FF78B5H   LINE      CODE     ---       #342
      00FF78C3H   LINE      CODE     ---       #343
      00FF78DAH   LINE      CODE     ---       #344
      00FF78DEH   LINE      CODE     ---       #345
      ---         BLOCKEND  ---      ---       LVL=0

      00FF84A8H   BLOCK     CODE     ---       LVL=0
      00000BA3H   SYMBOL    EDATA    BYTE      cmd
      00000BA4H   SYMBOL    EDATA    BYTE      val
      00FF84A8H   LINE      CODE     ---       #353
      00FF84B0H   LINE      CODE     ---       #355
      00FF84B3H   LINE      CODE     ---       #356
      00FF84B7H   LINE      CODE     ---       #357
      00FF84BEH   LINE      CODE     ---       #358
      00FF84C5H   LINE      CODE     ---       #359
      00FF84C8H   LINE      CODE     ---       #360
      ---         BLOCKEND  ---      ---       LVL=0

      00FF81E3H   BLOCK     CODE     ---       LVL=0
      00000ADFH   SYMBOL    EDATA    BYTE      cmd
      00000AE0H   SYMBOL    EDATA    ---       val
      00FF81E3H   LINE      CODE     ---       #391
      00FF81EBH   LINE      CODE     ---       #393
      00FF81EEH   LINE      CODE     ---       #394
      00FF81FAH   LINE      CODE     ---       #395
      00FF8201H   LINE      CODE     ---       #396
      00FF820CH   LINE      CODE     ---       #397
      00FF820FH   LINE      CODE     ---       #398
      ---         BLOCKEND  ---      ---       LVL=0
      000008C4H   SYMBOL    EDATA    BYTE      cmd
      000008C5H   SYMBOL    EDATA    ---       val
      000008C9H   SYMBOL    EDATA    DWORD     num

      00FF8509H   BLOCK     CODE     ---       LVL=0
      00000BA5H   SYMBOL    EDATA    BYTE      reg
      00000BA6H   SYMBOL    EDATA    BYTE      dat
      00FF8509H   LINE      CODE     ---       #428
L251 LINKER/LOCATER V4.66.93.0                                                        05/03/2024  16:07:18  PAGE 75


      00FF8511H   LINE      CODE     ---       #430
      00FF8514H   LINE      CODE     ---       #431
      00FF851FH   LINE      CODE     ---       #432
      00FF8522H   LINE      CODE     ---       #433
      ---         BLOCKEND  ---      ---       LVL=0

      00FF8388H   BLOCK     CODE     ---       LVL=0
      00000BD9H   SYMBOL    EDATA    BYTE      reg
      00FF838CH   BLOCK     CODE     NEAR LAB  LVL=1
      000106CEH   SYMBOL    XDATA    BYTE      dat
      ---         BLOCKEND  ---      ---       LVL=1
      00FF8388H   LINE      CODE     ---       #442
      00FF838CH   LINE      CODE     ---       #443
      00FF838CH   LINE      CODE     ---       #444
      00FF8391H   LINE      CODE     ---       #445
      00FF8394H   LINE      CODE     ---       #446
      00FF83A7H   LINE      CODE     ---       #447
      00FF83AAH   LINE      CODE     ---       #448
      00FF83AEH   LINE      CODE     ---       #449
      ---         BLOCKEND  ---      ---       LVL=0
      000008CDH   SYMBOL    EDATA    BYTE      reg
      000008CEH   SYMBOL    EDATA    ---       dat
      000008D2H   SYMBOL    EDATA    DWORD     len
      00000B70H   SYMBOL    EDATA    BYTE      addr
      00000B71H   SYMBOL    EDATA    BYTE      reg
      00000B72H   SYMBOL    EDATA    BYTE      dat
      00010686H   SYMBOL    XDATA    BYTE      return_state
      00010687H   SYMBOL    XDATA    WORD      timeout_count

      00FF7444H   BLOCK     CODE     ---       LVL=0
      00000BA7H   SYMBOL    EDATA    BYTE      addr
      00000BA8H   SYMBOL    EDATA    BYTE      reg
      00FF744CH   BLOCK     CODE     NEAR LAB  LVL=1
      000106A3H   SYMBOL    XDATA    WORD      timeout_count
      ---         BLOCKEND  ---      ---       LVL=1
      00FF7444H   LINE      CODE     ---       #508
      00FF744CH   LINE      CODE     ---       #509
      00FF744CH   LINE      CODE     ---       #510
      00FF7454H   LINE      CODE     ---       #511
      00FF745EH   LINE      CODE     ---       #512
      00FF746CH   LINE      CODE     ---       #513
      00FF7475H   LINE      CODE     ---       #514
      00FF747DH   LINE      CODE     ---       #515
      00FF7485H   LINE      CODE     ---       #517
      00FF7487H   LINE      CODE     ---       #519
      00FF749EH   LINE      CODE     ---       #521
      00FF749EH   LINE      CODE     ---       #522
      00FF749EH   LINE      CODE     ---       #523
      00FF74A5H   LINE      CODE     ---       #524
      00FF74ADH   LINE      CODE     ---       #525
      00FF74B2H   LINE      CODE     ---       #526
      ---         BLOCKEND  ---      ---       LVL=0
      00000BA9H   SYMBOL    EDATA    BYTE      addr
      00000BAAH   SYMBOL    EDATA    BYTE      reg
      00010657H   SYMBOL    XDATA    BYTE      return_state
      00010658H   SYMBOL    XDATA    BYTE      dat
      00010659H   SYMBOL    XDATA    WORD      timeout_count
      0001065BH   SYMBOL    XDATA    BYTE      return_state
      0001065CH   SYMBOL    XDATA    BYTE      dat
      0001065DH   SYMBOL    XDATA    WORD      timeout_count
      000105FAH   SYMBOL    XDATA    ---       dat
      00010600H   SYMBOL    XDATA    ---       dat
      000105CFH   SYMBOL    XDATA    BYTE      temp_status
      000105D0H   SYMBOL    XDATA    ---       dat
      00000A38H   SYMBOL    EDATA    INT       acc_value
L251 LINKER/LOCATER V4.66.93.0                                                        05/03/2024  16:07:18  PAGE 76


      00000A3AH   SYMBOL    EDATA    FLOAT     acc_dat
      00000A3EH   SYMBOL    EDATA    INT       gyro_value
      00000A40H   SYMBOL    EDATA    FLOAT     gyro_dat
      00000A44H   SYMBOL    EDATA    INT       mag_value
      00000A46H   SYMBOL    EDATA    FLOAT     mag_dat
      000106CFH   SYMBOL    XDATA    BYTE      return_state

      ---         MODULE    ---      ---       SEEKFREE_IPS114_SPI
      00FF823CH   PUBLIC    CODE     ---       ips114_writedata_16bit
      00FF7B3BH   PUBLIC    CODE     ---       ips114_writeDatai_16bit_simspi
      00FF7EA3H   PUBLIC    CODE     ---       ips114_writeIndex_simspi
      00FF85F4H   PUBLIC    CODE     ---       ips114_writeIndex
      000007A9H   PUBLIC    EDATA    BYTE      ?ips114_showfloat_simspi?BYTE
      000007B5H   PUBLIC    EDATA    BYTE      ?ips114_showfloat?BYTE
      000000D0H   SFRSYM    DATA     BYTE      PSW
      0000009DH   SFRSYM    DATA     BYTE      IRCBAND
      00000097H   SFRSYM    DATA     BYTE      AUXR2
      000000EFH   SFRSYM    DATA     BYTE      AUXINTIF
      000000FDH   SFRSYM    DATA     BYTE      S4CON
      000000ACH   SFRSYM    DATA     BYTE      S3CON
      0000009AH   SFRSYM    DATA     BYTE      S2CON
      000000B7H   SFRSYM    DATA     BYTE      IPH
      000000CDH   SFRSYM    DATA     BYTE      SPSTAT
      000000DDH   SFRSYM    DATA     BYTE      T4T3M
      000000C1H   SFRSYM    DATA     BYTE      WDT_CONTR
      000000DFH   SFRSYM    DATA     BYTE      IP3
      000000F4H   SFRSYM    DATA     BYTE      USBCON
      000000B5H   SFRSYM    DATA     BYTE      IP2
      000000FFH   SFRSYM    DATA     BYTE      RSTCFG
      000000F9H   SFRSYM    DATA     BYTE      LINICR
      0000008EH   SFRSYM    DATA     BYTE      AUXR
      000000AFH   SFRSYM    DATA     BYTE      IE2
      000000A0H.7 SFRSYM    DATA     BIT       P27
      000000A0H.5 SFRSYM    DATA     BIT       P25
      00000088H   SFRSYM    DATA     BYTE      TCON
      000000A0H.3 SFRSYM    DATA     BIT       P23
      00000098H   SFRSYM    DATA     BYTE      SCON
      000000A0H.2 SFRSYM    DATA     BIT       P22
      000000A0H.1 SFRSYM    DATA     BIT       P21
      000000A0H.0 SFRSYM    DATA     BIT       P20
      000000F1H   SFRSYM    DATA     BYTE      CANICR
      00000087H   SFRSYM    DATA     BYTE      PCON
      000000BCH   SFRSYM    DATA     BYTE      ADC_CONTR
      000000E7H   SFRSYM    DATA     BYTE      CMPCR2
      000000E6H   SFRSYM    DATA     BYTE      CMPCR1
      000000B8H   SFRSYM    DATA     BYTE      IP
      0000008FH   SFRSYM    DATA     BYTE      INTCLKO
      000000EEH   SFRSYM    DATA     BYTE      IP3H
      000000B6H   SFRSYM    DATA     BYTE      IP2H
      000000A8H   SFRSYM    DATA     BYTE      IE
      000000BBH   SFRSYM    DATA     BYTE      P_SW3
      000000BAH   SFRSYM    DATA     BYTE      P_SW2
      000000A2H   SFRSYM    DATA     BYTE      P_SW1
      000000CEH   SFRSYM    DATA     BYTE      SPCTL
      000000F8H   SFRSYM    DATA     BYTE      P7
      000000E8H   SFRSYM    DATA     BYTE      P6
      000000C8H   SFRSYM    DATA     BYTE      P5
      000000C0H   SFRSYM    DATA     BYTE      P4
      000000B0H   SFRSYM    DATA     BYTE      P3
      000000A0H   SFRSYM    DATA     BYTE      P2
      00000090H   SFRSYM    DATA     BYTE      P1
      00000080H   SFRSYM    DATA     BYTE      P0

      00FF7EA3H   BLOCK     CODE     ---       LVL=0
      00000BDAH   SYMBOL    EDATA    BYTE      dat
L251 LINKER/LOCATER V4.66.93.0                                                        05/03/2024  16:07:18  PAGE 77


      00FF7EA7H   BLOCK     CODE     NEAR LAB  LVL=1
      000106D0H   SYMBOL    XDATA    BYTE      i
      ---         BLOCKEND  ---      ---       LVL=1
      00FF7EA3H   LINE      CODE     ---       #61
      00FF7EA7H   LINE      CODE     ---       #62
      00FF7EA7H   LINE      CODE     ---       #63
      00FF7EADH   LINE      CODE     ---       #64
      00FF7EB0H   LINE      CODE     ---       #65
      00FF7EB3H   LINE      CODE     ---       #67
      00FF7EB6H   LINE      CODE     ---       #69
      00FF7EB8H   LINE      CODE     ---       #71
      00FF7EC4H   LINE      CODE     ---       #72
      00FF7EC7H   LINE      CODE     ---       #73
      00FF7ECAH   LINE      CODE     ---       #75
      00FF7ECDH   LINE      CODE     ---       #76
      00FF7ED7H   LINE      CODE     ---       #77
      00FF7EEAH   LINE      CODE     ---       #78
      00FF7EEDH   LINE      CODE     ---       #79
      ---         BLOCKEND  ---      ---       LVL=0
      00000BDBH   SYMBOL    EDATA    BYTE      dat
      000106D1H   SYMBOL    XDATA    BYTE      i

      00FF7B3BH   BLOCK     CODE     ---       LVL=0
      00000BABH   SYMBOL    EDATA    WORD      dat
      00FF7B3FH   BLOCK     CODE     NEAR LAB  LVL=1
      000106D2H   SYMBOL    XDATA    BYTE      i
      ---         BLOCKEND  ---      ---       LVL=1
      00FF7B3BH   LINE      CODE     ---       #115
      00FF7B3FH   LINE      CODE     ---       #116
      00FF7B3FH   LINE      CODE     ---       #117
      00FF7B45H   LINE      CODE     ---       #118
      00FF7B48H   LINE      CODE     ---       #119
      00FF7B4BH   LINE      CODE     ---       #120
      00FF7B4EH   LINE      CODE     ---       #121
      00FF7B50H   LINE      CODE     ---       #123
      00FF7B65H   LINE      CODE     ---       #124
      00FF7B68H   LINE      CODE     ---       #125
      00FF7B6BH   LINE      CODE     ---       #127
      00FF7B6EH   LINE      CODE     ---       #128
      00FF7B78H   LINE      CODE     ---       #129
      00FF7B8BH   LINE      CODE     ---       #130
      00FF7B8EH   LINE      CODE     ---       #131
      ---         BLOCKEND  ---      ---       LVL=0
      0000094BH   SYMBOL    EDATA    WORD      x1
      0000094DH   SYMBOL    EDATA    WORD      y1
      0000094FH   SYMBOL    EDATA    WORD      x2
      00000951H   SYMBOL    EDATA    WORD      y2
      00000B3BH   SYMBOL    EDATA    WORD      color
      000106A5H   SYMBOL    XDATA    WORD      i
      00000B3DH   SYMBOL    EDATA    WORD      j
      00000A4AH   SYMBOL    EDATA    WORD      x
      00000A4CH   SYMBOL    EDATA    WORD      y
      00000A4EH   SYMBOL    EDATA    WORD      color
      00000A50H   SYMBOL    EDATA    WORD      x
      00000A52H   SYMBOL    EDATA    WORD      y
      00000A54H   SYMBOL    EDATA    CHAR      dat
      000106A7H   SYMBOL    XDATA    BYTE      i
      00000A55H   SYMBOL    EDATA    BYTE      j
      000106A8H   SYMBOL    XDATA    BYTE      temp
      00000953H   SYMBOL    EDATA    WORD      x
      00000955H   SYMBOL    EDATA    WORD      y
      00000957H   SYMBOL    EDATA    ---       dat
      000106A9H   SYMBOL    XDATA    WORD      j
      00000AE4H   SYMBOL    EDATA    WORD      x
      00000AE6H   SYMBOL    EDATA    WORD      y
L251 LINKER/LOCATER V4.66.93.0                                                        05/03/2024  16:07:18  PAGE 78


      00000AE8H   SYMBOL    EDATA    CHAR      dat
      0001065FH   SYMBOL    XDATA    ---       a
      00010662H   SYMBOL    XDATA    BYTE      i
      00000AE9H   SYMBOL    EDATA    WORD      x
      00000AEBH   SYMBOL    EDATA    WORD      y
      00000AEDH   SYMBOL    EDATA    BYTE      dat
      00010663H   SYMBOL    XDATA    ---       a
      00010666H   SYMBOL    XDATA    BYTE      i
      00000A56H   SYMBOL    EDATA    WORD      x
      00000A58H   SYMBOL    EDATA    WORD      y
      00000A5AH   SYMBOL    EDATA    INT       dat
      00010606H   SYMBOL    XDATA    ---       a
      0001060BH   SYMBOL    XDATA    BYTE      i
      00000A5CH   SYMBOL    EDATA    WORD      x
      00000A5EH   SYMBOL    EDATA    WORD      y
      00000A60H   SYMBOL    EDATA    WORD      dat
      0001060CH   SYMBOL    XDATA    ---       a
      00010611H   SYMBOL    XDATA    BYTE      i
      000008D6H   SYMBOL    EDATA    WORD      x
      000008D8H   SYMBOL    EDATA    WORD      y
      000008DAH   SYMBOL    EDATA    LONG      dat
      000008DEH   SYMBOL    EDATA    BYTE      num
      0001054EH   SYMBOL    XDATA    ---       buff
      00010570H   SYMBOL    XDATA    BYTE      length
      000007A9H   SYMBOL    EDATA    WORD      x
      000007ABH   SYMBOL    EDATA    WORD      y
      000007ADH   SYMBOL    EDATA    FLOAT     dat
      000007B1H   SYMBOL    EDATA    BYTE      num
      000007B2H   SYMBOL    EDATA    BYTE      pointnum
      000104C0H   SYMBOL    XDATA    BYTE      length
      000104C1H   SYMBOL    XDATA    ---       buff
      000104E3H   SYMBOL    XDATA    CHAR      start
      000007B3H   SYMBOL    EDATA    CHAR      end
      000007B4H   SYMBOL    EDATA    CHAR      point

      00FF85F4H   BLOCK     CODE     ---       LVL=0
      00000BDCH   SYMBOL    EDATA    BYTE      dat
      00FF85F4H   LINE      CODE     ---       #594
      00FF85F8H   LINE      CODE     ---       #596
      00FF85FBH   LINE      CODE     ---       #597
      00FF85FEH   LINE      CODE     ---       #599
      00FF8605H   LINE      CODE     ---       #600
      00FF8608H   LINE      CODE     ---       #601
      ---         BLOCKEND  ---      ---       LVL=0
      00000BDDH   SYMBOL    EDATA    BYTE      dat

      00FF823CH   BLOCK     CODE     ---       LVL=0
      00000BADH   SYMBOL    EDATA    WORD      dat
      00FF8240H   BLOCK     CODE     NEAR LAB  LVL=1
      000106ABH   SYMBOL    XDATA    ---       dat1
      ---         BLOCKEND  ---      ---       LVL=1
      00FF823CH   LINE      CODE     ---       #626
      00FF8240H   LINE      CODE     ---       #627
      00FF8240H   LINE      CODE     ---       #629
      00FF8248H   LINE      CODE     ---       #630
      00FF8250H   LINE      CODE     ---       #631
      00FF8253H   LINE      CODE     ---       #632
      00FF8256H   LINE      CODE     ---       #633
      00FF825DH   LINE      CODE     ---       #634
      00FF8264H   LINE      CODE     ---       #635
      00FF8267H   LINE      CODE     ---       #636
      ---         BLOCKEND  ---      ---       LVL=0
      0000095BH   SYMBOL    EDATA    WORD      x1
      0000095DH   SYMBOL    EDATA    WORD      y1
      0000095FH   SYMBOL    EDATA    WORD      x2
L251 LINKER/LOCATER V4.66.93.0                                                        05/03/2024  16:07:18  PAGE 79


      00000961H   SYMBOL    EDATA    WORD      y2
      00000B3FH   SYMBOL    EDATA    WORD      color
      000106ADH   SYMBOL    XDATA    WORD      i
      00000B41H   SYMBOL    EDATA    WORD      j
      00000A62H   SYMBOL    EDATA    WORD      x
      00000A64H   SYMBOL    EDATA    WORD      y
      00000A66H   SYMBOL    EDATA    WORD      color
      00000A68H   SYMBOL    EDATA    WORD      x
      00000A6AH   SYMBOL    EDATA    WORD      y
      00000A6CH   SYMBOL    EDATA    CHAR      dat
      000106AFH   SYMBOL    XDATA    BYTE      i
      00000A6DH   SYMBOL    EDATA    BYTE      j
      000106B0H   SYMBOL    XDATA    BYTE      temp
      00000963H   SYMBOL    EDATA    WORD      x
      00000965H   SYMBOL    EDATA    WORD      y
      00000967H   SYMBOL    EDATA    ---       dat
      000106B1H   SYMBOL    XDATA    WORD      j
      00000AEEH   SYMBOL    EDATA    WORD      x
      00000AF0H   SYMBOL    EDATA    WORD      y
      00000AF2H   SYMBOL    EDATA    CHAR      dat
      00010667H   SYMBOL    XDATA    ---       a
      0001066AH   SYMBOL    XDATA    BYTE      i
      00000AF3H   SYMBOL    EDATA    WORD      x
      00000AF5H   SYMBOL    EDATA    WORD      y
      00000AF7H   SYMBOL    EDATA    BYTE      dat
      0001066BH   SYMBOL    XDATA    ---       a
      0001066EH   SYMBOL    XDATA    BYTE      i
      00000A6EH   SYMBOL    EDATA    WORD      x
      00000A70H   SYMBOL    EDATA    WORD      y
      00000A72H   SYMBOL    EDATA    INT       dat
      00010612H   SYMBOL    XDATA    ---       a
      00010617H   SYMBOL    XDATA    BYTE      i
      00000A74H   SYMBOL    EDATA    WORD      x
      00000A76H   SYMBOL    EDATA    WORD      y
      00000A78H   SYMBOL    EDATA    WORD      dat
      00010618H   SYMBOL    XDATA    ---       a
      0001061DH   SYMBOL    XDATA    BYTE      i
      000008DFH   SYMBOL    EDATA    WORD      x
      000008E1H   SYMBOL    EDATA    WORD      y
      000008E3H   SYMBOL    EDATA    LONG      dat
      000008E7H   SYMBOL    EDATA    BYTE      num
      00010571H   SYMBOL    XDATA    ---       buff
      00010593H   SYMBOL    XDATA    BYTE      length
      000007B5H   SYMBOL    EDATA    WORD      x
      000007B7H   SYMBOL    EDATA    WORD      y
      000007B9H   SYMBOL    EDATA    FLOAT     dat
      000007BDH   SYMBOL    EDATA    BYTE      num
      000007BEH   SYMBOL    EDATA    BYTE      pointnum
      000104E4H   SYMBOL    XDATA    BYTE      length
      000104E5H   SYMBOL    XDATA    ---       buff
      00010507H   SYMBOL    XDATA    CHAR      start
      000007BFH   SYMBOL    EDATA    CHAR      end
      000007C0H   SYMBOL    EDATA    CHAR      point

      ---         MODULE    ---      ---       SEEKFREE_MPU6050
      000007C1H   PUBLIC    EDATA    INT       mpu6050_acc_x
      000007C3H   PUBLIC    EDATA    INT       mpu6050_acc_y
      000007C5H   PUBLIC    EDATA    INT       mpu6050_acc_z
      000007C7H   PUBLIC    EDATA    INT       mpu6050_gyro_x
      000007C9H   PUBLIC    EDATA    INT       mpu6050_gyro_y
      000007CBH   PUBLIC    EDATA    INT       mpu6050_gyro_z
      000000D0H   SFRSYM    DATA     BYTE      PSW
      0000009DH   SFRSYM    DATA     BYTE      IRCBAND
      00000097H   SFRSYM    DATA     BYTE      AUXR2
      000000EFH   SFRSYM    DATA     BYTE      AUXINTIF
L251 LINKER/LOCATER V4.66.93.0                                                        05/03/2024  16:07:18  PAGE 80


      000000FDH   SFRSYM    DATA     BYTE      S4CON
      000000ACH   SFRSYM    DATA     BYTE      S3CON
      0000009AH   SFRSYM    DATA     BYTE      S2CON
      000000B7H   SFRSYM    DATA     BYTE      IPH
      000000CDH   SFRSYM    DATA     BYTE      SPSTAT
      000000DDH   SFRSYM    DATA     BYTE      T4T3M
      000000C1H   SFRSYM    DATA     BYTE      WDT_CONTR
      000000DFH   SFRSYM    DATA     BYTE      IP3
      000000F4H   SFRSYM    DATA     BYTE      USBCON
      000000B5H   SFRSYM    DATA     BYTE      IP2
      000000FFH   SFRSYM    DATA     BYTE      RSTCFG
      000000F9H   SFRSYM    DATA     BYTE      LINICR
      0000008EH   SFRSYM    DATA     BYTE      AUXR
      000000AFH   SFRSYM    DATA     BYTE      IE2
      00000088H   SFRSYM    DATA     BYTE      TCON
      000000C0H.1 SFRSYM    DATA     BIT       P41
      00000098H   SFRSYM    DATA     BYTE      SCON
      000000C0H.0 SFRSYM    DATA     BIT       P40
      000000F1H   SFRSYM    DATA     BYTE      CANICR
      00000087H   SFRSYM    DATA     BYTE      PCON
      000000BCH   SFRSYM    DATA     BYTE      ADC_CONTR
      000000E7H   SFRSYM    DATA     BYTE      CMPCR2
      000000E6H   SFRSYM    DATA     BYTE      CMPCR1
      000000B8H   SFRSYM    DATA     BYTE      IP
      0000008FH   SFRSYM    DATA     BYTE      INTCLKO
      000000EEH   SFRSYM    DATA     BYTE      IP3H
      000000B6H   SFRSYM    DATA     BYTE      IP2H
      000000A8H   SFRSYM    DATA     BYTE      IE
      000000BBH   SFRSYM    DATA     BYTE      P_SW3
      000000BAH   SFRSYM    DATA     BYTE      P_SW2
      000000A2H   SFRSYM    DATA     BYTE      P_SW1
      000000CEH   SFRSYM    DATA     BYTE      SPCTL
      000000F8H   SFRSYM    DATA     BYTE      P7
      000000E8H   SFRSYM    DATA     BYTE      P6
      000000C8H   SFRSYM    DATA     BYTE      P5
      000000C0H   SFRSYM    DATA     BYTE      P4
      000000B0H   SFRSYM    DATA     BYTE      P3
      000000A0H   SFRSYM    DATA     BYTE      P2
      00000090H   SFRSYM    DATA     BYTE      P1
      00000080H   SFRSYM    DATA     BYTE      P0
      00FF8646H   SYMBOL    CODE     ---       mpu6050_simiic_start
      00FF859EH   SYMBOL    CODE     ---       mpu6050_simiic_stop
      00FF8339H   SYMBOL    CODE     ---       mpu6050_simiic_sendack
      00FF84E9H   SYMBOL    CODE     ---       mpu6050_simiic_delay

      00FF84E9H   BLOCK     CODE     ---       LVL=0
      000106B3H   SYMBOL    XDATA    WORD      j
      00FF84E9H   LINE      CODE     ---       #52
      00FF84E9H   LINE      CODE     ---       #53
      00FF84E9H   LINE      CODE     ---       #54
      00FF84F1H   LINE      CODE     ---       #55
      00FF8508H   LINE      CODE     ---       #56
      ---         BLOCKEND  ---      ---       LVL=0

      00FF8646H   BLOCK     CODE     ---       LVL=0
      00FF8646H   LINE      CODE     ---       #59
      00FF8646H   LINE      CODE     ---       #61
      00FF8649H   LINE      CODE     ---       #62
      00FF864CH   LINE      CODE     ---       #63
      00FF864FH   LINE      CODE     ---       #64
      00FF8652H   LINE      CODE     ---       #65
      00FF8655H   LINE      CODE     ---       #66
      00FF8658H   LINE      CODE     ---       #67
      ---         BLOCKEND  ---      ---       LVL=0

L251 LINKER/LOCATER V4.66.93.0                                                        05/03/2024  16:07:18  PAGE 81


      00FF859EH   BLOCK     CODE     ---       LVL=0
      00FF859EH   LINE      CODE     ---       #70
      00FF859EH   LINE      CODE     ---       #72
      00FF85A1H   LINE      CODE     ---       #73
      00FF85A4H   LINE      CODE     ---       #74
      00FF85A7H   LINE      CODE     ---       #75
      00FF85AAH   LINE      CODE     ---       #76
      00FF85ADH   LINE      CODE     ---       #77
      00FF85B0H   LINE      CODE     ---       #78
      00FF85B3H   LINE      CODE     ---       #79
      ---         BLOCKEND  ---      ---       LVL=0

      00FF8339H   BLOCK     CODE     ---       LVL=0
      00000BDEH   SYMBOL    EDATA    BYTE      ack_dat
      00FF8339H   LINE      CODE     ---       #83
      00FF833DH   LINE      CODE     ---       #85
      00FF8340H   LINE      CODE     ---       #86
      00FF8343H   LINE      CODE     ---       #87
      00FF8351H   LINE      CODE     ---       #88
      00FF8354H   LINE      CODE     ---       #89
      00FF8357H   LINE      CODE     ---       #90
      00FF835AH   LINE      CODE     ---       #91
      00FF835DH   LINE      CODE     ---       #92
      00FF8360H   LINE      CODE     ---       #93
      ---         BLOCKEND  ---      ---       LVL=0
      00000BDFH   SYMBOL    EDATA    BYTE      c
      000106D3H   SYMBOL    XDATA    BYTE      i
      00000BE0H   SYMBOL    EDATA    BYTE      ack_x
      000106B5H   SYMBOL    XDATA    BYTE      i
      000106B6H   SYMBOL    XDATA    BYTE      c
      00000B73H   SYMBOL    EDATA    BYTE      dev_add
      00000B74H   SYMBOL    EDATA    BYTE      reg
      00000B75H   SYMBOL    EDATA    BYTE      dat
      00000BAFH   SYMBOL    EDATA    BYTE      dev_add
      00000BB0H   SYMBOL    EDATA    BYTE      reg
      000106D4H   SYMBOL    XDATA    BYTE      dat
      000009AAH   SYMBOL    EDATA    BYTE      dev_add
      000009ABH   SYMBOL    EDATA    BYTE      reg
      000009ACH   SYMBOL    EDATA    ---       dat_add
      000009B0H   SYMBOL    EDATA    BYTE      num
      0001061EH   SYMBOL    XDATA    ---       dat
      00010624H   SYMBOL    XDATA    ---       dat

      ---         MODULE    ---      ---       SEEKFREE_OLED
      00FF81AEH   PUBLIC    CODE     ---       oled_set_pos
      00FF7EEEH   PUBLIC    CODE     ---       oled_wrcmd
      00FF7F39H   PUBLIC    CODE     ---       oled_wrdat
      00FF810EH   PUBLIC    CODE     ---       oled_set_pos_spi
      00FF607BH   PUBLIC    CODE     ---       oled_printf_float_spi
      00FF8609H   PUBLIC    CODE     ---       oled_wrcmd_spi
      00FF861EH   PUBLIC    CODE     ---       oled_wrdat_spi
      00FF7775H   PUBLIC    CODE     ---       oled_fill_spi
      00FF6A69H   PUBLIC    CODE     ---       oled_printf_int32_spi
      00FF68C9H   PUBLIC    CODE     ---       oled_p6x8str_spi
      00FF6B37H   PUBLIC    CODE     ---       oled_init_spi
      000004D9H   PUBLIC    EDATA    BYTE      ?oled_printf_float?BYTE
      00000509H   PUBLIC    EDATA    BYTE      ?oled_printf_float_spi?BYTE
      000000D0H   SFRSYM    DATA     BYTE      PSW
      0000009DH   SFRSYM    DATA     BYTE      IRCBAND
      00000097H   SFRSYM    DATA     BYTE      AUXR2
      000000EFH   SFRSYM    DATA     BYTE      AUXINTIF
      000000FDH   SFRSYM    DATA     BYTE      S4CON
      000000ACH   SFRSYM    DATA     BYTE      S3CON
      0000009AH   SFRSYM    DATA     BYTE      S2CON
      000000B7H   SFRSYM    DATA     BYTE      IPH
L251 LINKER/LOCATER V4.66.93.0                                                        05/03/2024  16:07:18  PAGE 82


      000000CDH   SFRSYM    DATA     BYTE      SPSTAT
      000000DDH   SFRSYM    DATA     BYTE      T4T3M
      000000C1H   SFRSYM    DATA     BYTE      WDT_CONTR
      000000DFH   SFRSYM    DATA     BYTE      IP3
      000000F4H   SFRSYM    DATA     BYTE      USBCON
      000000B5H   SFRSYM    DATA     BYTE      IP2
      000000FFH   SFRSYM    DATA     BYTE      RSTCFG
      000000F9H   SFRSYM    DATA     BYTE      LINICR
      0000008EH   SFRSYM    DATA     BYTE      AUXR
      000000AFH   SFRSYM    DATA     BYTE      IE2
      000000A0H.5 SFRSYM    DATA     BIT       P25
      00000088H   SFRSYM    DATA     BYTE      TCON
      000000A0H.3 SFRSYM    DATA     BIT       P23
      00000098H   SFRSYM    DATA     BYTE      SCON
      000000A0H.2 SFRSYM    DATA     BIT       P22
      000000A0H.1 SFRSYM    DATA     BIT       P21
      000000A0H.0 SFRSYM    DATA     BIT       P20
      000000F1H   SFRSYM    DATA     BYTE      CANICR
      00000087H   SFRSYM    DATA     BYTE      PCON
      000000BCH   SFRSYM    DATA     BYTE      ADC_CONTR
      000000E7H   SFRSYM    DATA     BYTE      CMPCR2
      000000E6H   SFRSYM    DATA     BYTE      CMPCR1
      000000B8H   SFRSYM    DATA     BYTE      IP
      0000008FH   SFRSYM    DATA     BYTE      INTCLKO
      000000EEH   SFRSYM    DATA     BYTE      IP3H
      000000B6H   SFRSYM    DATA     BYTE      IP2H
      000000A8H   SFRSYM    DATA     BYTE      IE
      000000BBH   SFRSYM    DATA     BYTE      P_SW3
      000000BAH   SFRSYM    DATA     BYTE      P_SW2
      000000A2H   SFRSYM    DATA     BYTE      P_SW1
      000000CEH   SFRSYM    DATA     BYTE      SPCTL
      000000F8H   SFRSYM    DATA     BYTE      P7
      000000E8H   SFRSYM    DATA     BYTE      P6
      000000C8H   SFRSYM    DATA     BYTE      P5
      000000C0H   SFRSYM    DATA     BYTE      P4
      000000B0H   SFRSYM    DATA     BYTE      P3
      000000A0H   SFRSYM    DATA     BYTE      P2
      00000090H   SFRSYM    DATA     BYTE      P1
      00000080H   SFRSYM    DATA     BYTE      P0

      00FF7F39H   BLOCK     CODE     ---       LVL=0
      00000BE1H   SYMBOL    EDATA    BYTE      dat
      00FF7F3DH   BLOCK     CODE     NEAR LAB  LVL=1
      000106D5H   SYMBOL    XDATA    BYTE      i
      ---         BLOCKEND  ---      ---       LVL=1
      00FF7F39H   LINE      CODE     ---       #47
      00FF7F3DH   LINE      CODE     ---       #48
      00FF7F3DH   LINE      CODE     ---       #49
      00FF7F43H   LINE      CODE     ---       #51
      00FF7F46H   LINE      CODE     ---       #52
      00FF7F49H   LINE      CODE     ---       #53
      00FF7F4CH   LINE      CODE     ---       #54
      00FF7F4EH   LINE      CODE     ---       #56
      00FF7F5AH   LINE      CODE     ---       #57
      00FF7F5DH   LINE      CODE     ---       #58
      00FF7F60H   LINE      CODE     ---       #60
      00FF7F63H   LINE      CODE     ---       #61
      00FF7F6DH   LINE      CODE     ---       #62
      00FF7F80H   LINE      CODE     ---       #63
      00FF7F83H   LINE      CODE     ---       #64
      ---         BLOCKEND  ---      ---       LVL=0

      00FF7EEEH   BLOCK     CODE     ---       LVL=0
      00000BE2H   SYMBOL    EDATA    BYTE      cmd
      00FF7EF2H   BLOCK     CODE     NEAR LAB  LVL=1
L251 LINKER/LOCATER V4.66.93.0                                                        05/03/2024  16:07:18  PAGE 83


      000106D6H   SYMBOL    XDATA    BYTE      i
      ---         BLOCKEND  ---      ---       LVL=1
      00FF7EEEH   LINE      CODE     ---       #98
      00FF7EF2H   LINE      CODE     ---       #99
      00FF7EF2H   LINE      CODE     ---       #100
      00FF7EF8H   LINE      CODE     ---       #102
      00FF7EFBH   LINE      CODE     ---       #103
      00FF7EFEH   LINE      CODE     ---       #104
      00FF7F01H   LINE      CODE     ---       #106
      00FF7F03H   LINE      CODE     ---       #108
      00FF7F0FH   LINE      CODE     ---       #109
      00FF7F12H   LINE      CODE     ---       #110
      00FF7F15H   LINE      CODE     ---       #112
      00FF7F18H   LINE      CODE     ---       #113
      00FF7F22H   LINE      CODE     ---       #114
      00FF7F35H   LINE      CODE     ---       #115
      00FF7F38H   LINE      CODE     ---       #116
      ---         BLOCKEND  ---      ---       LVL=0
      00000A7AH   SYMBOL    EDATA    WORD      hex
      00000A7CH   SYMBOL    EDATA    ---       Print
      000106B7H   SYMBOL    XDATA    BYTE      hexcheck
      000106B8H   SYMBOL    XDATA    BYTE      TEMP

      00FF81AEH   BLOCK     CODE     ---       LVL=0
      00000BB1H   SYMBOL    EDATA    BYTE      x
      00000BB2H   SYMBOL    EDATA    BYTE      y
      00FF81AEH   LINE      CODE     ---       #205
      00FF81B6H   LINE      CODE     ---       #207
      00FF81C1H   LINE      CODE     ---       #208
      00FF81D7H   LINE      CODE     ---       #209
      00FF81E2H   LINE      CODE     ---       #210
      ---         BLOCKEND  ---      ---       LVL=0
      00000BB3H   SYMBOL    EDATA    BYTE      bmp_data
      000106D7H   SYMBOL    XDATA    BYTE      y
      00000BB4H   SYMBOL    EDATA    BYTE      x
      00000B76H   SYMBOL    EDATA    BYTE      x
      00000B77H   SYMBOL    EDATA    BYTE      y
      00000B78H   SYMBOL    EDATA    BYTE      data1
      00000BB5H   SYMBOL    EDATA    BYTE      x
      00000BB6H   SYMBOL    EDATA    BYTE      y
      0000096BH   SYMBOL    EDATA    BYTE      x
      0000096CH   SYMBOL    EDATA    BYTE      y
      0000096DH   SYMBOL    EDATA    ---       ch
      000106D8H   SYMBOL    XDATA    BYTE      c
      00000971H   SYMBOL    EDATA    BYTE      i
      00000972H   SYMBOL    EDATA    BYTE      j
      00000973H   SYMBOL    EDATA    BYTE      x
      00000974H   SYMBOL    EDATA    BYTE      y
      00000975H   SYMBOL    EDATA    ---       ch
      000106D9H   SYMBOL    XDATA    BYTE      c
      00000979H   SYMBOL    EDATA    BYTE      i
      0000097AH   SYMBOL    EDATA    BYTE      j
      000007D9H   SYMBOL    EDATA    BYTE      x
      000007DAH   SYMBOL    EDATA    BYTE      y
      000007DBH   SYMBOL    EDATA    WORD      num
      000007DDH   SYMBOL    EDATA    ---       ch
      000007E4H   SYMBOL    EDATA    BYTE      x
      000007E5H   SYMBOL    EDATA    BYTE      y
      000007E6H   SYMBOL    EDATA    INT       num
      000007E8H   SYMBOL    EDATA    ---       ch
      00000539H   SYMBOL    EDATA    WORD      x
      0000053BH   SYMBOL    EDATA    WORD      y
      0000053DH   SYMBOL    EDATA    LONG      dat
      00000541H   SYMBOL    EDATA    BYTE      num
      00000542H   SYMBOL    EDATA    ---       buff
L251 LINKER/LOCATER V4.66.93.0                                                        05/03/2024  16:07:18  PAGE 84


      00000564H   SYMBOL    EDATA    BYTE      length
      000004D9H   SYMBOL    EDATA    WORD      x
      000004DBH   SYMBOL    EDATA    WORD      y
      000004DDH   SYMBOL    EDATA    FLOAT     dat
      000004E1H   SYMBOL    EDATA    BYTE      num
      000004E2H   SYMBOL    EDATA    BYTE      pointnum
      000004E3H   SYMBOL    EDATA    BYTE      length
      000004E4H   SYMBOL    EDATA    ---       buff
      00000506H   SYMBOL    EDATA    CHAR      start
      00000507H   SYMBOL    EDATA    CHAR      end
      00000508H   SYMBOL    EDATA    CHAR      point
      000006C2H   SYMBOL    EDATA    WORD      high
      000006C4H   SYMBOL    EDATA    WORD      width
      000006C6H   SYMBOL    EDATA    ---       p
      000006CAH   SYMBOL    EDATA    BYTE      value
      000006CBH   SYMBOL    EDATA    WORD      i
      000106B9H   SYMBOL    XDATA    WORD      j
      000006CDH   SYMBOL    EDATA    WORD      temp
      000006CFH   SYMBOL    EDATA    WORD      temp1
      000006D1H   SYMBOL    EDATA    BYTE      dat
      0000071DH   SYMBOL    EDATA    BYTE      x
      0000071EH   SYMBOL    EDATA    BYTE      y
      0000071FH   SYMBOL    EDATA    BYTE      size
      00000720H   SYMBOL    EDATA    ---       p
      00000724H   SYMBOL    EDATA    BYTE      len
      00000725H   SYMBOL    EDATA    WORD      i
      00000727H   SYMBOL    EDATA    WORD      j
      00000729H   SYMBOL    EDATA    WORD      k

      00FF861EH   BLOCK     CODE     ---       LVL=0
      00000BE3H   SYMBOL    EDATA    BYTE      dat
      00FF861EH   LINE      CODE     ---       #534
      00FF8622H   LINE      CODE     ---       #536
      00FF8625H   LINE      CODE     ---       #537
      00FF8628H   LINE      CODE     ---       #538
      00FF862FH   LINE      CODE     ---       #539
      00FF8632H   LINE      CODE     ---       #542
      ---         BLOCKEND  ---      ---       LVL=0

      00FF8609H   BLOCK     CODE     ---       LVL=0
      00000BE4H   SYMBOL    EDATA    BYTE      cmd
      00FF8609H   LINE      CODE     ---       #576
      00FF860DH   LINE      CODE     ---       #578
      00FF8610H   LINE      CODE     ---       #579
      00FF8613H   LINE      CODE     ---       #580
      00FF861AH   LINE      CODE     ---       #581
      00FF861DH   LINE      CODE     ---       #582
      ---         BLOCKEND  ---      ---       LVL=0
      00000A80H   SYMBOL    EDATA    WORD      hex
      00000A82H   SYMBOL    EDATA    ---       Print
      000106BBH   SYMBOL    XDATA    BYTE      hexcheck
      000106BCH   SYMBOL    XDATA    BYTE      TEMP

      00FF6B37H   BLOCK     CODE     ---       LVL=0
      00FF6B37H   LINE      CODE     ---       #614
      00FF6B37H   LINE      CODE     ---       #617
      00FF6B3AH   LINE      CODE     ---       #619
      00FF6B5AH   LINE      CODE     ---       #621
      00FF6B5DH   LINE      CODE     ---       #622
      00FF6B64H   LINE      CODE     ---       #623
      00FF6B67H   LINE      CODE     ---       #625
      00FF6B6CH   LINE      CODE     ---       #626
      00FF6B70H   LINE      CODE     ---       #627
      00FF6B75H   LINE      CODE     ---       #628
      00FF6B7AH   LINE      CODE     ---       #629
L251 LINKER/LOCATER V4.66.93.0                                                        05/03/2024  16:07:18  PAGE 85


      00FF6B7FH   LINE      CODE     ---       #630
      00FF6B84H   LINE      CODE     ---       #633
      00FF6B89H   LINE      CODE     ---       #634
      00FF6B8EH   LINE      CODE     ---       #640
      00FF6B93H   LINE      CODE     ---       #641
      00FF6B98H   LINE      CODE     ---       #642
      00FF6B9DH   LINE      CODE     ---       #643
      00FF6BA2H   LINE      CODE     ---       #644
      00FF6BA6H   LINE      CODE     ---       #645
      00FF6BABH   LINE      CODE     ---       #646
      00FF6BB0H   LINE      CODE     ---       #647
      00FF6BB5H   LINE      CODE     ---       #648
      00FF6BBAH   LINE      CODE     ---       #649
      00FF6BBFH   LINE      CODE     ---       #650
      00FF6BC4H   LINE      CODE     ---       #651
      00FF6BC9H   LINE      CODE     ---       #652
      00FF6BCEH   LINE      CODE     ---       #653
      00FF6BD3H   LINE      CODE     ---       #654
      00FF6BD8H   LINE      CODE     ---       #655
      00FF6BDDH   LINE      CODE     ---       #656
      00FF6BE2H   LINE      CODE     ---       #657
      00FF6BE7H   LINE      CODE     ---       #658
      00FF6BECH   LINE      CODE     ---       #659
      00FF6BF1H   LINE      CODE     ---       #660
      00FF6BF5H   LINE      CODE     ---       #661
      00FF6BFBH   LINE      CODE     ---       #662
      ---         BLOCKEND  ---      ---       LVL=0

      00FF810EH   BLOCK     CODE     ---       LVL=0
      00000BB7H   SYMBOL    EDATA    BYTE      x
      00000BB8H   SYMBOL    EDATA    BYTE      y
      00FF810EH   LINE      CODE     ---       #672
      00FF8116H   LINE      CODE     ---       #676
      00FF8121H   LINE      CODE     ---       #677
      00FF8138H   LINE      CODE     ---       #678
      00FF8143H   LINE      CODE     ---       #679
      ---         BLOCKEND  ---      ---       LVL=0

      00FF7775H   BLOCK     CODE     ---       LVL=0
      00000BB9H   SYMBOL    EDATA    BYTE      bmp_data
      00FF7779H   BLOCK     CODE     NEAR LAB  LVL=1
      000106DAH   SYMBOL    XDATA    BYTE      y
      00000BBAH   SYMBOL    EDATA    BYTE      x
      ---         BLOCKEND  ---      ---       LVL=1
      00FF7775H   LINE      CODE     ---       #688
      00FF7779H   LINE      CODE     ---       #689
      00FF7779H   LINE      CODE     ---       #692
      00FF7780H   LINE      CODE     ---       #694
      00FF778DH   LINE      CODE     ---       #695
      00FF7792H   LINE      CODE     ---       #696
      00FF7797H   LINE      CODE     ---       #697
      00FF77BCH   LINE      CODE     ---       #698
      00FF77D3H   LINE      CODE     ---       #699
      ---         BLOCKEND  ---      ---       LVL=0
      00000B79H   SYMBOL    EDATA    BYTE      x
      00000B7AH   SYMBOL    EDATA    BYTE      y
      00000B7BH   SYMBOL    EDATA    BYTE      data1
      00000BBBH   SYMBOL    EDATA    BYTE      x
      00000BBCH   SYMBOL    EDATA    BYTE      y

      00FF68C9H   BLOCK     CODE     ---       LVL=0
      0000097BH   SYMBOL    EDATA    BYTE      x
      0000097CH   SYMBOL    EDATA    BYTE      y
      0000097DH   SYMBOL    EDATA    ---       ch
      00FF68D5H   BLOCK     CODE     NEAR LAB  LVL=1
L251 LINKER/LOCATER V4.66.93.0                                                        05/03/2024  16:07:18  PAGE 86


      000106DBH   SYMBOL    XDATA    BYTE      c
      00000981H   SYMBOL    EDATA    BYTE      i
      00000982H   SYMBOL    EDATA    BYTE      j
      ---         BLOCKEND  ---      ---       LVL=1
      00FF68C9H   LINE      CODE     ---       #748
      00FF68D5H   LINE      CODE     ---       #749
      00FF68D5H   LINE      CODE     ---       #750
      00FF68E4H   LINE      CODE     ---       #751
      00FF68E7H   LINE      CODE     ---       #753
      00FF6902H   LINE      CODE     ---       #754
      00FF691EH   LINE      CODE     ---       #755
      00FF6929H   LINE      CODE     ---       #756
      00FF696AH   LINE      CODE     ---       #757
      00FF6976H   LINE      CODE     ---       #758
      00FF6983H   LINE      CODE     ---       #759
      00FF699AH   LINE      CODE     ---       #760
      ---         BLOCKEND  ---      ---       LVL=0
      00000983H   SYMBOL    EDATA    BYTE      x
      00000984H   SYMBOL    EDATA    BYTE      y
      00000985H   SYMBOL    EDATA    ---       ch
      000106DCH   SYMBOL    XDATA    BYTE      c
      00000989H   SYMBOL    EDATA    BYTE      i
      0000098AH   SYMBOL    EDATA    BYTE      j
      000007EFH   SYMBOL    EDATA    BYTE      x
      000007F0H   SYMBOL    EDATA    BYTE      y
      000007F1H   SYMBOL    EDATA    WORD      num
      000007F3H   SYMBOL    EDATA    ---       ch
      000007FAH   SYMBOL    EDATA    BYTE      x
      000007FBH   SYMBOL    EDATA    BYTE      y
      000007FCH   SYMBOL    EDATA    INT       num
      000007FEH   SYMBOL    EDATA    ---       ch

      00FF6A69H   BLOCK     CODE     ---       LVL=0
      00000565H   SYMBOL    EDATA    WORD      x
      00000567H   SYMBOL    EDATA    WORD      y
      00000569H   SYMBOL    EDATA    LONG      dat
      0000056DH   SYMBOL    EDATA    BYTE      num
      00FF6A79H   BLOCK     CODE     NEAR LAB  LVL=1
      0000056EH   SYMBOL    EDATA    ---       buff
      00000590H   SYMBOL    EDATA    BYTE      length
      ---         BLOCKEND  ---      ---       LVL=1
      00FF6A69H   LINE      CODE     ---       #841
      00FF6A79H   LINE      CODE     ---       #842
      00FF6A79H   LINE      CODE     ---       #846
      00FF6A89H   LINE      CODE     ---       #848
      00FF6A96H   LINE      CODE     ---       #849
      00FF6ABDH   LINE      CODE     ---       #852
      00FF6AC3H   LINE      CODE     ---       #853
      00FF6ADEH   LINE      CODE     ---       #854
      00FF6AEBH   LINE      CODE     ---       #855
      00FF6AEBH   LINE      CODE     ---       #856
      00FF6AEDH   LINE      CODE     ---       #858
      00FF6AFEH   LINE      CODE     ---       #859
      00FF6B0BH   LINE      CODE     ---       #860
      00FF6B17H   LINE      CODE     ---       #861
      00FF6B27H   LINE      CODE     ---       #863
      00FF6B36H   LINE      CODE     ---       #864
      ---         BLOCKEND  ---      ---       LVL=0

      00FF607BH   BLOCK     CODE     ---       LVL=0
      00000509H   SYMBOL    EDATA    WORD      x
      0000050BH   SYMBOL    EDATA    WORD      y
      0000050DH   SYMBOL    EDATA    FLOAT     dat
      00000511H   SYMBOL    EDATA    BYTE      num
      00000512H   SYMBOL    EDATA    BYTE      pointnum
L251 LINKER/LOCATER V4.66.93.0                                                        05/03/2024  16:07:18  PAGE 87


      00FF608BH   BLOCK     CODE     NEAR LAB  LVL=1
      00000513H   SYMBOL    EDATA    BYTE      length
      00000514H   SYMBOL    EDATA    ---       buff
      00000536H   SYMBOL    EDATA    CHAR      start
      00000537H   SYMBOL    EDATA    CHAR      end
      00000538H   SYMBOL    EDATA    CHAR      point
      ---         BLOCKEND  ---      ---       LVL=1
      00FF607BH   LINE      CODE     ---       #881
      00FF608BH   LINE      CODE     ---       #882
      00FF608BH   LINE      CODE     ---       #887
      00FF609BH   LINE      CODE     ---       #888
      00FF60ABH   LINE      CODE     ---       #890
      00FF60D3H   LINE      CODE     ---       #893
      00FF60EEH   LINE      CODE     ---       #894
      00FF60FBH   LINE      CODE     ---       #895
      00FF60FBH   LINE      CODE     ---       #896
      00FF610BH   LINE      CODE     ---       #897
      00FF6123H   LINE      CODE     ---       #898
      00FF613BH   LINE      CODE     ---       #899
      00FF613DH   LINE      CODE     ---       #901
      00FF614EH   LINE      CODE     ---       #902
      00FF615BH   LINE      CODE     ---       #903
      00FF6168H   LINE      CODE     ---       #904
      00FF6171H   LINE      CODE     ---       #906
      00FF618FH   LINE      CODE     ---       #907
      00FF61A0H   LINE      CODE     ---       #909
      00FF61B0H   LINE      CODE     ---       #911
      00FF61BFH   LINE      CODE     ---       #912
      ---         BLOCKEND  ---      ---       LVL=0
      000006D2H   SYMBOL    EDATA    WORD      high
      000006D4H   SYMBOL    EDATA    WORD      width
      000006D6H   SYMBOL    EDATA    ---       p
      000006DAH   SYMBOL    EDATA    BYTE      value
      000106BDH   SYMBOL    XDATA    WORD      i
      000006DBH   SYMBOL    EDATA    WORD      j
      000006DDH   SYMBOL    EDATA    WORD      temp
      000006DFH   SYMBOL    EDATA    WORD      temp1
      000006E1H   SYMBOL    EDATA    BYTE      dat
      0000072BH   SYMBOL    EDATA    BYTE      x
      0000072CH   SYMBOL    EDATA    BYTE      y
      0000072DH   SYMBOL    EDATA    BYTE      size
      0000072EH   SYMBOL    EDATA    ---       p
      00000732H   SYMBOL    EDATA    BYTE      len
      00000733H   SYMBOL    EDATA    WORD      i
      00000735H   SYMBOL    EDATA    WORD      j
      00000737H   SYMBOL    EDATA    WORD      k

      ---         MODULE    ---      ---       SEEKFREE_PRINTF
      00FF62D8H   PUBLIC    CODE     ---       number_conversion_ascii
      00FF42B6H   PUBLIC    CODE     ---       zf_sprintf
      00FF71CAH   PUBLIC    CODE     ---       printf_reverse_order
      0000066AH   PUBLIC    EDATA    BYTE      ?number_conversion_ascii?BYTE
      000003F0H   PUBLIC    EDATA    BYTE      ?zf_sprintf?BYTE
      000000D0H   SFRSYM    DATA     BYTE      PSW
      0000009DH   SFRSYM    DATA     BYTE      IRCBAND
      00000097H   SFRSYM    DATA     BYTE      AUXR2
      000000EFH   SFRSYM    DATA     BYTE      AUXINTIF
      000000FDH   SFRSYM    DATA     BYTE      S4CON
      000000ACH   SFRSYM    DATA     BYTE      S3CON
      0000009AH   SFRSYM    DATA     BYTE      S2CON
      000000B7H   SFRSYM    DATA     BYTE      IPH
      000000CDH   SFRSYM    DATA     BYTE      SPSTAT
      000000DDH   SFRSYM    DATA     BYTE      T4T3M
      000000C1H   SFRSYM    DATA     BYTE      WDT_CONTR
      000000DFH   SFRSYM    DATA     BYTE      IP3
L251 LINKER/LOCATER V4.66.93.0                                                        05/03/2024  16:07:18  PAGE 88


      000000F4H   SFRSYM    DATA     BYTE      USBCON
      000000B5H   SFRSYM    DATA     BYTE      IP2
      000000FFH   SFRSYM    DATA     BYTE      RSTCFG
      000000F9H   SFRSYM    DATA     BYTE      LINICR
      0000008EH   SFRSYM    DATA     BYTE      AUXR
      000000AFH   SFRSYM    DATA     BYTE      IE2
      00000088H   SFRSYM    DATA     BYTE      TCON
      00000098H   SFRSYM    DATA     BYTE      SCON
      000000F1H   SFRSYM    DATA     BYTE      CANICR
      00000087H   SFRSYM    DATA     BYTE      PCON
      000000BCH   SFRSYM    DATA     BYTE      ADC_CONTR
      000000E7H   SFRSYM    DATA     BYTE      CMPCR2
      000000E6H   SFRSYM    DATA     BYTE      CMPCR1
      000000B8H   SFRSYM    DATA     BYTE      IP
      0000008FH   SFRSYM    DATA     BYTE      INTCLKO
      000000EEH   SFRSYM    DATA     BYTE      IP3H
      000000B6H   SFRSYM    DATA     BYTE      IP2H
      000000A8H   SFRSYM    DATA     BYTE      IE
      000000BBH   SFRSYM    DATA     BYTE      P_SW3
      000000BAH   SFRSYM    DATA     BYTE      P_SW2
      000000A2H   SFRSYM    DATA     BYTE      P_SW1
      000000CEH   SFRSYM    DATA     BYTE      SPCTL
      000000F8H   SFRSYM    DATA     BYTE      P7
      000000E8H   SFRSYM    DATA     BYTE      P6
      000000C8H   SFRSYM    DATA     BYTE      P5
      000000C0H   SFRSYM    DATA     BYTE      P4
      000000B0H   SFRSYM    DATA     BYTE      P3
      000000A0H   SFRSYM    DATA     BYTE      P2
      00000090H   SFRSYM    DATA     BYTE      P1
      00000080H   SFRSYM    DATA     BYTE      P0

      00FF62D8H   BLOCK     CODE     ---       LVL=0
      0000066AH   SYMBOL    EDATA    DWORD     dat
      0000066EH   SYMBOL    EDATA    ---       p
      00000672H   SYMBOL    EDATA    BYTE      neg_type
      00000673H   SYMBOL    EDATA    BYTE      radix
      00FF62E4H   BLOCK     CODE     NEAR LAB  LVL=1
      00000674H   SYMBOL    EDATA    LONG      neg_dat
      00000678H   SYMBOL    EDATA    DWORD     pos_dat
      0000067CH   SYMBOL    EDATA    BYTE      temp_data
      0000067DH   SYMBOL    EDATA    BYTE      valid_num
      ---         BLOCKEND  ---      ---       LVL=1
      00FF62D8H   LINE      CODE     ---       #29
      00FF62E4H   LINE      CODE     ---       #30
      00FF62E4H   LINE      CODE     ---       #33
      00FF62E9H   LINE      CODE     ---       #34
      00FF62EEH   LINE      CODE     ---       #36
      00FF62F7H   LINE      CODE     ---       #38
      00FF62FFH   LINE      CODE     ---       #39
      00FF6317H   LINE      CODE     ---       #40
      00FF6317H   LINE      CODE     ---       #42
      00FF6333H   LINE      CODE     ---       #43
      00FF6346H   LINE      CODE     ---       #44
      00FF6353H   LINE      CODE     ---       #46
      00FF635BH   LINE      CODE     ---       #47
      00FF6365H   LINE      CODE     ---       #48
      00FF6367H   LINE      CODE     ---       #49
      00FF636AH   LINE      CODE     ---       #52
      00FF6372H   LINE      CODE     ---       #53
      00FF6372H   LINE      CODE     ---       #55
      00FF6387H   LINE      CODE     ---       #56
      00FF639FH   LINE      CODE     ---       #57
      00FF63ABH   LINE      CODE     ---       #59
      00FF63B6H   LINE      CODE     ---       #61
      00FF63C9H   LINE      CODE     ---       #62
L251 LINKER/LOCATER V4.66.93.0                                                        05/03/2024  16:07:18  PAGE 89


      00FF63D6H   LINE      CODE     ---       #64
      00FF63DEH   LINE      CODE     ---       #65
      00FF63E8H   LINE      CODE     ---       #66
      00FF63EAH   LINE      CODE     ---       #67
      00FF63EAH   LINE      CODE     ---       #68
      00FF63EEH   LINE      CODE     ---       #69
      ---         BLOCKEND  ---      ---       LVL=0

      00FF71CAH   BLOCK     CODE     ---       LVL=0
      00000754H   SYMBOL    EDATA    ---       d_buff
      00000758H   SYMBOL    EDATA    DWORD     len
      00FF71D2H   BLOCK     CODE     NEAR LAB  LVL=1
      0000075CH   SYMBOL    EDATA    DWORD     i
      00000760H   SYMBOL    EDATA    CHAR      temp_data
      ---         BLOCKEND  ---      ---       LVL=1
      00FF71CAH   LINE      CODE     ---       #71
      00FF71D2H   LINE      CODE     ---       #72
      00FF71D2H   LINE      CODE     ---       #75
      00FF71DAH   LINE      CODE     ---       #77
      00FF71F9H   LINE      CODE     ---       #78
      00FF7223H   LINE      CODE     ---       #79
      00FF7236H   LINE      CODE     ---       #80
      00FF725EH   LINE      CODE     ---       #81
      ---         BLOCKEND  ---      ---       LVL=0

      00FF42B6H   BLOCK     CODE     ---       LVL=0
      000003F0H   SYMBOL    EDATA    ---       buff
      000003F4H   SYMBOL    EDATA    ---       format
      00FF42BEH   BLOCK     CODE     NEAR LAB  LVL=1
      000003F8H   SYMBOL    EDATA    DWORD     buff_len
      000003FCH   SYMBOL    EDATA    ---       arg
      00FF42D3H   BLOCK     CODE     NEAR LAB  LVL=2
      00000400H   SYMBOL    EDATA    CHAR      ret
      00FF4408H   BLOCK     CODE     NEAR LAB  LVL=3
      00000401H   SYMBOL    EDATA    CHAR      ch
      ---         BLOCKEND  ---      ---       LVL=3
      00FF4447H   BLOCK     CODE     NEAR LAB  LVL=3
      00000401H   SYMBOL    EDATA    ---       vstr
      00000422H   SYMBOL    EDATA    LONG      ival
      00000426H   SYMBOL    EDATA    BYTE      vlen
      ---         BLOCKEND  ---      ---       LVL=3
      00FF44E8H   BLOCK     CODE     NEAR LAB  LVL=3
      00000401H   SYMBOL    EDATA    ---       vstr
      00000422H   SYMBOL    EDATA    FLOAT     ival
      00000426H   SYMBOL    EDATA    BYTE      vlen
      ---         BLOCKEND  ---      ---       LVL=3
      00FF4689H   BLOCK     CODE     NEAR LAB  LVL=3
      00000401H   SYMBOL    EDATA    ---       vstr
      00000422H   SYMBOL    EDATA    DWORD     ival
      00000426H   SYMBOL    EDATA    BYTE      vlen
      ---         BLOCKEND  ---      ---       LVL=3
      00FF4701H   BLOCK     CODE     NEAR LAB  LVL=3
      00000401H   SYMBOL    EDATA    ---       vstr
      00000422H   SYMBOL    EDATA    DWORD     ival
      00000426H   SYMBOL    EDATA    BYTE      vlen
      ---         BLOCKEND  ---      ---       LVL=3
      00FF4779H   BLOCK     CODE     NEAR LAB  LVL=3
      00000401H   SYMBOL    EDATA    ---       vstr
      00000422H   SYMBOL    EDATA    DWORD     ival
      00000426H   SYMBOL    EDATA    BYTE      vlen
      ---         BLOCKEND  ---      ---       LVL=3
      00FF47F1H   BLOCK     CODE     NEAR LAB  LVL=3
      00000401H   SYMBOL    EDATA    ---       pc
      ---         BLOCKEND  ---      ---       LVL=3
      00FF484BH   BLOCK     CODE     NEAR LAB  LVL=3
L251 LINKER/LOCATER V4.66.93.0                                                        05/03/2024  16:07:18  PAGE 90


      00000401H   SYMBOL    EDATA    ---       vstr
      00000422H   SYMBOL    EDATA    DWORD     ival
      ---         BLOCKEND  ---      ---       LVL=3
      ---         BLOCKEND  ---      ---       LVL=2
      ---         BLOCKEND  ---      ---       LVL=1
      00FF42B6H   LINE      CODE     ---       #216
      00FF42BEH   LINE      CODE     ---       #217
      00FF42BEH   LINE      CODE     ---       #218
      00FF42C4H   LINE      CODE     ---       #220
      00FF42D0H   LINE      CODE     ---       #222
      00FF42D3H   LINE      CODE     ---       #223
      00FF42D3H   LINE      CODE     ---       #224
      00FF42DEH   LINE      CODE     ---       #225
      00FF42EAH   LINE      CODE     ---       #227
      00FF4405H   LINE      CODE     ---       #229
      00FF4405H   LINE      CODE     ---       #233
      00FF4408H   LINE      CODE     ---       #236
      00FF4408H   LINE      CODE     ---       #237
      00FF4408H   LINE      CODE     ---       #238
      00FF4421H   LINE      CODE     ---       #239
      00FF442CH   LINE      CODE     ---       #240
      00FF4436H   LINE      CODE     ---       #241
      00FF4444H   LINE      CODE     ---       #243
      00FF4447H   LINE      CODE     ---       #246
      00FF4447H   LINE      CODE     ---       #247
      00FF4447H   LINE      CODE     ---       #248
      00FF4447H   LINE      CODE     ---       #250
      00FF4460H   LINE      CODE     ---       #251
      00FF4477H   LINE      CODE     ---       #253
      00FF4481H   LINE      CODE     ---       #255
      00FF4492H   LINE      CODE     ---       #256
      00FF449FH   LINE      CODE     ---       #257
      00FF449FH   LINE      CODE     ---       #258
      00FF44AEH   LINE      CODE     ---       #259
      00FF44C3H   LINE      CODE     ---       #260
      00FF44D3H   LINE      CODE     ---       #261
      00FF44E5H   LINE      CODE     ---       #264
      00FF44E8H   LINE      CODE     ---       #266
      00FF44E8H   LINE      CODE     ---       #267
      00FF44E8H   LINE      CODE     ---       #268
      00FF44E8H   LINE      CODE     ---       #270
      00FF4501H   LINE      CODE     ---       #271
      00FF451BH   LINE      CODE     ---       #273
      00FF4526H   LINE      CODE     ---       #275
      00FF4537H   LINE      CODE     ---       #276
      00FF4544H   LINE      CODE     ---       #277
      00FF4544H   LINE      CODE     ---       #278
      00FF4553H   LINE      CODE     ---       #279
      00FF4568H   LINE      CODE     ---       #280
      00FF4578H   LINE      CODE     ---       #281
      00FF458AH   LINE      CODE     ---       #283
      00FF45AEH   LINE      CODE     ---       #284
      00FF45B2H   LINE      CODE     ---       #286
      00FF45CCH   LINE      CODE     ---       #287
      00FF45CEH   LINE      CODE     ---       #290
      00FF45F2H   LINE      CODE     ---       #291
      00FF45F8H   LINE      CODE     ---       #292
      00FF45F8H   LINE      CODE     ---       #294
      00FF45FAH   LINE      CODE     ---       #296
      00FF460BH   LINE      CODE     ---       #297
      00FF4618H   LINE      CODE     ---       #298
      00FF4622H   LINE      CODE     ---       #300
      00FF4633H   LINE      CODE     ---       #301
      00FF4640H   LINE      CODE     ---       #303
      00FF464FH   LINE      CODE     ---       #304
L251 LINKER/LOCATER V4.66.93.0                                                        05/03/2024  16:07:18  PAGE 91


      00FF4664H   LINE      CODE     ---       #305
      00FF4674H   LINE      CODE     ---       #306
      00FF4686H   LINE      CODE     ---       #308
      00FF4689H   LINE      CODE     ---       #311
      00FF4689H   LINE      CODE     ---       #312
      00FF4689H   LINE      CODE     ---       #314
      00FF46A2H   LINE      CODE     ---       #315
      00FF46B8H   LINE      CODE     ---       #317
      00FF46C7H   LINE      CODE     ---       #318
      00FF46DCH   LINE      CODE     ---       #319
      00FF46ECH   LINE      CODE     ---       #320
      00FF46FEH   LINE      CODE     ---       #321
      00FF4701H   LINE      CODE     ---       #323
      00FF4701H   LINE      CODE     ---       #324
      00FF4701H   LINE      CODE     ---       #326
      00FF471AH   LINE      CODE     ---       #327
      00FF4730H   LINE      CODE     ---       #329
      00FF473FH   LINE      CODE     ---       #330
      00FF4754H   LINE      CODE     ---       #331
      00FF4764H   LINE      CODE     ---       #332
      00FF4776H   LINE      CODE     ---       #334
      00FF4779H   LINE      CODE     ---       #336
      00FF4779H   LINE      CODE     ---       #337
      00FF4779H   LINE      CODE     ---       #338
      00FF4779H   LINE      CODE     ---       #340
      00FF4792H   LINE      CODE     ---       #341
      00FF47A8H   LINE      CODE     ---       #343
      00FF47B7H   LINE      CODE     ---       #344
      00FF47CCH   LINE      CODE     ---       #345
      00FF47DCH   LINE      CODE     ---       #346
      00FF47EEH   LINE      CODE     ---       #347
      00FF47F1H   LINE      CODE     ---       #350
      00FF47F1H   LINE      CODE     ---       #351
      00FF47F1H   LINE      CODE     ---       #352
      00FF480AH   LINE      CODE     ---       #353
      00FF480CH   LINE      CODE     ---       #355
      00FF481AH   LINE      CODE     ---       #356
      00FF4824H   LINE      CODE     ---       #357
      00FF4832H   LINE      CODE     ---       #358
      00FF483CH   LINE      CODE     ---       #359
      00FF4848H   LINE      CODE     ---       #360
      00FF484BH   LINE      CODE     ---       #362
      00FF484BH   LINE      CODE     ---       #363
      00FF484BH   LINE      CODE     ---       #365
      00FF4864H   LINE      CODE     ---       #367
      00FF4876H   LINE      CODE     ---       #369
      00FF4881H   LINE      CODE     ---       #370
      00FF4894H   LINE      CODE     ---       #371
      00FF48A0H   LINE      CODE     ---       #372
      00FF48AEH   LINE      CODE     ---       #374
      00FF48B0H   LINE      CODE     ---       #377
      00FF48B0H   LINE      CODE     ---       #379
      00FF48B9H   LINE      CODE     ---       #380
      00FF48C3H   LINE      CODE     ---       #381
      00FF48D1H   LINE      CODE     ---       #382
      00FF48D3H   LINE      CODE     ---       #384
      00FF48D3H   LINE      CODE     ---       #385
      00FF48D3H   LINE      CODE     ---       #386
      00FF48D3H   LINE      CODE     ---       #389
      00FF48E1H   LINE      CODE     ---       #390
      00FF48EBH   LINE      CODE     ---       #391
      00FF48F9H   LINE      CODE     ---       #392
      00FF48F9H   LINE      CODE     ---       #393
      00FF4903H   LINE      CODE     ---       #394
      00FF4912H   LINE      CODE     ---       #397
L251 LINKER/LOCATER V4.66.93.0                                                        05/03/2024  16:07:18  PAGE 92


      00FF4916H   LINE      CODE     ---       #398
      ---         BLOCKEND  ---      ---       LVL=0

      ---         MODULE    ---      ---       SEEKFREE_TSL1401
      00010000H   PUBLIC    XDATA    BYTE      tsl1401_finish_flag
      00010001H   PUBLIC    XDATA    ---       ccd_data_ch1
      00010101H   PUBLIC    XDATA    ---       ccd_data_ch2
      000000D0H   SFRSYM    DATA     BYTE      PSW
      0000009DH   SFRSYM    DATA     BYTE      IRCBAND
      00000097H   SFRSYM    DATA     BYTE      AUXR2
      000000EFH   SFRSYM    DATA     BYTE      AUXINTIF
      000000FDH   SFRSYM    DATA     BYTE      S4CON
      000000ACH   SFRSYM    DATA     BYTE      S3CON
      0000009AH   SFRSYM    DATA     BYTE      S2CON
      000000B7H   SFRSYM    DATA     BYTE      IPH
      000000CDH   SFRSYM    DATA     BYTE      SPSTAT
      000000DDH   SFRSYM    DATA     BYTE      T4T3M
      000000C1H   SFRSYM    DATA     BYTE      WDT_CONTR
      000000DFH   SFRSYM    DATA     BYTE      IP3
      000000F4H   SFRSYM    DATA     BYTE      USBCON
      000000B5H   SFRSYM    DATA     BYTE      IP2
      000000FFH   SFRSYM    DATA     BYTE      RSTCFG
      000000F9H   SFRSYM    DATA     BYTE      LINICR
      0000008EH   SFRSYM    DATA     BYTE      AUXR
      000000AFH   SFRSYM    DATA     BYTE      IE2
      000000B0H.7 SFRSYM    DATA     BIT       P37
      000000B0H.6 SFRSYM    DATA     BIT       P36
      00000088H   SFRSYM    DATA     BYTE      TCON
      00000098H   SFRSYM    DATA     BYTE      SCON
      000000F1H   SFRSYM    DATA     BYTE      CANICR
      00000087H   SFRSYM    DATA     BYTE      PCON
      000000BCH   SFRSYM    DATA     BYTE      ADC_CONTR
      000000E7H   SFRSYM    DATA     BYTE      CMPCR2
      000000E6H   SFRSYM    DATA     BYTE      CMPCR1
      000000B8H   SFRSYM    DATA     BYTE      IP
      0000008FH   SFRSYM    DATA     BYTE      INTCLKO
      000000EEH   SFRSYM    DATA     BYTE      IP3H
      000000B6H   SFRSYM    DATA     BYTE      IP2H
      000000A8H   SFRSYM    DATA     BYTE      IE
      000000BBH   SFRSYM    DATA     BYTE      P_SW3
      000000BAH   SFRSYM    DATA     BYTE      P_SW2
      000000A2H   SFRSYM    DATA     BYTE      P_SW1
      000000CEH   SFRSYM    DATA     BYTE      SPCTL
      000000F8H   SFRSYM    DATA     BYTE      P7
      000000E8H   SFRSYM    DATA     BYTE      P6
      000000C8H   SFRSYM    DATA     BYTE      P5
      000000C0H   SFRSYM    DATA     BYTE      P4
      000000B0H   SFRSYM    DATA     BYTE      P3
      000000A0H   SFRSYM    DATA     BYTE      P2
      00000090H   SFRSYM    DATA     BYTE      P1
      00000080H   SFRSYM    DATA     BYTE      P0
      000009B1H   SYMBOL    EDATA    INT       uart_n
      000009B3H   SYMBOL    EDATA    ---       dat
      000009B7H   SYMBOL    EDATA    BYTE      i
      00000BE5H   SYMBOL    EDATA    BYTE      i

      ---         MODULE    ---      ---       SEEKFREE_VIRSCO
      0000084BH   PUBLIC    EDATA    ---       virtual_scope_data
      00000739H   PUBLIC    EDATA    BYTE      ?data_conversion?BYTE
      000000D0H   SFRSYM    DATA     BYTE      PSW
      0000009DH   SFRSYM    DATA     BYTE      IRCBAND
      00000097H   SFRSYM    DATA     BYTE      AUXR2
      000000EFH   SFRSYM    DATA     BYTE      AUXINTIF
      000000FDH   SFRSYM    DATA     BYTE      S4CON
      000000ACH   SFRSYM    DATA     BYTE      S3CON
L251 LINKER/LOCATER V4.66.93.0                                                        05/03/2024  16:07:18  PAGE 93


      0000009AH   SFRSYM    DATA     BYTE      S2CON
      000000B7H   SFRSYM    DATA     BYTE      IPH
      000000CDH   SFRSYM    DATA     BYTE      SPSTAT
      000000DDH   SFRSYM    DATA     BYTE      T4T3M
      000000C1H   SFRSYM    DATA     BYTE      WDT_CONTR
      000000DFH   SFRSYM    DATA     BYTE      IP3
      000000F4H   SFRSYM    DATA     BYTE      USBCON
      000000B5H   SFRSYM    DATA     BYTE      IP2
      000000FFH   SFRSYM    DATA     BYTE      RSTCFG
      000000F9H   SFRSYM    DATA     BYTE      LINICR
      0000008EH   SFRSYM    DATA     BYTE      AUXR
      000000AFH   SFRSYM    DATA     BYTE      IE2
      00000088H   SFRSYM    DATA     BYTE      TCON
      00000098H   SFRSYM    DATA     BYTE      SCON
      000000F1H   SFRSYM    DATA     BYTE      CANICR
      00000087H   SFRSYM    DATA     BYTE      PCON
      000000BCH   SFRSYM    DATA     BYTE      ADC_CONTR
      000000E7H   SFRSYM    DATA     BYTE      CMPCR2
      000000E6H   SFRSYM    DATA     BYTE      CMPCR1
      000000B8H   SFRSYM    DATA     BYTE      IP
      0000008FH   SFRSYM    DATA     BYTE      INTCLKO
      000000EEH   SFRSYM    DATA     BYTE      IP3H
      000000B6H   SFRSYM    DATA     BYTE      IP2H
      000000A8H   SFRSYM    DATA     BYTE      IE
      000000BBH   SFRSYM    DATA     BYTE      P_SW3
      000000BAH   SFRSYM    DATA     BYTE      P_SW2
      000000A2H   SFRSYM    DATA     BYTE      P_SW1
      000000CEH   SFRSYM    DATA     BYTE      SPCTL
      000000F8H   SFRSYM    DATA     BYTE      P7
      000000E8H   SFRSYM    DATA     BYTE      P6
      000000C8H   SFRSYM    DATA     BYTE      P5
      000000C0H   SFRSYM    DATA     BYTE      P4
      000000B0H   SFRSYM    DATA     BYTE      P3
      000000A0H   SFRSYM    DATA     BYTE      P2
      00000090H   SFRSYM    DATA     BYTE      P1
      00000080H   SFRSYM    DATA     BYTE      P0
      000008E8H   SYMBOL    EDATA    ---       Buf
      000008ECH   SYMBOL    EDATA    BYTE      CRC_CNT
      000008EDH   SYMBOL    EDATA    WORD      CRC_Temp
      000008EFH   SYMBOL    EDATA    BYTE      i
      000008F0H   SYMBOL    EDATA    BYTE      j
      00000739H   SYMBOL    EDATA    INT       data1
      0000073BH   SYMBOL    EDATA    INT       data2
      0000073DH   SYMBOL    EDATA    INT       data3
      0000073FH   SYMBOL    EDATA    INT       data4
      00000741H   SYMBOL    EDATA    ---       dat
      00000745H   SYMBOL    EDATA    WORD      CRC16

      ---         MODULE    ---      ---       SEEKFREE_WIRELESS
      000000D0H   SFRSYM    DATA     BYTE      PSW
      0000009DH   SFRSYM    DATA     BYTE      IRCBAND
      00000097H   SFRSYM    DATA     BYTE      AUXR2
      000000EFH   SFRSYM    DATA     BYTE      AUXINTIF
      000000FDH   SFRSYM    DATA     BYTE      S4CON
      000000ACH   SFRSYM    DATA     BYTE      S3CON
      0000009AH   SFRSYM    DATA     BYTE      S2CON
      000000FEH   SFRSYM    DATA     BYTE      S4BUF
      000000B7H   SFRSYM    DATA     BYTE      IPH
      000000CDH   SFRSYM    DATA     BYTE      SPSTAT
      000000DDH   SFRSYM    DATA     BYTE      T4T3M
      000000C1H   SFRSYM    DATA     BYTE      WDT_CONTR
      000000DFH   SFRSYM    DATA     BYTE      IP3
      000000F4H   SFRSYM    DATA     BYTE      USBCON
      000000B5H   SFRSYM    DATA     BYTE      IP2
      000000FFH   SFRSYM    DATA     BYTE      RSTCFG
L251 LINKER/LOCATER V4.66.93.0                                                        05/03/2024  16:07:18  PAGE 94


      000000F9H   SFRSYM    DATA     BYTE      LINICR
      0000008EH   SFRSYM    DATA     BYTE      AUXR
      000000AFH   SFRSYM    DATA     BYTE      IE2
      00000080H.7 SFRSYM    DATA     BIT       P07
      00000088H   SFRSYM    DATA     BYTE      TCON
      00000098H   SFRSYM    DATA     BYTE      SCON
      000000F1H   SFRSYM    DATA     BYTE      CANICR
      00000087H   SFRSYM    DATA     BYTE      PCON
      000000BCH   SFRSYM    DATA     BYTE      ADC_CONTR
      000000E7H   SFRSYM    DATA     BYTE      CMPCR2
      000000E6H   SFRSYM    DATA     BYTE      CMPCR1
      000000B8H   SFRSYM    DATA     BYTE      IP
      0000008FH   SFRSYM    DATA     BYTE      INTCLKO
      000000EEH   SFRSYM    DATA     BYTE      IP3H
      000000B6H   SFRSYM    DATA     BYTE      IP2H
      000000A8H   SFRSYM    DATA     BYTE      IE
      000000BBH   SFRSYM    DATA     BYTE      P_SW3
      000000BAH   SFRSYM    DATA     BYTE      P_SW2
      000000A2H   SFRSYM    DATA     BYTE      P_SW1
      000000CEH   SFRSYM    DATA     BYTE      SPCTL
      000000F8H   SFRSYM    DATA     BYTE      P7
      000000E8H   SFRSYM    DATA     BYTE      P6
      000000C8H   SFRSYM    DATA     BYTE      P5
      000000C0H   SFRSYM    DATA     BYTE      P4
      000000B0H   SFRSYM    DATA     BYTE      P3
      000000A0H   SFRSYM    DATA     BYTE      P2
      00000090H   SFRSYM    DATA     BYTE      P1
      00000080H   SFRSYM    DATA     BYTE      P0
      000103C8H   SYMBOL    XDATA    BYTE      wireless_uart_data
      000103C9H   SYMBOL    XDATA    ---       wireless_uart_fifo
      000103E0H   SYMBOL    XDATA    ---       wireless_uart_buffer
      0000098BH   SYMBOL    EDATA    ---       buff
      0000098FH   SYMBOL    EDATA    DWORD     len
      00000993H   SYMBOL    EDATA    ---       buff
      00000997H   SYMBOL    EDATA    DWORD     len
      0001066FH   SYMBOL    XDATA    DWORD     data_len

      ---         MODULE    ---      ---       SEEKFREE_WIRELESS_CH573
      000000D0H   SFRSYM    DATA     BYTE      PSW
      0000009DH   SFRSYM    DATA     BYTE      IRCBAND
      00000097H   SFRSYM    DATA     BYTE      AUXR2
      000000EFH   SFRSYM    DATA     BYTE      AUXINTIF
      000000FDH   SFRSYM    DATA     BYTE      S4CON
      000000ACH   SFRSYM    DATA     BYTE      S3CON
      0000009AH   SFRSYM    DATA     BYTE      S2CON
      000000FEH   SFRSYM    DATA     BYTE      S4BUF
      000000B7H   SFRSYM    DATA     BYTE      IPH
      000000CDH   SFRSYM    DATA     BYTE      SPSTAT
      000000DDH   SFRSYM    DATA     BYTE      T4T3M
      000000C1H   SFRSYM    DATA     BYTE      WDT_CONTR
      000000DFH   SFRSYM    DATA     BYTE      IP3
      000000F4H   SFRSYM    DATA     BYTE      USBCON
      000000B5H   SFRSYM    DATA     BYTE      IP2
      000000FFH   SFRSYM    DATA     BYTE      RSTCFG
      000000F9H   SFRSYM    DATA     BYTE      LINICR
      0000008EH   SFRSYM    DATA     BYTE      AUXR
      000000AFH   SFRSYM    DATA     BYTE      IE2
      00000080H.7 SFRSYM    DATA     BIT       P07
      00000088H   SFRSYM    DATA     BYTE      TCON
      00000098H   SFRSYM    DATA     BYTE      SCON
      000000F1H   SFRSYM    DATA     BYTE      CANICR
      00000087H   SFRSYM    DATA     BYTE      PCON
      000000BCH   SFRSYM    DATA     BYTE      ADC_CONTR
      000000E7H   SFRSYM    DATA     BYTE      CMPCR2
      000000E6H   SFRSYM    DATA     BYTE      CMPCR1
L251 LINKER/LOCATER V4.66.93.0                                                        05/03/2024  16:07:18  PAGE 95


      000000B8H   SFRSYM    DATA     BYTE      IP
      0000008FH   SFRSYM    DATA     BYTE      INTCLKO
      000000EEH   SFRSYM    DATA     BYTE      IP3H
      000000B6H   SFRSYM    DATA     BYTE      IP2H
      000000A8H   SFRSYM    DATA     BYTE      IE
      000000BBH   SFRSYM    DATA     BYTE      P_SW3
      000000BAH   SFRSYM    DATA     BYTE      P_SW2
      000000A2H   SFRSYM    DATA     BYTE      P_SW1
      000000CEH   SFRSYM    DATA     BYTE      SPCTL
      000000F8H   SFRSYM    DATA     BYTE      P7
      000000E8H   SFRSYM    DATA     BYTE      P6
      000000C8H   SFRSYM    DATA     BYTE      P5
      000000C0H   SFRSYM    DATA     BYTE      P4
      000000B0H   SFRSYM    DATA     BYTE      P3
      000000A0H   SFRSYM    DATA     BYTE      P2
      00000090H   SFRSYM    DATA     BYTE      P1
      00000080H   SFRSYM    DATA     BYTE      P0
      00010420H   SYMBOL    XDATA    ---       wireless_ch573_buffer
      00010460H   SYMBOL    XDATA    BYTE      wireless_ch573_data
      00010461H   SYMBOL    XDATA    ---       wireless_ch573_fifo
      00000A86H   SYMBOL    EDATA    ---       buff
      00000A8AH   SYMBOL    EDATA    WORD      len
      0000099BH   SYMBOL    EDATA    ---       buff
      0000099FH   SYMBOL    EDATA    DWORD     len
      00010673H   SYMBOL    XDATA    DWORD     data_len

      ---         MODULE    ---      ---       main
      00FF7D76H   PUBLIC    CODE     ---       main
      00FF0026H   PUBLIC    CODE     ---       gpio_init
      00FF798DH   PUBLIC    CODE     ---       motor_drivers_pwm_init
      000000D0H   SFRSYM    DATA     BYTE      PSW
      0000009DH   SFRSYM    DATA     BYTE      IRCBAND
      00000097H   SFRSYM    DATA     BYTE      AUXR2
      000000EFH   SFRSYM    DATA     BYTE      AUXINTIF
      000000FDH   SFRSYM    DATA     BYTE      S4CON
      000000ACH   SFRSYM    DATA     BYTE      S3CON
      0000009AH   SFRSYM    DATA     BYTE      S2CON
      000000B7H   SFRSYM    DATA     BYTE      IPH
      000000CDH   SFRSYM    DATA     BYTE      SPSTAT
      000000DDH   SFRSYM    DATA     BYTE      T4T3M
      000000C1H   SFRSYM    DATA     BYTE      WDT_CONTR
      000000DFH   SFRSYM    DATA     BYTE      IP3
      000000F4H   SFRSYM    DATA     BYTE      USBCON
      000000B5H   SFRSYM    DATA     BYTE      IP2
      000000FFH   SFRSYM    DATA     BYTE      RSTCFG
      000000F8H.5 SFRSYM    DATA     BIT       led_4
      000000F8H.6 SFRSYM    DATA     BIT       led_3
      000000F8H.7 SFRSYM    DATA     BIT       led_2
      000000C0H.5 SFRSYM    DATA     BIT       led_1
      000000F9H   SFRSYM    DATA     BYTE      LINICR
      0000008EH   SFRSYM    DATA     BYTE      AUXR
      000000AFH   SFRSYM    DATA     BYTE      IE2
      00000088H   SFRSYM    DATA     BYTE      TCON
      00000098H   SFRSYM    DATA     BYTE      SCON
      000000F1H   SFRSYM    DATA     BYTE      CANICR
      00000087H   SFRSYM    DATA     BYTE      PCON
      000000BCH   SFRSYM    DATA     BYTE      ADC_CONTR
      000000E7H   SFRSYM    DATA     BYTE      CMPCR2
      000000E6H   SFRSYM    DATA     BYTE      CMPCR1
      000000B8H   SFRSYM    DATA     BYTE      IP
      0000008FH   SFRSYM    DATA     BYTE      INTCLKO
      000000EEH   SFRSYM    DATA     BYTE      IP3H
      000000B6H   SFRSYM    DATA     BYTE      IP2H
      000000A8H   SFRSYM    DATA     BYTE      IE
      000000BBH   SFRSYM    DATA     BYTE      P_SW3
L251 LINKER/LOCATER V4.66.93.0                                                        05/03/2024  16:07:18  PAGE 96


      000000BAH   SFRSYM    DATA     BYTE      P_SW2
      000000A2H   SFRSYM    DATA     BYTE      P_SW1
      000000CEH   SFRSYM    DATA     BYTE      SPCTL
      000000F8H   SFRSYM    DATA     BYTE      P7
      000000E8H   SFRSYM    DATA     BYTE      P6
      000000C8H   SFRSYM    DATA     BYTE      P5
      000000CBH   SFRSYM    DATA     BYTE      P6M1
      000000C0H   SFRSYM    DATA     BYTE      P4
      000000CCH   SFRSYM    DATA     BYTE      P6M0
      000000B0H   SFRSYM    DATA     BYTE      P3
      000000A0H   SFRSYM    DATA     BYTE      P2
      00000090H   SFRSYM    DATA     BYTE      P1
      00000080H   SFRSYM    DATA     BYTE      P0
      00000091H   SFRSYM    DATA     BYTE      P1M1
      00000092H   SFRSYM    DATA     BYTE      P1M0

      00FF0026H   BLOCK     CODE     ---       LVL=0
      00FF0026H   LINE      CODE     ---       #6
      00FF0026H   LINE      CODE     ---       #8
      00FF002DH   LINE      CODE     ---       #9
      00FF0034H   LINE      CODE     ---       #10
      00FF003BH   LINE      CODE     ---       #11
      00FF0042H   LINE      CODE     ---       #12
      ---         BLOCKEND  ---      ---       LVL=0

      00FF798DH   BLOCK     CODE     ---       LVL=0
      00FF798DH   LINE      CODE     ---       #14
      00FF798DH   LINE      CODE     ---       #17
      00FF799EH   LINE      CODE     ---       #18
      00FF79AFH   LINE      CODE     ---       #19
      00FF79C0H   LINE      CODE     ---       #20
      00FF79D1H   LINE      CODE     ---       #21
      00FF79DAH   LINE      CODE     ---       #22
      00FF79E3H   LINE      CODE     ---       #23
      ---         BLOCKEND  ---      ---       LVL=0

      00FF7D76H   BLOCK     CODE     ---       LVL=0
      00FF7D76H   LINE      CODE     ---       #34
      00FF7D76H   LINE      CODE     ---       #36
      00FF7D79H   LINE      CODE     ---       #37
      00FF7D7CH   LINE      CODE     ---       #38
      00FF7D7FH   LINE      CODE     ---       #39
      00FF7D82H   LINE      CODE     ---       #41
      00FF7D85H   LINE      CODE     ---       #42
      00FF7D88H   LINE      CODE     ---       #43
      00FF7D8BH   LINE      CODE     ---       #44
      00FF7D8EH   LINE      CODE     ---       #45
      00FF7D91H   LINE      CODE     ---       #46
      00FF7D94H   LINE      CODE     ---       #47
      00FF7D9BH   LINE      CODE     ---       #48
      00FF7D9EH   LINE      CODE     ---       #49
      00FF7DA1H   LINE      CODE     ---       #51
      00FF7DA4H   LINE      CODE     ---       #53
      00FF7DA4H   LINE      CODE     ---       #55
      00FF7DA7H   LINE      CODE     ---       #56
      00FF7DAAH   LINE      CODE     ---       #57
      00FF7DADH   LINE      CODE     ---       #58
      00FF7DB0H   LINE      CODE     ---       #59
      00FF7DB3H   LINE      CODE     ---       #60
      00FF7DB6H   LINE      CODE     ---       #61
      00FF7DB9H   LINE      CODE     ---       #62
      00FF7DBCH   LINE      CODE     ---       #63
      00FF7DBFH   LINE      CODE     ---       #64
      00FF7DC1H   LINE      CODE     ---       #65
      ---         BLOCKEND  ---      ---       LVL=0
L251 LINKER/LOCATER V4.66.93.0                                                        05/03/2024  16:07:18  PAGE 97



      ---         MODULE    ---      ---       uart
      00FF6505H   PUBLIC    CODE     ---       uart_sendcmd
      00FF7D29H   PUBLIC    CODE     ---       uart_sendbyte
      00FF67F0H   PUBLIC    CODE     ---       uart1_isr
      00FF709CH   PUBLIC    CODE     ---       uart2_isr
      00FF7133H   PUBLIC    CODE     ---       uart3_isr
      00FF6EC2H   PUBLIC    CODE     ---       uart4_isr
      00FF6BFCH   PUBLIC    CODE     ---       uart_sendstring
      00FF83AFH   PUBLIC    CODE     ---       uart_tx_send_buffer
      00000023H   PUBLIC    EDATA    BYTE      uart1_tx_buffer_from_uart2_index
      00000024H   PUBLIC    EDATA    BYTE      uart1_tx_buffer_from_uart3_index
      00000025H   PUBLIC    EDATA    BYTE      uart1_tx_buffer_from_uart4_index
      00000026H   PUBLIC    EDATA    ---       uart1_tx_buffer_from_uart2
      00000036H   PUBLIC    EDATA    ---       uart1_tx_buffer_from_uart3
      00000046H   PUBLIC    EDATA    ---       uart1_tx_buffer_from_uart4
      00000056H   PUBLIC    EDATA    ---       uart1_rx_buffer
      00000096H   PUBLIC    EDATA    ---       uart2_rx_buffer
      000000D6H   PUBLIC    EDATA    ---       uart3_rx_buffer
      00000116H   PUBLIC    EDATA    ---       uart4_rx_buffer
      00000156H   PUBLIC    EDATA    BYTE      uart1_rx_counter
      00000157H   PUBLIC    EDATA    BYTE      uart2_rx_counter
      00000158H   PUBLIC    EDATA    BYTE      uart3_rx_counter
      00000159H   PUBLIC    EDATA    BYTE      uart1_tx_counter
      0000015AH   PUBLIC    EDATA    BYTE      uart4_rx_counter
      0000015BH   PUBLIC    EDATA    BYTE      uart2_tx_counter
      0000015CH   PUBLIC    EDATA    BYTE      uart3_tx_counter
      0000015DH   PUBLIC    EDATA    BYTE      uart4_tx_counter
      00000020H.0 PUBLIC    BIT      BIT       uart1_lf
      00000020H.1 PUBLIC    BIT      BIT       uart2_lf
      00000020H.2 PUBLIC    BIT      BIT       uart3_lf
      00000020H.3 PUBLIC    BIT      BIT       uart4_lf
      00000020H.4 PUBLIC    BIT      BIT       uart1_cr
      00000020H.5 PUBLIC    BIT      BIT       uart2_cr
      00000020H.6 PUBLIC    BIT      BIT       uart3_cr
      00000020H.7 PUBLIC    BIT      BIT       uart4_cr
      00000021H.0 PUBLIC    BIT      BIT       uart1_tx_busy
      00000021H.1 PUBLIC    BIT      BIT       uart2_tx_busy
      00000021H.2 PUBLIC    BIT      BIT       uart3_tx_busy
      00000021H.3 PUBLIC    BIT      BIT       uart4_tx_busy
      00000021H.4 PUBLIC    BIT      BIT       uart1_rx_rdy
      00000021H.5 PUBLIC    BIT      BIT       uart2_rx_rdy
      00000021H.6 PUBLIC    BIT      BIT       uart3_rx_rdy
      00000021H.7 PUBLIC    BIT      BIT       uart4_rx_rdy
      000000D0H   SFRSYM    DATA     BYTE      PSW
      0000009DH   SFRSYM    DATA     BYTE      IRCBAND
      00000097H   SFRSYM    DATA     BYTE      AUXR2
      000000EFH   SFRSYM    DATA     BYTE      AUXINTIF
      000000FDH   SFRSYM    DATA     BYTE      S4CON
      000000ACH   SFRSYM    DATA     BYTE      S3CON
      0000009AH   SFRSYM    DATA     BYTE      S2CON
      000000FEH   SFRSYM    DATA     BYTE      S4BUF
      000000ADH   SFRSYM    DATA     BYTE      S3BUF
      0000009BH   SFRSYM    DATA     BYTE      S2BUF
      000000B7H   SFRSYM    DATA     BYTE      IPH
      000000CDH   SFRSYM    DATA     BYTE      SPSTAT
      000000DDH   SFRSYM    DATA     BYTE      T4T3M
      000000C1H   SFRSYM    DATA     BYTE      WDT_CONTR
      000000D7H   SFRSYM    DATA     BYTE      T2L
      000000D6H   SFRSYM    DATA     BYTE      T2H
      000000DFH   SFRSYM    DATA     BYTE      IP3
      000000F4H   SFRSYM    DATA     BYTE      USBCON
      000000B5H   SFRSYM    DATA     BYTE      IP2
      000000FFH   SFRSYM    DATA     BYTE      RSTCFG
      000000C0H.5 SFRSYM    DATA     BIT       led_1
L251 LINKER/LOCATER V4.66.93.0                                                        05/03/2024  16:07:18  PAGE 98


      000000F9H   SFRSYM    DATA     BYTE      LINICR
      0000008EH   SFRSYM    DATA     BYTE      AUXR
      000000AFH   SFRSYM    DATA     BYTE      IE2
      00000088H   SFRSYM    DATA     BYTE      TCON
      00000098H   SFRSYM    DATA     BYTE      SCON
      000000F1H   SFRSYM    DATA     BYTE      CANICR
      00000087H   SFRSYM    DATA     BYTE      PCON
      00000099H   SFRSYM    DATA     BYTE      SBUF
      000000BCH   SFRSYM    DATA     BYTE      ADC_CONTR
      000000E7H   SFRSYM    DATA     BYTE      CMPCR2
      000000E6H   SFRSYM    DATA     BYTE      CMPCR1
      00000098H.1 SFRSYM    DATA     BIT       TI
      00000098H.0 SFRSYM    DATA     BIT       RI
      000000B8H   SFRSYM    DATA     BYTE      IP
      000000A8H.4 SFRSYM    DATA     BIT       ES
      0000008FH   SFRSYM    DATA     BYTE      INTCLKO
      000000EEH   SFRSYM    DATA     BYTE      IP3H
      000000B6H   SFRSYM    DATA     BYTE      IP2H
      000000A8H   SFRSYM    DATA     BYTE      IE
      000000BBH   SFRSYM    DATA     BYTE      P_SW3
      000000BAH   SFRSYM    DATA     BYTE      P_SW2
      000000A2H   SFRSYM    DATA     BYTE      P_SW1
      000000CEH   SFRSYM    DATA     BYTE      SPCTL
      000000F8H   SFRSYM    DATA     BYTE      P7
      000000E8H   SFRSYM    DATA     BYTE      P6
      000000C8H   SFRSYM    DATA     BYTE      P5
      000000C0H   SFRSYM    DATA     BYTE      P4
      000000B0H   SFRSYM    DATA     BYTE      P3
      000000A0H   SFRSYM    DATA     BYTE      P2
      00000090H   SFRSYM    DATA     BYTE      P1
      00000080H   SFRSYM    DATA     BYTE      P0
      00000BE6H   SYMBOL    EDATA    BYTE      uart_num

      00FF6BFCH   BLOCK     CODE     ---       LVL=0
      00000AF8H   SYMBOL    EDATA    BYTE      uart_num
      00000AF9H   SYMBOL    EDATA    ---       puts
      00FF6BFCH   LINE      CODE     ---       #55
      00FF6C04H   LINE      CODE     ---       #57
      00FF6C18H   LINE      CODE     ---       #59
      00FF6C18H   LINE      CODE     ---       #60
      00FF6C1AH   LINE      CODE     ---       #62
      00FF6C23H   LINE      CODE     ---       #63
      00FF6C26H   LINE      CODE     ---       #64
      00FF6C29H   LINE      CODE     ---       #65
      00FF6C3FH   LINE      CODE     ---       #66
      00FF6C41H   LINE      CODE     ---       #67
      00FF6C41H   LINE      CODE     ---       #68
      00FF6C43H   LINE      CODE     ---       #70
      00FF6C4CH   LINE      CODE     ---       #71
      00FF6C4FH   LINE      CODE     ---       #72
      00FF6C52H   LINE      CODE     ---       #73
      00FF6C68H   LINE      CODE     ---       #74
      00FF6C6AH   LINE      CODE     ---       #75
      00FF6C6AH   LINE      CODE     ---       #76
      00FF6C6CH   LINE      CODE     ---       #78
      00FF6C75H   LINE      CODE     ---       #79
      00FF6C78H   LINE      CODE     ---       #80
      00FF6C7BH   LINE      CODE     ---       #81
      00FF6C91H   LINE      CODE     ---       #82
      00FF6C93H   LINE      CODE     ---       #83
      00FF6C93H   LINE      CODE     ---       #84
      00FF6C95H   LINE      CODE     ---       #86
      00FF6C9EH   LINE      CODE     ---       #87
      00FF6CA1H   LINE      CODE     ---       #88
      00FF6CA4H   LINE      CODE     ---       #89
L251 LINKER/LOCATER V4.66.93.0                                                        05/03/2024  16:07:18  PAGE 99


      00FF6CBAH   LINE      CODE     ---       #90
      00FF6CBAH   LINE      CODE     ---       #91
      00FF6CBAH   LINE      CODE     ---       #92
      00FF6CBAH   LINE      CODE     ---       #93
      00FF6CBAH   LINE      CODE     ---       #94
      ---         BLOCKEND  ---      ---       LVL=0

      00FF6505H   BLOCK     CODE     ---       LVL=0
      000009B8H   SYMBOL    EDATA    BYTE      uart_num
      000009B9H   SYMBOL    EDATA    ---       bytes
      000009BDH   SYMBOL    EDATA    BYTE      length
      00FF6511H   BLOCK     CODE     NEAR LAB  LVL=1
      000009BEH   SYMBOL    EDATA    BYTE      i
      ---         BLOCKEND  ---      ---       LVL=1
      00FF6505H   LINE      CODE     ---       #96
      00FF6511H   LINE      CODE     ---       #97
      00FF6511H   LINE      CODE     ---       #99
      00FF6528H   LINE      CODE     ---       #101
      00FF6528H   LINE      CODE     ---       #102
      00FF652FH   LINE      CODE     ---       #104
      00FF6540H   LINE      CODE     ---       #105
      00FF6543H   LINE      CODE     ---       #106
      00FF6546H   LINE      CODE     ---       #107
      00FF655FH   LINE      CODE     ---       #108
      00FF6562H   LINE      CODE     ---       #109
      00FF6562H   LINE      CODE     ---       #110
      00FF6569H   LINE      CODE     ---       #112
      00FF657AH   LINE      CODE     ---       #113
      00FF657DH   LINE      CODE     ---       #114
      00FF6580H   LINE      CODE     ---       #115
      00FF6599H   LINE      CODE     ---       #116
      00FF659BH   LINE      CODE     ---       #117
      00FF659BH   LINE      CODE     ---       #118
      00FF65A2H   LINE      CODE     ---       #120
      00FF65B3H   LINE      CODE     ---       #121
      00FF65B6H   LINE      CODE     ---       #122
      00FF65B9H   LINE      CODE     ---       #123
      00FF65D2H   LINE      CODE     ---       #124
      00FF65D4H   LINE      CODE     ---       #125
      00FF65D4H   LINE      CODE     ---       #126
      00FF65DBH   LINE      CODE     ---       #128
      00FF65ECH   LINE      CODE     ---       #129
      00FF65EFH   LINE      CODE     ---       #130
      00FF65F2H   LINE      CODE     ---       #131
      00FF660BH   LINE      CODE     ---       #132
      00FF660BH   LINE      CODE     ---       #133
      00FF660BH   LINE      CODE     ---       #134
      00FF660BH   LINE      CODE     ---       #135
      00FF660BH   LINE      CODE     ---       #136
      ---         BLOCKEND  ---      ---       LVL=0

      00FF7D29H   BLOCK     CODE     ---       LVL=0
      00000BBDH   SYMBOL    EDATA    BYTE      uart_num
      00000BBEH   SYMBOL    EDATA    BYTE      byte
      00FF7D29H   LINE      CODE     ---       #138
      00FF7D31H   LINE      CODE     ---       #140
      00FF7D3FH   LINE      CODE     ---       #142
      00FF7D3FH   LINE      CODE     ---       #143
      00FF7D45H   LINE      CODE     ---       #144
      00FF7D48H   LINE      CODE     ---       #145
      00FF7D4BH   LINE      CODE     ---       #146
      00FF7D4DH   LINE      CODE     ---       #147
      00FF7D4DH   LINE      CODE     ---       #148
      00FF7D53H   LINE      CODE     ---       #149
      00FF7D56H   LINE      CODE     ---       #150
L251 LINKER/LOCATER V4.66.93.0                                                        05/03/2024  16:07:18  PAGE 100


      00FF7D59H   LINE      CODE     ---       #151
      00FF7D5BH   LINE      CODE     ---       #152
      00FF7D5BH   LINE      CODE     ---       #153
      00FF7D61H   LINE      CODE     ---       #154
      00FF7D64H   LINE      CODE     ---       #155
      00FF7D67H   LINE      CODE     ---       #156
      00FF7D69H   LINE      CODE     ---       #157
      00FF7D69H   LINE      CODE     ---       #158
      00FF7D6FH   LINE      CODE     ---       #159
      00FF7D72H   LINE      CODE     ---       #160
      00FF7D75H   LINE      CODE     ---       #161
      00FF7D75H   LINE      CODE     ---       #162
      00FF7D75H   LINE      CODE     ---       #163
      00FF7D75H   LINE      CODE     ---       #164
      00FF7D75H   LINE      CODE     ---       #165
      ---         BLOCKEND  ---      ---       LVL=0

      00FF67F0H   BLOCK     CODE     ---       LVL=0
      00FF67F0H   LINE      CODE     ---       #167
      00FF6806H   LINE      CODE     ---       #169
      00FF6809H   LINE      CODE     ---       #171
      00FF680CH   LINE      CODE     ---       #172
      00FF680FH   LINE      CODE     ---       #173
      00FF680FH   LINE      CODE     ---       #174
      00FF6815H   LINE      CODE     ---       #176
      00FF6818H   LINE      CODE     ---       #177
      00FF6829H   LINE      CODE     ---       #180
      00FF6851H   LINE      CODE     ---       #182
      00FF685DH   LINE      CODE     ---       #183
      00FF6863H   LINE      CODE     ---       #184
      00FF6869H   LINE      CODE     ---       #185
      00FF686FH   LINE      CODE     ---       #186
      00FF686FH   LINE      CODE     ---       #187
      00FF6897H   LINE      CODE     ---       #189
      00FF689AH   LINE      CODE     ---       #190
      00FF689AH   LINE      CODE     ---       #192
      00FF68B2H   LINE      CODE     ---       #193
      00FF68B2H   LINE      CODE     ---       #194
      ---         BLOCKEND  ---      ---       LVL=0

      00FF709CH   BLOCK     CODE     ---       LVL=0
      00FF709CH   LINE      CODE     ---       #197
      00FF70A2H   LINE      CODE     ---       #199
      00FF70A7H   LINE      CODE     ---       #201
      00FF70AAH   LINE      CODE     ---       #202
      00FF70ADH   LINE      CODE     ---       #203
      00FF70ADH   LINE      CODE     ---       #204
      00FF70B2H   LINE      CODE     ---       #206
      00FF70B5H   LINE      CODE     ---       #207
      00FF70C6H   LINE      CODE     ---       #211
      00FF70DAH   LINE      CODE     ---       #213
      00FF70E0H   LINE      CODE     ---       #214
      00FF70F3H   LINE      CODE     ---       #215
      00FF70F9H   LINE      CODE     ---       #216
      00FF70F9H   LINE      CODE     ---       #217
      00FF7114H   LINE      CODE     ---       #220
      00FF712CH   LINE      CODE     ---       #221
      00FF712CH   LINE      CODE     ---       #222
      ---         BLOCKEND  ---      ---       LVL=0

      00FF7133H   BLOCK     CODE     ---       LVL=0
      00FF7133H   LINE      CODE     ---       #224
      00FF7139H   LINE      CODE     ---       #226
      00FF713EH   LINE      CODE     ---       #228
      00FF7141H   LINE      CODE     ---       #229
L251 LINKER/LOCATER V4.66.93.0                                                        05/03/2024  16:07:18  PAGE 101


      00FF7144H   LINE      CODE     ---       #230
      00FF7144H   LINE      CODE     ---       #231
      00FF7149H   LINE      CODE     ---       #233
      00FF714CH   LINE      CODE     ---       #234
      00FF715DH   LINE      CODE     ---       #238
      00FF7171H   LINE      CODE     ---       #240
      00FF7177H   LINE      CODE     ---       #241
      00FF718AH   LINE      CODE     ---       #242
      00FF7190H   LINE      CODE     ---       #243
      00FF7190H   LINE      CODE     ---       #244
      00FF71ABH   LINE      CODE     ---       #247
      00FF71C3H   LINE      CODE     ---       #248
      00FF71C3H   LINE      CODE     ---       #249
      ---         BLOCKEND  ---      ---       LVL=0

      00FF6EC2H   BLOCK     CODE     ---       LVL=0
      00FF6EC2H   LINE      CODE     ---       #251
      00FF6ED8H   LINE      CODE     ---       #253
      00FF6EDDH   LINE      CODE     ---       #255
      00FF6EE0H   LINE      CODE     ---       #256
      00FF6EE3H   LINE      CODE     ---       #257
      00FF6EE3H   LINE      CODE     ---       #258
      00FF6EE8H   LINE      CODE     ---       #260
      00FF6EEBH   LINE      CODE     ---       #261
      00FF6EFCH   LINE      CODE     ---       #264
      00FF6F10H   LINE      CODE     ---       #266
      00FF6F1CH   LINE      CODE     ---       #267
      00FF6F22H   LINE      CODE     ---       #268
      00FF6F27H   LINE      CODE     ---       #269
      00FF6F27H   LINE      CODE     ---       #270
      00FF6F30H   LINE      CODE     ---       #272
      00FF6F33H   LINE      CODE     ---       #273
      00FF6F3AH   LINE      CODE     ---       #274
      00FF6F3AH   LINE      CODE     ---       #276
      00FF6F52H   LINE      CODE     ---       #277
      00FF6F52H   LINE      CODE     ---       #278
      ---         BLOCKEND  ---      ---       LVL=0
      00000BE7H   SYMBOL    EDATA    BYTE      uart_num

      00FF83AFH   BLOCK     CODE     ---       LVL=0
      00FF83AFH   LINE      CODE     ---       #321
      00FF83AFH   LINE      CODE     ---       #323
      00FF83B9H   LINE      CODE     ---       #325
      00FF83C2H   LINE      CODE     ---       #327
      00FF83C2H   LINE      CODE     ---       #329
      00FF83CCH   LINE      CODE     ---       #331
      00FF83D5H   LINE      CODE     ---       #332
      ---         BLOCKEND  ---      ---       LVL=0

      ---         MODULE    ---      ---       isr
      000000D0H   SFRSYM    DATA     BYTE      PSW
      0000009DH   SFRSYM    DATA     BYTE      IRCBAND
      00000097H   SFRSYM    DATA     BYTE      AUXR2
      000000EFH   SFRSYM    DATA     BYTE      AUXINTIF
      000000FDH   SFRSYM    DATA     BYTE      S4CON
      000000ACH   SFRSYM    DATA     BYTE      S3CON
      0000009AH   SFRSYM    DATA     BYTE      S2CON
      000000B7H   SFRSYM    DATA     BYTE      IPH
      000000CDH   SFRSYM    DATA     BYTE      SPSTAT
      000000DDH   SFRSYM    DATA     BYTE      T4T3M
      000000C1H   SFRSYM    DATA     BYTE      WDT_CONTR
      000000DFH   SFRSYM    DATA     BYTE      IP3
      000000F4H   SFRSYM    DATA     BYTE      USBCON
      000000B5H   SFRSYM    DATA     BYTE      IP2
      000000FFH   SFRSYM    DATA     BYTE      RSTCFG
L251 LINKER/LOCATER V4.66.93.0                                                        05/03/2024  16:07:18  PAGE 102


      000000F9H   SFRSYM    DATA     BYTE      LINICR
      0000008EH   SFRSYM    DATA     BYTE      AUXR
      000000AFH   SFRSYM    DATA     BYTE      IE2
      00000088H   SFRSYM    DATA     BYTE      TCON
      00000098H   SFRSYM    DATA     BYTE      SCON
      000000F1H   SFRSYM    DATA     BYTE      CANICR
      00000087H   SFRSYM    DATA     BYTE      PCON
      000000BCH   SFRSYM    DATA     BYTE      ADC_CONTR
      000000E7H   SFRSYM    DATA     BYTE      CMPCR2
      000000E6H   SFRSYM    DATA     BYTE      CMPCR1
      000000B8H   SFRSYM    DATA     BYTE      IP
      0000008FH   SFRSYM    DATA     BYTE      INTCLKO
      000000EEH   SFRSYM    DATA     BYTE      IP3H
      000000B6H   SFRSYM    DATA     BYTE      IP2H
      000000A8H   SFRSYM    DATA     BYTE      IE
      000000BBH   SFRSYM    DATA     BYTE      P_SW3
      000000BAH   SFRSYM    DATA     BYTE      P_SW2
      000000A2H   SFRSYM    DATA     BYTE      P_SW1
      000000CEH   SFRSYM    DATA     BYTE      SPCTL
      000000F8H   SFRSYM    DATA     BYTE      P7
      000000E8H   SFRSYM    DATA     BYTE      P6
      000000C8H   SFRSYM    DATA     BYTE      P5
      000000C0H   SFRSYM    DATA     BYTE      P4
      000000B0H   SFRSYM    DATA     BYTE      P3
      000000A0H   SFRSYM    DATA     BYTE      P2
      00000090H   SFRSYM    DATA     BYTE      P1
      00000080H   SFRSYM    DATA     BYTE      P0

      ---         MODULE    ---      ---       key
      00FF868DH   PUBLIC    CODE     ---       key1_short_press
      00FF6708H   PUBLIC    CODE     ---       key2_short_press
      00FF660CH   PUBLIC    CODE     ---       key3_short_press
      00FF8697H   PUBLIC    CODE     ---       key4_short_press
      00FF7C88H   PUBLIC    CODE     ---       key1_check
      00FF7B8FH   PUBLIC    CODE     ---       key2_check
      00FF7BE2H   PUBLIC    CODE     ---       key3_check
      00FF7C35H   PUBLIC    CODE     ---       key4_check
      00FF7CD9H   PUBLIC    CODE     ---       key5_check
      00000AFDH   PUBLIC    EDATA    BYTE      key1_up_store
      00000AFEH   PUBLIC    EDATA    BYTE      key2_up_store
      00000AFFH   PUBLIC    EDATA    BYTE      key3_up_store
      00000B00H   PUBLIC    EDATA    BYTE      key4_up_store
      00000B01H   PUBLIC    EDATA    BYTE      key5_up_store
      000000C0H.3 SFRSYM    DATA     BIT       key3
      000000F8H.3 SFRSYM    DATA     BIT       key2
      000000C0H.1 SFRSYM    DATA     BIT       key1
      000000D0H   SFRSYM    DATA     BYTE      PSW
      0000009DH   SFRSYM    DATA     BYTE      IRCBAND
      00000097H   SFRSYM    DATA     BYTE      AUXR2
      000000EFH   SFRSYM    DATA     BYTE      AUXINTIF
      000000FDH   SFRSYM    DATA     BYTE      S4CON
      000000ACH   SFRSYM    DATA     BYTE      S3CON
      0000009AH   SFRSYM    DATA     BYTE      S2CON
      000000B7H   SFRSYM    DATA     BYTE      IPH
      000000CDH   SFRSYM    DATA     BYTE      SPSTAT
      000000DDH   SFRSYM    DATA     BYTE      T4T3M
      000000C1H   SFRSYM    DATA     BYTE      WDT_CONTR
      000000DFH   SFRSYM    DATA     BYTE      IP3
      000000F4H   SFRSYM    DATA     BYTE      USBCON
      000000B5H   SFRSYM    DATA     BYTE      IP2
      000000FFH   SFRSYM    DATA     BYTE      RSTCFG
      000000F8H.5 SFRSYM    DATA     BIT       led_4
      000000F8H.6 SFRSYM    DATA     BIT       led_3
      000000F8H.7 SFRSYM    DATA     BIT       led_2
      000000C0H.5 SFRSYM    DATA     BIT       led_1
L251 LINKER/LOCATER V4.66.93.0                                                        05/03/2024  16:07:18  PAGE 103


      000000F9H   SFRSYM    DATA     BYTE      LINICR
      0000008EH   SFRSYM    DATA     BYTE      AUXR
      000000AFH   SFRSYM    DATA     BYTE      IE2
      00000088H   SFRSYM    DATA     BYTE      TCON
      00000098H   SFRSYM    DATA     BYTE      SCON
      000000F1H   SFRSYM    DATA     BYTE      CANICR
      00000087H   SFRSYM    DATA     BYTE      PCON
      000000BCH   SFRSYM    DATA     BYTE      ADC_CONTR
      000000E7H   SFRSYM    DATA     BYTE      CMPCR2
      000000E6H   SFRSYM    DATA     BYTE      CMPCR1
      000000B8H   SFRSYM    DATA     BYTE      IP
      0000008FH   SFRSYM    DATA     BYTE      INTCLKO
      000000EEH   SFRSYM    DATA     BYTE      IP3H
      000000B6H   SFRSYM    DATA     BYTE      IP2H
      000000A8H   SFRSYM    DATA     BYTE      IE
      000000BBH   SFRSYM    DATA     BYTE      P_SW3
      000000BAH   SFRSYM    DATA     BYTE      P_SW2
      000000A2H   SFRSYM    DATA     BYTE      P_SW1
      000000CEH   SFRSYM    DATA     BYTE      SPCTL
      000000F8H   SFRSYM    DATA     BYTE      P7
      000000E8H   SFRSYM    DATA     BYTE      P6
      000000C8H   SFRSYM    DATA     BYTE      P5
      000000C0H   SFRSYM    DATA     BYTE      P4
      000000B0H   SFRSYM    DATA     BYTE      P3
      000000A0H   SFRSYM    DATA     BYTE      P2
      00000090H   SFRSYM    DATA     BYTE      P1
      00000080H   SFRSYM    DATA     BYTE      P0
      000000C0H.4 SFRSYM    DATA     BIT       key5
      000000C0H.2 SFRSYM    DATA     BIT       key4

      00FF868DH   BLOCK     CODE     ---       LVL=0
      00FF868DH   LINE      CODE     ---       #17
      00FF868DH   LINE      CODE     ---       #20
      00FF8696H   LINE      CODE     ---       #50
      ---         BLOCKEND  ---      ---       LVL=0

      00FF6708H   BLOCK     CODE     ---       LVL=0
      00FF6708H   LINE      CODE     ---       #52
      00FF6708H   LINE      CODE     ---       #55
      00FF6711H   LINE      CODE     ---       #56
      00FF6716H   LINE      CODE     ---       #57
      00FF671DH   LINE      CODE     ---       #58
      00FF6724H   LINE      CODE     ---       #59
      00FF672BH   LINE      CODE     ---       #60
      00FF6732H   LINE      CODE     ---       #61
      00FF673BH   LINE      CODE     ---       #62
      00FF6744H   LINE      CODE     ---       #63
      00FF674BH   LINE      CODE     ---       #64
      00FF6752H   LINE      CODE     ---       #65
      00FF6759H   LINE      CODE     ---       #66
      00FF6760H   LINE      CODE     ---       #67
      00FF6769H   LINE      CODE     ---       #68
      00FF6772H   LINE      CODE     ---       #69
      00FF6779H   LINE      CODE     ---       #70
      00FF6780H   LINE      CODE     ---       #71
      00FF6787H   LINE      CODE     ---       #72
      00FF678EH   LINE      CODE     ---       #73
      00FF6797H   LINE      CODE     ---       #74
      00FF67A0H   LINE      CODE     ---       #75
      00FF67A7H   LINE      CODE     ---       #76
      00FF67AEH   LINE      CODE     ---       #77
      00FF67B5H   LINE      CODE     ---       #78
      00FF67BCH   LINE      CODE     ---       #79
      00FF67C5H   LINE      CODE     ---       #80
      00FF67CEH   LINE      CODE     ---       #81
L251 LINKER/LOCATER V4.66.93.0                                                        05/03/2024  16:07:18  PAGE 104


      00FF67D5H   LINE      CODE     ---       #82
      00FF67DCH   LINE      CODE     ---       #83
      00FF67E3H   LINE      CODE     ---       #84
      00FF67EAH   LINE      CODE     ---       #85
      00FF67EFH   LINE      CODE     ---       #86
      ---         BLOCKEND  ---      ---       LVL=0

      00FF660CH   BLOCK     CODE     ---       LVL=0
      00FF660CH   LINE      CODE     ---       #89
      00FF660CH   LINE      CODE     ---       #92
      00FF6615H   LINE      CODE     ---       #94
      00FF6620H   LINE      CODE     ---       #95
      00FF6627H   LINE      CODE     ---       #96
      00FF662EH   LINE      CODE     ---       #97
      00FF6635H   LINE      CODE     ---       #98
      00FF663CH   LINE      CODE     ---       #99
      00FF6645H   LINE      CODE     ---       #101
      00FF6650H   LINE      CODE     ---       #102
      00FF6657H   LINE      CODE     ---       #103
      00FF665EH   LINE      CODE     ---       #104
      00FF6665H   LINE      CODE     ---       #105
      00FF666CH   LINE      CODE     ---       #106
      00FF6675H   LINE      CODE     ---       #108
      00FF6680H   LINE      CODE     ---       #109
      00FF6687H   LINE      CODE     ---       #110
      00FF668EH   LINE      CODE     ---       #111
      00FF6695H   LINE      CODE     ---       #112
      00FF669CH   LINE      CODE     ---       #113
      00FF66A5H   LINE      CODE     ---       #115
      00FF66B0H   LINE      CODE     ---       #116
      00FF66B7H   LINE      CODE     ---       #117
      00FF66BEH   LINE      CODE     ---       #118
      00FF66C5H   LINE      CODE     ---       #119
      00FF66CCH   LINE      CODE     ---       #120
      00FF66D5H   LINE      CODE     ---       #122
      00FF66E0H   LINE      CODE     ---       #123
      00FF66E7H   LINE      CODE     ---       #124
      00FF66EEH   LINE      CODE     ---       #125
      00FF66F5H   LINE      CODE     ---       #126
      00FF66FCH   LINE      CODE     ---       #127
      00FF6707H   LINE      CODE     ---       #129
      ---         BLOCKEND  ---      ---       LVL=0

      00FF8697H   BLOCK     CODE     ---       LVL=0
      00FF8697H   LINE      CODE     ---       #131
      00FF8697H   LINE      CODE     ---       #134
      00FF86A0H   LINE      CODE     ---       #135
      ---         BLOCKEND  ---      ---       LVL=0

      00FF7C88H   BLOCK     CODE     ---       LVL=0
      00FF7C88H   LINE      CODE     ---       #143
      00FF7C88H   LINE      CODE     ---       #145
      00FF7C9AH   LINE      CODE     ---       #147
      00FF7C9FH   LINE      CODE     ---       #148
      00FF7CAEH   LINE      CODE     ---       #149
      00FF7CAEH   LINE      CODE     ---       #150
      00FF7CC0H   LINE      CODE     ---       #152
      00FF7CC6H   LINE      CODE     ---       #153
      00FF7CC9H   LINE      CODE     ---       #154
      00FF7CD8H   LINE      CODE     ---       #155
      ---         BLOCKEND  ---      ---       LVL=0

      00FF7B8FH   BLOCK     CODE     ---       LVL=0
      00FF7B8FH   LINE      CODE     ---       #158
      00FF7B8FH   LINE      CODE     ---       #160
L251 LINKER/LOCATER V4.66.93.0                                                        05/03/2024  16:07:18  PAGE 105


      00FF7BA1H   LINE      CODE     ---       #162
      00FF7BA6H   LINE      CODE     ---       #163
      00FF7BB6H   LINE      CODE     ---       #164
      00FF7BB6H   LINE      CODE     ---       #165
      00FF7BC8H   LINE      CODE     ---       #167
      00FF7BCEH   LINE      CODE     ---       #168
      00FF7BD1H   LINE      CODE     ---       #169
      00FF7BE1H   LINE      CODE     ---       #170
      ---         BLOCKEND  ---      ---       LVL=0

      00FF7BE2H   BLOCK     CODE     ---       LVL=0
      00FF7BE2H   LINE      CODE     ---       #173
      00FF7BE2H   LINE      CODE     ---       #175
      00FF7BF4H   LINE      CODE     ---       #177
      00FF7BF9H   LINE      CODE     ---       #178
      00FF7C09H   LINE      CODE     ---       #179
      00FF7C09H   LINE      CODE     ---       #180
      00FF7C1BH   LINE      CODE     ---       #182
      00FF7C21H   LINE      CODE     ---       #183
      00FF7C24H   LINE      CODE     ---       #184
      00FF7C34H   LINE      CODE     ---       #185
      ---         BLOCKEND  ---      ---       LVL=0

      00FF7C35H   BLOCK     CODE     ---       LVL=0
      00FF7C35H   LINE      CODE     ---       #188
      00FF7C35H   LINE      CODE     ---       #190
      00FF7C47H   LINE      CODE     ---       #192
      00FF7C4CH   LINE      CODE     ---       #193
      00FF7C5CH   LINE      CODE     ---       #194
      00FF7C5CH   LINE      CODE     ---       #195
      00FF7C6EH   LINE      CODE     ---       #197
      00FF7C74H   LINE      CODE     ---       #198
      00FF7C77H   LINE      CODE     ---       #199
      00FF7C87H   LINE      CODE     ---       #200
      ---         BLOCKEND  ---      ---       LVL=0

      00FF7CD9H   BLOCK     CODE     ---       LVL=0
      00FF7CD9H   LINE      CODE     ---       #203
      00FF7CD9H   LINE      CODE     ---       #205
      00FF7CEBH   LINE      CODE     ---       #207
      00FF7CF0H   LINE      CODE     ---       #208
      00FF7D00H   LINE      CODE     ---       #209
      00FF7D00H   LINE      CODE     ---       #210
      00FF7D12H   LINE      CODE     ---       #212
      00FF7D18H   LINE      CODE     ---       #214
      00FF7D28H   LINE      CODE     ---       #215
      ---         BLOCKEND  ---      ---       LVL=0

      ---         MODULE    ---      ---       ui
      00FF867DH   PUBLIC    CODE     ---       ui_keys_init
      00FF8055H   PUBLIC    CODE     ---       ui_init
      00000BE8H   PUBLIC    EDATA    BYTE      ui_loading_index
      000000D0H   SFRSYM    DATA     BYTE      PSW
      0000009DH   SFRSYM    DATA     BYTE      IRCBAND
      00000097H   SFRSYM    DATA     BYTE      AUXR2
      000000EFH   SFRSYM    DATA     BYTE      AUXINTIF
      000000FDH   SFRSYM    DATA     BYTE      S4CON
      000000ACH   SFRSYM    DATA     BYTE      S3CON
      0000009AH   SFRSYM    DATA     BYTE      S2CON
      000000B7H   SFRSYM    DATA     BYTE      IPH
      000000CDH   SFRSYM    DATA     BYTE      SPSTAT
      000000DDH   SFRSYM    DATA     BYTE      T4T3M
      000000C1H   SFRSYM    DATA     BYTE      WDT_CONTR
      000000DFH   SFRSYM    DATA     BYTE      IP3
      000000F4H   SFRSYM    DATA     BYTE      USBCON
L251 LINKER/LOCATER V4.66.93.0                                                        05/03/2024  16:07:18  PAGE 106


      000000B5H   SFRSYM    DATA     BYTE      IP2
      000000FFH   SFRSYM    DATA     BYTE      RSTCFG
      000000F9H   SFRSYM    DATA     BYTE      LINICR
      0000008EH   SFRSYM    DATA     BYTE      AUXR
      000000AFH   SFRSYM    DATA     BYTE      IE2
      00000088H   SFRSYM    DATA     BYTE      TCON
      00000098H   SFRSYM    DATA     BYTE      SCON
      000000F1H   SFRSYM    DATA     BYTE      CANICR
      00000087H   SFRSYM    DATA     BYTE      PCON
      000000BCH   SFRSYM    DATA     BYTE      ADC_CONTR
      000000E7H   SFRSYM    DATA     BYTE      CMPCR2
      000000E6H   SFRSYM    DATA     BYTE      CMPCR1
      000000B8H   SFRSYM    DATA     BYTE      IP
      0000008FH   SFRSYM    DATA     BYTE      INTCLKO
      000000EEH   SFRSYM    DATA     BYTE      IP3H
      000000B6H   SFRSYM    DATA     BYTE      IP2H
      000000A8H   SFRSYM    DATA     BYTE      IE
      000000BBH   SFRSYM    DATA     BYTE      P_SW3
      000000BAH   SFRSYM    DATA     BYTE      P_SW2
      000000A2H   SFRSYM    DATA     BYTE      P_SW1
      000000CEH   SFRSYM    DATA     BYTE      SPCTL
      000000F8H   SFRSYM    DATA     BYTE      P7
      000000E8H   SFRSYM    DATA     BYTE      P6
      000000C8H   SFRSYM    DATA     BYTE      P5
      000000C0H   SFRSYM    DATA     BYTE      P4
      000000B0H   SFRSYM    DATA     BYTE      P3
      000000A0H   SFRSYM    DATA     BYTE      P2
      00000090H   SFRSYM    DATA     BYTE      P1
      00000080H   SFRSYM    DATA     BYTE      P0

      00FF8055H   BLOCK     CODE     ---       LVL=0
      00FF8055H   LINE      CODE     ---       #6
      00FF8055H   LINE      CODE     ---       #8
      00FF8063H   LINE      CODE     ---       #9
      00FF8072H   LINE      CODE     ---       #10
      00FF8081H   LINE      CODE     ---       #11
      00FF8091H   LINE      CODE     ---       #17
      00FF8094H   LINE      CODE     ---       #18
      ---         BLOCKEND  ---      ---       LVL=0

      00FF867DH   BLOCK     CODE     ---       LVL=0
      00FF867DH   LINE      CODE     ---       #20
      00FF867DH   LINE      CODE     ---       #23
      00FF868CH   LINE      CODE     ---       #24
      ---         BLOCKEND  ---      ---       LVL=0

      ---         MODULE    ---      ---       seekfree_assistant
      00010201H   PUBLIC    XDATA    ---       seekfree_assistant_oscilloscope_data
      0001023CH   PUBLIC    XDATA    ---       seekfree_assistant_parameter_update_flag
      00010244H   PUBLIC    XDATA    ---       seekfree_assistant_parameter
      000006F2H   PUBLIC    EDATA    BYTE      ?seekfree_assistant_camera_data_send?BYTE
      00000855H   PUBLIC    EDATA    BYTE      ?seekfree_assistant_camera_information_config?BYTE
      000005DAH   PUBLIC    EDATA    BYTE      ?seekfree_assistant_camera_boundary_config?BYTE
      000000D0H   SFRSYM    DATA     BYTE      PSW
      0000009DH   SFRSYM    DATA     BYTE      IRCBAND
      00000097H   SFRSYM    DATA     BYTE      AUXR2
      000000EFH   SFRSYM    DATA     BYTE      AUXINTIF
      000000FDH   SFRSYM    DATA     BYTE      S4CON
      000000ACH   SFRSYM    DATA     BYTE      S3CON
      0000009AH   SFRSYM    DATA     BYTE      S2CON
      000000B7H   SFRSYM    DATA     BYTE      IPH
      000000CDH   SFRSYM    DATA     BYTE      SPSTAT
      000000DDH   SFRSYM    DATA     BYTE      T4T3M
      000000C1H   SFRSYM    DATA     BYTE      WDT_CONTR
      000000DFH   SFRSYM    DATA     BYTE      IP3
L251 LINKER/LOCATER V4.66.93.0                                                        05/03/2024  16:07:18  PAGE 107


      000000F4H   SFRSYM    DATA     BYTE      USBCON
      000000B5H   SFRSYM    DATA     BYTE      IP2
      000000FFH   SFRSYM    DATA     BYTE      RSTCFG
      000000F9H   SFRSYM    DATA     BYTE      LINICR
      0000008EH   SFRSYM    DATA     BYTE      AUXR
      000000AFH   SFRSYM    DATA     BYTE      IE2
      00000088H   SFRSYM    DATA     BYTE      TCON
      00000098H   SFRSYM    DATA     BYTE      SCON
      000000F1H   SFRSYM    DATA     BYTE      CANICR
      00000087H   SFRSYM    DATA     BYTE      PCON
      000000BCH   SFRSYM    DATA     BYTE      ADC_CONTR
      000000E7H   SFRSYM    DATA     BYTE      CMPCR2
      000000E6H   SFRSYM    DATA     BYTE      CMPCR1
      000000B8H   SFRSYM    DATA     BYTE      IP
      0000008FH   SFRSYM    DATA     BYTE      INTCLKO
      000000EEH   SFRSYM    DATA     BYTE      IP3H
      000000B6H   SFRSYM    DATA     BYTE      IP2H
      000000A8H   SFRSYM    DATA     BYTE      IE
      000000BBH   SFRSYM    DATA     BYTE      P_SW3
      000000BAH   SFRSYM    DATA     BYTE      P_SW2
      000000A2H   SFRSYM    DATA     BYTE      P_SW1
      000000CEH   SFRSYM    DATA     BYTE      SPCTL
      000000F8H   SFRSYM    DATA     BYTE      P7
      000000E8H   SFRSYM    DATA     BYTE      P6
      000000C8H   SFRSYM    DATA     BYTE      P5
      000000C0H   SFRSYM    DATA     BYTE      P4
      000000B0H   SFRSYM    DATA     BYTE      P3
      000000A0H   SFRSYM    DATA     BYTE      P2
      00000090H   SFRSYM    DATA     BYTE      P1
      00000080H   SFRSYM    DATA     BYTE      P0
      00000427H   SYMBOL    EDATA    ---       seekfree_assistant_camera_dot_data
      0000042FH   SYMBOL    EDATA    ---       seekfree_assistant_camera_buffer
      00000479H   SYMBOL    EDATA    ---       seekfree_assistant_camera_data
      00010225H   SYMBOL    XDATA    ---       seekfree_assistant_fifo
      00010264H   SYMBOL    XDATA    ---       seekfree_assistant_buffer
      000008F1H   SYMBOL    EDATA    ---       buffer
      000008F5H   SYMBOL    EDATA    DWORD     length
      000008F9H   SYMBOL    EDATA    BYTE      temp_sum
      000006F2H   SYMBOL    EDATA    INT       camera_type
      000006F4H   SYMBOL    EDATA    ---       image_addr
      000006F8H   SYMBOL    EDATA    BYTE      boundary_num
      000006F9H   SYMBOL    EDATA    WORD      width
      000006FBH   SYMBOL    EDATA    WORD      height
      000006FDH   SYMBOL    EDATA    DWORD     image_size
      00000855H   SYMBOL    EDATA    INT       camera_type
      00000857H   SYMBOL    EDATA    ---       image_addr
      0000085BH   SYMBOL    EDATA    WORD      width
      0000085DH   SYMBOL    EDATA    WORD      height
      00000591H   SYMBOL    EDATA    ---       seekfree_assistant_oscilloscope
      00000595H   SYMBOL    EDATA    BYTE      packet_size
      00000596H   SYMBOL    EDATA    BYTE      i
      00000597H   SYMBOL    EDATA    ---       temp_oscilloscope
      000009BFH   SYMBOL    EDATA    ---       buffer
      000009C3H   SYMBOL    EDATA    BYTE      i
      000009C4H   SYMBOL    EDATA    WORD      dot_bytes
      000005DAH   SYMBOL    EDATA    INT       boundary_type
      000005DCH   SYMBOL    EDATA    WORD      dot_num
      000005DEH   SYMBOL    EDATA    ---       dot_x1
      000005E2H   SYMBOL    EDATA    ---       dot_x2
      000005E6H   SYMBOL    EDATA    ---       dot_x3
      000005EAH   SYMBOL    EDATA    ---       dot_y1
      000005EEH   SYMBOL    EDATA    ---       dot_y2
      000005F2H   SYMBOL    EDATA    ---       dot_y3
      000005F6H   SYMBOL    EDATA    BYTE      i
      000005F7H   SYMBOL    EDATA    BYTE      boundary_num
L251 LINKER/LOCATER V4.66.93.0                                                        05/03/2024  16:07:18  PAGE 108


      000005F8H   SYMBOL    EDATA    BYTE      boundary_data_type
      0000033BH   SYMBOL    EDATA    BYTE      temp_sum
      0000033CH   SYMBOL    EDATA    DWORD     read_length
      00000340H   SYMBOL    EDATA    ---       receive_packet
      00000344H   SYMBOL    EDATA    ---       temp_buffer
      000003C4H   SYMBOL    EDATA    DWORD     i

      ---         MODULE    ---      ---       seekfree_assistant_inface
      00000B43H   PUBLIC    EDATA    ---       seekfree_assistant_receive
      00000B45H   PUBLIC    EDATA    ---       seekfree_assistant_transfer
      000000D0H   SFRSYM    DATA     BYTE      PSW
      0000009DH   SFRSYM    DATA     BYTE      IRCBAND
      00000097H   SFRSYM    DATA     BYTE      AUXR2
      000000EFH   SFRSYM    DATA     BYTE      AUXINTIF
      000000FDH   SFRSYM    DATA     BYTE      S4CON
      000000ACH   SFRSYM    DATA     BYTE      S3CON
      0000009AH   SFRSYM    DATA     BYTE      S2CON
      000000B7H   SFRSYM    DATA     BYTE      IPH
      000000CDH   SFRSYM    DATA     BYTE      SPSTAT
      000000DDH   SFRSYM    DATA     BYTE      T4T3M
      000000C1H   SFRSYM    DATA     BYTE      WDT_CONTR
      000000DFH   SFRSYM    DATA     BYTE      IP3
      000000F4H   SFRSYM    DATA     BYTE      USBCON
      000000B5H   SFRSYM    DATA     BYTE      IP2
      000000FFH   SFRSYM    DATA     BYTE      RSTCFG
      000000F9H   SFRSYM    DATA     BYTE      LINICR
      0000008EH   SFRSYM    DATA     BYTE      AUXR
      000000AFH   SFRSYM    DATA     BYTE      IE2
      00000088H   SFRSYM    DATA     BYTE      TCON
      00000098H   SFRSYM    DATA     BYTE      SCON
      000000F1H   SFRSYM    DATA     BYTE      CANICR
      00000087H   SFRSYM    DATA     BYTE      PCON
      000000BCH   SFRSYM    DATA     BYTE      ADC_CONTR
      000000E7H   SFRSYM    DATA     BYTE      CMPCR2
      000000E6H   SFRSYM    DATA     BYTE      CMPCR1
      000000B8H   SFRSYM    DATA     BYTE      IP
      0000008FH   SFRSYM    DATA     BYTE      INTCLKO
      000000EEH   SFRSYM    DATA     BYTE      IP3H
      000000B6H   SFRSYM    DATA     BYTE      IP2H
      000000A8H   SFRSYM    DATA     BYTE      IE
      000000BBH   SFRSYM    DATA     BYTE      P_SW3
      000000BAH   SFRSYM    DATA     BYTE      P_SW2
      000000A2H   SFRSYM    DATA     BYTE      P_SW1
      000000CEH   SFRSYM    DATA     BYTE      SPCTL
      000000F8H   SFRSYM    DATA     BYTE      P7
      000000E8H   SFRSYM    DATA     BYTE      P6
      000000C8H   SFRSYM    DATA     BYTE      P5
      000000C0H   SFRSYM    DATA     BYTE      P4
      000000B0H   SFRSYM    DATA     BYTE      P3
      000000A0H   SFRSYM    DATA     BYTE      P2
      00000090H   SFRSYM    DATA     BYTE      P1
      00000080H   SFRSYM    DATA     BYTE      P0

      ---         MODULE    ---      ---       host_comm
      00FF63EFH   PUBLIC    CODE     ---       wheel_speed_parser
      00FF8268H   PUBLIC    CODE     ---       host_comm_uart_init
      00FF6D6BH   PUBLIC    CODE     ---       host_comm_sender
      00FF53A3H   PUBLIC    CODE     ---       host_comm_irqhandler
      00000022H.0 PUBLIC    BIT      BIT       sendok
      00000022H.1 PUBLIC    BIT      BIT       sendwrongcmd
      00000022H.2 PUBLIC    BIT      BIT       sendwheelok
      00000022H.3 PUBLIC    BIT      BIT       sendwheelwarnexceed
      00000022H.4 PUBLIC    BIT      BIT       senderr
      000000D0H   SFRSYM    DATA     BYTE      PSW
      0000009DH   SFRSYM    DATA     BYTE      IRCBAND
L251 LINKER/LOCATER V4.66.93.0                                                        05/03/2024  16:07:18  PAGE 109


      00000097H   SFRSYM    DATA     BYTE      AUXR2
      000000EFH   SFRSYM    DATA     BYTE      AUXINTIF
      000000FDH   SFRSYM    DATA     BYTE      S4CON
      000000ACH   SFRSYM    DATA     BYTE      S3CON
      0000009AH   SFRSYM    DATA     BYTE      S2CON
      000000B7H   SFRSYM    DATA     BYTE      IPH
      000000CDH   SFRSYM    DATA     BYTE      SPSTAT
      000000DDH   SFRSYM    DATA     BYTE      T4T3M
      000000C1H   SFRSYM    DATA     BYTE      WDT_CONTR
      00000088H.6 SFRSYM    DATA     BIT       TR1
      0000008BH   SFRSYM    DATA     BYTE      TL1
      0000008DH   SFRSYM    DATA     BYTE      TH1
      000000DFH   SFRSYM    DATA     BYTE      IP3
      000000F4H   SFRSYM    DATA     BYTE      USBCON
      000000B5H   SFRSYM    DATA     BYTE      IP2
      000000FFH   SFRSYM    DATA     BYTE      RSTCFG
      000000A8H.3 SFRSYM    DATA     BIT       ET1
      000000C0H.5 SFRSYM    DATA     BIT       led_1
      000000F9H   SFRSYM    DATA     BYTE      LINICR
      0000008EH   SFRSYM    DATA     BYTE      AUXR
      000000AFH   SFRSYM    DATA     BYTE      IE2
      00000088H   SFRSYM    DATA     BYTE      TCON
      00000089H   SFRSYM    DATA     BYTE      TMOD
      00000098H   SFRSYM    DATA     BYTE      SCON
      000000F1H   SFRSYM    DATA     BYTE      CANICR
      00000087H   SFRSYM    DATA     BYTE      PCON
      000000BCH   SFRSYM    DATA     BYTE      ADC_CONTR
      000000E7H   SFRSYM    DATA     BYTE      CMPCR2
      000000E6H   SFRSYM    DATA     BYTE      CMPCR1
      000000B8H   SFRSYM    DATA     BYTE      IP
      000000A8H.4 SFRSYM    DATA     BIT       ES
      0000008FH   SFRSYM    DATA     BYTE      INTCLKO
      000000EEH   SFRSYM    DATA     BYTE      IP3H
      000000B6H   SFRSYM    DATA     BYTE      IP2H
      000000A8H   SFRSYM    DATA     BYTE      IE
      000000BBH   SFRSYM    DATA     BYTE      P_SW3
      000000BAH   SFRSYM    DATA     BYTE      P_SW2
      000000A2H   SFRSYM    DATA     BYTE      P_SW1
      000000CEH   SFRSYM    DATA     BYTE      SPCTL
      000000F8H   SFRSYM    DATA     BYTE      P7
      000000E8H   SFRSYM    DATA     BYTE      P6
      000000C8H   SFRSYM    DATA     BYTE      P5
      000000C0H   SFRSYM    DATA     BYTE      P4
      000000B0H   SFRSYM    DATA     BYTE      P3
      000000A0H   SFRSYM    DATA     BYTE      P2
      00000090H   SFRSYM    DATA     BYTE      P1
      00000080H   SFRSYM    DATA     BYTE      P0

      00FF63EFH   BLOCK     CODE     ---       LVL=0
      0000085FH   SYMBOL    EDATA    ---       str
      00FF63F3H   BLOCK     CODE     NEAR LAB  LVL=1
      00000863H   SYMBOL    EDATA    INT       result
      00000865H   SYMBOL    EDATA    INT       sign
      00000867H   SYMBOL    EDATA    INT       i
      ---         BLOCKEND  ---      ---       LVL=1
      00FF63EFH   LINE      CODE     ---       #13
      00FF63F3H   LINE      CODE     ---       #14
      00FF63F3H   LINE      CODE     ---       #16
      00FF63F9H   LINE      CODE     ---       #17
      00FF6401H   LINE      CODE     ---       #18
      00FF6407H   LINE      CODE     ---       #21
      00FF6413H   LINE      CODE     ---       #23
      00FF6418H   LINE      CODE     ---       #24
      00FF6418H   LINE      CODE     ---       #27
      00FF641AH   LINE      CODE     ---       #29
L251 LINKER/LOCATER V4.66.93.0                                                        05/03/2024  16:07:18  PAGE 110


      00FF6428H   LINE      CODE     ---       #30
      00FF6438H   LINE      CODE     ---       #33
      00FF6448H   LINE      CODE     ---       #35
      00FF6450H   LINE      CODE     ---       #36
      00FF645EH   LINE      CODE     ---       #37
      00FF6470H   LINE      CODE     ---       #39
      00FF647EH   LINE      CODE     ---       #40
      00FF647EH   LINE      CODE     ---       #43
      00FF6480H   LINE      CODE     ---       #45
      00FF64A2H   LINE      CODE     ---       #46
      00FF64C5H   LINE      CODE     ---       #47
      00FF64C5H   LINE      CODE     ---       #48
      00FF64C5H   LINE      CODE     ---       #49
      00FF64C5H   LINE      CODE     ---       #50
      00FF64D3H   LINE      CODE     ---       #51
      00FF64E3H   LINE      CODE     ---       #52
      00FF64EFH   LINE      CODE     ---       #54
      00FF64F7H   LINE      CODE     ---       #55
      00FF64FAH   LINE      CODE     ---       #56
      00FF64FAH   LINE      CODE     ---       #57
      00FF6504H   LINE      CODE     ---       #58
      ---         BLOCKEND  ---      ---       LVL=0

      00FF8268H   BLOCK     CODE     ---       LVL=0
      00FF8268H   LINE      CODE     ---       #60
      00FF8268H   LINE      CODE     ---       #67
      00FF826CH   LINE      CODE     ---       #68
      00FF826FH   LINE      CODE     ---       #69
      00FF8272H   LINE      CODE     ---       #70
      00FF8275H   LINE      CODE     ---       #71
      00FF8279H   LINE      CODE     ---       #72
      00FF827DH   LINE      CODE     ---       #73
      00FF8280H   LINE      CODE     ---       #74
      00FF8283H   LINE      CODE     ---       #75
      00FF8286H   LINE      CODE     ---       #77
      00FF8293H   LINE      CODE     ---       #78
      ---         BLOCKEND  ---      ---       LVL=0

      00FF53A3H   BLOCK     CODE     ---       LVL=0
      000006E2H   SYMBOL    EDATA    WORD      i
      000006E4H   SYMBOL    EDATA    ---       wheel_speed_buffer
      000006EBH   SYMBOL    EDATA    INT       wheel_speed
      000006EDH   SYMBOL    EDATA    ---       servo_angle_buffer
      000006F0H   SYMBOL    EDATA    INT       servo_angle
      00FF53A3H   LINE      CODE     ---       #80
      00FF53A3H   LINE      CODE     ---       #81
      00FF53A3H   LINE      CODE     ---       #90
      00FF53BAH   LINE      CODE     ---       #93
      00FF53D2H   LINE      CODE     ---       #95
      00FF53DBH   LINE      CODE     ---       #97
      00FF53F6H   LINE      CODE     ---       #100
      00FF5405H   LINE      CODE     ---       #101
      00FF5408H   LINE      CODE     ---       #102
      00FF540BH   LINE      CODE     ---       #104
      00FF542FH   LINE      CODE     ---       #107
      00FF5437H   LINE      CODE     ---       #110
      00FF5449H   LINE      CODE     ---       #111
      00FF5463H   LINE      CODE     ---       #112
      00FF547DH   LINE      CODE     ---       #114
      00FF5488H   LINE      CODE     ---       #117
      00FF5491H   LINE      CODE     ---       #119
      00FF549AH   LINE      CODE     ---       #121
      00FF54A2H   LINE      CODE     ---       #122
      00FF54AAH   LINE      CODE     ---       #123
      00FF54ADH   LINE      CODE     ---       #124
L251 LINKER/LOCATER V4.66.93.0                                                        05/03/2024  16:07:18  PAGE 111


      00FF54B0H   LINE      CODE     ---       #125
      00FF54B9H   LINE      CODE     ---       #127
      00FF54C1H   LINE      CODE     ---       #128
      00FF54C4H   LINE      CODE     ---       #129
      00FF54C7H   LINE      CODE     ---       #130
      00FF54D0H   LINE      CODE     ---       #132
      00FF54D8H   LINE      CODE     ---       #133
      00FF54DBH   LINE      CODE     ---       #134
      00FF54DEH   LINE      CODE     ---       #135
      00FF54E1H   LINE      CODE     ---       #136
      00FF54E4H   LINE      CODE     ---       #137
      00FF54EDH   LINE      CODE     ---       #139
      00FF54F6H   LINE      CODE     ---       #141
      00FF54FEH   LINE      CODE     ---       #142
      00FF5506H   LINE      CODE     ---       #143
      00FF5509H   LINE      CODE     ---       #144
      00FF550CH   LINE      CODE     ---       #145
      00FF5515H   LINE      CODE     ---       #147
      00FF551DH   LINE      CODE     ---       #148
      00FF5520H   LINE      CODE     ---       #149
      00FF5523H   LINE      CODE     ---       #150
      00FF552CH   LINE      CODE     ---       #152
      00FF5534H   LINE      CODE     ---       #153
      00FF5537H   LINE      CODE     ---       #154
      00FF553AH   LINE      CODE     ---       #155
      00FF553DH   LINE      CODE     ---       #156
      00FF5540H   LINE      CODE     ---       #157
      00FF5558H   LINE      CODE     ---       #159
      00FF5566H   LINE      CODE     ---       #160
      00FF556EH   LINE      CODE     ---       #161
      00FF5576H   LINE      CODE     ---       #162
      00FF5584H   LINE      CODE     ---       #163
      00FF5587H   LINE      CODE     ---       #164
      00FF558AH   LINE      CODE     ---       #167
      00FF55AEH   LINE      CODE     ---       #173
      00FF55B6H   LINE      CODE     ---       #175
      00FF55D8H   LINE      CODE     ---       #176
      00FF55F2H   LINE      CODE     ---       #178
      00FF5612H   LINE      CODE     ---       #181
      00FF561BH   LINE      CODE     ---       #183
      00FF5627H   LINE      CODE     ---       #184
      00FF562AH   LINE      CODE     ---       #185
      00FF562CH   LINE      CODE     ---       #186
      00FF5647H   LINE      CODE     ---       #188
      00FF5653H   LINE      CODE     ---       #189
      00FF5656H   LINE      CODE     ---       #190
      00FF5658H   LINE      CODE     ---       #191
      00FF5673H   LINE      CODE     ---       #193
      00FF567FH   LINE      CODE     ---       #194
      00FF5682H   LINE      CODE     ---       #195
      00FF5684H   LINE      CODE     ---       #196
      00FF5687H   LINE      CODE     ---       #197
      00FF5689H   LINE      CODE     ---       #198
      00FF568CH   LINE      CODE     ---       #199
      00FF568EH   LINE      CODE     ---       #200
      00FF5691H   LINE      CODE     ---       #201
      00FF5693H   LINE      CODE     ---       #202
      00FF5696H   LINE      CODE     ---       #203
      ---         BLOCKEND  ---      ---       LVL=0

      00FF6D6BH   BLOCK     CODE     ---       LVL=0
      00000BE9H   SYMBOL    EDATA    BYTE      host_comm_header
      00FF6D6BH   LINE      CODE     ---       #205
      00FF6D6BH   LINE      CODE     ---       #206
      00FF6D6BH   LINE      CODE     ---       #207
L251 LINKER/LOCATER V4.66.93.0                                                        05/03/2024  16:07:18  PAGE 112


      00FF6D71H   LINE      CODE     ---       #208
      00FF6D74H   LINE      CODE     ---       #210
      00FF6D7DH   LINE      CODE     ---       #211
      00FF6D8AH   LINE      CODE     ---       #212
      00FF6D8DH   LINE      CODE     ---       #213
      00FF6D92H   LINE      CODE     ---       #214
      00FF6D92H   LINE      CODE     ---       #215
      00FF6D95H   LINE      CODE     ---       #217
      00FF6D9EH   LINE      CODE     ---       #218
      00FF6DABH   LINE      CODE     ---       #219
      00FF6DAEH   LINE      CODE     ---       #220
      00FF6DB3H   LINE      CODE     ---       #221
      00FF6DB3H   LINE      CODE     ---       #222
      00FF6DB6H   LINE      CODE     ---       #224
      00FF6DBFH   LINE      CODE     ---       #225
      00FF6DCCH   LINE      CODE     ---       #226
      00FF6DCFH   LINE      CODE     ---       #227
      00FF6DD4H   LINE      CODE     ---       #228
      00FF6DD4H   LINE      CODE     ---       #229
      00FF6DD7H   LINE      CODE     ---       #231
      00FF6DE0H   LINE      CODE     ---       #232
      00FF6DEDH   LINE      CODE     ---       #233
      00FF6DF0H   LINE      CODE     ---       #234
      00FF6DF5H   LINE      CODE     ---       #235
      00FF6DF5H   LINE      CODE     ---       #236
      00FF6DF8H   LINE      CODE     ---       #238
      00FF6E01H   LINE      CODE     ---       #239
      00FF6E0EH   LINE      CODE     ---       #240
      00FF6E11H   LINE      CODE     ---       #241
      00FF6E16H   LINE      CODE     ---       #242
      ---         BLOCKEND  ---      ---       LVL=0

      ---         MODULE    ---      ---       laser_ranging
      00FF85B4H   PUBLIC    CODE     ---       laser_ranging_get_uart_value
      00FF8421H   PUBLIC    CODE     ---       laser_ranging
      00FF6CBBH   PUBLIC    CODE     ---       laser_ranging_init
      0000026EH   PUBLIC    EDATA    ---       lrcmd_setrange_10m
      00000273H   PUBLIC    EDATA    ---       laser_ranging_cmd_arr_shutdown
      00000277H   PUBLIC    EDATA    ---       lrcmd_setrange_30m
      0000027CH   PUBLIC    EDATA    ---       lrcmd_setrange_50m
      00000281H   PUBLIC    EDATA    ---       laser_ranging_cmd_arr_single
      00000285H   PUBLIC    EDATA    ---       lrcmd_setrange_80m
      0000028AH   PUBLIC    EDATA    ---       lrcmd_readcache
      0000028FH   PUBLIC    EDATA    ---       lrcmd_setresolution_1mm
      00000294H   PUBLIC    EDATA    ---       laser_ranging_cmd_arr_setrange_10m
      00000299H   PUBLIC    EDATA    ---       laser_ranging_cmd_arr_setrange_30m
      0000029EH   PUBLIC    EDATA    ---       laser_ranging_cmd_arr_setrange_50m
      000002A3H   PUBLIC    EDATA    ---       lrcmd_single_broadcast
      000002A8H   PUBLIC    EDATA    ---       laser_ranging_cmd_arr_setrange_80m
      000002ADH   PUBLIC    EDATA    ---       laser_ranging_cmd_arr_readcache
      000002B1H   PUBLIC    EDATA    ---       lrcmd_setfreq_10hz
      000002B6H   PUBLIC    EDATA    ---       laser_ranging_cmd_arr_setresolution_1mm
      000002BBH   PUBLIC    EDATA    ---       lrcmd_setfreq_20hz
      000002C0H   PUBLIC    EDATA    ---       lrcmd_setresolution_0_1mm
      000002C5H   PUBLIC    EDATA    ---       laser_ranging_cmd_arr_single_broadcast
      000002C9H   PUBLIC    EDATA    ---       laser_ranging_cmd_arr_setfreq_10hz
      000002CEH   PUBLIC    EDATA    ---       laser_ranging_cmd_arr_setfreq_20hz
      000002D3H   PUBLIC    EDATA    ---       laser_ranging_cmd_arr_setresolution_0_1mm
      000002D8H   PUBLIC    EDATA    ---       lrcmd_laseroff
      000002DDH   PUBLIC    EDATA    ---       lrcmd_setrange_5m
      000002E2H   PUBLIC    EDATA    ---       laser_ranging_cmd_arr_laseroff
      000002E7H   PUBLIC    EDATA    ---       lrcmd_continous
      000002ECH   PUBLIC    EDATA    ---       laser_ranging_cmd_arr_setrange_5m
      000002F1H   PUBLIC    EDATA    ---       laser_ranging_cmd_arr_continous
      000002F5H   PUBLIC    EDATA    ---       lrcmd_setfreq_5hz
L251 LINKER/LOCATER V4.66.93.0                                                        05/03/2024  16:07:18  PAGE 113


      000002FAH   PUBLIC    EDATA    ---       lrcmd_laseron
      000002FFH   PUBLIC    EDATA    ---       lrcmd_shutdown
      00000304H   PUBLIC    EDATA    ---       laser_ranging_cmd_arr_setfreq_5hz
      00000309H   PUBLIC    EDATA    ---       lrdata
      00000331H   PUBLIC    EDATA    ---       lrcmd_single
      00000336H   PUBLIC    EDATA    ---       laser_ranging_cmd_arr_laseron
      000000D0H   SFRSYM    DATA     BYTE      PSW
      0000009DH   SFRSYM    DATA     BYTE      IRCBAND
      00000097H   SFRSYM    DATA     BYTE      AUXR2
      000000EFH   SFRSYM    DATA     BYTE      AUXINTIF
      000000FDH   SFRSYM    DATA     BYTE      S4CON
      000000ACH   SFRSYM    DATA     BYTE      S3CON
      0000009AH   SFRSYM    DATA     BYTE      S2CON
      000000B7H   SFRSYM    DATA     BYTE      IPH
      000000CDH   SFRSYM    DATA     BYTE      SPSTAT
      000000DDH   SFRSYM    DATA     BYTE      T4T3M
      000000C1H   SFRSYM    DATA     BYTE      WDT_CONTR
      000000DFH   SFRSYM    DATA     BYTE      IP3
      000000F4H   SFRSYM    DATA     BYTE      USBCON
      000000B5H   SFRSYM    DATA     BYTE      IP2
      000000FFH   SFRSYM    DATA     BYTE      RSTCFG
      000000F9H   SFRSYM    DATA     BYTE      LINICR
      0000008EH   SFRSYM    DATA     BYTE      AUXR
      000000AFH   SFRSYM    DATA     BYTE      IE2
      00000088H   SFRSYM    DATA     BYTE      TCON
      00000098H   SFRSYM    DATA     BYTE      SCON
      000000F1H   SFRSYM    DATA     BYTE      CANICR
      00000087H   SFRSYM    DATA     BYTE      PCON
      000000BCH   SFRSYM    DATA     BYTE      ADC_CONTR
      000000E7H   SFRSYM    DATA     BYTE      CMPCR2
      000000E6H   SFRSYM    DATA     BYTE      CMPCR1
      000000B8H   SFRSYM    DATA     BYTE      IP
      0000008FH   SFRSYM    DATA     BYTE      INTCLKO
      000000EEH   SFRSYM    DATA     BYTE      IP3H
      000000B6H   SFRSYM    DATA     BYTE      IP2H
      000000A8H   SFRSYM    DATA     BYTE      IE
      000000BBH   SFRSYM    DATA     BYTE      P_SW3
      000000BAH   SFRSYM    DATA     BYTE      P_SW2
      000000A2H   SFRSYM    DATA     BYTE      P_SW1
      000000CEH   SFRSYM    DATA     BYTE      SPCTL
      000000F8H   SFRSYM    DATA     BYTE      P7
      000000E8H   SFRSYM    DATA     BYTE      P6
      000000C8H   SFRSYM    DATA     BYTE      P5
      000000C0H   SFRSYM    DATA     BYTE      P4
      000000B0H   SFRSYM    DATA     BYTE      P3
      000000A0H   SFRSYM    DATA     BYTE      P2
      00000090H   SFRSYM    DATA     BYTE      P1
      00000080H   SFRSYM    DATA     BYTE      P0
      00000B7CH   SYMBOL    EDATA    BYTE      lr_axis
      00000B7DH   SYMBOL    EDATA    WORD      i

      00FF85B4H   BLOCK     CODE     ---       LVL=0
      00000BEAH   SYMBOL    EDATA    BYTE      lr_axis
      00FF85B4H   LINE      CODE     ---       #133
      00FF85B8H   LINE      CODE     ---       #135
      00FF85BFH   LINE      CODE     ---       #137
      00FF85BFH   LINE      CODE     ---       #138
      00FF85C3H   LINE      CODE     ---       #139
      00FF85C3H   LINE      CODE     ---       #141
      00FF85C3H   LINE      CODE     ---       #142
      00FF85C7H   LINE      CODE     ---       #143
      00FF85C7H   LINE      CODE     ---       #145
      00FF85C7H   LINE      CODE     ---       #146
      00FF85C9H   LINE      CODE     ---       #147
      00FF85C9H   LINE      CODE     ---       #148
L251 LINKER/LOCATER V4.66.93.0                                                        05/03/2024  16:07:18  PAGE 114


      00FF85C9H   LINE      CODE     ---       #149
      ---         BLOCKEND  ---      ---       LVL=0

      00FF8421H   BLOCK     CODE     ---       LVL=0
      00000B02H   SYMBOL    EDATA    BYTE      lr_axis
      00000B03H   SYMBOL    EDATA    ---       specific_cmd
      00FF8421H   LINE      CODE     ---       #152
      00FF8429H   LINE      CODE     ---       #154
      00FF8443H   LINE      CODE     ---       #155
      ---         BLOCKEND  ---      ---       LVL=0

      00FF6CBBH   BLOCK     CODE     ---       LVL=0
      00FF6CBBH   LINE      CODE     ---       #157
      00FF6CBBH   LINE      CODE     ---       #159
      00FF6CD6H   LINE      CODE     ---       #160
      00FF6CF1H   LINE      CODE     ---       #162
      00FF6CFAH   LINE      CODE     ---       #163
      00FF6D01H   LINE      CODE     ---       #164
      00FF6D0AH   LINE      CODE     ---       #165
      00FF6D11H   LINE      CODE     ---       #166
      00FF6D1AH   LINE      CODE     ---       #167
      00FF6D21H   LINE      CODE     ---       #168
      00FF6D2AH   LINE      CODE     ---       #169
      00FF6D31H   LINE      CODE     ---       #170
      00FF6D3AH   LINE      CODE     ---       #171
      00FF6D41H   LINE      CODE     ---       #172
      00FF6D4AH   LINE      CODE     ---       #173
      00FF6D51H   LINE      CODE     ---       #174
      00FF6D5AH   LINE      CODE     ---       #175
      00FF6D61H   LINE      CODE     ---       #176
      00FF6D6AH   LINE      CODE     ---       #177
      ---         BLOCKEND  ---      ---       LVL=0

      ---         MODULE    ---      ---       motor_driver_boards
      00FF7A92H   PUBLIC    CODE     ---       wheel_oled_update
      00FF5F1DH   PUBLIC    CODE     ---       wheel_adjust
      00FF8294H   PUBLIC    CODE     ---       wheel_dynamic_adjusting
      00FF8095H   PUBLIC    CODE     ---       wheel_oled_init
      00FF5949H   PUBLIC    CODE     ---       wheel_direction
      00000022H.5 PUBLIC    BIT      BIT       wheel_yaw_calibrating_flag
      000007CDH   PUBLIC    EDATA    FLOAT     wheel_target_yaw
      000007D1H   PUBLIC    EDATA    INT       wheel_x_rear_speed
      000007D3H   PUBLIC    EDATA    INT       wheel_x_front_speed
      000007D5H   PUBLIC    EDATA    INT       wheel_y_rear_speed
      000007D7H   PUBLIC    EDATA    INT       wheel_y_front_speed
      000000D0H   SFRSYM    DATA     BYTE      PSW
      0000009DH   SFRSYM    DATA     BYTE      IRCBAND
      00000097H   SFRSYM    DATA     BYTE      AUXR2
      000000EFH   SFRSYM    DATA     BYTE      AUXINTIF
      00000090H.0 SFRSYM    DATA     BIT       gpio_wheel_y_front_forward
      00000090H.6 SFRSYM    DATA     BIT       gpio_wheel_y_rear_forward
      000000E8H.2 SFRSYM    DATA     BIT       gpio_wheel_x_front_forward
      000000E8H.4 SFRSYM    DATA     BIT       gpio_wheel_x_rear_forward
      000000FDH   SFRSYM    DATA     BYTE      S4CON
      000000ACH   SFRSYM    DATA     BYTE      S3CON
      0000009AH   SFRSYM    DATA     BYTE      S2CON
      000000B7H   SFRSYM    DATA     BYTE      IPH
      000000CDH   SFRSYM    DATA     BYTE      SPSTAT
      000000DDH   SFRSYM    DATA     BYTE      T4T3M
      000000C1H   SFRSYM    DATA     BYTE      WDT_CONTR
      000000DFH   SFRSYM    DATA     BYTE      IP3
      000000F4H   SFRSYM    DATA     BYTE      USBCON
      000000B5H   SFRSYM    DATA     BYTE      IP2
      000000FFH   SFRSYM    DATA     BYTE      RSTCFG
      000000F9H   SFRSYM    DATA     BYTE      LINICR
L251 LINKER/LOCATER V4.66.93.0                                                        05/03/2024  16:07:18  PAGE 115


      0000008EH   SFRSYM    DATA     BYTE      AUXR
      000000AFH   SFRSYM    DATA     BYTE      IE2
      00000090H.1 SFRSYM    DATA     BIT       gpio_wheel_y_front_backward
      00000090H.5 SFRSYM    DATA     BIT       gpio_wheel_y_rear_backward
      00000088H   SFRSYM    DATA     BYTE      TCON
      000000E8H.1 SFRSYM    DATA     BIT       gpio_wheel_x_front_backward
      000000E8H.5 SFRSYM    DATA     BIT       gpio_wheel_x_rear_backward
      00000098H   SFRSYM    DATA     BYTE      SCON
      000000F1H   SFRSYM    DATA     BYTE      CANICR
      00000087H   SFRSYM    DATA     BYTE      PCON
      000000BCH   SFRSYM    DATA     BYTE      ADC_CONTR
      000000E7H   SFRSYM    DATA     BYTE      CMPCR2
      000000E6H   SFRSYM    DATA     BYTE      CMPCR1
      000000B8H   SFRSYM    DATA     BYTE      IP
      0000008FH   SFRSYM    DATA     BYTE      INTCLKO
      000000EEH   SFRSYM    DATA     BYTE      IP3H
      000000B6H   SFRSYM    DATA     BYTE      IP2H
      000000A8H   SFRSYM    DATA     BYTE      IE
      000000BBH   SFRSYM    DATA     BYTE      P_SW3
      000000BAH   SFRSYM    DATA     BYTE      P_SW2
      000000A2H   SFRSYM    DATA     BYTE      P_SW1
      000000CEH   SFRSYM    DATA     BYTE      SPCTL
      000000F8H   SFRSYM    DATA     BYTE      P7
      000000E8H   SFRSYM    DATA     BYTE      P6
      000000C8H   SFRSYM    DATA     BYTE      P5
      000000C0H   SFRSYM    DATA     BYTE      P4
      000000B0H   SFRSYM    DATA     BYTE      P3
      000000A0H   SFRSYM    DATA     BYTE      P2
      00000090H   SFRSYM    DATA     BYTE      P1
      00000080H   SFRSYM    DATA     BYTE      P0

      00FF5949H   BLOCK     CODE     ---       LVL=0
      00000B47H   SYMBOL    EDATA    INT       wheel_select
      00000B49H   SYMBOL    EDATA    INT       wheel_direction
      00FF5949H   LINE      CODE     ---       #26
      00FF5951H   LINE      CODE     ---       #28
      00FF5981H   LINE      CODE     ---       #30
      00FF5981H   LINE      CODE     ---       #31
      00FF598BH   LINE      CODE     ---       #33
      00FF598EH   LINE      CODE     ---       #34
      00FF5991H   LINE      CODE     ---       #35
      00FF5994H   LINE      CODE     ---       #36
      00FF59A0H   LINE      CODE     ---       #38
      00FF59A3H   LINE      CODE     ---       #39
      00FF59A6H   LINE      CODE     ---       #40
      00FF59A9H   LINE      CODE     ---       #41
      00FF59B8H   LINE      CODE     ---       #43
      00FF59BBH   LINE      CODE     ---       #44
      00FF59BEH   LINE      CODE     ---       #45
      00FF59BEH   LINE      CODE     ---       #46
      00FF59C1H   LINE      CODE     ---       #47
      00FF59C1H   LINE      CODE     ---       #48
      00FF59CBH   LINE      CODE     ---       #50
      00FF59CEH   LINE      CODE     ---       #51
      00FF59D1H   LINE      CODE     ---       #52
      00FF59D4H   LINE      CODE     ---       #53
      00FF59E0H   LINE      CODE     ---       #55
      00FF59E3H   LINE      CODE     ---       #56
      00FF59E6H   LINE      CODE     ---       #57
      00FF59E9H   LINE      CODE     ---       #58
      00FF59F8H   LINE      CODE     ---       #60
      00FF59FBH   LINE      CODE     ---       #61
      00FF59FEH   LINE      CODE     ---       #62
      00FF59FEH   LINE      CODE     ---       #63
      00FF5A01H   LINE      CODE     ---       #64
L251 LINKER/LOCATER V4.66.93.0                                                        05/03/2024  16:07:18  PAGE 116


      00FF5A01H   LINE      CODE     ---       #65
      00FF5A0BH   LINE      CODE     ---       #67
      00FF5A0EH   LINE      CODE     ---       #68
      00FF5A11H   LINE      CODE     ---       #69
      00FF5A14H   LINE      CODE     ---       #70
      00FF5A17H   LINE      CODE     ---       #71
      00FF5A1AH   LINE      CODE     ---       #72
      00FF5A26H   LINE      CODE     ---       #74
      00FF5A29H   LINE      CODE     ---       #75
      00FF5A2CH   LINE      CODE     ---       #76
      00FF5A2FH   LINE      CODE     ---       #77
      00FF5A32H   LINE      CODE     ---       #78
      00FF5A35H   LINE      CODE     ---       #79
      00FF5A44H   LINE      CODE     ---       #81
      00FF5A47H   LINE      CODE     ---       #82
      00FF5A4AH   LINE      CODE     ---       #83
      00FF5A4DH   LINE      CODE     ---       #84
      00FF5A50H   LINE      CODE     ---       #85
      00FF5A50H   LINE      CODE     ---       #86
      00FF5A53H   LINE      CODE     ---       #87
      00FF5A53H   LINE      CODE     ---       #88
      00FF5A5DH   LINE      CODE     ---       #90
      00FF5A60H   LINE      CODE     ---       #91
      00FF5A63H   LINE      CODE     ---       #92
      00FF5A66H   LINE      CODE     ---       #93
      00FF5A72H   LINE      CODE     ---       #95
      00FF5A75H   LINE      CODE     ---       #96
      00FF5A78H   LINE      CODE     ---       #97
      00FF5A7BH   LINE      CODE     ---       #98
      00FF5A8AH   LINE      CODE     ---       #100
      00FF5A8DH   LINE      CODE     ---       #101
      00FF5A90H   LINE      CODE     ---       #102
      00FF5A90H   LINE      CODE     ---       #103
      00FF5A93H   LINE      CODE     ---       #104
      00FF5A93H   LINE      CODE     ---       #105
      00FF5A9DH   LINE      CODE     ---       #107
      00FF5AA0H   LINE      CODE     ---       #108
      00FF5AA3H   LINE      CODE     ---       #109
      00FF5AA6H   LINE      CODE     ---       #110
      00FF5AB2H   LINE      CODE     ---       #112
      00FF5AB5H   LINE      CODE     ---       #113
      00FF5AB8H   LINE      CODE     ---       #114
      00FF5ABBH   LINE      CODE     ---       #115
      00FF5ACAH   LINE      CODE     ---       #117
      00FF5ACDH   LINE      CODE     ---       #118
      00FF5AD0H   LINE      CODE     ---       #119
      00FF5AD0H   LINE      CODE     ---       #120
      00FF5AD3H   LINE      CODE     ---       #121
      00FF5AD3H   LINE      CODE     ---       #122
      00FF5ADDH   LINE      CODE     ---       #124
      00FF5AE0H   LINE      CODE     ---       #125
      00FF5AE3H   LINE      CODE     ---       #126
      00FF5AE6H   LINE      CODE     ---       #127
      00FF5AE9H   LINE      CODE     ---       #128
      00FF5AECH   LINE      CODE     ---       #129
      00FF5AF8H   LINE      CODE     ---       #131
      00FF5AFBH   LINE      CODE     ---       #132
      00FF5AFEH   LINE      CODE     ---       #133
      00FF5B01H   LINE      CODE     ---       #134
      00FF5B04H   LINE      CODE     ---       #135
      00FF5B07H   LINE      CODE     ---       #136
      00FF5B13H   LINE      CODE     ---       #138
      00FF5B16H   LINE      CODE     ---       #139
      00FF5B19H   LINE      CODE     ---       #140
      00FF5B1CH   LINE      CODE     ---       #141
L251 LINKER/LOCATER V4.66.93.0                                                        05/03/2024  16:07:18  PAGE 117


      00FF5B1FH   LINE      CODE     ---       #142
      00FF5B1FH   LINE      CODE     ---       #143
      00FF5B21H   LINE      CODE     ---       #144
      00FF5B21H   LINE      CODE     ---       #145
      00FF5B2BH   LINE      CODE     ---       #147
      00FF5B2EH   LINE      CODE     ---       #148
      00FF5B31H   LINE      CODE     ---       #149
      00FF5B34H   LINE      CODE     ---       #150
      00FF5B37H   LINE      CODE     ---       #151
      00FF5B3AH   LINE      CODE     ---       #152
      00FF5B3DH   LINE      CODE     ---       #153
      00FF5B40H   LINE      CODE     ---       #154
      00FF5B43H   LINE      CODE     ---       #155
      00FF5B45H   LINE      CODE     ---       #156
      00FF5B51H   LINE      CODE     ---       #158
      00FF5B54H   LINE      CODE     ---       #159
      00FF5B57H   LINE      CODE     ---       #160
      00FF5B5AH   LINE      CODE     ---       #161
      00FF5B5DH   LINE      CODE     ---       #162
      00FF5B60H   LINE      CODE     ---       #163
      00FF5B63H   LINE      CODE     ---       #164
      00FF5B66H   LINE      CODE     ---       #165
      00FF5B69H   LINE      CODE     ---       #166
      00FF5B6BH   LINE      CODE     ---       #167
      00FF5B77H   LINE      CODE     ---       #169
      00FF5B7AH   LINE      CODE     ---       #170
      00FF5B7DH   LINE      CODE     ---       #171
      00FF5B80H   LINE      CODE     ---       #172
      00FF5B83H   LINE      CODE     ---       #173
      00FF5B86H   LINE      CODE     ---       #174
      00FF5B89H   LINE      CODE     ---       #175
      00FF5B8CH   LINE      CODE     ---       #176
      00FF5B8FH   LINE      CODE     ---       #177
      00FF5B8FH   LINE      CODE     ---       #178
      00FF5B8FH   LINE      CODE     ---       #179
      00FF5B8FH   LINE      CODE     ---       #180
      00FF5B8FH   LINE      CODE     ---       #181
      00FF5B8FH   LINE      CODE     ---       #182
      ---         BLOCKEND  ---      ---       LVL=0

      00FF5F1DH   BLOCK     CODE     ---       LVL=0
      00000A8CH   SYMBOL    EDATA    INT       wheel_select
      00000A8EH   SYMBOL    EDATA    INT       speed
      00FF5F25H   BLOCK     CODE     NEAR LAB  LVL=1
      00000A90H   SYMBOL    EDATA    WORD      pwm_duty_value
      ---         BLOCKEND  ---      ---       LVL=1
      00FF5F1DH   LINE      CODE     ---       #193
      00FF5F25H   LINE      CODE     ---       #194
      00FF5F25H   LINE      CODE     ---       #198
      00FF5F3AH   LINE      CODE     ---       #199
      00FF5F51H   LINE      CODE     ---       #200
      00FF5F5CH   LINE      CODE     ---       #203
      00FF5F70H   LINE      CODE     ---       #204
      00FF5F7EH   LINE      CODE     ---       #207
      00FF5F94H   LINE      CODE     ---       #208
      00FF5FA8H   LINE      CODE     ---       #210
      00FF5FD0H   LINE      CODE     ---       #212
      00FF5FD0H   LINE      CODE     ---       #213
      00FF5FDDH   LINE      CODE     ---       #214
      00FF5FE0H   LINE      CODE     ---       #216
      00FF5FE0H   LINE      CODE     ---       #217
      00FF5FEDH   LINE      CODE     ---       #218
      00FF5FF0H   LINE      CODE     ---       #220
      00FF5FF0H   LINE      CODE     ---       #221
      00FF5FFDH   LINE      CODE     ---       #222
L251 LINKER/LOCATER V4.66.93.0                                                        05/03/2024  16:07:18  PAGE 118


      00FF600AH   LINE      CODE     ---       #223
      00FF600CH   LINE      CODE     ---       #225
      00FF600CH   LINE      CODE     ---       #226
      00FF6019H   LINE      CODE     ---       #227
      00FF601BH   LINE      CODE     ---       #229
      00FF601BH   LINE      CODE     ---       #230
      00FF6028H   LINE      CODE     ---       #231
      00FF602AH   LINE      CODE     ---       #233
      00FF602AH   LINE      CODE     ---       #234
      00FF6037H   LINE      CODE     ---       #235
      00FF6044H   LINE      CODE     ---       #236
      00FF6046H   LINE      CODE     ---       #238
      00FF6046H   LINE      CODE     ---       #239
      00FF6053H   LINE      CODE     ---       #240
      00FF6060H   LINE      CODE     ---       #241
      00FF606DH   LINE      CODE     ---       #242
      00FF607AH   LINE      CODE     ---       #243
      00FF607AH   LINE      CODE     ---       #245
      00FF607AH   LINE      CODE     ---       #246
      00FF607AH   LINE      CODE     ---       #247
      00FF607AH   LINE      CODE     ---       #248
      ---         BLOCKEND  ---      ---       LVL=0
      00000A92H   SYMBOL    EDATA    INT       wheel_select
      00000A94H   SYMBOL    EDATA    WORD      speed
      00000A96H   SYMBOL    EDATA    WORD      pwm_duty_value

      00FF8294H   BLOCK     CODE     ---       LVL=0
      00FF8294H   LINE      CODE     ---       #304
      00FF8294H   LINE      CODE     ---       #306
      00FF829DH   LINE      CODE     ---       #307
      00FF82A8H   LINE      CODE     ---       #308
      00FF82B3H   LINE      CODE     ---       #309
      00FF82BEH   LINE      CODE     ---       #310
      ---         BLOCKEND  ---      ---       LVL=0

      00FF8095H   BLOCK     CODE     ---       LVL=0
      00FF8095H   LINE      CODE     ---       #317
      00FF8095H   LINE      CODE     ---       #319
      00FF80A4H   LINE      CODE     ---       #320
      00FF80B4H   LINE      CODE     ---       #321
      00FF80C3H   LINE      CODE     ---       #322
      00FF80D3H   LINE      CODE     ---       #323
      ---         BLOCKEND  ---      ---       LVL=0

      00FF7A92H   BLOCK     CODE     ---       LVL=0
      00FF7A92H   LINE      CODE     ---       #325
      00FF7A92H   LINE      CODE     ---       #327
      00FF7AA7H   LINE      CODE     ---       #328
      00FF7ABCH   LINE      CODE     ---       #329
      00FF7AD1H   LINE      CODE     ---       #330
      00FF7AE6H   LINE      CODE     ---       #331
      ---         BLOCKEND  ---      ---       LVL=0

      ---         MODULE    ---      ---       qmc5883
      0000015EH   PUBLIC    EDATA    ---       qmccmd_set_uart_baudrate_115200
      00000168H   PUBLIC    EDATA    ---       qmccmd_set_uart_baudrate_460800
      00000172H   PUBLIC    EDATA    ---       qmccmd_set_measure_rate
      0000017CH   PUBLIC    EDATA    ---       qmccmd_init_sensor
      00000184H   PUBLIC    EDATA    ---       qmccmd_set_filter_value
      0000018DH   PUBLIC    EDATA    ---       qmccmd_stop_calibration
      00000197H   PUBLIC    EDATA    ---       qmc5883_data
      000001D7H   PUBLIC    EDATA    ---       qmccmd_disable_filter
      000001E1H   PUBLIC    EDATA    ---       qmccmd_get_device_id
      000001E9H   PUBLIC    EDATA    ---       qmccmd_set_uart_baudrate_9600
      000001F3H   PUBLIC    EDATA    ---       qmccmd_set_device_id
L251 LINKER/LOCATER V4.66.93.0                                                        05/03/2024  16:07:18  PAGE 119


      000001FAH   PUBLIC    EDATA    INT       qmc5883_magx
      000001FCH   PUBLIC    EDATA    ---       qmc5883_char_magx
      00000206H   PUBLIC    EDATA    INT       qmc5883_magy
      00000208H   PUBLIC    EDATA    ---       qmc5883_char_magy
      00000212H   PUBLIC    EDATA    INT       qmc5883_magz
      00000214H   PUBLIC    EDATA    ---       qmc5883_char_magz
      0000021EH   PUBLIC    EDATA    FLOAT     qmc5883_yaw
      00000222H   PUBLIC    EDATA    ---       qmc5883_char_yaw
      0000022CH   PUBLIC    EDATA    ---       qmc5883_cmd_buf
      0000024CH   PUBLIC    EDATA    ---       qmccmd_clear_mag_offset
      00000256H   PUBLIC    EDATA    ---       qmccmd_set_single_measure_mode
      00000261H   PUBLIC    EDATA    ---       qmccmd_check_connection
      00000264H   PUBLIC    EDATA    ---       qmccmd_start_calibration
      000000D0H   SFRSYM    DATA     BYTE      PSW
      0000009DH   SFRSYM    DATA     BYTE      IRCBAND
      00000097H   SFRSYM    DATA     BYTE      AUXR2
      000000EFH   SFRSYM    DATA     BYTE      AUXINTIF
      000000FDH   SFRSYM    DATA     BYTE      S4CON
      000000ACH   SFRSYM    DATA     BYTE      S3CON
      0000009AH   SFRSYM    DATA     BYTE      S2CON
      000000B7H   SFRSYM    DATA     BYTE      IPH
      000000CDH   SFRSYM    DATA     BYTE      SPSTAT
      000000DDH   SFRSYM    DATA     BYTE      T4T3M
      000000C1H   SFRSYM    DATA     BYTE      WDT_CONTR
      000000DFH   SFRSYM    DATA     BYTE      IP3
      000000F4H   SFRSYM    DATA     BYTE      USBCON
      000000B5H   SFRSYM    DATA     BYTE      IP2
      000000FFH   SFRSYM    DATA     BYTE      RSTCFG
      000000F9H   SFRSYM    DATA     BYTE      LINICR
      0000008EH   SFRSYM    DATA     BYTE      AUXR
      000000AFH   SFRSYM    DATA     BYTE      IE2
      00000088H   SFRSYM    DATA     BYTE      TCON
      00000098H   SFRSYM    DATA     BYTE      SCON
      000000F1H   SFRSYM    DATA     BYTE      CANICR
      00000087H   SFRSYM    DATA     BYTE      PCON
      000000BCH   SFRSYM    DATA     BYTE      ADC_CONTR
      000000E7H   SFRSYM    DATA     BYTE      CMPCR2
      000000E6H   SFRSYM    DATA     BYTE      CMPCR1
      000000B8H   SFRSYM    DATA     BYTE      IP
      0000008FH   SFRSYM    DATA     BYTE      INTCLKO
      000000EEH   SFRSYM    DATA     BYTE      IP3H
      000000B6H   SFRSYM    DATA     BYTE      IP2H
      000000A8H   SFRSYM    DATA     BYTE      IE
      000000BBH   SFRSYM    DATA     BYTE      P_SW3
      000000BAH   SFRSYM    DATA     BYTE      P_SW2
      000000A2H   SFRSYM    DATA     BYTE      P_SW1
      000000CEH   SFRSYM    DATA     BYTE      SPCTL
      000000F8H   SFRSYM    DATA     BYTE      P7
      000000E8H   SFRSYM    DATA     BYTE      P6
      000000C8H   SFRSYM    DATA     BYTE      P5
      000000C0H   SFRSYM    DATA     BYTE      P4
      000000B0H   SFRSYM    DATA     BYTE      P3
      000000A0H   SFRSYM    DATA     BYTE      P2
      00000090H   SFRSYM    DATA     BYTE      P1
      00000080H   SFRSYM    DATA     BYTE      P0
      00000869H   SYMBOL    EDATA    ---       str
      0000086DH   SYMBOL    EDATA    INT       result
      0000086FH   SYMBOL    EDATA    INT       sign
      00000871H   SYMBOL    EDATA    INT       i
      0000062CH   SYMBOL    EDATA    ---       str
      00000630H   SYMBOL    EDATA    FLOAT     integerPart
      00000634H   SYMBOL    EDATA    FLOAT     decimalPart
      00000638H   SYMBOL    EDATA    FLOAT     decimalPlace
      0000063CH   SYMBOL    EDATA    INT       sign
      0000063EH   SYMBOL    EDATA    INT       i
L251 LINKER/LOCATER V4.66.93.0                                                        05/03/2024  16:07:18  PAGE 120


      00000640H   SYMBOL    EDATA    INT       state
      000008FAH   SYMBOL    EDATA    ---       dat
      000008FEH   SYMBOL    EDATA    INT       i
      00000900H   SYMBOL    EDATA    INT       j
      00000902H   SYMBOL    EDATA    CHAR      counter

      ---         MODULE    ---      ---       servo
      00FF79E4H   PUBLIC    CODE     ---       servo_claw_get_duty
      00FF853DH   PUBLIC    CODE     ---       servo_pitch_set_angle
      00FF80D4H   PUBLIC    CODE     ---       servo_init
      00FF8556H   PUBLIC    CODE     ---       servo_claw_set_angle
      00FF856FH   PUBLIC    CODE     ---       servo_pan_set_angle
      00FF7A3BH   PUBLIC    CODE     ---       servo_pitch_get_duty
      000000D0H   SFRSYM    DATA     BYTE      PSW
      0000009DH   SFRSYM    DATA     BYTE      IRCBAND
      00000097H   SFRSYM    DATA     BYTE      AUXR2
      000000EFH   SFRSYM    DATA     BYTE      AUXINTIF
      000000FDH   SFRSYM    DATA     BYTE      S4CON
      000000ACH   SFRSYM    DATA     BYTE      S3CON
      0000009AH   SFRSYM    DATA     BYTE      S2CON
      000000B7H   SFRSYM    DATA     BYTE      IPH
      000000CDH   SFRSYM    DATA     BYTE      SPSTAT
      000000DDH   SFRSYM    DATA     BYTE      T4T3M
      000000C1H   SFRSYM    DATA     BYTE      WDT_CONTR
      000000DFH   SFRSYM    DATA     BYTE      IP3
      000000F4H   SFRSYM    DATA     BYTE      USBCON
      000000B5H   SFRSYM    DATA     BYTE      IP2
      000000FFH   SFRSYM    DATA     BYTE      RSTCFG
      000000F9H   SFRSYM    DATA     BYTE      LINICR
      0000008EH   SFRSYM    DATA     BYTE      AUXR
      000000AFH   SFRSYM    DATA     BYTE      IE2
      00000088H   SFRSYM    DATA     BYTE      TCON
      00000098H   SFRSYM    DATA     BYTE      SCON
      000000F1H   SFRSYM    DATA     BYTE      CANICR
      00000087H   SFRSYM    DATA     BYTE      PCON
      000000BCH   SFRSYM    DATA     BYTE      ADC_CONTR
      000000E7H   SFRSYM    DATA     BYTE      CMPCR2
      000000E6H   SFRSYM    DATA     BYTE      CMPCR1
      000000B8H   SFRSYM    DATA     BYTE      IP
      0000008FH   SFRSYM    DATA     BYTE      INTCLKO
      000000EEH   SFRSYM    DATA     BYTE      IP3H
      000000B6H   SFRSYM    DATA     BYTE      IP2H
      000000A8H   SFRSYM    DATA     BYTE      IE
      000000BBH   SFRSYM    DATA     BYTE      P_SW3
      000000BAH   SFRSYM    DATA     BYTE      P_SW2
      000000A2H   SFRSYM    DATA     BYTE      P_SW1
      000000CEH   SFRSYM    DATA     BYTE      SPCTL
      000000F8H   SFRSYM    DATA     BYTE      P7
      000000E8H   SFRSYM    DATA     BYTE      P6
      000000C8H   SFRSYM    DATA     BYTE      P5
      000000C0H   SFRSYM    DATA     BYTE      P4
      000000B0H   SFRSYM    DATA     BYTE      P3
      000000A0H   SFRSYM    DATA     BYTE      P2
      00000090H   SFRSYM    DATA     BYTE      P1
      00000080H   SFRSYM    DATA     BYTE      P0

      00FF79E4H   BLOCK     CODE     ---       LVL=0
      00000A98H   SYMBOL    EDATA    FLOAT     angle
      00FF79E8H   BLOCK     CODE     NEAR LAB  LVL=1
      00000A9CH   SYMBOL    EDATA    WORD      duty
      ---         BLOCKEND  ---      ---       LVL=1
      00FF79E4H   LINE      CODE     ---       #19
      00FF79E8H   LINE      CODE     ---       #20
      00FF79E8H   LINE      CODE     ---       #23
      00FF79FBH   LINE      CODE     ---       #24
L251 LINKER/LOCATER V4.66.93.0                                                        05/03/2024  16:07:18  PAGE 121


      00FF7A14H   LINE      CODE     ---       #25
      00FF7A3AH   LINE      CODE     ---       #26
      00FF7A3AH   LINE      CODE     ---       #27
      ---         BLOCKEND  ---      ---       LVL=0

      00FF7A3BH   BLOCK     CODE     ---       LVL=0
      00000A9EH   SYMBOL    EDATA    FLOAT     angle
      00FF7A3FH   BLOCK     CODE     NEAR LAB  LVL=1
      00000AA2H   SYMBOL    EDATA    WORD      duty
      ---         BLOCKEND  ---      ---       LVL=1
      00FF7A3BH   LINE      CODE     ---       #37
      00FF7A3FH   LINE      CODE     ---       #38
      00FF7A3FH   LINE      CODE     ---       #41
      00FF7A52H   LINE      CODE     ---       #42
      00FF7A6BH   LINE      CODE     ---       #43
      00FF7A91H   LINE      CODE     ---       #44
      00FF7A91H   LINE      CODE     ---       #45
      ---         BLOCKEND  ---      ---       LVL=0
      00000AA4H   SYMBOL    EDATA    FLOAT     angle
      00000AA8H   SYMBOL    EDATA    WORD      duty

      00FF80D4H   BLOCK     CODE     ---       LVL=0
      00FF80D4H   LINE      CODE     ---       #65
      00FF80D4H   LINE      CODE     ---       #67
      00FF80E7H   LINE      CODE     ---       #68
      00FF80FAH   LINE      CODE     ---       #69
      00FF810DH   LINE      CODE     ---       #70
      ---         BLOCKEND  ---      ---       LVL=0

      00FF8556H   BLOCK     CODE     ---       LVL=0
      00000AAAH   SYMBOL    EDATA    FLOAT     angle
      00FF855AH   BLOCK     CODE     NEAR LAB  LVL=1
      00000AAEH   SYMBOL    EDATA    WORD      duty
      ---         BLOCKEND  ---      ---       LVL=1
      00FF8556H   LINE      CODE     ---       #72
      00FF855AH   LINE      CODE     ---       #73
      00FF855AH   LINE      CODE     ---       #74
      00FF8561H   LINE      CODE     ---       #75
      00FF856EH   LINE      CODE     ---       #76
      ---         BLOCKEND  ---      ---       LVL=0

      00FF853DH   BLOCK     CODE     ---       LVL=0
      00000AB0H   SYMBOL    EDATA    FLOAT     angle
      00FF8541H   BLOCK     CODE     NEAR LAB  LVL=1
      00000AB4H   SYMBOL    EDATA    WORD      duty
      ---         BLOCKEND  ---      ---       LVL=1
      00FF853DH   LINE      CODE     ---       #78
      00FF8541H   LINE      CODE     ---       #79
      00FF8541H   LINE      CODE     ---       #80
      00FF8548H   LINE      CODE     ---       #81
      00FF8555H   LINE      CODE     ---       #82
      ---         BLOCKEND  ---      ---       LVL=0

      00FF856FH   BLOCK     CODE     ---       LVL=0
      00000AB6H   SYMBOL    EDATA    FLOAT     angle
      00FF8573H   BLOCK     CODE     NEAR LAB  LVL=1
      00000ABAH   SYMBOL    EDATA    WORD      duty
      ---         BLOCKEND  ---      ---       LVL=1
      00FF856FH   LINE      CODE     ---       #84
      00FF8573H   LINE      CODE     ---       #85
      00FF8573H   LINE      CODE     ---       #86
      00FF857AH   LINE      CODE     ---       #87
      00FF8587H   LINE      CODE     ---       #88
      ---         BLOCKEND  ---      ---       LVL=0

L251 LINKER/LOCATER V4.66.93.0                                                        05/03/2024  16:07:18  PAGE 122


      ---         MODULE    ---      ---       stepper

      ---         MODULE    ---      ---       wt61
      00FF50A9H   PUBLIC    CODE     ---       wt61_data_parse
      00000481H   PUBLIC    EDATA    ---       wt61_cmd_calibrate_acc
      00000484H   PUBLIC    EDATA    FLOAT     acc_x
      00000488H   PUBLIC    EDATA    FLOAT     acc_y
      0000048CH   PUBLIC    EDATA    FLOAT     acc_z
      00000490H   PUBLIC    EDATA    FLOAT     x_roll
      00000494H   PUBLIC    EDATA    ---       wt61_cmd_set_band_10Hz
      00000497H   PUBLIC    EDATA    ---       wt61_cmd_set_band_20Hz
      0000049AH   PUBLIC    EDATA    ---       wt61_cmd_set_band_42Hz
      0000049DH   PUBLIC    EDATA    FLOAT     gyro_x
      000004A1H   PUBLIC    EDATA    FLOAT     gyro_y
      000004A5H   PUBLIC    EDATA    FLOAT     gyro_z
      000004A9H   PUBLIC    EDATA    ---       wt61_cmd_set_band_98Hz
      000004ACH   PUBLIC    EDATA    FLOAT     z_yaw
      000004B0H   PUBLIC    EDATA    ---       wt61_cmd_set_axis_z_zero
      000004B3H   PUBLIC    EDATA    FLOAT     temperature
      000004B7H   PUBLIC    EDATA    ---       wt61_cmd_set_iic_mode
      000004BAH   PUBLIC    EDATA    ---       wt61_cmd_set_uart_mode
      000004BDH   PUBLIC    EDATA    ---       wt61_cmd_set_uart_115200
      000004C0H   PUBLIC    EDATA    ---       wt61_cmd_set_horizontal
      000004C3H   PUBLIC    EDATA    ---       wt61_cmd_set_band_265Hz
      000004C6H   PUBLIC    EDATA    ---       wt61_cmd_set_band_188Hz
      000004C9H   PUBLIC    EDATA    ---       wt61_cmd_set_vertical
      000004CCH   PUBLIC    EDATA    ---       wt61_cmd_set_uart_9600
      000004CFH   PUBLIC    EDATA    ---       wt61_cmd_set_band_5Hz
      000004D2H   PUBLIC    EDATA    ---       wt61_cmd_switch_power
      000004D5H   PUBLIC    EDATA    FLOAT     y_pitch
      00000022H.6 PUBLIC    BIT      BIT       wt61_oled_disp_flag
      000000D0H   SFRSYM    DATA     BYTE      PSW
      0000009DH   SFRSYM    DATA     BYTE      IRCBAND
      00000097H   SFRSYM    DATA     BYTE      AUXR2
      000000EFH   SFRSYM    DATA     BYTE      AUXINTIF
      000000FDH   SFRSYM    DATA     BYTE      S4CON
      000000ACH   SFRSYM    DATA     BYTE      S3CON
      0000009AH   SFRSYM    DATA     BYTE      S2CON
      000000B7H   SFRSYM    DATA     BYTE      IPH
      000000CDH   SFRSYM    DATA     BYTE      SPSTAT
      000000DDH   SFRSYM    DATA     BYTE      T4T3M
      000000C1H   SFRSYM    DATA     BYTE      WDT_CONTR
      000000DFH   SFRSYM    DATA     BYTE      IP3
      000000F4H   SFRSYM    DATA     BYTE      USBCON
      000000B5H   SFRSYM    DATA     BYTE      IP2
      000000FFH   SFRSYM    DATA     BYTE      RSTCFG
      000000F9H   SFRSYM    DATA     BYTE      LINICR
      0000008EH   SFRSYM    DATA     BYTE      AUXR
      000000AFH   SFRSYM    DATA     BYTE      IE2
      00000088H   SFRSYM    DATA     BYTE      TCON
      00000098H   SFRSYM    DATA     BYTE      SCON
      000000F1H   SFRSYM    DATA     BYTE      CANICR
      00000087H   SFRSYM    DATA     BYTE      PCON
      000000BCH   SFRSYM    DATA     BYTE      ADC_CONTR
      000000E7H   SFRSYM    DATA     BYTE      CMPCR2
      000000E6H   SFRSYM    DATA     BYTE      CMPCR1
      000000B8H   SFRSYM    DATA     BYTE      IP
      0000008FH   SFRSYM    DATA     BYTE      INTCLKO
      000000EEH   SFRSYM    DATA     BYTE      IP3H
      000000B6H   SFRSYM    DATA     BYTE      IP2H
      000000A8H   SFRSYM    DATA     BYTE      IE
      000000BBH   SFRSYM    DATA     BYTE      P_SW3
      000000BAH   SFRSYM    DATA     BYTE      P_SW2
      000000A2H   SFRSYM    DATA     BYTE      P_SW1
      000000CEH   SFRSYM    DATA     BYTE      SPCTL
L251 LINKER/LOCATER V4.66.93.0                                                        05/03/2024  16:07:18  PAGE 123


      000000F8H   SFRSYM    DATA     BYTE      P7
      000000E8H   SFRSYM    DATA     BYTE      P6
      000000C8H   SFRSYM    DATA     BYTE      P5
      000000C0H   SFRSYM    DATA     BYTE      P4
      000000B0H   SFRSYM    DATA     BYTE      P3
      000000A0H   SFRSYM    DATA     BYTE      P2
      00000090H   SFRSYM    DATA     BYTE      P1
      00000080H   SFRSYM    DATA     BYTE      P0

      00FF50A9H   BLOCK     CODE     ---       LVL=0
      00000B4BH   SYMBOL    EDATA    ---       buf
      00FF50A9H   LINE      CODE     ---       #39
      00FF50ADH   LINE      CODE     ---       #41
      00FF50BCH   LINE      CODE     ---       #43
      00FF50D9H   LINE      CODE     ---       #45
      00FF50D9H   LINE      CODE     ---       #46
      00FF511CH   LINE      CODE     ---       #47
      00FF515FH   LINE      CODE     ---       #48
      00FF51A4H   LINE      CODE     ---       #49
      00FF51EEH   LINE      CODE     ---       #50
      00FF520BH   LINE      CODE     ---       #51
      00FF520EH   LINE      CODE     ---       #52
      00FF520EH   LINE      CODE     ---       #53
      00FF5247H   LINE      CODE     ---       #54
      00FF5280H   LINE      CODE     ---       #55
      00FF52BBH   LINE      CODE     ---       #56
      00FF52D8H   LINE      CODE     ---       #57
      00FF52DBH   LINE      CODE     ---       #58
      00FF52DBH   LINE      CODE     ---       #59
      00FF5314H   LINE      CODE     ---       #60
      00FF534DH   LINE      CODE     ---       #61
      00FF5388H   LINE      CODE     ---       #62
      00FF53A2H   LINE      CODE     ---       #63
      00FF53A2H   LINE      CODE     ---       #64
      00FF53A2H   LINE      CODE     ---       #65
      00FF53A2H   LINE      CODE     ---       #66
      00FF53A2H   LINE      CODE     ---       #67
      ---         BLOCKEND  ---      ---       LVL=0

      ---         MODULE    ---      ---       SEEKFREE_CONFIG
      00FF0096H   PUBLIC    CODE     ---       dl1b_default_configuration
      00FF011DH   PUBLIC    CODE     ---       imu660ra_config_file

      ---         MODULE    ---      ---       ?C?FPADD
      00FF2F2BH   PUBLIC    CODE     ---       ?C?FPADD
      00FF2F28H   PUBLIC    CODE     ---       ?C?FPSUB

      ---         MODULE    ---      ---       ?C?FPMUL
      00FF2FE3H   PUBLIC    CODE     ---       ?C?FPMUL

      ---         MODULE    ---      ---       ?C?FPDIV
      00FF3083H   PUBLIC    CODE     ---       ?C?FPDIV

      ---         MODULE    ---      ---       ?C?FPCMP
      00FF3106H   PUBLIC    CODE     ---       ?C?FPCMP
      00FF3104H   PUBLIC    CODE     ---       ?C?FPCMP3

      ---         MODULE    ---      ---       ?C?FCAST
      00FF3154H   PUBLIC    CODE     NEAR LAB  ?C?FCASTC
      00FF314FH   PUBLIC    CODE     NEAR LAB  ?C?FCASTI
      00FF314AH   PUBLIC    CODE     NEAR LAB  ?C?FCASTL

      ---         MODULE    ---      ---       ?C?CASTF
      00FF3187H   PUBLIC    CODE     NEAR LAB  ?C?CASTF

L251 LINKER/LOCATER V4.66.93.0                                                        05/03/2024  16:07:18  PAGE 124


      ---         MODULE    ---      ---       PRINTF
      00FF31C4H   PUBLIC    CODE     NEAR LAB  PRINTF

      ---         MODULE    ---      ---       ATOF?_
      00FF31F0H   PUBLIC    CODE     NEAR LAB  ATOF?_

      ---         MODULE    ---      ---       ?C?FPGETOPN
      00FF320FH   PUBLIC    CODE     ---       ?C?FPGETOPN2
      00FF324CH   PUBLIC    CODE     ---       ?C?FPNANRESULT
      00FF3254H   PUBLIC    CODE     ---       ?C?FPOVERFLOW
      00FF3228H   PUBLIC    CODE     ---       ?C?FPRESULT
      00FF323EH   PUBLIC    CODE     ---       ?C?FPRESULT2
      00FF3251H   PUBLIC    CODE     ---       ?C?FPUNDERFLOW

      ---         MODULE    ---      ---       ?C?ATOF
      00FF3260H   PUBLIC    CODE     NEAR LAB  ?C?FPATOF

      ---         MODULE    ---      ---       ?C?PRNFMT
      00FF3349H   PUBLIC    CODE     ---       ?C?PRNFMT

      ---         MODULE    ---      ---       ?C?FPNEG
      00FF3758H   PUBLIC    CODE     ---       ?C?FPNEG

      ---         MODULE    ---      ---       ?C?FTNPWR
      00FF3796H   PUBLIC    CODE     ---       ?C?FTNPWR

      ---         MODULE    ---      ---       ?C?FPCONVERT
      00FF37DBH   PUBLIC    CODE     ---       ?C?FPCONVERT
      00FF3893H   PUBLIC    CODE     ---       ?C?FPROUND

      ---         MODULE    ---      ---       ?C_START
      00FF0000H   PUBLIC    CODE     ---       ?C?STARTUP
      00FF0000H   PUBLIC    CODE     ---       ?C_STARTUP

      ---         MODULE    ---      ---       ?C?INITEDATA
      00FF7302H   PUBLIC    CODE     ---       ?C?INITEDATA

      ---         MODULE    ---      ---       ?C?INITHDATA
      00FF732BH   PUBLIC    CODE     ---       ?C?INITHDATA

      ---         MODULE    ---      ---       ?C?SIDIV
      00FF38D6H   PUBLIC    CODE     ---       ?C?SIDIV

      ---         MODULE    ---      ---       ?C?LMUL
      00FF3908H   PUBLIC    CODE     ---       ?C?LMUL

      ---         MODULE    ---      ---       ?C?LIMUL
      00FF3919H   PUBLIC    CODE     ---       ?C?LIMUL

      ---         MODULE    ---      ---       ?C?ULDIV
      00FF3924H   PUBLIC    CODE     NEAR LAB  ?C?ULDIV
      00FF3922H   PUBLIC    CODE     NEAR LAB  ?C?ULIDIV

      ---         MODULE    ---      ---       ?C?SLDIV
      00FF3975H   PUBLIC    CODE     NEAR LAB  ?C?SLDIV

      ---         MODULE    ---      ---       ISSPACE

      ---         MODULE    ---      ---       memcpy
      00FF83FCH   PUBLIC    CODE     ---       memcpy?_

      ---         MODULE    ---      ---       memset
      00FF8523H   PUBLIC    CODE     ---       memset?_

      ---         MODULE    ---      ---       ?C?INITEDATA_END
L251 LINKER/LOCATER V4.66.93.0                                                        05/03/2024  16:07:18  PAGE 125


      00FF89B2H   PUBLIC    HCONST   WORD      ?C?INITEDATA_END

      ---         MODULE    ---      ---       ?C?INITHDATA_END
      00FF8B41H   PUBLIC    HCONST   WORD      ?C?INITHDATA_END

Program Size: data=10.7 edata+hdata=3296 xdata=1757 const=1358 code=34461
L251 RUN COMPLETE.  0 WARNING(S),  0 ERROR(S)
