L251 LINKER/LOCATER V4.66.93.0                                                          05/04/2024  13:35:58  PAGE 1


L251 LINKER/LOCATER V4.66.93.0, INVOKED BY:
C:\KEIL_V5\C251\BIN\L251.EXE .\Out_File\board.obj, .\Out_File\common.obj, .\Out_File\zf_adc.obj, .\Out_File\zf_delay.obj
>> , .\Out_File\zf_eeprom.obj, .\Out_File\zf_exti.obj, .\Out_File\zf_gpio.obj, .\Out_File\zf_nvic.obj, .\Out_File\zf_pwm
>> .obj, .\Out_File\zf_spi.obj, .\Out_File\zf_tim.obj, .\Out_File\zf_uart.obj, .\Out_File\zf_fifo.obj, .\Out_File\zf_iic
>> .obj, .\Out_File\SEEKFREE_BLUETOOTH_CH9141.obj, Libraries\seekfree_peripheral\SEEKFREE_CONFIG.LIB, .\Out_File\SEEKFRE
>> E_FONT.obj, .\Out_File\SEEKFREE_OLED.obj, .\Out_File\SEEKFREE_PRINTF.obj, .\Out_File\SEEKFREE_WIRELESS.obj, .\Out_Fil
>> e\SEEKFREE_WIRELESS_CH573.obj, .\Out_File\main.obj, .\Out_File\uart.obj, .\Out_File\isr.obj, .\Out_File\key.obj, .\Ou
>> t_File\ui.obj, .\Out_File\host_comm.obj, .\Out_File\laser_ranging.obj, .\Out_File\motor_driver_boards.obj, .\Out_File
>> \qmc5883.obj, .\Out_File\servo.obj, .\Out_File\stepper.obj, .\Out_File\wt61.obj TO .\Out_File\SEEKFREE PRINT (.\Out_F
>> ile\SEEKFREE.map) CASE DISABLEWARNING (15, 16, 57) REMOVEUNUSED CLASSES (EDATA (0X0-0XFFF), HDATA (0X0-0XFFF))


CPU MODE:     251 SOURCE MODE
INTR FRAME:   2 BYTES SAVED ON INTERRUPT
MEMORY MODEL: XSMALL WITH FLOATING POINT ARITHMETIC


INPUT MODULES INCLUDED:
  .\Out_File\board.obj (board)
         COMMENT TYPE 0: C251 V5.60.0
  .\Out_File\common.obj (common)
         COMMENT TYPE 0: C251 V5.60.0
  .\Out_File\zf_adc.obj (zf_adc)
         COMMENT TYPE 0: C251 V5.60.0
  .\Out_File\zf_delay.obj (zf_delay)
         COMMENT TYPE 0: C251 V5.60.0
  .\Out_File\zf_eeprom.obj (zf_eeprom)
         COMMENT TYPE 0: C251 V5.60.0
  .\Out_File\zf_exti.obj (zf_exti)
         COMMENT TYPE 0: C251 V5.60.0
  .\Out_File\zf_gpio.obj (zf_gpio)
         COMMENT TYPE 0: C251 V5.60.0
  .\Out_File\zf_nvic.obj (zf_nvic)
         COMMENT TYPE 0: C251 V5.60.0
  .\Out_File\zf_pwm.obj (zf_pwm)
         COMMENT TYPE 0: C251 V5.60.0
  .\Out_File\zf_spi.obj (zf_spi)
         COMMENT TYPE 0: C251 V5.60.0
  .\Out_File\zf_tim.obj (zf_tim)
         COMMENT TYPE 0: C251 V5.60.0
  .\Out_File\zf_uart.obj (zf_uart)
         COMMENT TYPE 0: C251 V5.60.0
  .\Out_File\zf_fifo.obj (zf_fifo)
         COMMENT TYPE 0: C251 V5.60.0
  .\Out_File\zf_iic.obj (zf_iic)
         COMMENT TYPE 0: C251 V5.60.0
  .\Out_File\SEEKFREE_BLUETOOTH_CH9141.obj (SEEKFREE_BLUETOOTH_CH9141)
         COMMENT TYPE 0: C251 V5.60.0
  .\Out_File\SEEKFREE_FONT.obj (SEEKFREE_FONT)
         COMMENT TYPE 0: C251 V5.60.0
  .\Out_File\SEEKFREE_OLED.obj (SEEKFREE_OLED)
         COMMENT TYPE 0: C251 V5.60.0
  .\Out_File\SEEKFREE_PRINTF.obj (SEEKFREE_PRINTF)
         COMMENT TYPE 0: C251 V5.60.0
  .\Out_File\SEEKFREE_WIRELESS.obj (SEEKFREE_WIRELESS)
         COMMENT TYPE 0: C251 V5.60.0
  .\Out_File\SEEKFREE_WIRELESS_CH573.obj (SEEKFREE_WIRELESS_CH573)
         COMMENT TYPE 0: C251 V5.60.0
  .\Out_File\main.obj (main)
         COMMENT TYPE 0: C251 V5.60.0
  .\Out_File\uart.obj (uart)
         COMMENT TYPE 0: C251 V5.60.0
  .\Out_File\isr.obj (isr)
         COMMENT TYPE 0: C251 V5.60.0
  .\Out_File\key.obj (key)
         COMMENT TYPE 0: C251 V5.60.0
L251 LINKER/LOCATER V4.66.93.0                                                        05/04/2024  13:35:58  PAGE 2


  .\Out_File\ui.obj (ui)
         COMMENT TYPE 0: C251 V5.60.0
  .\Out_File\host_comm.obj (host_comm)
         COMMENT TYPE 0: C251 V5.60.0
  .\Out_File\laser_ranging.obj (laser_ranging)
         COMMENT TYPE 0: C251 V5.60.0
  .\Out_File\motor_driver_boards.obj (motor_driver_boards)
         COMMENT TYPE 0: C251 V5.60.0
  .\Out_File\qmc5883.obj (qmc5883)
         COMMENT TYPE 0: C251 V5.60.0
  .\Out_File\servo.obj (servo)
         COMMENT TYPE 0: C251 V5.60.0
  .\Out_File\stepper.obj (stepper)
         COMMENT TYPE 0: C251 V5.60.0
  .\Out_File\wt61.obj (wt61)
         COMMENT TYPE 0: C251 V5.60.0
  C:\KEIL_V5\C251\LIB\C2SFPXS.LIB (?C?FPADD)
         COMMENT TYPE 0: A251 V4.69.6.0
  C:\KEIL_V5\C251\LIB\C2SFPXS.LIB (?C?FPMUL)
         COMMENT TYPE 0: A251 V4.69.6.0
  C:\KEIL_V5\C251\LIB\C2SFPXS.LIB (?C?FPDIV)
         COMMENT TYPE 0: A251 V4.69.6.0
  C:\KEIL_V5\C251\LIB\C2SFPXS.LIB (?C?FPCMP)
         COMMENT TYPE 0: A251 V4.69.6.0
  C:\KEIL_V5\C251\LIB\C2SFPXS.LIB (?C?FCAST)
         COMMENT TYPE 0: A251 V4.69.6.0
  C:\KEIL_V5\C251\LIB\C2SFPXS.LIB (?C?CASTF)
         COMMENT TYPE 0: A251 V4.69.6.0
  C:\KEIL_V5\C251\LIB\C2SFPXS.LIB (ATOF?_)
         COMMENT TYPE 0: A251 V4.69.6.0
  C:\KEIL_V5\C251\LIB\C2SFPXS.LIB (?C?FPGETOPN)
         COMMENT TYPE 0: A251 V4.69.6.0
  C:\KEIL_V5\C251\LIB\C2SFPXS.LIB (?C?ATOF)
         COMMENT TYPE 0: A251 V4.69.6.0
  C:\KEIL_V5\C251\LIB\C2SFPXS.LIB (?C?FPNEG)
         COMMENT TYPE 0: A251 V4.69.6.0
  C:\KEIL_V5\C251\LIB\C2SFPXS.LIB (?C?FTNPWR)
         COMMENT TYPE 0: A251 V4.69.6.0
  C:\KEIL_V5\C251\LIB\C2SXS.LIB (?C_START)
         COMMENT TYPE 0: A251 V4.69.6.0
  C:\KEIL_V5\C251\LIB\C2SXS.LIB (?C?INITEDATA)
         COMMENT TYPE 0: A251 V4.69.6.0
  C:\KEIL_V5\C251\LIB\C2SXS.LIB (?C?LIMUL)
         COMMENT TYPE 0: A251 V4.69.6.0
  C:\KEIL_V5\C251\LIB\C2SXS.LIB (?C?ULDIV)
         COMMENT TYPE 0: A251 V4.69.6.0
  C:\KEIL_V5\C251\LIB\C2SXS.LIB (?C?SLDIV)
         COMMENT TYPE 0: A251 V4.69.6.0
  C:\KEIL_V5\C251\LIB\C2SXS.LIB (ISSPACE)
         COMMENT TYPE 0: C251 V5.58.7
  C:\KEIL_V5\C251\LIB\C2SXS.LIB (memcpy)
         COMMENT TYPE 0: C251 V5.58.7
  C:\KEIL_V5\C251\LIB\C2SXS.LIB (memset)
         COMMENT TYPE 0: C251 V5.58.7
  C:\KEIL_V5\C251\LIB\C2SXS.LIB (?C?INITEDATA_END)
         COMMENT TYPE 0: A251 V4.69.6.0


ACTIVE MEMORY CLASSES OF MODULE:  .\Out_File\SEEKFREE (board)

BASE        START       END         USED      MEMORY CLASS
==========================================================
000000H     000000H     000FFFH     000890H   EDATA
000000H     000000H     000FFFH               HDATA
FF0000H     FF0000H     FFFFFFH     004BF4H   CODE
L251 LINKER/LOCATER V4.66.93.0                                                        05/04/2024  13:35:58  PAGE 3


000000H     FF0000H     FFFFFFH     0003C5H   HCONST
010000H     010000H     01FFFFH     000126H   XDATA
000020H.0   000020H.0   00002FH.7   000002H.7 BIT
000000H     000000H     00007FH     000008H   DATA


MEMORY MAP OF MODULE:  .\Out_File\SEEKFREE (board)


START     STOP      LENGTH    ALIGN  RELOC    MEMORY CLASS   SEGMENT NAME
=========================================================================
000000H   000007H   000008H   ---    AT..     DATA           "REG BANK 0"
000008H   00001FH   000018H   BYTE   UNIT     EDATA          ?ED?FIFO_READ_BUFFER?ZF_FIFO
000020H.0 000021H.7 000002H.0 BIT    UNIT     BIT            ?BI?UART
000022H.0 000022H.4 000000H.5 BIT    UNIT     BIT            ?BI?HOST_COMM
000022H.5 000022H.5 000000H.1 BIT    UNIT     BIT            ?BI?MOTOR_DRIVER_BOARDS
000022H.6 000022H.6 000000H.1 BIT    UNIT     BIT            ?BI?WT61
000022H.7 000022H   000000H.1 ---    ---      **GAP**
000023H   00015DH   00013BH   BYTE   UNIT     EDATA          ?ED?UART
00015EH   00026DH   000110H   BYTE   UNIT     EDATA          ?ED?QMC5883
00026EH   00033AH   0000CDH   BYTE   UNIT     EDATA          ?ED?LASER_RANGING
00033BH   000399H   00005FH   BYTE   UNIT     EDATA          ?ED?ZF_SPRINTF?SEEKFREE_PRINTF
00039AH   0003F1H   000058H   BYTE   UNIT     EDATA          ?ED?WT61
0003F2H   000421H   000030H   BYTE   UNIT     EDATA          ?ED?OLED_PRINTF_FLOAT?SEEKFREE_OLED
000422H   000451H   000030H   BYTE   UNIT     EDATA          ?ED?OLED_PRINTF_FLOAT_SPI?SEEKFREE_OLED
000452H   00047DH   00002CH   BYTE   UNIT     EDATA          ?ED?OLED_PRINTF_INT32?SEEKFREE_OLED
00047EH   0004A9H   00002CH   BYTE   UNIT     EDATA          ?ED?OLED_PRINTF_INT32_SPI?SEEKFREE_OLED
0004AAH   0004C1H   000018H   BYTE   UNIT     EDATA          ?ED?FIFO_READ_TAIL_BUFFER?ZF_FIFO
0004C2H   0004D7H   000016H   BYTE   UNIT     EDATA          ?ED?ATOF?QMC5883
0004D8H   0004EBH   000014H   BYTE   UNIT     EDATA          ?ED?PWM_INIT?ZF_PWM
0004ECH   0004FFH   000014H   BYTE   UNIT     EDATA          ?ED?PWM_FREQ?ZF_PWM
000500H   000513H   000014H   BYTE   UNIT     EDATA          ?ED?NUMBER_CONVERSION_ASCII?SEEKFREE_PRINTF
000514H   000525H   000012H   BYTE   UNIT     EDATA          ?ED?FIFO_WRITE_BUFFER?ZF_FIFO
000526H   000535H   000010H   BYTE   UNIT     EDATA          ?ED?FIFO_INIT?ZF_FIFO
000536H   000545H   000010H   BYTE   UNIT     EDATA          ?ED?OLED_DIS_BMP?SEEKFREE_OLED
000546H   000555H   000010H   BYTE   UNIT     EDATA          ?ED?OLED_DIS_BMP_SPI?SEEKFREE_OLED
000556H   000565H   000010H   BYTE   UNIT     EDATA          ?ED?HOST_COMM_IRQHANDLER?HOST_COMM
000566H   000573H   00000EH   BYTE   UNIT     EDATA          ?ED?PWM_DUTY?ZF_PWM
000574H   000581H   00000EH   BYTE   UNIT     EDATA          ?ED?UART_INIT?ZF_UART
000582H   00058FH   00000EH   BYTE   UNIT     EDATA          ?ED?OLED_PRINT_CHINESE?SEEKFREE_OLED
000590H   00059DH   00000EH   BYTE   UNIT     EDATA          ?ED?OLED_PRINT_CHINESE_SPI?SEEKFREE_OLED
00059EH   0005AAH   00000DH   BYTE   UNIT     EDATA          ?ED?SPI_INIT?ZF_SPI
0005ABH   0005B7H   00000DH   BYTE   UNIT     EDATA          ?ED?PRINTF_REVERSE_ORDER?SEEKFREE_PRINTF
0005B8H   0005C3H   00000CH   BYTE   UNIT     EDATA          ?ED?FIFO_READ_ELEMENT?ZF_FIFO
0005C4H   0005CFH   00000CH   BYTE   UNIT     EDATA          ?ED?MOTOR_DRIVER_BOARDS
0005D0H   0005DAH   00000BH   BYTE   UNIT     EDATA          ?ED?OLED_UINT16?SEEKFREE_OLED
0005DBH   0005E5H   00000BH   BYTE   UNIT     EDATA          ?ED?OLED_INT16?SEEKFREE_OLED
0005E6H   0005F0H   00000BH   BYTE   UNIT     EDATA          ?ED?OLED_UINT16_SPI?SEEKFREE_OLED
0005F1H   0005FBH   00000BH   BYTE   UNIT     EDATA          ?ED?OLED_INT16_SPI?SEEKFREE_OLED
0005FCH   000605H   00000AH   BYTE   UNIT     EDATA          ?ED?IAP_READ_BYTES?ZF_EEPROM
000606H   00060FH   00000AH   BYTE   UNIT     EDATA          ?ED?IAP_WRITE_BYTES?ZF_EEPROM
000610H   000619H   00000AH   BYTE   UNIT     EDATA          ?ED?UART_PUTBUFF?ZF_UART
00061AH   000623H   00000AH   BYTE   UNIT     EDATA          ?ED?FIFO_WRITE_ELEMENT?ZF_FIFO
000624H   00062DH   00000AH   BYTE   UNIT     EDATA          ?ED?WHEEL_SPEED_PARSER?HOST_COMM
00062EH   000637H   00000AH   BYTE   UNIT     EDATA          ?ED?ATOI?QMC5883
000638H   000640H   000009H   BYTE   UNIT     EDATA          ?ED?QMC5883_DATA_PARSE?QMC5883
000641H   000648H   000008H   BYTE   UNIT     EDATA          ?ED?FIFO_HEAD_OFFSET?ZF_FIFO
000649H   000650H   000008H   BYTE   UNIT     EDATA          ?ED?FIFO_END_OFFSET?ZF_FIFO
000651H   000658H   000008H   BYTE   UNIT     EDATA          ?ED?BLUETOOTH_CH9141_SEND_BUFF?SEEKFREE_BLUETOOTH_CH9141
000659H   000660H   000008H   BYTE   UNIT     EDATA          ?ED?BLUETOOTH_CH9141_READ_BUFF?SEEKFREE_BLUETOOTH_CH9141
000661H   000668H   000008H   BYTE   UNIT     EDATA          ?ED?OLED_P6X8STR?SEEKFREE_OLED
000669H   000670H   000008H   BYTE   UNIT     EDATA          ?ED?OLED_P8X16STR?SEEKFREE_OLED
000671H   000678H   000008H   BYTE   UNIT     EDATA          ?ED?OLED_P6X8STR_SPI?SEEKFREE_OLED
000679H   000680H   000008H   BYTE   UNIT     EDATA          ?ED?OLED_P8X16STR_SPI?SEEKFREE_OLED
000681H   000688H   000008H   BYTE   UNIT     EDATA          ?ED?WIRELESS_UART_SEND_BUFF?SEEKFREE_WIRELESS
L251 LINKER/LOCATER V4.66.93.0                                                        05/04/2024  13:35:58  PAGE 4


000689H   000690H   000008H   BYTE   UNIT     EDATA          ?ED?WIRELESS_UART_READ_BUFF?SEEKFREE_WIRELESS
000691H   000698H   000008H   BYTE   UNIT     EDATA          ?ED?WIRELESS_CH573_READ_BUFF?SEEKFREE_WIRELESS_CH573
000699H   00069FH   000007H   BYTE   UNIT     EDATA          ?ED?IIC_READ_REG_BYTES?ZF_IIC
0006A0H   0006A6H   000007H   BYTE   UNIT     EDATA          ?ED?UART_SENDCMD?UART
0006A7H   0006ACH   000006H   BYTE   UNIT     EDATA          ?ED?ADC_ONCE?ZF_ADC
0006ADH   0006B2H   000006H   BYTE   UNIT     EDATA          ?ED?DELAY_US?ZF_DELAY
0006B3H   0006B8H   000006H   BYTE   UNIT     EDATA          ?ED?PIT_TIMER_MS?ZF_TIM
0006B9H   0006BEH   000006H   BYTE   UNIT     EDATA          ?ED?UART_PUTSTR?ZF_UART
0006BFH   0006C4H   000006H   BYTE   UNIT     EDATA          ?ED?FIFO_CLEAR?ZF_FIFO
0006C5H   0006CAH   000006H   BYTE   UNIT     EDATA          ?ED?IIC_INIT?ZF_IIC
0006CBH   0006D0H   000006H   BYTE   UNIT     EDATA          ?ED?IIC_READ_REG?ZF_IIC
0006D1H   0006D6H   000006H   BYTE   UNIT     EDATA          ?ED?OLED_HEXASCII?SEEKFREE_OLED
0006D7H   0006DCH   000006H   BYTE   UNIT     EDATA          ?ED?OLED_HEXASCII_SPI?SEEKFREE_OLED
0006DDH   0006E2H   000006H   BYTE   UNIT     EDATA          ?ED?WIRELESS_CH573_SEND_BUFF?SEEKFREE_WIRELESS_CH573
0006E3H   0006E8H   000006H   BYTE   UNIT     EDATA          ?ED?WHEEL_ADJUST?MOTOR_DRIVER_BOARDS
0006E9H   0006EEH   000006H   BYTE   UNIT     EDATA          ?ED?WHEEL_SPEED?MOTOR_DRIVER_BOARDS
0006EFH   0006F4H   000006H   BYTE   UNIT     EDATA          ?ED?SERVO_CLAW_GET_DUTY?SERVO
0006F5H   0006FAH   000006H   BYTE   UNIT     EDATA          ?ED?SERVO_PITCH_GET_DUTY?SERVO
0006FBH   000700H   000006H   BYTE   UNIT     EDATA          ?ED?SERVO_PAN_GET_DUTY?SERVO
000701H   000706H   000006H   BYTE   UNIT     EDATA          ?ED?SERVO_CLAW_SET_ANGLE?SERVO
000707H   00070CH   000006H   BYTE   UNIT     EDATA          ?ED?SERVO_PITCH_SET_ANGLE?SERVO
00070DH   000712H   000006H   BYTE   UNIT     EDATA          ?ED?SERVO_PAN_SET_ANGLE?SERVO
000713H   000717H   000005H   BYTE   UNIT     EDATA          ?ED?ZF_UART
000718H   00071CH   000005H   BYTE   UNIT     EDATA          ?ED?UART_SENDSTRING?UART
00071DH   000721H   000005H   BYTE   UNIT     EDATA          ?ED?KEY
000722H   000726H   000005H   BYTE   UNIT     EDATA          ?ED?LASER_RANGING?LASER_RANGING
000727H   00072AH   000004H   BYTE   UNIT     EDATA          ?ED?BOARD
00072BH   00072EH   000004H   BYTE   UNIT     EDATA          ?ED?ADC_INIT?ZF_ADC
00072FH   000732H   000004H   BYTE   UNIT     EDATA          ?ED?ZF_DELAY
000733H   000736H   000004H   BYTE   UNIT     EDATA          ?ED?DELAY_MS?ZF_DELAY
000737H   00073AH   000004H   BYTE   UNIT     EDATA          ?ED?IAP_ERASE_PAGE?ZF_EEPROM
00073BH   00073EH   000004H   BYTE   UNIT     EDATA          ?ED?EXIT_INIT?ZF_EXTI
00073FH   000742H   000004H   BYTE   UNIT     EDATA          ?ED?GPIO_PULL_SET?ZF_GPIO
000743H   000746H   000004H   BYTE   UNIT     EDATA          ?ED?GPIO_MODE?ZF_GPIO
000747H   00074AH   000004H   BYTE   UNIT     EDATA          ?ED?CTIMER_COUNT_READ?ZF_TIM
00074BH   00074EH   000004H   BYTE   UNIT     EDATA          ?ED?FIFO_USED?ZF_FIFO
00074FH   000752H   000004H   BYTE   UNIT     EDATA          ?ED?WHEEL_DIRECTION?MOTOR_DRIVER_BOARDS
000753H   000756H   000004H   BYTE   UNIT     EDATA          ?ED?WT61_DATA_PARSE?WT61
000757H   000759H   000003H   BYTE   UNIT     EDATA          ?ED?NVIC_SETPRIORITY?ZF_NVIC
00075AH   00075CH   000003H   BYTE   UNIT     EDATA          ?ED?UART_PUTCHAR?ZF_UART
00075DH   00075FH   000003H   BYTE   UNIT     EDATA          ?ED?IIC_DELAY_US?ZF_IIC
000760H   000762H   000003H   BYTE   UNIT     EDATA          ?ED?WAIT?ZF_IIC
000763H   000765H   000003H   BYTE   UNIT     EDATA          ?ED?IIC_WRITE_REG?ZF_IIC
000766H   000768H   000003H   BYTE   UNIT     EDATA          ?ED?OLED_PUTPIXEL?SEEKFREE_OLED
000769H   00076BH   000003H   BYTE   UNIT     EDATA          ?ED?OLED_PUTPIXEL_SPI?SEEKFREE_OLED
00076CH   00076EH   000003H   BYTE   UNIT     EDATA          ?ED?LASER_RANGING_IRQHANDLER?LASER_RANGING
00076FH   000770H   000002H   BYTE   UNIT     EDATA          ?ED?COMMON
000771H   000772H   000002H   BYTE   UNIT     EDATA          ?ED?PWM_SET_GPIO?ZF_PWM
000773H   000774H   000002H   BYTE   UNIT     EDATA          ?ED?SPI_CHANGE_PIN?ZF_SPI
000775H   000776H   000002H   BYTE   UNIT     EDATA          ?ED?CTIMER_COUNT_INIT?ZF_TIM
000777H   000778H   000002H   BYTE   UNIT     EDATA          ?ED?CTIMER_COUNT_CLEAN?ZF_TIM
000779H   00077AH   000002H   BYTE   UNIT     EDATA          ?ED?SEND_DATA?ZF_IIC
00077BH   00077CH   000002H   BYTE   UNIT     EDATA          ?ED?IIC_CHANGE_PIN?ZF_IIC
00077DH   00077EH   000002H   BYTE   UNIT     EDATA          ?ED?OLED_SET_POS?SEEKFREE_OLED
00077FH   000780H   000002H   BYTE   UNIT     EDATA          ?ED?OLED_FILL?SEEKFREE_OLED
000781H   000782H   000002H   BYTE   UNIT     EDATA          ?ED?OLED_CLRPIXEL?SEEKFREE_OLED
000783H   000784H   000002H   BYTE   UNIT     EDATA          ?ED?OLED_SET_POS_SPI?SEEKFREE_OLED
000785H   000786H   000002H   BYTE   UNIT     EDATA          ?ED?OLED_FILL_SPI?SEEKFREE_OLED
000787H   000788H   000002H   BYTE   UNIT     EDATA          ?ED?OLED_CLRPIXEL_SPI?SEEKFREE_OLED
000789H   00078AH   000002H   BYTE   UNIT     EDATA          ?ED?UART_SENDBYTE?UART
00078BH   00078BH   000001H   BYTE   UNIT     EDATA          ?ED?PUTCHAR?BOARD
00078CH   00078CH   000001H   BYTE   UNIT     EDATA          ?ED?IAP_SET_TPS?ZF_EEPROM
00078DH   00078DH   000001H   BYTE   UNIT     EDATA          ?ED?SPI_MOSI?ZF_SPI
00078EH   00078EH   000001H   BYTE   UNIT     EDATA          ?ED?SPI_CHANGE_MODE?ZF_SPI
00078FH   00078FH   000001H   BYTE   UNIT     EDATA          ?ED?START?ZF_IIC
L251 LINKER/LOCATER V4.66.93.0                                                        05/04/2024  13:35:58  PAGE 5


000790H   000790H   000001H   BYTE   UNIT     EDATA          ?ED?RECV_ACK?ZF_IIC
000791H   000791H   000001H   BYTE   UNIT     EDATA          ?ED?SEND_ACK?ZF_IIC
000792H   000792H   000001H   BYTE   UNIT     EDATA          ?ED?STOP?ZF_IIC
000793H   000793H   000001H   BYTE   UNIT     EDATA          ?ED?OLED_WRDAT?SEEKFREE_OLED
000794H   000794H   000001H   BYTE   UNIT     EDATA          ?ED?OLED_WRCMD?SEEKFREE_OLED
000795H   000795H   000001H   BYTE   UNIT     EDATA          ?ED?OLED_WRDAT_SPI?SEEKFREE_OLED
000796H   000796H   000001H   BYTE   UNIT     EDATA          ?ED?OLED_WRCMD_SPI?SEEKFREE_OLED
000797H   000797H   000001H   BYTE   UNIT     EDATA          ?ED?UART_INITIALIZE?UART
000798H   000798H   000001H   BYTE   UNIT     EDATA          ?ED?UART_RUNNING?UART
000799H   000799H   000001H   BYTE   UNIT     EDATA          ?ED?UI
00079AH   00079AH   000001H   BYTE   UNIT     EDATA          ?ED?LASER_RANGING_GET_UART_VALUE?LASER_RANGING
00079BH   00089AH   000100H   BYTE   UNIT     EDATA          ?STACK
00089BH   00FFFFH   00F765H   ---    ---      **GAP**
010000H   010057H   000058H   BYTE   INSEG    XDATA          ?XD?SEEKFREE_BLUETOOTH_CH9141
010058H   0100AFH   000058H   BYTE   INSEG    XDATA          ?XD?SEEKFREE_WIRELESS
0100B0H   010107H   000058H   BYTE   INSEG    XDATA          ?XD?SEEKFREE_WIRELESS_CH573
010108H   01010BH   000004H   BYTE   UNIT     XDATA          ?XD?BLUETOOTH_CH9141_READ_BUFF?SEEKFREE_BLUETOOTH_CH9141
01010CH   01010FH   000004H   BYTE   UNIT     XDATA          ?XD?WIRELESS_UART_READ_BUFF?SEEKFREE_WIRELESS
010110H   010113H   000004H   BYTE   UNIT     XDATA          ?XD?WIRELESS_CH573_READ_BUFF?SEEKFREE_WIRELESS_CH573
010114H   010115H   000002H   BYTE   UNIT     XDATA          ?XD?BLUETOOTH_CH9141_SEND_BUFF?SEEKFREE_BLUETOOTH_CH9141
010116H   010117H   000002H   BYTE   UNIT     XDATA          ?XD?OLED_HEXASCII?SEEKFREE_OLED
010118H   010119H   000002H   BYTE   UNIT     XDATA          ?XD?OLED_DIS_BMP?SEEKFREE_OLED
01011AH   01011BH   000002H   BYTE   UNIT     XDATA          ?XD?OLED_HEXASCII_SPI?SEEKFREE_OLED
01011CH   01011DH   000002H   BYTE   UNIT     XDATA          ?XD?OLED_DIS_BMP_SPI?SEEKFREE_OLED
01011EH   01011EH   000001H   BYTE   UNIT     XDATA          ?XD?OLED_WRDAT?SEEKFREE_OLED
01011FH   01011FH   000001H   BYTE   UNIT     XDATA          ?XD?OLED_WRCMD?SEEKFREE_OLED
010120H   010120H   000001H   BYTE   UNIT     XDATA          ?XD?OLED_FILL?SEEKFREE_OLED
010121H   010121H   000001H   BYTE   UNIT     XDATA          ?XD?OLED_P6X8STR?SEEKFREE_OLED
010122H   010122H   000001H   BYTE   UNIT     XDATA          ?XD?OLED_P8X16STR?SEEKFREE_OLED
010123H   010123H   000001H   BYTE   UNIT     XDATA          ?XD?OLED_FILL_SPI?SEEKFREE_OLED
010124H   010124H   000001H   BYTE   UNIT     XDATA          ?XD?OLED_P6X8STR_SPI?SEEKFREE_OLED
010125H   010125H   000001H   BYTE   UNIT     XDATA          ?XD?OLED_P8X16STR_SPI?SEEKFREE_OLED
010126H   FEFFFFH   FDFEDAH   ---    ---      **GAP**
FF0000H   FF0002H   000003H   ---    OFFS..   CODE           ?CO?start251?4
FF0003H   FF001FH   00001DH   BYTE   INSEG    CODE           ?PR?GPIO_INIT?MAIN
FF0020H   FF0022H   000003H   ---    ---      **GAP**
FF0023H   FF0025H   000003H   ---    OFFS..   CODE           ?PR?IV?4
FF0026H   FF003FH   00001AH   BYTE   INSEG    CODE           ?PR?MEMSET?_?MEMSET
FF0040H   FF0042H   000003H   ---    ---      **GAP**
FF0043H   FF0045H   000003H   ---    OFFS..   CODE           ?PR?IV?8
FF0046H   FF0086H   000041H   BYTE   INSEG    CODE           ?PR?DELAY_INIT?ZF_DELAY
FF0087H   FF008AH   000004H   BYTE   INSEG    CODE           ?PR?ENABLEGLOBALIRQ?BOARD
FF008BH   FF008DH   000003H   ---    OFFS..   CODE           ?PR?IV?17
FF008EH   FF0092H   000005H   ---    ---      **GAP**
FF0093H   FF0095H   000003H   ---    OFFS..   CODE           ?PR?IV?18
FF0096H   FF0E9DH   000E08H   BYTE   UNIT     CODE           ?CO?SEEKFREE_FONT
FF0E9EH   FF17AAH   00090DH   BYTE   INSEG    CODE           ?PR?GPIO_MODE?ZF_GPIO
FF17ABH   FF1E0BH   000661H   BYTE   INSEG    CODE           ?PR?ZF_SPRINTF?SEEKFREE_PRINTF
FF1E0CH   FF22DBH   0004D0H   BYTE   UNIT     CODE           ?C?LIB_CODE
FF22DCH   FF26B5H   0003DAH   BYTE   INSEG    CODE           ?PR?PWM_INIT?ZF_PWM
FF26B6H   FF2A6DH   0003B8H   BYTE   INSEG    CODE           ?PR?PWM_SET_GPIO?ZF_PWM
FF2A6EH   FF2D61H   0002F4H   BYTE   INSEG    CODE           ?PR?HOST_COMM_IRQHANDLER?HOST_COMM
FF2D62H   FF3013H   0002B2H   BYTE   INSEG    CODE           ?PR?UART_INIT?ZF_UART
FF3014H   FF325AH   000247H   BYTE   INSEG    CODE           ?PR?WHEEL_DIRECTION?MOTOR_DRIVER_BOARDS
FF325BH   FF3460H   000206H   BYTE   INSEG    CODE           ?PR?SET_CLK?BOARD
FF3461H   FF35BEH   00015EH   BYTE   INSEG    CODE           ?PR?WHEEL_ADJUST?MOTOR_DRIVER_BOARDS
FF35BFH   FF36D6H   000118H   BYTE   INSEG    CODE           ?PR?PWM_DUTY?ZF_PWM
FF36D7H   FF37EDH   000117H   BYTE   INSEG    CODE           ?PR?NUMBER_CONVERSION_ASCII?SEEKFREE_PRINTF
FF37EEH   FF3903H   000116H   BYTE   INSEG    CODE           ?PR?WHEEL_SPEED_PARSER?HOST_COMM
FF3904H   FF3A0AH   000107H   BYTE   INSEG    CODE           ?PR?UART_SENDCMD?UART
FF3A0BH   FF3B06H   0000FCH   BYTE   INSEG    CODE           ?PR?KEY3_SHORT_PRESS?KEY
FF3B07H   FF3BEEH   0000E8H   BYTE   INSEG    CODE           ?PR?KEY2_SHORT_PRESS?KEY
FF3BEFH   FF3CC7H   0000D9H   BYTE   INSEG    CODE           ?PR?UART1_ISR?UART
FF3CC8H   FF3D99H   0000D2H   BYTE   INSEG    CODE           ?PR?OLED_P6X8STR_SPI?SEEKFREE_OLED
FF3D9AH   FF3E67H   0000CEH   BYTE   INSEG    CODE           ?PR?SPI_INIT?ZF_SPI
L251 LINKER/LOCATER V4.66.93.0                                                        05/04/2024  13:35:58  PAGE 6


FF3E68H   FF3F35H   0000CEH   BYTE   INSEG    CODE           ?PR?OLED_PRINTF_INT32_SPI?SEEKFREE_OLED
FF3F36H   FF3FFAH   0000C5H   BYTE   INSEG    CODE           ?PR?OLED_INIT_SPI?SEEKFREE_OLED
FF3FFBH   FF40B9H   0000BFH   BYTE   INSEG    CODE           ?PR?UART_SENDSTRING?UART
FF40BAH   FF4150H   000097H   BYTE   INSEG    CODE           ?PR?BOARD_INIT?BOARD
FF4151H   FF41E5H   000095H   BYTE   INSEG    CODE           ?PR?PRINTF_REVERSE_ORDER?SEEKFREE_PRINTF
FF41E6H   FF425EH   000079H   BYTE   INSEG    CODE           ?PR?HOST_COMM_SENDER?HOST_COMM
FF425FH   FF42D3H   000075H   BYTE   INSEG    CODE           ?PR?UART_PUTCHAR?ZF_UART
FF42D4H   FF4343H   000070H   BYTE   INSEG    CODE           ?PR?FIFO_HEAD_OFFSET?ZF_FIFO
FF4344H   FF43A2H   00005FH   BYTE   INSEG    CODE           ?PR?OLED_FILL_SPI?SEEKFREE_OLED
FF43A3H   FF43F9H   000057H   BYTE   INSEG    CODE           ?PR?WAIT?ZF_IIC
FF43FAH   FF4450H   000057H   BYTE   INSEG    CODE           ?PR?MOTOR_DRIVERS_PWM_INIT?MAIN
FF4451H   FF44A7H   000057H   BYTE   INSEG    CODE           ?PR?SERVO_CLAW_GET_DUTY?SERVO
FF44A8H   FF44FEH   000057H   BYTE   INSEG    CODE           ?PR?SERVO_PITCH_GET_DUTY?SERVO
FF44FFH   FF4553H   000055H   BYTE   INSEG    CODE           ?PR?WHEEL_OLED_UPDATE?MOTOR_DRIVER_BOARDS
FF4554H   FF45A6H   000053H   BYTE   INSEG    CODE           ?PR?KEY2_CHECK?KEY
FF45A7H   FF45F9H   000053H   BYTE   INSEG    CODE           ?PR?KEY3_CHECK?KEY
FF45FAH   FF464CH   000053H   BYTE   INSEG    CODE           ?PR?KEY4_CHECK?KEY
FF464DH   FF469DH   000051H   BYTE   INSEG    CODE           ?PR?KEY1_CHECK?KEY
FF469EH   FF46EDH   000050H   BYTE   INSEG    CODE           ?PR?KEY5_CHECK?KEY
FF46EEH   FF4700H   000013H   BYTE   UNIT     CODE           ?C_C51STARTUP
FF4701H   FF470EH   00000EH   BYTE   UNIT     CODE           ?C_C51STARTUP?1
FF470FH   FF4737H   000029H   BYTE   UNIT     CODE           ?C_C51STARTUP?2
FF4738H   FF473AH   000003H   BYTE   UNIT     CODE           ?C_C51STARTUP?3
FF473BH   FF4786H   00004CH   BYTE   INSEG    CODE           ?PR?MAIN?MAIN
FF4787H   FF47D1H   00004BH   BYTE   INSEG    CODE           ?PR?OLED_WRCMD?SEEKFREE_OLED
FF47D2H   FF481CH   00004BH   BYTE   INSEG    CODE           ?PR?OLED_WRDAT?SEEKFREE_OLED
FF481DH   FF4865H   000049H   BYTE   INSEG    CODE           ?PR?UART2_ISR?UART
FF4866H   FF48AEH   000049H   BYTE   INSEG    CODE           ?PR?UART3_ISR?UART
FF48AFH   FF48F7H   000049H   BYTE   INSEG    CODE           ?PR?UART4_ISR?UART
FF48F8H   FF4937H   000040H   BYTE   INSEG    CODE           ?PR?UI_INIT?UI
FF4938H   FF4976H   00003FH   BYTE   INSEG    CODE           ?PR?WHEEL_OLED_INIT?MOTOR_DRIVER_BOARDS
FF4977H   FF49B0H   00003AH   BYTE   INSEG    CODE           ?PR?SERVO_INIT?SERVO
FF49B1H   FF49E6H   000036H   BYTE   INSEG    CODE           ?PR?OLED_SET_POS_SPI?SEEKFREE_OLED
FF49E7H   FF4A1BH   000035H   BYTE   INSEG    CODE           ?PR?DELAY_MS?ZF_DELAY
FF4A1CH   FF4A50H   000035H   BYTE   INSEG    CODE           ?PR?IIC_DELAY_US?ZF_IIC
FF4A51H   FF4A85H   000035H   BYTE   INSEG    CODE           ?PR?OLED_SET_POS?SEEKFREE_OLED
FF4A86H   FF4AB1H   00002CH   BYTE   INSEG    CODE           ?PR?HOST_COMM_UART_INIT?HOST_COMM
FF4AB2H   FF4ADCH   00002BH   BYTE   INSEG    CODE           ?PR?WHEEL_DYNAMIC_ADJUSTING?MOTOR_DRIVER_BOARDS
FF4ADDH   FF4B03H   000027H   BYTE   INSEG    CODE           ?PR?UART_TX_SEND_BUFFER?UART
FF4B04H   FF4B28H   000025H   BYTE   INSEG    CODE           ?PR?MEMCPY?_?MEMCPY
FF4B29H   FF4B41H   000019H   BYTE   INSEG    CODE           ?PR?SERVO_PITCH_SET_ANGLE?SERVO
FF4B42H   FF4B5AH   000019H   BYTE   INSEG    CODE           ?PR?SERVO_CLAW_SET_ANGLE?SERVO
FF4B5BH   FF4B73H   000019H   BYTE   INSEG    CODE           ?PR?SERVO_PAN_SET_ANGLE?SERVO
FF4B74H   FF4B89H   000016H   BYTE   INSEG    CODE           ?PR?LASER_RANGING_GET_UART_VALUE?LASER_RANGING
FF4B8AH   FF4B9EH   000015H   BYTE   INSEG    CODE           ?PR?OLED_WRCMD_SPI?SEEKFREE_OLED
FF4B9FH   FF4BB3H   000015H   BYTE   INSEG    CODE           ?PR?OLED_WRDAT_SPI?SEEKFREE_OLED
FF4BB4H   FF4BC8H   000015H   BYTE   INSEG    CODE           ?PR?STEPPER_INIT?STEPPER
FF4BC9H   FF4BDAH   000012H   BYTE   INSEG    CODE           ?PR?SPI_MOSI?ZF_SPI
FF4BDBH   FF4BEAH   000010H   BYTE   INSEG    CODE           ?PR?UI_KEYS_INIT?UI
FF4BEBH   FF4BF4H   00000AH   BYTE   INSEG    CODE           ?PR?KEY1_SHORT_PRESS?KEY
FF4BF5H   FF4BFEH   00000AH   BYTE   INSEG    CODE           ?PR?KEY4_SHORT_PRESS?KEY
FF4BFFH   FF4EA3H   0002A5H   BYTE   UNIT     HCONST         ?C_INITEDATA
FF4EA4H   FF4EFBH   000058H   BYTE   UNIT     HCONST         ?HC?ZF_PWM
FF4EFCH   FF4F4AH   00004FH   BYTE   UNIT     HCONST         ?HC?HOST_COMM
FF4F4BH   FF4F7FH   000035H   BYTE   UNIT     HCONST         ?HC?KEY
FF4F80H   FF4FA4H   000025H   BYTE   UNIT     HCONST         ?HC?UI
FF4FA5H   FF4FB0H   00000CH   BYTE   UNIT     HCONST         ?HC?MOTOR_DRIVER_BOARDS
FF4FB1H   FF4FBAH   00000AH   BYTE   UNIT     HCONST         ?HC?SEEKFREE_OLED
FF4FBBH   FF4FC3H   000009H   BYTE   UNIT     HCONST         ?HC?WT61

* * * * * * * * *   R E M O V E D     S E G M E N T S   * * * * * * * *
   *DEL*:           000004H   BYTE   INSEG    CODE           ?PR?DISABLEGLOBALIRQ?BOARD
   *DEL*:           000012H   BYTE   INSEG    CODE           ?PR?PUTCHAR?BOARD
   *DEL*:           000056H   BYTE   INSEG    CODE           ?PR?ADC_ONCE?ZF_ADC
   *DEL*:           0000B5H   BYTE   INSEG    CODE           ?PR?ADC_INIT?ZF_ADC
L251 LINKER/LOCATER V4.66.93.0                                                        05/04/2024  13:35:58  PAGE 7


   *DEL*:           000033H   BYTE   INSEG    CODE           ?PR?DELAY_US?ZF_DELAY
   *DEL*:           00001AH   BYTE   INSEG    CODE           ?PR?IAP_SET_TPS?ZF_EEPROM
   *DEL*:           000015H   BYTE   INSEG    CODE           ?PR?EEPROM_TRIG?ZF_EEPROM
   *DEL*:           000029H   BYTE   INSEG    CODE           ?PR?IAP_ERASE_PAGE?ZF_EEPROM
   *DEL*:           000004H   BYTE   INSEG    CODE           ?PR?IAP_IDLE?ZF_EEPROM
   *DEL*:           000062H   BYTE   INSEG    CODE           ?PR?IAP_READ_BYTES?ZF_EEPROM
   *DEL*:           000008H   BYTE   INSEG    CODE           ?PR?IAP_INIT?ZF_EEPROM
   *DEL*:           00005EH   BYTE   INSEG    CODE           ?PR?IAP_WRITE_BYTES?ZF_EEPROM
   *DEL*:           000012H   BYTE   INSEG    CODE           ?PR?IAP_GET_CMD_STATE?ZF_EEPROM
   *DEL*:           000066H   BYTE   INSEG    CODE           ?PR?EXIT_INIT?ZF_EXTI
   *DEL*:           000095H   BYTE   INSEG    CODE           ?PR?GPIO_PULL_SET?ZF_GPIO
   *DEL*:           0000B9H   BYTE   INSEG    CODE           ?PR?NVIC_SETPRIORITY?ZF_NVIC
   *DEL*:           0001ABH   BYTE   INSEG    CODE           ?PR?PWM_FREQ?ZF_PWM
   *DEL*:           000026H   BYTE   INSEG    CODE           ?PR?SPI_CHANGE_MODE?ZF_SPI
   *DEL*:           0000CCH   BYTE   INSEG    CODE           ?PR?SPI_CHANGE_PIN?ZF_SPI
   *DEL*:           0000B4H   BYTE   INSEG    CODE           ?PR?CTIMER_COUNT_READ?ZF_TIM
   *DEL*:           0000E5H   BYTE   INSEG    CODE           ?PR?PIT_TIMER_MS?ZF_TIM
   *DEL*:           000054H   BYTE   INSEG    CODE           ?PR?CTIMER_COUNT_INIT?ZF_TIM
   *DEL*:           00005DH   BYTE   INSEG    CODE           ?PR?CTIMER_COUNT_CLEAN?ZF_TIM
   *DEL*:           000033H   BYTE   INSEG    CODE           ?PR?UART_PUTBUFF?ZF_UART
   *DEL*:           00002BH   BYTE   INSEG    CODE           ?PR?UART_PUTSTR?ZF_UART
   *DEL*:           0003ACH   BYTE   INSEG    CODE           ?PR?FIFO_READ_BUFFER?ZF_FIFO
   *DEL*:           00013BH   BYTE   INSEG    CODE           ?PR?FIFO_WRITE_ELEMENT?ZF_FIFO
   *DEL*:           000434H   BYTE   INSEG    CODE           ?PR?FIFO_READ_TAIL_BUFFER?ZF_FIFO
   *DEL*:           0000EAH   BYTE   INSEG    CODE           ?PR?FIFO_CLEAR?ZF_FIFO
   *DEL*:           000392H   BYTE   INSEG    CODE           ?PR?FIFO_WRITE_BUFFER?ZF_FIFO
   *DEL*:           000070H   BYTE   INSEG    CODE           ?PR?FIFO_END_OFFSET?ZF_FIFO
   *DEL*:           000025H   BYTE   INSEG    CODE           ?PR?FIFO_USED?ZF_FIFO
   *DEL*:           000083H   BYTE   INSEG    CODE           ?PR?FIFO_INIT?ZF_FIFO
   *DEL*:           00018BH   BYTE   INSEG    CODE           ?PR?FIFO_READ_ELEMENT?ZF_FIFO
   *DEL*:           000028H   BYTE   INSEG    CODE           ?PR?SEND_DATA?ZF_IIC
   *DEL*:           000037H   BYTE   INSEG    CODE           ?PR?IIC_CHANGE_PIN?ZF_IIC
   *DEL*:           00001CH   BYTE   INSEG    CODE           ?PR?RECV_DATA?ZF_IIC
   *DEL*:           000015H   BYTE   INSEG    CODE           ?PR?START?ZF_IIC
   *DEL*:           000021H   BYTE   INSEG    CODE           ?PR?SEND_ACK?ZF_IIC
   *DEL*:           000015H   BYTE   INSEG    CODE           ?PR?RECV_ACK?ZF_IIC
   *DEL*:           000015H   BYTE   INSEG    CODE           ?PR?STOP?ZF_IIC
   *DEL*:           00001EH   BYTE   INSEG    CODE           ?PR?SEND_NAK?ZF_IIC
   *DEL*:           00007AH   BYTE   INSEG    CODE           ?PR?IIC_INIT?ZF_IIC
   *DEL*:           000099H   BYTE   INSEG    CODE           ?PR?IIC_READ_REG?ZF_IIC
   *DEL*:           0000D4H   BYTE   INSEG    CODE           ?PR?IIC_READ_REG_BYTES?ZF_IIC
   *DEL*:           00007CH   BYTE   INSEG    CODE           ?PR?IIC_WRITE_REG?ZF_IIC
   *DEL*:           000022H   BYTE   INSEG    CODE           ?PR?BLUETOOTH_CH9141_UART_CALLBACK?SEEKFREE_BLUETOOTH_CH91
                                                             -41
   *DEL*:           000042H   BYTE   INSEG    CODE           ?PR?BLUETOOTH_CH9141_READ_BUFF?SEEKFREE_BLUETOOTH_CH9141
   *DEL*:           0000E0H   BYTE   INSEG    CODE           ?PR?BLUETOOTH_CH9141_SEND_BUFF?SEEKFREE_BLUETOOTH_CH9141
   *DEL*:           00004AH   BYTE   INSEG    CODE           ?PR?BLUETOOTH_CH9141_INIT?SEEKFREE_BLUETOOTH_CH9141
   *DEL*:           000047H   BYTE   INSEG    CODE           ?PR?OLED_PUTPIXEL?SEEKFREE_OLED
   *DEL*:           000074H   BYTE   INSEG    CODE           ?PR?OLED_HEXASCII_SPI?SEEKFREE_OLED
   *DEL*:           000474H   BYTE   INSEG    CODE           ?PR?OLED_DIS_BMP_SPI?SEEKFREE_OLED
   *DEL*:           000145H   BYTE   INSEG    CODE           ?PR?OLED_PRINTF_FLOAT?SEEKFREE_OLED
   *DEL*:           000123H   BYTE   INSEG    CODE           ?PR?OLED_P8X16STR_SPI?SEEKFREE_OLED
   *DEL*:           000041H   BYTE   INSEG    CODE           ?PR?OLED_CLRPIXEL_SPI?SEEKFREE_OLED
   *DEL*:           0000C0H   BYTE   INSEG    CODE           ?PR?OLED_PRINT_CHINESE_SPI?SEEKFREE_OLED
   *DEL*:           00005FH   BYTE   INSEG    CODE           ?PR?OLED_FILL?SEEKFREE_OLED
   *DEL*:           0000CEH   BYTE   INSEG    CODE           ?PR?OLED_PRINTF_INT32?SEEKFREE_OLED
   *DEL*:           000027H   BYTE   INSEG    CODE           ?PR?OLED_UINT16?SEEKFREE_OLED
   *DEL*:           000048H   BYTE   INSEG    CODE           ?PR?OLED_PUTPIXEL_SPI?SEEKFREE_OLED
   *DEL*:           0000D2H   BYTE   INSEG    CODE           ?PR?OLED_P6X8STR?SEEKFREE_OLED
   *DEL*:           000073H   BYTE   INSEG    CODE           ?PR?OLED_INT16?SEEKFREE_OLED
   *DEL*:           0000A8H   BYTE   INSEG    CODE           ?PR?OLED_INIT?SEEKFREE_OLED
   *DEL*:           000145H   BYTE   INSEG    CODE           ?PR?OLED_PRINTF_FLOAT_SPI?SEEKFREE_OLED
   *DEL*:           000074H   BYTE   INSEG    CODE           ?PR?OLED_HEXASCII?SEEKFREE_OLED
   *DEL*:           000027H   BYTE   INSEG    CODE           ?PR?OLED_UINT16_SPI?SEEKFREE_OLED
   *DEL*:           000073H   BYTE   INSEG    CODE           ?PR?OLED_INT16_SPI?SEEKFREE_OLED
L251 LINKER/LOCATER V4.66.93.0                                                        05/04/2024  13:35:58  PAGE 8


   *DEL*:           000481H   BYTE   INSEG    CODE           ?PR?OLED_DIS_BMP?SEEKFREE_OLED
   *DEL*:           000123H   BYTE   INSEG    CODE           ?PR?OLED_P8X16STR?SEEKFREE_OLED
   *DEL*:           000040H   BYTE   INSEG    CODE           ?PR?OLED_CLRPIXEL?SEEKFREE_OLED
   *DEL*:           0000C0H   BYTE   INSEG    CODE           ?PR?OLED_PRINT_CHINESE?SEEKFREE_OLED
   *DEL*:           000042H   BYTE   INSEG    CODE           ?PR?WIRELESS_UART_READ_BUFF?SEEKFREE_WIRELESS
   *DEL*:           000075H   BYTE   INSEG    CODE           ?PR?WIRELESS_UART_SEND_BUFF?SEEKFREE_WIRELESS
   *DEL*:           000022H   BYTE   INSEG    CODE           ?PR?WIRELESS_UART_CALLBACK?SEEKFREE_WIRELESS
   *DEL*:           00004CH   BYTE   INSEG    CODE           ?PR?WIRELESS_UART_INIT?SEEKFREE_WIRELESS
   *DEL*:           000042H   BYTE   INSEG    CODE           ?PR?WIRELESS_CH573_READ_BUFF?SEEKFREE_WIRELESS_CH573
   *DEL*:           00007DH   BYTE   INSEG    CODE           ?PR?WIRELESS_CH573_SEND_BUFF?SEEKFREE_WIRELESS_CH573
   *DEL*:           000022H   BYTE   INSEG    CODE           ?PR?WIRELESS_CH573_CALLBACK?SEEKFREE_WIRELESS_CH573
   *DEL*:           00004CH   BYTE   INSEG    CODE           ?PR?WIRELESS_CH573_INIT?SEEKFREE_WIRELESS_CH573
   *DEL*:           000012H   BYTE   INSEG    CODE           ?PR?STEPPER_PWM_INIT?MAIN
   *DEL*:           00004DH   BYTE   INSEG    CODE           ?PR?UART_SENDBYTE?UART
   *DEL*:           000121H   BYTE   INSEG    CODE           ?PR?UART_RUNNING?UART
   *DEL*:           00003BH   BYTE   INSEG    CODE           ?PR?UART_INITIALIZE?UART
   *DEL*:           000007H   BYTE   INSEG    CODE           ?PR?UART_PORT_INIT?UART
   *DEL*:           000010H   BYTE   INSEG    CODE           ?PR?KEYS_UI_INIT?KEY
   *DEL*:           00000AH   BYTE   INSEG    CODE           ?PR?KEY5_SHORT_PRESS?KEY
   *DEL*:           000064H   BYTE   INSEG    CODE           ?PR?UI_RUNNING?UI
   *DEL*:           000023H   BYTE   INSEG    CODE           ?PR?LASER_RANGING?LASER_RANGING
   *DEL*:           00029AH   BYTE   INSEG    CODE           ?PR?LASER_RANGING_IRQHANDLER?LASER_RANGING
   *DEL*:           0000B0H   BYTE   INSEG    CODE           ?PR?LASER_RANGING_INIT?LASER_RANGING
   *DEL*:           0000EFH   BYTE   INSEG    CODE           ?PR?WHEEL_SPEED?MOTOR_DRIVER_BOARDS
   *DEL*:           0000F8H   BYTE   INSEG    CODE           ?PR?WHEEL_YAW_CALIBRATING?MOTOR_DRIVER_BOARDS
   *DEL*:           000001H   BYTE   INSEG    CODE           ?PR?WHEEL_DYNAMIC_CALIBRATING?MOTOR_DRIVER_BOARDS
   *DEL*:           0002D9H   BYTE   INSEG    CODE           ?PR?QMC5883_DATA_PARSE?QMC5883
   *DEL*:           0001A8H   BYTE   INSEG    CODE           ?PR?ATOF?QMC5883
   *DEL*:           000062H   BYTE   INSEG    CODE           ?PR?QMC5883_IRQHANDLER?QMC5883
   *DEL*:           0000FFH   BYTE   INSEG    CODE           ?PR?ATOI?QMC5883
   *DEL*:           000057H   BYTE   INSEG    CODE           ?PR?SERVO_PAN_GET_DUTY?SERVO
   *DEL*:           0002FAH   BYTE   INSEG    CODE           ?PR?WT61_DATA_PARSE?WT61
   *DEL*:           00004DH   BYTE   INSEG    CODE           ?PR?WT61_INIT?WT61
   *DEL*:           000001H   BYTE   INSEG    CODE           ?PR?WT61_OLED_DISP?WT61
   *DEL*:           00002EH   BYTE   INSEG    CODE           ?PR?WT61_OLED_INIT?WT61
   *DEL*:           000014H   BYTE   INSEG    CODE           ?PR?ISSPACE?_?ISSPACE



OVERLAY MAP OF MODULE:   .\Out_File\SEEKFREE (board)


FUNCTION/MODULE                                BIT_GROUP   DATA_GROUP 
--> CALLED FUNCTION/MODULE                    START  STOP  START  STOP
======================================================================
uart1_isr/uart                                ----- -----  ----- -----
  +--> memset?_/memset
  +--> host_comm_irqhandler/host_comm

memset?_/memset                               ----- -----  ----- -----

host_comm_irqhandler/host_comm                ----- -----  ----- -----
  +--> wheel_speed_parser/host_comm
  +--> servo_claw_set_angle/servo
  +--> servo_pitch_set_angle/servo
  +--> servo_pan_set_angle/servo

wheel_speed_parser/host_comm                  ----- -----  ----- -----

servo_claw_set_angle/servo                    ----- -----  ----- -----
  +--> servo_claw_get_duty/servo
  +--> pwm_duty/zf_pwm

servo_claw_get_duty/servo                     ----- -----  ----- -----

L251 LINKER/LOCATER V4.66.93.0                                                        05/04/2024  13:35:58  PAGE 9


pwm_duty/zf_pwm                               ----- -----  ----- -----

servo_pitch_set_angle/servo                   ----- -----  ----- -----
  +--> servo_pitch_get_duty/servo
  +--> pwm_duty/zf_pwm

servo_pitch_get_duty/servo                    ----- -----  ----- -----

servo_pan_set_angle/servo                     ----- -----  ----- -----
  +--> servo_pitch_get_duty/servo
  +--> pwm_duty/zf_pwm

*** NEW ROOT ********************************

uart2_isr/uart                                ----- -----  ----- -----

*** NEW ROOT ********************************

uart3_isr/uart                                ----- -----  ----- -----

*** NEW ROOT ********************************

uart4_isr/uart                                ----- -----  ----- -----

*** NEW ROOT ********************************

?C_C51STARTUP?1                               ----- -----  ----- -----

*** NEW ROOT ********************************

?C_C51STARTUP                                 ----- -----  ----- -----

*** NEW ROOT ********************************

?C_C51STARTUP?3                               ----- -----  ----- -----
  +--> main/main

main/main                                     ----- -----  ----- -----
  +--> board_init/board
  +--> motor_drivers_pwm_init/main
  +--> gpio_init/main
  +--> oled_init_spi/SEEKFREE_OLED
  +--> wheel_oled_init/motor_driver_boards
  +--> ui_init/ui
  +--> delay_ms/zf_delay
  +--> host_comm_uart_init/host_comm
  +--> servo_init/servo
  +--> stepper_init/stepper
  +--> key1_check/key
  +--> key2_check/key
  +--> key3_check/key
  +--> key4_check/key
  +--> key5_check/key
  +--> host_comm_sender/host_comm
  +--> wheel_dynamic_adjusting/motor_driver_boards
  +--> uart_tx_send_buffer/uart
  +--> wheel_oled_update/motor_driver_boards

board_init/board                              ----- -----  ----- -----
  +--> set_clk/board
  +--> delay_init/zf_delay
  +--> uart_init/zf_uart
  +--> EnableGlobalIRQ/board

set_clk/board                                 ----- -----  ----- -----
L251 LINKER/LOCATER V4.66.93.0                                                        05/04/2024  13:35:58  PAGE 10



delay_init/zf_delay                           ----- -----  ----- -----
  +--> ?C?SLDIV/?C?SLDIV

?C?SLDIV/?C?SLDIV                             ----- -----  ----- -----
  +--> ?C?ULIDIV/?C?ULDIV

?C?ULIDIV/?C?ULDIV                            ----- -----  ----- -----

uart_init/zf_uart                             ----- -----  ----- -----
  +--> ?C?ULIDIV/?C?ULDIV

EnableGlobalIRQ/board                         ----- -----  ----- -----

motor_drivers_pwm_init/main                   ----- -----  ----- -----
  +--> pwm_init/zf_pwm
  +--> wheel_adjust/motor_driver_boards

pwm_init/zf_pwm                               ----- -----  ----- -----
  +--> pwm_set_gpio/zf_pwm
  +--> ?C?ULIDIV/?C?ULDIV

pwm_set_gpio/zf_pwm                           ----- -----  ----- -----
  +--> gpio_mode/zf_gpio

gpio_mode/zf_gpio                             ----- -----  ----- -----

wheel_adjust/motor_driver_boards              ----- -----  ----- -----
  +--> wheel_direction/motor_driver_boards
  +--> pwm_duty/zf_pwm

wheel_direction/motor_driver_boards           ----- -----  ----- -----

gpio_init/main                                ----- -----  ----- -----

oled_init_spi/SEEKFREE_OLED                   ----- -----  ----- -----
  +--> spi_init/zf_spi
  +--> delay_ms/zf_delay
  +--> oled_wrcmd_spi/SEEKFREE_OLED
  +--> oled_fill_spi/SEEKFREE_OLED
  +--> oled_set_pos_spi/SEEKFREE_OLED

spi_init/zf_spi                               ----- -----  ----- -----
  +--> gpio_mode/zf_gpio

delay_ms/zf_delay                             ----- -----  ----- -----

oled_wrcmd_spi/SEEKFREE_OLED                  ----- -----  ----- -----
  +--> spi_mosi/zf_spi

spi_mosi/zf_spi                               ----- -----  ----- -----

oled_fill_spi/SEEKFREE_OLED                   ----- -----  ----- -----
  +--> oled_wrcmd_spi/SEEKFREE_OLED
  +--> oled_wrdat_spi/SEEKFREE_OLED

oled_wrdat_spi/SEEKFREE_OLED                  ----- -----  ----- -----
  +--> spi_mosi/zf_spi

oled_set_pos_spi/SEEKFREE_OLED                ----- -----  ----- -----
  +--> oled_wrcmd_spi/SEEKFREE_OLED

wheel_oled_init/motor_driver_boards           ----- -----  ----- -----
  +--> oled_p6x8str_spi/SEEKFREE_OLED

L251 LINKER/LOCATER V4.66.93.0                                                        05/04/2024  13:35:58  PAGE 11


oled_p6x8str_spi/SEEKFREE_OLED                ----- -----  ----- -----
  +--> oled_set_pos_spi/SEEKFREE_OLED
  +--> oled_wrdat_spi/SEEKFREE_OLED

ui_init/ui                                    ----- -----  ----- -----
  +--> oled_p6x8str_spi/SEEKFREE_OLED
  +--> ui_keys_init/ui

ui_keys_init/ui                               ----- -----  ----- -----
  +--> oled_p6x8str_spi/SEEKFREE_OLED

host_comm_uart_init/host_comm                 ----- -----  ----- -----
  +--> uart_sendstring/uart

uart_sendstring/uart                          ----- -----  ----- -----

servo_init/servo                              ----- -----  ----- -----
  +--> pwm_init/zf_pwm

stepper_init/stepper                          ----- -----  ----- -----
  +--> pwm_init/zf_pwm

key1_check/key                                ----- -----  ----- -----
  +--> oled_p6x8str_spi/SEEKFREE_OLED
  +--> key1_short_press/key

key1_short_press/key                          ----- -----  ----- -----

key2_check/key                                ----- -----  ----- -----
  +--> oled_p6x8str_spi/SEEKFREE_OLED
  +--> key2_short_press/key

key2_short_press/key                          ----- -----  ----- -----
  +--> servo_pitch_set_angle/servo
  +--> delay_ms/zf_delay

key3_check/key                                ----- -----  ----- -----
  +--> oled_p6x8str_spi/SEEKFREE_OLED
  +--> key3_short_press/key

key3_short_press/key                          ----- -----  ----- -----
  +--> pwm_duty/zf_pwm
  +--> delay_ms/zf_delay

key4_check/key                                ----- -----  ----- -----
  +--> oled_p6x8str_spi/SEEKFREE_OLED
  +--> key4_short_press/key

key4_short_press/key                          ----- -----  ----- -----

key5_check/key                                ----- -----  ----- -----
  +--> oled_p6x8str_spi/SEEKFREE_OLED

host_comm_sender/host_comm                    ----- -----  ----- -----
  +--> uart_sendstring/uart

wheel_dynamic_adjusting/motor_driver_boa+     ----- -----  ----- -----
... rds
  +--> wheel_adjust/motor_driver_boards

uart_tx_send_buffer/uart                      ----- -----  ----- -----
  +--> uart_sendstring/uart

wheel_oled_update/motor_driver_boards         ----- -----  ----- -----
  +--> oled_printf_int32_spi/SEEKFREE_OLED
L251 LINKER/LOCATER V4.66.93.0                                                        05/04/2024  13:35:58  PAGE 12



oled_printf_int32_spi/SEEKFREE_OLED           ----- -----  ----- -----
  +--> zf_sprintf/SEEKFREE_PRINTF
  +--> oled_p6x8str_spi/SEEKFREE_OLED

zf_sprintf/SEEKFREE_PRINTF                    ----- -----  ----- -----
  +--> number_conversion_ascii/SEEKFREE_PRINTF
  +--> printf_reverse_order/SEEKFREE_PRINTF
  +--> memcpy?_/memcpy

number_conversion_ascii/SEEKFREE_PRINTF       ----- -----  ----- -----
  +--> ?C?SLDIV/?C?SLDIV
  +--> ?C?ULIDIV/?C?ULDIV

printf_reverse_order/SEEKFREE_PRINTF          ----- -----  ----- -----

memcpy?_/memcpy                               ----- -----  ----- -----

*** NEW ROOT ********************************

?C_C51STARTUP?2                               ----- -----  ----- -----



PUBLIC SYMBOLS OF MODULE:  .\Out_File\SEEKFREE (board)


      VALUE       CLASS    TYPE      PUBLIC SYMBOL NAME
      =================================================
      00FF206EH   CODE     NEAR LAB  ?C?CASTF
      000000FFH   NUMBER   ---       ?C?CODESEG
      00FF203BH   CODE     NEAR LAB  ?C?FCASTC
      00FF2036H   CODE     NEAR LAB  ?C?FCASTI
      00FF2031H   CODE     NEAR LAB  ?C?FCASTL
      00FF1E12H   CODE     ---       ?C?FPADD
      00FF211BH   CODE     NEAR LAB  ?C?FPATOF
      00FF1FEDH   CODE     ---       ?C?FPCMP
      00FF1FEBH   CODE     ---       ?C?FPCMP3
      00FF1F6AH   CODE     ---       ?C?FPDIV
      00FF20CAH   CODE     ---       ?C?FPGETOPN2
      00FF1ECAH   CODE     ---       ?C?FPMUL
      00FF2107H   CODE     ---       ?C?FPNANRESULT
      00FF21D7H   CODE     ---       ?C?FPNEG
      00FF210FH   CODE     ---       ?C?FPOVERFLOW
      00FF20E3H   CODE     ---       ?C?FPRESULT
      00FF20F9H   CODE     ---       ?C?FPRESULT2
      00FF1E0FH   CODE     ---       ?C?FPSUB
      00FF210CH   CODE     ---       ?C?FPUNDERFLOW
      00FF2215H   CODE     ---       ?C?FTNPWR
      00FF470FH   CODE     ---       ?C?INITEDATA
      00FF4EA2H   HCONST   WORD      ?C?INITEDATA_END
      00FF224CH   CODE     ---       ?C?LIMUL
      00FF22A8H   CODE     NEAR LAB  ?C?SLDIV
      00FF0000H   CODE     ---       ?C?STARTUP
      00FF2257H   CODE     NEAR LAB  ?C?ULDIV
      00FF2255H   CODE     NEAR LAB  ?C?ULIDIV
      00000001H   NUMBER   ---       ?C?XDATASEG
      00FF0000H   CODE     ---       ?C_STARTUP
      00000526H   EDATA    BYTE      ?fifo_init?BYTE
      00000008H   EDATA    BYTE      ?fifo_read_buffer?BYTE
      000005B8H   EDATA    BYTE      ?fifo_read_element?BYTE
      000004AAH   EDATA    BYTE      ?fifo_read_tail_buffer?BYTE
      00000514H   EDATA    BYTE      ?fifo_write_buffer?BYTE
      000005FCH   EDATA    BYTE      ?iap_read_bytes?BYTE
      00000606H   EDATA    BYTE      ?iap_write_bytes?BYTE
L251 LINKER/LOCATER V4.66.93.0                                                        05/04/2024  13:35:58  PAGE 13


      000006C1H   EDATA    BYTE      ?iic_init?BYTE
      00000500H   EDATA    BYTE      ?number_conversion_ascii?BYTE
      000003F2H   EDATA    BYTE      ?oled_printf_float?BYTE
      00000422H   EDATA    BYTE      ?oled_printf_float_spi?BYTE
      000004ECH   EDATA    BYTE      ?pwm_freq?BYTE
      000004D8H   EDATA    BYTE      ?pwm_init?BYTE
      0000059EH   EDATA    BYTE      ?spi_init?BYTE
      00000574H   EDATA    BYTE      ?uart_init?BYTE
      00000610H   EDATA    BYTE      ?uart_putbuff?BYTE
      00000363H   EDATA    BYTE      ?zf_sprintf?BYTE
      0000039DH   EDATA    FLOAT     acc_x
      000003A1H   EDATA    FLOAT     acc_y
      000003A5H   EDATA    FLOAT     acc_z
*SFR* 000000BCH   DATA     BYTE      ADC_CONTR
*DEL*:00000000H   CODE     ---       adc_init
*DEL*:00000000H   CODE     ---       adc_once
*SFR* 000000BDH   DATA     BYTE      ADC_RES
*SFR* 000000BEH   DATA     BYTE      ADC_RESL
*SFR* 000000DEH   DATA     BYTE      ADCCFG
*DEL*:00000000H   CODE     ---       atof
      00FF20ABH   CODE     NEAR LAB  atof?_
*DEL*:00000000H   CODE     ---       atoi
*SFR* 000000EFH   DATA     BYTE      AUXINTIF
*SFR* 0000008EH   DATA     BYTE      AUXR
*SFR* 00000097H   DATA     BYTE      AUXR2
*DEL*:00000000H   CODE     ---       bluetooth_ch9141_init
*DEL*:00000000H   CODE     ---       bluetooth_ch9141_read_buff
*DEL*:00000000H   CODE     ---       bluetooth_ch9141_send_buff
*DEL*:00000000H   CODE     ---       bluetooth_ch9141_uart_callback
      00FF40BAH   CODE     ---       board_init
      00000713H   EDATA    ---       busy
*SFR* 000000F1H   DATA     BYTE      CANICR
*SFR* 000000EAH   DATA     BYTE      CKCON
*SFR* 000000E6H   DATA     BYTE      CMPCR1
*SFR* 000000E7H   DATA     BYTE      CMPCR2
*DEL*:00000000H   CODE     ---       ctimer_count_clean
*DEL*:00000000H   CODE     ---       ctimer_count_init
*DEL*:00000000H   CODE     ---       ctimer_count_read
      00FF0046H   CODE     ---       delay_init
      00FF49E7H   CODE     ---       delay_ms
*DEL*:00000000H   CODE     ---       delay_us
*DEL*:00000000H   CODE     ---       DisableGlobalIRQ
*SFR* 000000A8H.7 DATA     BIT       EA
*SFR* 000000BAH.7 DATA     BIT       EAXFR
*DEL*:00000000H   CODE     ---       eeprom_trig
      00FF0087H   CODE     ---       EnableGlobalIRQ
*SFR* 000000A8H.4 DATA     BIT       ES
*SFR* 000000A8H.1 DATA     BIT       ET0
*SFR* 000000A8H.3 DATA     BIT       ET1
*SFR* 000000A8H.0 DATA     BIT       EX0
*SFR* 000000A8H.2 DATA     BIT       EX1
*DEL*:00000000H   CODE     ---       exit_init
*SFR* 000000D0H.5 DATA     BIT       F0
*DEL*:00000000H   CODE     ---       fifo_clear
*DEL*:00000000H   CODE     ---       fifo_init
*DEL*:00000000H   CODE     ---       fifo_read_buffer
*DEL*:00000000H   CODE     ---       fifo_read_element
*DEL*:00000000H   CODE     ---       fifo_read_tail_buffer
*DEL*:00000000H   CODE     ---       fifo_used
*DEL*:00000000H   CODE     ---       fifo_write_buffer
*DEL*:00000000H   CODE     ---       fifo_write_element
      00FF0003H   CODE     ---       gpio_init
      00FF0E9EH   CODE     ---       gpio_mode
*DEL*:00000000H   CODE     ---       gpio_pull_set
*SFR* 000000E8H.1 DATA     BIT       gpio_wheel_x_front_backward
L251 LINKER/LOCATER V4.66.93.0                                                        05/04/2024  13:35:58  PAGE 14


*SFR* 000000E8H.2 DATA     BIT       gpio_wheel_x_front_forward
*SFR* 000000E8H.5 DATA     BIT       gpio_wheel_x_rear_backward
*SFR* 000000E8H.4 DATA     BIT       gpio_wheel_x_rear_forward
*SFR* 00000090H.1 DATA     BIT       gpio_wheel_y_front_backward
*SFR* 00000090H.0 DATA     BIT       gpio_wheel_y_front_forward
*SFR* 00000090H.5 DATA     BIT       gpio_wheel_y_rear_backward
*SFR* 00000090H.6 DATA     BIT       gpio_wheel_y_rear_forward
      000003B6H   EDATA    FLOAT     gyro_x
      000003BAH   EDATA    FLOAT     gyro_y
      000003BEH   EDATA    FLOAT     gyro_z
      00FF2A6EH   CODE     ---       host_comm_irqhandler
      00FF41E6H   CODE     ---       host_comm_sender
      00FF4A86H   CODE     ---       host_comm_uart_init
*SFR* 000000F6H   DATA     BYTE      IAP_ADDRE
*SFR* 000000C3H   DATA     BYTE      IAP_ADDRH
*SFR* 000000C4H   DATA     BYTE      IAP_ADDRL
*SFR* 000000C5H   DATA     BYTE      IAP_CMD
*SFR* 000000C7H   DATA     BYTE      IAP_CONTR
*SFR* 000000C2H   DATA     BYTE      IAP_DATA
*DEL*:00000000H   CODE     ---       iap_erase_page
*DEL*:00000000H   CODE     ---       iap_get_cmd_state
*DEL*:00000000H   CODE     ---       iap_idle
*DEL*:00000000H   CODE     ---       iap_init
*DEL*:00000000H   CODE     ---       iap_read_bytes
*DEL*:00000000H   CODE     ---       iap_set_tps
*SFR* 000000F5H   DATA     BYTE      IAP_TPS
*SFR* 000000C6H   DATA     BYTE      IAP_TRIG
*DEL*:00000000H   CODE     ---       iap_write_bytes
*SFR* 000000A8H   DATA     BYTE      IE
*SFR* 000000AFH   DATA     BYTE      IE2
*DEL*:00000000H   CODE     ---       iic_change_pin
      00FF4A1CH   CODE     ---       iic_delay_us
*DEL*:00000000H   CODE     ---       iic_init
*DEL*:00000000H   CODE     ---       iic_read_reg
*DEL*:00000000H   CODE     ---       iic_read_reg_bytes
*DEL*:00000000H   CODE     ---       iic_write_reg
*SFR* 0000008FH   DATA     BYTE      INTCLKO
*SFR* 000000B8H   DATA     BYTE      IP
*SFR* 000000B5H   DATA     BYTE      IP2
*SFR* 000000B6H   DATA     BYTE      IP2H
*SFR* 000000DFH   DATA     BYTE      IP3
*SFR* 000000EEH   DATA     BYTE      IP3H
*SFR* 000000B7H   DATA     BYTE      IPH
*SFR* 0000009DH   DATA     BYTE      IRCBAND
*SFR* 0000009FH   DATA     BYTE      IRTRIM
*DEL*:00000000H   CODE     ---       ISSPACE?_
*SFR* 00000088H.0 DATA     BIT       IT0
*SFR* 00000088H.2 DATA     BIT       IT1
*SFR* 000000C0H.1 DATA     BIT       key1
      00FF464DH   CODE     ---       key1_check
      00FF4BEBH   CODE     ---       key1_short_press
      0000071DH   EDATA    BYTE      key1_up_store
*SFR* 000000F8H.3 DATA     BIT       key2
      00FF4554H   CODE     ---       key2_check
      00FF3B07H   CODE     ---       key2_short_press
      0000071EH   EDATA    BYTE      key2_up_store
*SFR* 000000C0H.3 DATA     BIT       key3
      00FF45A7H   CODE     ---       key3_check
      00FF3A0BH   CODE     ---       key3_short_press
      0000071FH   EDATA    BYTE      key3_up_store
*SFR* 000000C0H.2 DATA     BIT       key4
      00FF45FAH   CODE     ---       key4_check
      00FF4BF5H   CODE     ---       key4_short_press
      00000720H   EDATA    BYTE      key4_up_store
*SFR* 000000C0H.4 DATA     BIT       key5
L251 LINKER/LOCATER V4.66.93.0                                                        05/04/2024  13:35:58  PAGE 15


      00FF469EH   CODE     ---       key5_check
*DEL*:00000000H   CODE     ---       key5_short_press
      00000721H   EDATA    BYTE      key5_up_store
*DEL*:00000000H   CODE     ---       keys_ui_init
*DEL*:00000000H   CODE     ---       laser_ranging
      000002F1H   EDATA    ---       laser_ranging_cmd_arr_continous
      000002E2H   EDATA    ---       laser_ranging_cmd_arr_laseroff
      00000336H   EDATA    ---       laser_ranging_cmd_arr_laseron
      000002ADH   EDATA    ---       laser_ranging_cmd_arr_readcache
      000002C9H   EDATA    ---       laser_ranging_cmd_arr_setfreq_10hz
      000002CEH   EDATA    ---       laser_ranging_cmd_arr_setfreq_20hz
      00000304H   EDATA    ---       laser_ranging_cmd_arr_setfreq_5hz
      00000294H   EDATA    ---       laser_ranging_cmd_arr_setrange_10m
      00000299H   EDATA    ---       laser_ranging_cmd_arr_setrange_30m
      0000029EH   EDATA    ---       laser_ranging_cmd_arr_setrange_50m
      000002ECH   EDATA    ---       laser_ranging_cmd_arr_setrange_5m
      000002A8H   EDATA    ---       laser_ranging_cmd_arr_setrange_80m
      000002D3H   EDATA    ---       laser_ranging_cmd_arr_setresolution_0_1mm
      000002B6H   EDATA    ---       laser_ranging_cmd_arr_setresolution_1mm
      00000273H   EDATA    ---       laser_ranging_cmd_arr_shutdown
      00000281H   EDATA    ---       laser_ranging_cmd_arr_single
      000002C5H   EDATA    ---       laser_ranging_cmd_arr_single_broadcast
      00FF4B74H   CODE     ---       laser_ranging_get_uart_value
*DEL*:00000000H   CODE     ---       laser_ranging_init
*DEL*:00000000H   CODE     ---       laser_ranging_irqhandler
*SFR* 000000C0H.5 DATA     BIT       led_1
*SFR* 000000F8H.7 DATA     BIT       led_2
*SFR* 000000F8H.6 DATA     BIT       led_3
*SFR* 000000F8H.5 DATA     BIT       led_4
*SFR* 000000F9H   DATA     BYTE      LINICR
      000002E7H   EDATA    ---       lrcmd_continous
      000002D8H   EDATA    ---       lrcmd_laseroff
      000002FAH   EDATA    ---       lrcmd_laseron
      0000028AH   EDATA    ---       lrcmd_readcache
      000002B1H   EDATA    ---       lrcmd_setfreq_10hz
      000002BBH   EDATA    ---       lrcmd_setfreq_20hz
      000002F5H   EDATA    ---       lrcmd_setfreq_5hz
      0000026EH   EDATA    ---       lrcmd_setrange_10m
      00000277H   EDATA    ---       lrcmd_setrange_30m
      0000027CH   EDATA    ---       lrcmd_setrange_50m
      000002DDH   EDATA    ---       lrcmd_setrange_5m
      00000285H   EDATA    ---       lrcmd_setrange_80m
      000002C0H   EDATA    ---       lrcmd_setresolution_0_1mm
      0000028FH   EDATA    ---       lrcmd_setresolution_1mm
      000002FFH   EDATA    ---       lrcmd_shutdown
      00000331H   EDATA    ---       lrcmd_single
      000002A3H   EDATA    ---       lrcmd_single_broadcast
      00000309H   EDATA    ---       lrdata
      00FF473BH   CODE     ---       main
      00FF4B04H   CODE     ---       memcpy?_
      00FF0026H   CODE     ---       memset?_
      00FF43FAH   CODE     ---       motor_drivers_pwm_init
      00FF36D7H   CODE     ---       number_conversion_ascii
*DEL*:00000000H   CODE     ---       NVIC_SetPriority
      00FF0C76H   CODE     ---       oled_6x8
      00FF0096H   CODE     ---       oled_8x16
*DEL*:00000000H   CODE     ---       oled_clrpixel
*DEL*:00000000H   CODE     ---       oled_clrpixel_spi
*DEL*:00000000H   CODE     ---       oled_dis_bmp
*DEL*:00000000H   CODE     ---       oled_dis_bmp_spi
*DEL*:00000000H   CODE     ---       oled_fill
      00FF4344H   CODE     ---       oled_fill_spi
*DEL*:00000000H   CODE     ---       oled_hexascii
*DEL*:00000000H   CODE     ---       oled_hexascii_spi
*DEL*:00000000H   CODE     ---       oled_init
L251 LINKER/LOCATER V4.66.93.0                                                        05/04/2024  13:35:58  PAGE 16


      00FF3F36H   CODE     ---       oled_init_spi
*DEL*:00000000H   CODE     ---       oled_int16
*DEL*:00000000H   CODE     ---       oled_int16_spi
*DEL*:00000000H   CODE     ---       oled_p6x8str
      00FF3CC8H   CODE     ---       oled_p6x8str_spi
*DEL*:00000000H   CODE     ---       oled_p8x16str
*DEL*:00000000H   CODE     ---       oled_p8x16str_spi
*DEL*:00000000H   CODE     ---       oled_print_chinese
*DEL*:00000000H   CODE     ---       oled_print_chinese_spi
*DEL*:00000000H   CODE     ---       oled_printf_float
*DEL*:00000000H   CODE     ---       oled_printf_float_spi
*DEL*:00000000H   CODE     ---       oled_printf_int32
      00FF3E68H   CODE     ---       oled_printf_int32_spi
*DEL*:00000000H   CODE     ---       oled_putpixel
*DEL*:00000000H   CODE     ---       oled_putpixel_spi
      00FF4A51H   CODE     ---       oled_set_pos
      00FF49B1H   CODE     ---       oled_set_pos_spi
*DEL*:00000000H   CODE     ---       oled_uint16
*DEL*:00000000H   CODE     ---       oled_uint16_spi
      00FF4787H   CODE     ---       oled_wrcmd
      00FF4B8AH   CODE     ---       oled_wrcmd_spi
      00FF47D2H   CODE     ---       oled_wrdat
      00FF4B9FH   CODE     ---       oled_wrdat_spi
*SFR* 00000080H   DATA     BYTE      P0
*SFR* 00000080H.7 DATA     BIT       P07
*SFR* 00000094H   DATA     BYTE      P0M0
*SFR* 00000093H   DATA     BYTE      P0M1
*SFR* 00000090H   DATA     BYTE      P1
*SFR* 00000092H   DATA     BYTE      P1M0
*SFR* 00000091H   DATA     BYTE      P1M1
*SFR* 000000A0H   DATA     BYTE      P2
*SFR* 000000A0H.0 DATA     BIT       P20
*SFR* 000000A0H.1 DATA     BIT       P21
*SFR* 000000A0H.2 DATA     BIT       P22
*SFR* 000000A0H.3 DATA     BIT       P23
*SFR* 000000A0H.5 DATA     BIT       P25
*SFR* 00000096H   DATA     BYTE      P2M0
*SFR* 00000095H   DATA     BYTE      P2M1
*SFR* 000000B0H   DATA     BYTE      P3
*SFR* 000000B2H   DATA     BYTE      P3M0
*SFR* 000000B1H   DATA     BYTE      P3M1
*SFR* 000000C0H   DATA     BYTE      P4
*SFR* 000000B4H   DATA     BYTE      P4M0
*SFR* 000000B3H   DATA     BYTE      P4M1
*SFR* 000000C8H   DATA     BYTE      P5
*SFR* 000000CAH   DATA     BYTE      P5M0
*SFR* 000000C9H   DATA     BYTE      P5M1
*SFR* 000000E8H   DATA     BYTE      P6
*SFR* 000000CCH   DATA     BYTE      P6M0
*SFR* 000000CBH   DATA     BYTE      P6M1
*SFR* 000000F8H   DATA     BYTE      P7
*SFR* 000000E2H   DATA     BYTE      P7M0
*SFR* 000000E1H   DATA     BYTE      P7M1
*SFR* 000000A2H   DATA     BYTE      P_SW1
*SFR* 000000BAH   DATA     BYTE      P_SW2
*SFR* 000000BBH   DATA     BYTE      P_SW3
*SFR* 00000087H   DATA     BYTE      PCON
*DEL*:00000000H   CODE     ---       pit_timer_ms
      00FF4151H   CODE     ---       printf_reverse_order
*SFR* 000000D0H   DATA     BYTE      PSW
*DEL*:00000000H   CODE     ---       putchar
      00FF4EC4H   HCONST   ---       PWM_ARR_ADDR
      00FF4ECCH   HCONST   ---       PWM_CCER_ADDR
      00FF4EDCH   HCONST   ---       PWM_CCMR_ADDR
      00FF4EA4H   HCONST   ---       PWM_CCR_ADDR
L251 LINKER/LOCATER V4.66.93.0                                                        05/04/2024  13:35:58  PAGE 17


      00FF35BFH   CODE     ---       pwm_duty
*DEL*:00000000H   CODE     ---       pwm_freq
      00FF22DCH   CODE     ---       pwm_init
      00FF26B6H   CODE     ---       pwm_set_gpio
      000001FCH   EDATA    ---       qmc5883_char_magx
      00000208H   EDATA    ---       qmc5883_char_magy
      00000214H   EDATA    ---       qmc5883_char_magz
      00000222H   EDATA    ---       qmc5883_char_yaw
      0000022CH   EDATA    ---       qmc5883_cmd_buf
      00000197H   EDATA    ---       qmc5883_data
*DEL*:00000000H   CODE     ---       qmc5883_data_parse
*DEL*:00000000H   CODE     ---       qmc5883_irqhandler
      000001FAH   EDATA    INT       qmc5883_magx
      00000206H   EDATA    INT       qmc5883_magy
      00000212H   EDATA    INT       qmc5883_magz
      0000021EH   EDATA    FLOAT     qmc5883_yaw
      00000261H   EDATA    ---       qmccmd_check_connection
      0000024CH   EDATA    ---       qmccmd_clear_mag_offset
      000001D7H   EDATA    ---       qmccmd_disable_filter
      000001E1H   EDATA    ---       qmccmd_get_device_id
      0000017CH   EDATA    ---       qmccmd_init_sensor
      000001F3H   EDATA    ---       qmccmd_set_device_id
      00000184H   EDATA    ---       qmccmd_set_filter_value
      00000172H   EDATA    ---       qmccmd_set_measure_rate
      00000256H   EDATA    ---       qmccmd_set_single_measure_mode
      0000015EH   EDATA    ---       qmccmd_set_uart_baudrate_115200
      00000168H   EDATA    ---       qmccmd_set_uart_baudrate_460800
      000001E9H   EDATA    ---       qmccmd_set_uart_baudrate_9600
      00000264H   EDATA    ---       qmccmd_start_calibration
      0000018DH   EDATA    ---       qmccmd_stop_calibration
*DEL*:00000000H   CODE     ---       recv_ack
*DEL*:00000000H   CODE     ---       recv_data
*SFR* 00000098H.0 DATA     BIT       RI
*SFR* 000000FFH   DATA     BYTE      RSTCFG
*SFR* 0000009BH   DATA     BYTE      S2BUF
*SFR* 0000009AH   DATA     BYTE      S2CON
*SFR* 000000ADH   DATA     BYTE      S3BUF
*SFR* 000000ACH   DATA     BYTE      S3CON
*SFR* 000000FEH   DATA     BYTE      S4BUF
*SFR* 000000FDH   DATA     BYTE      S4CON
*SFR* 00000099H   DATA     BYTE      SBUF
*SFR* 00000098H   DATA     BYTE      SCON
*DEL*:00000000H   CODE     ---       send_ack
*DEL*:00000000H   CODE     ---       send_data
*DEL*:00000000H   CODE     ---       send_nak
      00000022H.4 BIT      BIT       senderr
      00000022H.0 BIT      BIT       sendok
      00000022H.2 BIT      BIT       sendwheelok
      00000022H.3 BIT      BIT       sendwheelwarnexceed
      00000022H.1 BIT      BIT       sendwrongcmd
      00FF4451H   CODE     ---       servo_claw_get_duty
      00FF4B42H   CODE     ---       servo_claw_set_angle
      00FF4977H   CODE     ---       servo_init
*DEL*:00000000H   CODE     ---       servo_pan_get_duty
      00FF4B5BH   CODE     ---       servo_pan_set_angle
      00FF44A8H   CODE     ---       servo_pitch_get_duty
      00FF4B29H   CODE     ---       servo_pitch_set_angle
      00FF325BH   CODE     ---       set_clk
*SFR* 000000CEH   DATA     BYTE      SPCTL
*SFR* 000000CFH   DATA     BYTE      SPDAT
*DEL*:00000000H   CODE     ---       spi_change_mode
*DEL*:00000000H   CODE     ---       spi_change_pin
      00FF3D9AH   CODE     ---       spi_init
      00FF4BC9H   CODE     ---       spi_mosi
*SFR* 000000CDH   DATA     BYTE      SPSTAT
L251 LINKER/LOCATER V4.66.93.0                                                        05/04/2024  13:35:58  PAGE 18


*DEL*:00000000H   CODE     ---       start
*SFR* 00000080H.5 DATA     BIT       stepper_en
      00FF4BB4H   CODE     ---       stepper_init
*DEL*:00000000H   CODE     ---       stepper_pwm_init
*DEL*:00000000H   CODE     ---       stop
      00000727H   EDATA    LONG      sys_clk
*SFR* 000000D6H   DATA     BYTE      T2H
*SFR* 000000D7H   DATA     BYTE      T2L
*SFR* 000000D4H   DATA     BYTE      T3H
*SFR* 000000D5H   DATA     BYTE      T3L
*SFR* 000000D2H   DATA     BYTE      T4H
*SFR* 000000D3H   DATA     BYTE      T4L
*SFR* 000000DDH   DATA     BYTE      T4T3M
*SFR* 00000088H   DATA     BYTE      TCON
      000003CCH   EDATA    FLOAT     temperature
      00FF0686H   CODE     ---       tft_ascii
*SFR* 0000008CH   DATA     BYTE      TH0
*SFR* 0000008DH   DATA     BYTE      TH1
*SFR* 00000098H.1 DATA     BIT       TI
*SFR* 0000008AH   DATA     BYTE      TL0
*SFR* 0000008BH   DATA     BYTE      TL1
*SFR* 00000089H   DATA     BYTE      TMOD
*SFR* 00000088H.4 DATA     BIT       TR0
*SFR* 00000088H.6 DATA     BIT       TR1
      00000020H.4 BIT      BIT       uart1_cr
      00FF3BEFH   CODE     ---       uart1_isr
      00000020H.0 BIT      BIT       uart1_lf
      00000056H   EDATA    ---       uart1_rx_buffer
      00000156H   EDATA    BYTE      uart1_rx_counter
      00000021H.4 BIT      BIT       uart1_rx_rdy
      00000026H   EDATA    ---       uart1_tx_buffer_from_uart2
      00000023H   EDATA    BYTE      uart1_tx_buffer_from_uart2_index
      00000036H   EDATA    ---       uart1_tx_buffer_from_uart3
      00000024H   EDATA    BYTE      uart1_tx_buffer_from_uart3_index
      00000046H   EDATA    ---       uart1_tx_buffer_from_uart4
      00000025H   EDATA    BYTE      uart1_tx_buffer_from_uart4_index
      00000021H.0 BIT      BIT       uart1_tx_busy
      00000159H   EDATA    BYTE      uart1_tx_counter
      00000020H.5 BIT      BIT       uart2_cr
      00FF481DH   CODE     ---       uart2_isr
      00000020H.1 BIT      BIT       uart2_lf
      00000096H   EDATA    ---       uart2_rx_buffer
      00000157H   EDATA    BYTE      uart2_rx_counter
      00000021H.5 BIT      BIT       uart2_rx_rdy
      00000021H.1 BIT      BIT       uart2_tx_busy
      0000015BH   EDATA    BYTE      uart2_tx_counter
      00000020H.6 BIT      BIT       uart3_cr
      00FF4866H   CODE     ---       uart3_isr
      00000020H.2 BIT      BIT       uart3_lf
      000000D6H   EDATA    ---       uart3_rx_buffer
      00000158H   EDATA    BYTE      uart3_rx_counter
      00000021H.6 BIT      BIT       uart3_rx_rdy
      00000021H.2 BIT      BIT       uart3_tx_busy
      0000015CH   EDATA    BYTE      uart3_tx_counter
      00000020H.7 BIT      BIT       uart4_cr
      00FF48AFH   CODE     ---       uart4_isr
      00000020H.3 BIT      BIT       uart4_lf
      00000116H   EDATA    ---       uart4_rx_buffer
      0000015AH   EDATA    BYTE      uart4_rx_counter
      00000021H.7 BIT      BIT       uart4_rx_rdy
      00000021H.3 BIT      BIT       uart4_tx_busy
      0000015DH   EDATA    BYTE      uart4_tx_counter
      00FF2D62H   CODE     ---       uart_init
*DEL*:00000000H   CODE     ---       uart_initialize
*DEL*:00000000H   CODE     ---       uart_port_init
L251 LINKER/LOCATER V4.66.93.0                                                        05/04/2024  13:35:58  PAGE 19


*DEL*:00000000H   CODE     ---       uart_putbuff
      00FF425FH   CODE     ---       uart_putchar
*DEL*:00000000H   CODE     ---       uart_putstr
*DEL*:00000000H   CODE     ---       uart_running
*DEL*:00000000H   CODE     ---       uart_sendbyte
      00FF3904H   CODE     ---       uart_sendcmd
      00FF3FFBH   CODE     ---       uart_sendstring
      00FF4ADDH   CODE     ---       uart_tx_send_buffer
      00FF48F8H   CODE     ---       ui_init
      00FF4BDBH   CODE     ---       ui_keys_init
      00000799H   EDATA    BYTE      ui_loading_index
*DEL*:00000000H   CODE     ---       ui_running
*SFR* 000000F4H   DATA     BYTE      USBCON
*SFR* 000000A6H   DATA     BYTE      VRTRIM
      00FF43A3H   CODE     ---       wait
*SFR* 000000C1H   DATA     BYTE      WDT_CONTR
      00FF3461H   CODE     ---       wheel_adjust
      00FF3014H   CODE     ---       wheel_direction
      00FF4AB2H   CODE     ---       wheel_dynamic_adjusting
*DEL*:00000000H   CODE     ---       wheel_dynamic_calibrating
      00FF4938H   CODE     ---       wheel_oled_init
      00FF44FFH   CODE     ---       wheel_oled_update
*DEL*:00000000H   CODE     ---       wheel_speed
      00FF37EEH   CODE     ---       wheel_speed_parser
      000005C4H   EDATA    FLOAT     wheel_target_yaw
      000005CAH   EDATA    INT       wheel_x_front_speed
      000005C8H   EDATA    INT       wheel_x_rear_speed
      000005CEH   EDATA    INT       wheel_y_front_speed
      000005CCH   EDATA    INT       wheel_y_rear_speed
*DEL*:00000000H   CODE     ---       wheel_yaw_calibrating
      00000022H.5 BIT      BIT       wheel_yaw_calibrating_flag
*DEL*:00000000H   CODE     ---       wireless_ch573_callback
*DEL*:00000000H   CODE     ---       wireless_ch573_init
*DEL*:00000000H   CODE     ---       wireless_ch573_read_buff
*DEL*:00000000H   CODE     ---       wireless_ch573_send_buff
      0000076FH   EDATA    INT       wireless_type
*DEL*:00000000H   CODE     ---       wireless_uart_callback
*DEL*:00000000H   CODE     ---       wireless_uart_init
*DEL*:00000000H   CODE     ---       wireless_uart_read_buff
*DEL*:00000000H   CODE     ---       wireless_uart_send_buff
      0000039AH   EDATA    ---       wt61_cmd_calibrate_acc
      000003C9H   EDATA    ---       wt61_cmd_set_axis_z_zero
      000003ADH   EDATA    ---       wt61_cmd_set_band_10Hz
      000003DFH   EDATA    ---       wt61_cmd_set_band_188Hz
      000003B0H   EDATA    ---       wt61_cmd_set_band_20Hz
      000003DCH   EDATA    ---       wt61_cmd_set_band_265Hz
      000003B3H   EDATA    ---       wt61_cmd_set_band_42Hz
      000003E8H   EDATA    ---       wt61_cmd_set_band_5Hz
      000003C2H   EDATA    ---       wt61_cmd_set_band_98Hz
      000003D9H   EDATA    ---       wt61_cmd_set_horizontal
      000003D0H   EDATA    ---       wt61_cmd_set_iic_mode
      000003D6H   EDATA    ---       wt61_cmd_set_uart_115200
      000003E5H   EDATA    ---       wt61_cmd_set_uart_9600
      000003D3H   EDATA    ---       wt61_cmd_set_uart_mode
      000003E2H   EDATA    ---       wt61_cmd_set_vertical
      000003EBH   EDATA    ---       wt61_cmd_switch_power
*DEL*:00000000H   CODE     ---       wt61_data_parse
*DEL*:00000000H   CODE     ---       wt61_init
*DEL*:00000000H   CODE     ---       wt61_oled_disp
      00000022H.6 BIT      BIT       wt61_oled_disp_flag
*DEL*:00000000H   CODE     ---       wt61_oled_init
*SFR* 000000E9H   DATA     BYTE      WTST
      000003A9H   EDATA    FLOAT     x_roll
      000003EEH   EDATA    FLOAT     y_pitch
      000003C5H   EDATA    FLOAT     z_yaw
L251 LINKER/LOCATER V4.66.93.0                                                        05/04/2024  13:35:58  PAGE 20


      0000072FH   EDATA    WORD      zf_delay_ms
      00000731H   EDATA    WORD      zf_delay_us
      00FF17ABH   CODE     ---       zf_sprintf



SYMBOL TABLE OF MODULE:  .\Out_File\SEEKFREE (board)

      VALUE       REP       CLASS    TYPE      SYMBOL NAME
      ====================================================
      ---         MODULE    ---      ---       board
      00FF0087H   PUBLIC    CODE     ---       EnableGlobalIRQ
      00FF40BAH   PUBLIC    CODE     ---       board_init
      00FF325BH   PUBLIC    CODE     ---       set_clk
      00000727H   PUBLIC    EDATA    LONG      sys_clk
      00000094H   SFRSYM    DATA     BYTE      P0M0
      000000D0H   SFRSYM    DATA     BYTE      PSW
      000000BAH.7 SFRSYM    DATA     BIT       EAXFR
      0000009DH   SFRSYM    DATA     BYTE      IRCBAND
      00000097H   SFRSYM    DATA     BYTE      AUXR2
      000000EAH   SFRSYM    DATA     BYTE      CKCON
      000000EFH   SFRSYM    DATA     BYTE      AUXINTIF
      000000FDH   SFRSYM    DATA     BYTE      S4CON
      000000ACH   SFRSYM    DATA     BYTE      S3CON
      0000009AH   SFRSYM    DATA     BYTE      S2CON
      000000A6H   SFRSYM    DATA     BYTE      VRTRIM
      000000B7H   SFRSYM    DATA     BYTE      IPH
      000000CDH   SFRSYM    DATA     BYTE      SPSTAT
      000000DDH   SFRSYM    DATA     BYTE      T4T3M
      0000009FH   SFRSYM    DATA     BYTE      IRTRIM
      000000C1H   SFRSYM    DATA     BYTE      WDT_CONTR
      000000E9H   SFRSYM    DATA     BYTE      WTST
      000000DFH   SFRSYM    DATA     BYTE      IP3
      000000F4H   SFRSYM    DATA     BYTE      USBCON
      000000B5H   SFRSYM    DATA     BYTE      IP2
      000000FFH   SFRSYM    DATA     BYTE      RSTCFG
      000000F9H   SFRSYM    DATA     BYTE      LINICR
      0000008EH   SFRSYM    DATA     BYTE      AUXR
      000000AFH   SFRSYM    DATA     BYTE      IE2
      00000088H   SFRSYM    DATA     BYTE      TCON
      00000089H   SFRSYM    DATA     BYTE      TMOD
      00000098H   SFRSYM    DATA     BYTE      SCON
      000000F1H   SFRSYM    DATA     BYTE      CANICR
      00000087H   SFRSYM    DATA     BYTE      PCON
      000000BCH   SFRSYM    DATA     BYTE      ADC_CONTR
      000000E7H   SFRSYM    DATA     BYTE      CMPCR2
      000000E6H   SFRSYM    DATA     BYTE      CMPCR1
      000000DEH   SFRSYM    DATA     BYTE      ADCCFG
      000000B8H   SFRSYM    DATA     BYTE      IP
      0000008FH   SFRSYM    DATA     BYTE      INTCLKO
      000000EEH   SFRSYM    DATA     BYTE      IP3H
      000000B6H   SFRSYM    DATA     BYTE      IP2H
      000000A8H   SFRSYM    DATA     BYTE      IE
      000000BBH   SFRSYM    DATA     BYTE      P_SW3
      000000BAH   SFRSYM    DATA     BYTE      P_SW2
      000000A2H   SFRSYM    DATA     BYTE      P_SW1
      000000CEH   SFRSYM    DATA     BYTE      SPCTL
      000000F8H   SFRSYM    DATA     BYTE      P7
      000000A8H.7 SFRSYM    DATA     BIT       EA
      000000E1H   SFRSYM    DATA     BYTE      P7M1
      000000E8H   SFRSYM    DATA     BYTE      P6
      000000C8H   SFRSYM    DATA     BYTE      P5
      000000CBH   SFRSYM    DATA     BYTE      P6M1
      000000E2H   SFRSYM    DATA     BYTE      P7M0
      000000C0H   SFRSYM    DATA     BYTE      P4
L251 LINKER/LOCATER V4.66.93.0                                                        05/04/2024  13:35:58  PAGE 21


      000000C9H   SFRSYM    DATA     BYTE      P5M1
      000000CCH   SFRSYM    DATA     BYTE      P6M0
      000000B0H   SFRSYM    DATA     BYTE      P3
      000000B3H   SFRSYM    DATA     BYTE      P4M1
      000000CAH   SFRSYM    DATA     BYTE      P5M0
      000000A0H   SFRSYM    DATA     BYTE      P2
      000000B1H   SFRSYM    DATA     BYTE      P3M1
      000000B4H   SFRSYM    DATA     BYTE      P4M0
      00000090H   SFRSYM    DATA     BYTE      P1
      00000095H   SFRSYM    DATA     BYTE      P2M1
      000000B2H   SFRSYM    DATA     BYTE      P3M0
      00000080H   SFRSYM    DATA     BYTE      P0
      00000091H   SFRSYM    DATA     BYTE      P1M1
      00000096H   SFRSYM    DATA     BYTE      P2M0
      00000092H   SFRSYM    DATA     BYTE      P1M0
      00000093H   SFRSYM    DATA     BYTE      P0M1

      00FF325BH   BLOCK     CODE     ---       LVL=0
      00FF325BH   LINE      CODE     ---       #43
      00FF325BH   LINE      CODE     ---       #46
      00FF325EH   LINE      CODE     ---       #48
      00FF326EH   LINE      CODE     ---       #51
      00FF327BH   LINE      CODE     ---       #52
      00FF3288H   LINE      CODE     ---       #53
      00FF3295H   LINE      CODE     ---       #54
      00FF3299H   LINE      CODE     ---       #55
      00FF32A5H   LINE      CODE     ---       #56
      00FF32A8H   LINE      CODE     ---       #57
      00FF32B8H   LINE      CODE     ---       #60
      00FF32C5H   LINE      CODE     ---       #61
      00FF32D2H   LINE      CODE     ---       #62
      00FF32DFH   LINE      CODE     ---       #63
      00FF32E3H   LINE      CODE     ---       #64
      00FF32EFH   LINE      CODE     ---       #65
      00FF32F2H   LINE      CODE     ---       #66
      00FF3302H   LINE      CODE     ---       #69
      00FF330FH   LINE      CODE     ---       #70
      00FF331CH   LINE      CODE     ---       #71
      00FF3329H   LINE      CODE     ---       #72
      00FF332DH   LINE      CODE     ---       #73
      00FF3339H   LINE      CODE     ---       #74
      00FF333CH   LINE      CODE     ---       #75
      00FF334CH   LINE      CODE     ---       #79
      00FF3359H   LINE      CODE     ---       #80
      00FF3366H   LINE      CODE     ---       #81
      00FF3373H   LINE      CODE     ---       #82
      00FF3377H   LINE      CODE     ---       #83
      00FF3383H   LINE      CODE     ---       #84
      00FF3386H   LINE      CODE     ---       #85
      00FF3396H   LINE      CODE     ---       #88
      00FF33A3H   LINE      CODE     ---       #89
      00FF33B0H   LINE      CODE     ---       #90
      00FF33BDH   LINE      CODE     ---       #91
      00FF33C1H   LINE      CODE     ---       #92
      00FF33CDH   LINE      CODE     ---       #93
      00FF33D0H   LINE      CODE     ---       #94
      00FF33E0H   LINE      CODE     ---       #97
      00FF33EDH   LINE      CODE     ---       #98
      00FF33FAH   LINE      CODE     ---       #99
      00FF3407H   LINE      CODE     ---       #100
      00FF340BH   LINE      CODE     ---       #101
      00FF3417H   LINE      CODE     ---       #102
      00FF3419H   LINE      CODE     ---       #105
      00FF3425H   LINE      CODE     ---       #107
      00FF3432H   LINE      CODE     ---       #108
L251 LINKER/LOCATER V4.66.93.0                                                        05/04/2024  13:35:58  PAGE 22


      00FF343FH   LINE      CODE     ---       #109
      00FF344CH   LINE      CODE     ---       #110
      00FF3450H   LINE      CODE     ---       #111
      00FF345CH   LINE      CODE     ---       #112
      00FF345CH   LINE      CODE     ---       #114
      00FF3460H   LINE      CODE     ---       #115
      ---         BLOCKEND  ---      ---       LVL=0

      00FF40BAH   BLOCK     CODE     ---       LVL=0
      00FF40BAH   LINE      CODE     ---       #121
      00FF40BAH   LINE      CODE     ---       #123
      00FF40BEH   LINE      CODE     ---       #124
      00FF40C1H   LINE      CODE     ---       #125
      00FF40C4H   LINE      CODE     ---       #126
      00FF40C7H   LINE      CODE     ---       #127
      00FF40CBH   LINE      CODE     ---       #137
      00FF40D2H   LINE      CODE     ---       #143
      00FF40D5H   LINE      CODE     ---       #145
      00FF40D8H   LINE      CODE     ---       #146
      00FF40DBH   LINE      CODE     ---       #147
      00FF40E7H   LINE      CODE     ---       #149
      00FF40EAH   LINE      CODE     ---       #150
      00FF40EDH   LINE      CODE     ---       #151
      00FF40F0H   LINE      CODE     ---       #152
      00FF40F3H   LINE      CODE     ---       #153
      00FF40F6H   LINE      CODE     ---       #154
      00FF40F9H   LINE      CODE     ---       #155
      00FF40FCH   LINE      CODE     ---       #156
      00FF40FFH   LINE      CODE     ---       #157
      00FF4102H   LINE      CODE     ---       #158
      00FF4105H   LINE      CODE     ---       #159
      00FF4108H   LINE      CODE     ---       #160
      00FF410BH   LINE      CODE     ---       #161
      00FF410EH   LINE      CODE     ---       #162
      00FF4111H   LINE      CODE     ---       #163
      00FF4114H   LINE      CODE     ---       #164
      00FF4117H   LINE      CODE     ---       #166
      00FF411AH   LINE      CODE     ---       #167
      00FF411DH   LINE      CODE     ---       #168
      00FF4120H   LINE      CODE     ---       #169
      00FF4123H   LINE      CODE     ---       #170
      00FF4126H   LINE      CODE     ---       #171
      00FF4129H   LINE      CODE     ---       #172
      00FF412CH   LINE      CODE     ---       #173
      00FF412FH   LINE      CODE     ---       #174
      00FF4132H   LINE      CODE     ---       #176
      00FF414DH   LINE      CODE     ---       #177
      00FF4150H   LINE      CODE     ---       #178
      ---         BLOCKEND  ---      ---       LVL=0
      0000078BH   SYMBOL    EDATA    CHAR      c

      00FF0087H   BLOCK     CODE     ---       LVL=0
      00FF0087H   LINE      CODE     ---       #197
      00FF0087H   LINE      CODE     ---       #199
      00FF008AH   LINE      CODE     ---       #200
      ---         BLOCKEND  ---      ---       LVL=0

      ---         MODULE    ---      ---       common
      0000076FH   PUBLIC    EDATA    INT       wireless_type
      000000D0H   SFRSYM    DATA     BYTE      PSW
      0000009DH   SFRSYM    DATA     BYTE      IRCBAND
      00000097H   SFRSYM    DATA     BYTE      AUXR2
      000000EFH   SFRSYM    DATA     BYTE      AUXINTIF
      000000FDH   SFRSYM    DATA     BYTE      S4CON
      000000ACH   SFRSYM    DATA     BYTE      S3CON
L251 LINKER/LOCATER V4.66.93.0                                                        05/04/2024  13:35:58  PAGE 23


      0000009AH   SFRSYM    DATA     BYTE      S2CON
      000000B7H   SFRSYM    DATA     BYTE      IPH
      000000CDH   SFRSYM    DATA     BYTE      SPSTAT
      000000DDH   SFRSYM    DATA     BYTE      T4T3M
      000000C1H   SFRSYM    DATA     BYTE      WDT_CONTR
      000000DFH   SFRSYM    DATA     BYTE      IP3
      000000F4H   SFRSYM    DATA     BYTE      USBCON
      000000B5H   SFRSYM    DATA     BYTE      IP2
      000000FFH   SFRSYM    DATA     BYTE      RSTCFG
      000000F9H   SFRSYM    DATA     BYTE      LINICR
      0000008EH   SFRSYM    DATA     BYTE      AUXR
      000000AFH   SFRSYM    DATA     BYTE      IE2
      00000088H   SFRSYM    DATA     BYTE      TCON
      00000098H   SFRSYM    DATA     BYTE      SCON
      000000F1H   SFRSYM    DATA     BYTE      CANICR
      00000087H   SFRSYM    DATA     BYTE      PCON
      000000BCH   SFRSYM    DATA     BYTE      ADC_CONTR
      000000E7H   SFRSYM    DATA     BYTE      CMPCR2
      000000E6H   SFRSYM    DATA     BYTE      CMPCR1
      000000B8H   SFRSYM    DATA     BYTE      IP
      0000008FH   SFRSYM    DATA     BYTE      INTCLKO
      000000EEH   SFRSYM    DATA     BYTE      IP3H
      000000B6H   SFRSYM    DATA     BYTE      IP2H
      000000A8H   SFRSYM    DATA     BYTE      IE
      000000BBH   SFRSYM    DATA     BYTE      P_SW3
      000000BAH   SFRSYM    DATA     BYTE      P_SW2
      000000A2H   SFRSYM    DATA     BYTE      P_SW1
      000000CEH   SFRSYM    DATA     BYTE      SPCTL
      000000F8H   SFRSYM    DATA     BYTE      P7
      000000E8H   SFRSYM    DATA     BYTE      P6
      000000C8H   SFRSYM    DATA     BYTE      P5
      000000C0H   SFRSYM    DATA     BYTE      P4
      000000B0H   SFRSYM    DATA     BYTE      P3
      000000A0H   SFRSYM    DATA     BYTE      P2
      00000090H   SFRSYM    DATA     BYTE      P1
      00000080H   SFRSYM    DATA     BYTE      P0

      ---         MODULE    ---      ---       zf_adc
      00000094H   SFRSYM    DATA     BYTE      P0M0
      000000D0H   SFRSYM    DATA     BYTE      PSW
      0000009DH   SFRSYM    DATA     BYTE      IRCBAND
      00000097H   SFRSYM    DATA     BYTE      AUXR2
      000000EFH   SFRSYM    DATA     BYTE      AUXINTIF
      000000FDH   SFRSYM    DATA     BYTE      S4CON
      000000ACH   SFRSYM    DATA     BYTE      S3CON
      0000009AH   SFRSYM    DATA     BYTE      S2CON
      000000B7H   SFRSYM    DATA     BYTE      IPH
      000000CDH   SFRSYM    DATA     BYTE      SPSTAT
      000000BEH   SFRSYM    DATA     BYTE      ADC_RESL
      000000DDH   SFRSYM    DATA     BYTE      T4T3M
      000000C1H   SFRSYM    DATA     BYTE      WDT_CONTR
      000000DFH   SFRSYM    DATA     BYTE      IP3
      000000F4H   SFRSYM    DATA     BYTE      USBCON
      000000B5H   SFRSYM    DATA     BYTE      IP2
      000000FFH   SFRSYM    DATA     BYTE      RSTCFG
      000000F9H   SFRSYM    DATA     BYTE      LINICR
      0000008EH   SFRSYM    DATA     BYTE      AUXR
      000000AFH   SFRSYM    DATA     BYTE      IE2
      00000088H   SFRSYM    DATA     BYTE      TCON
      00000098H   SFRSYM    DATA     BYTE      SCON
      000000F1H   SFRSYM    DATA     BYTE      CANICR
      00000087H   SFRSYM    DATA     BYTE      PCON
      000000BCH   SFRSYM    DATA     BYTE      ADC_CONTR
      000000E7H   SFRSYM    DATA     BYTE      CMPCR2
      000000E6H   SFRSYM    DATA     BYTE      CMPCR1
L251 LINKER/LOCATER V4.66.93.0                                                        05/04/2024  13:35:58  PAGE 24


      000000DEH   SFRSYM    DATA     BYTE      ADCCFG
      000000B8H   SFRSYM    DATA     BYTE      IP
      0000008FH   SFRSYM    DATA     BYTE      INTCLKO
      000000EEH   SFRSYM    DATA     BYTE      IP3H
      000000B6H   SFRSYM    DATA     BYTE      IP2H
      000000BDH   SFRSYM    DATA     BYTE      ADC_RES
      000000A8H   SFRSYM    DATA     BYTE      IE
      000000BBH   SFRSYM    DATA     BYTE      P_SW3
      000000BAH   SFRSYM    DATA     BYTE      P_SW2
      000000A2H   SFRSYM    DATA     BYTE      P_SW1
      000000CEH   SFRSYM    DATA     BYTE      SPCTL
      000000F8H   SFRSYM    DATA     BYTE      P7
      000000E8H   SFRSYM    DATA     BYTE      P6
      000000C8H   SFRSYM    DATA     BYTE      P5
      000000C0H   SFRSYM    DATA     BYTE      P4
      000000B0H   SFRSYM    DATA     BYTE      P3
      000000A0H   SFRSYM    DATA     BYTE      P2
      00000090H   SFRSYM    DATA     BYTE      P1
      00000080H   SFRSYM    DATA     BYTE      P0
      00000091H   SFRSYM    DATA     BYTE      P1M1
      00000092H   SFRSYM    DATA     BYTE      P1M0
      00000093H   SFRSYM    DATA     BYTE      P0M1
      0000072BH   SYMBOL    EDATA    INT       adcn
      0000072DH   SYMBOL    EDATA    INT       speed
      000006A7H   SYMBOL    EDATA    INT       adcn
      000006A9H   SYMBOL    EDATA    INT       resolution
      000006ABH   SYMBOL    EDATA    WORD      adc_value

      ---         MODULE    ---      ---       zf_delay
      00FF0046H   PUBLIC    CODE     ---       delay_init
      00FF49E7H   PUBLIC    CODE     ---       delay_ms
      0000072FH   PUBLIC    EDATA    WORD      zf_delay_ms
      00000731H   PUBLIC    EDATA    WORD      zf_delay_us
      000000D0H   SFRSYM    DATA     BYTE      PSW
      0000009DH   SFRSYM    DATA     BYTE      IRCBAND
      00000097H   SFRSYM    DATA     BYTE      AUXR2
      000000EFH   SFRSYM    DATA     BYTE      AUXINTIF
      000000FDH   SFRSYM    DATA     BYTE      S4CON
      000000ACH   SFRSYM    DATA     BYTE      S3CON
      0000009AH   SFRSYM    DATA     BYTE      S2CON
      000000B7H   SFRSYM    DATA     BYTE      IPH
      000000CDH   SFRSYM    DATA     BYTE      SPSTAT
      000000DDH   SFRSYM    DATA     BYTE      T4T3M
      000000C1H   SFRSYM    DATA     BYTE      WDT_CONTR
      000000DFH   SFRSYM    DATA     BYTE      IP3
      000000F4H   SFRSYM    DATA     BYTE      USBCON
      000000B5H   SFRSYM    DATA     BYTE      IP2
      000000FFH   SFRSYM    DATA     BYTE      RSTCFG
      000000F9H   SFRSYM    DATA     BYTE      LINICR
      0000008EH   SFRSYM    DATA     BYTE      AUXR
      000000AFH   SFRSYM    DATA     BYTE      IE2
      00000088H   SFRSYM    DATA     BYTE      TCON
      00000098H   SFRSYM    DATA     BYTE      SCON
      000000F1H   SFRSYM    DATA     BYTE      CANICR
      00000087H   SFRSYM    DATA     BYTE      PCON
      000000BCH   SFRSYM    DATA     BYTE      ADC_CONTR
      000000E7H   SFRSYM    DATA     BYTE      CMPCR2
      000000E6H   SFRSYM    DATA     BYTE      CMPCR1
      000000B8H   SFRSYM    DATA     BYTE      IP
      0000008FH   SFRSYM    DATA     BYTE      INTCLKO
      000000EEH   SFRSYM    DATA     BYTE      IP3H
      000000B6H   SFRSYM    DATA     BYTE      IP2H
      000000A8H   SFRSYM    DATA     BYTE      IE
      000000BBH   SFRSYM    DATA     BYTE      P_SW3
      000000BAH   SFRSYM    DATA     BYTE      P_SW2
L251 LINKER/LOCATER V4.66.93.0                                                        05/04/2024  13:35:58  PAGE 25


      000000A2H   SFRSYM    DATA     BYTE      P_SW1
      000000CEH   SFRSYM    DATA     BYTE      SPCTL
      000000F8H   SFRSYM    DATA     BYTE      P7
      000000E8H   SFRSYM    DATA     BYTE      P6
      000000C8H   SFRSYM    DATA     BYTE      P5
      000000C0H   SFRSYM    DATA     BYTE      P4
      000000B0H   SFRSYM    DATA     BYTE      P3
      000000A0H   SFRSYM    DATA     BYTE      P2
      00000090H   SFRSYM    DATA     BYTE      P1
      00000080H   SFRSYM    DATA     BYTE      P0

      00FF0046H   BLOCK     CODE     ---       LVL=0
      00FF0046H   LINE      CODE     ---       #34
      00FF0046H   LINE      CODE     ---       #36
      00FF0055H   LINE      CODE     ---       #37
      00FF0068H   LINE      CODE     ---       #38
      00FF0086H   LINE      CODE     ---       #40
      ---         BLOCKEND  ---      ---       LVL=0

      00FF49E7H   BLOCK     CODE     ---       LVL=0
      00000733H   SYMBOL    EDATA    WORD      ms
      00FF49EBH   BLOCK     CODE     NEAR LAB  LVL=1
      00000735H   SYMBOL    EDATA    WORD      i
      ---         BLOCKEND  ---      ---       LVL=1
      00FF49E7H   LINE      CODE     ---       #48
      00FF49EBH   LINE      CODE     ---       #49
      00FF49EBH   LINE      CODE     ---       #51
      00FF49EBH   LINE      CODE     ---       #52
      00FF49F3H   LINE      CODE     ---       #54
      00FF4A07H   LINE      CODE     ---       #55
      00FF4A1BH   LINE      CODE     ---       #56
      ---         BLOCKEND  ---      ---       LVL=0
      000006ADH   SYMBOL    EDATA    DWORD     us
      000006B1H   SYMBOL    EDATA    WORD      i

      ---         MODULE    ---      ---       zf_eeprom
      000005FCH   PUBLIC    EDATA    BYTE      ?iap_read_bytes?BYTE
      00000606H   PUBLIC    EDATA    BYTE      ?iap_write_bytes?BYTE
      000000D0H   SFRSYM    DATA     BYTE      PSW
      0000009DH   SFRSYM    DATA     BYTE      IRCBAND
      000000D0H.5 SFRSYM    DATA     BIT       F0
      00000097H   SFRSYM    DATA     BYTE      AUXR2
      000000C6H   SFRSYM    DATA     BYTE      IAP_TRIG
      000000EFH   SFRSYM    DATA     BYTE      AUXINTIF
      000000FDH   SFRSYM    DATA     BYTE      S4CON
      000000ACH   SFRSYM    DATA     BYTE      S3CON
      0000009AH   SFRSYM    DATA     BYTE      S2CON
      000000B7H   SFRSYM    DATA     BYTE      IPH
      000000CDH   SFRSYM    DATA     BYTE      SPSTAT
      000000DDH   SFRSYM    DATA     BYTE      T4T3M
      000000C1H   SFRSYM    DATA     BYTE      WDT_CONTR
      000000C2H   SFRSYM    DATA     BYTE      IAP_DATA
      000000DFH   SFRSYM    DATA     BYTE      IP3
      000000F4H   SFRSYM    DATA     BYTE      USBCON
      000000B5H   SFRSYM    DATA     BYTE      IP2
      000000FFH   SFRSYM    DATA     BYTE      RSTCFG
      000000C7H   SFRSYM    DATA     BYTE      IAP_CONTR
      000000F9H   SFRSYM    DATA     BYTE      LINICR
      0000008EH   SFRSYM    DATA     BYTE      AUXR
      000000AFH   SFRSYM    DATA     BYTE      IE2
      00000088H   SFRSYM    DATA     BYTE      TCON
      00000098H   SFRSYM    DATA     BYTE      SCON
      000000F5H   SFRSYM    DATA     BYTE      IAP_TPS
      000000F1H   SFRSYM    DATA     BYTE      CANICR
      00000087H   SFRSYM    DATA     BYTE      PCON
L251 LINKER/LOCATER V4.66.93.0                                                        05/04/2024  13:35:58  PAGE 26


      000000BCH   SFRSYM    DATA     BYTE      ADC_CONTR
      000000E7H   SFRSYM    DATA     BYTE      CMPCR2
      000000E6H   SFRSYM    DATA     BYTE      CMPCR1
      000000C4H   SFRSYM    DATA     BYTE      IAP_ADDRL
      000000C3H   SFRSYM    DATA     BYTE      IAP_ADDRH
      000000F6H   SFRSYM    DATA     BYTE      IAP_ADDRE
      000000B8H   SFRSYM    DATA     BYTE      IP
      0000008FH   SFRSYM    DATA     BYTE      INTCLKO
      000000EEH   SFRSYM    DATA     BYTE      IP3H
      000000B6H   SFRSYM    DATA     BYTE      IP2H
      000000C5H   SFRSYM    DATA     BYTE      IAP_CMD
      000000A8H   SFRSYM    DATA     BYTE      IE
      000000BBH   SFRSYM    DATA     BYTE      P_SW3
      000000BAH   SFRSYM    DATA     BYTE      P_SW2
      000000A2H   SFRSYM    DATA     BYTE      P_SW1
      000000CEH   SFRSYM    DATA     BYTE      SPCTL
      000000F8H   SFRSYM    DATA     BYTE      P7
      000000A8H.7 SFRSYM    DATA     BIT       EA
      000000E8H   SFRSYM    DATA     BYTE      P6
      000000C8H   SFRSYM    DATA     BYTE      P5
      000000C0H   SFRSYM    DATA     BYTE      P4
      000000B0H   SFRSYM    DATA     BYTE      P3
      000000A0H   SFRSYM    DATA     BYTE      P2
      00000090H   SFRSYM    DATA     BYTE      P1
      00000080H   SFRSYM    DATA     BYTE      P0
      0000078CH   SYMBOL    EDATA    BYTE      write_time
      000005FCH   SYMBOL    EDATA    DWORD     addr
      00000600H   SYMBOL    EDATA    ---       buf
      00000604H   SYMBOL    EDATA    WORD      len
      00000606H   SYMBOL    EDATA    DWORD     addr
      0000060AH   SYMBOL    EDATA    ---       buf
      0000060EH   SYMBOL    EDATA    WORD      len
      00000737H   SYMBOL    EDATA    DWORD     addr

      ---         MODULE    ---      ---       zf_exti
      000000D0H   SFRSYM    DATA     BYTE      PSW
      0000009DH   SFRSYM    DATA     BYTE      IRCBAND
      00000097H   SFRSYM    DATA     BYTE      AUXR2
      000000EFH   SFRSYM    DATA     BYTE      AUXINTIF
      000000FDH   SFRSYM    DATA     BYTE      S4CON
      000000ACH   SFRSYM    DATA     BYTE      S3CON
      0000009AH   SFRSYM    DATA     BYTE      S2CON
      000000B7H   SFRSYM    DATA     BYTE      IPH
      000000CDH   SFRSYM    DATA     BYTE      SPSTAT
      000000DDH   SFRSYM    DATA     BYTE      T4T3M
      000000C1H   SFRSYM    DATA     BYTE      WDT_CONTR
      00000088H.2 SFRSYM    DATA     BIT       IT1
      000000A8H.2 SFRSYM    DATA     BIT       EX1
      00000088H.0 SFRSYM    DATA     BIT       IT0
      000000A8H.0 SFRSYM    DATA     BIT       EX0
      000000DFH   SFRSYM    DATA     BYTE      IP3
      000000F4H   SFRSYM    DATA     BYTE      USBCON
      000000B5H   SFRSYM    DATA     BYTE      IP2
      000000FFH   SFRSYM    DATA     BYTE      RSTCFG
      000000F9H   SFRSYM    DATA     BYTE      LINICR
      0000008EH   SFRSYM    DATA     BYTE      AUXR
      000000AFH   SFRSYM    DATA     BYTE      IE2
      00000088H   SFRSYM    DATA     BYTE      TCON
      00000098H   SFRSYM    DATA     BYTE      SCON
      000000F1H   SFRSYM    DATA     BYTE      CANICR
      00000087H   SFRSYM    DATA     BYTE      PCON
      000000BCH   SFRSYM    DATA     BYTE      ADC_CONTR
      000000E7H   SFRSYM    DATA     BYTE      CMPCR2
      000000E6H   SFRSYM    DATA     BYTE      CMPCR1
      000000B8H   SFRSYM    DATA     BYTE      IP
L251 LINKER/LOCATER V4.66.93.0                                                        05/04/2024  13:35:58  PAGE 27


      0000008FH   SFRSYM    DATA     BYTE      INTCLKO
      000000EEH   SFRSYM    DATA     BYTE      IP3H
      000000B6H   SFRSYM    DATA     BYTE      IP2H
      000000A8H   SFRSYM    DATA     BYTE      IE
      000000BBH   SFRSYM    DATA     BYTE      P_SW3
      000000BAH   SFRSYM    DATA     BYTE      P_SW2
      000000A2H   SFRSYM    DATA     BYTE      P_SW1
      000000CEH   SFRSYM    DATA     BYTE      SPCTL
      000000F8H   SFRSYM    DATA     BYTE      P7
      000000E8H   SFRSYM    DATA     BYTE      P6
      000000C8H   SFRSYM    DATA     BYTE      P5
      000000C0H   SFRSYM    DATA     BYTE      P4
      000000B0H   SFRSYM    DATA     BYTE      P3
      000000A0H   SFRSYM    DATA     BYTE      P2
      00000090H   SFRSYM    DATA     BYTE      P1
      00000080H   SFRSYM    DATA     BYTE      P0
      0000073BH   SYMBOL    EDATA    INT       int_n
      0000073DH   SYMBOL    EDATA    INT       mode

      ---         MODULE    ---      ---       zf_gpio
      00FF0E9EH   PUBLIC    CODE     ---       gpio_mode
      00000094H   SFRSYM    DATA     BYTE      P0M0
      000000D0H   SFRSYM    DATA     BYTE      PSW
      0000009DH   SFRSYM    DATA     BYTE      IRCBAND
      00000097H   SFRSYM    DATA     BYTE      AUXR2
      000000EFH   SFRSYM    DATA     BYTE      AUXINTIF
      000000FDH   SFRSYM    DATA     BYTE      S4CON
      000000ACH   SFRSYM    DATA     BYTE      S3CON
      0000009AH   SFRSYM    DATA     BYTE      S2CON
      000000B7H   SFRSYM    DATA     BYTE      IPH
      000000CDH   SFRSYM    DATA     BYTE      SPSTAT
      000000DDH   SFRSYM    DATA     BYTE      T4T3M
      000000C1H   SFRSYM    DATA     BYTE      WDT_CONTR
      000000DFH   SFRSYM    DATA     BYTE      IP3
      000000F4H   SFRSYM    DATA     BYTE      USBCON
      000000B5H   SFRSYM    DATA     BYTE      IP2
      000000FFH   SFRSYM    DATA     BYTE      RSTCFG
      000000F9H   SFRSYM    DATA     BYTE      LINICR
      0000008EH   SFRSYM    DATA     BYTE      AUXR
      000000AFH   SFRSYM    DATA     BYTE      IE2
      00000088H   SFRSYM    DATA     BYTE      TCON
      00000098H   SFRSYM    DATA     BYTE      SCON
      000000F1H   SFRSYM    DATA     BYTE      CANICR
      00000087H   SFRSYM    DATA     BYTE      PCON
      000000BCH   SFRSYM    DATA     BYTE      ADC_CONTR
      000000E7H   SFRSYM    DATA     BYTE      CMPCR2
      000000E6H   SFRSYM    DATA     BYTE      CMPCR1
      000000B8H   SFRSYM    DATA     BYTE      IP
      0000008FH   SFRSYM    DATA     BYTE      INTCLKO
      000000EEH   SFRSYM    DATA     BYTE      IP3H
      000000B6H   SFRSYM    DATA     BYTE      IP2H
      000000A8H   SFRSYM    DATA     BYTE      IE
      000000BBH   SFRSYM    DATA     BYTE      P_SW3
      000000BAH   SFRSYM    DATA     BYTE      P_SW2
      000000A2H   SFRSYM    DATA     BYTE      P_SW1
      000000CEH   SFRSYM    DATA     BYTE      SPCTL
      000000F8H   SFRSYM    DATA     BYTE      P7
      000000E1H   SFRSYM    DATA     BYTE      P7M1
      000000E8H   SFRSYM    DATA     BYTE      P6
      000000C8H   SFRSYM    DATA     BYTE      P5
      000000CBH   SFRSYM    DATA     BYTE      P6M1
      000000E2H   SFRSYM    DATA     BYTE      P7M0
      000000C0H   SFRSYM    DATA     BYTE      P4
      000000C9H   SFRSYM    DATA     BYTE      P5M1
      000000CCH   SFRSYM    DATA     BYTE      P6M0
L251 LINKER/LOCATER V4.66.93.0                                                        05/04/2024  13:35:58  PAGE 28


      000000B0H   SFRSYM    DATA     BYTE      P3
      000000B3H   SFRSYM    DATA     BYTE      P4M1
      000000CAH   SFRSYM    DATA     BYTE      P5M0
      000000A0H   SFRSYM    DATA     BYTE      P2
      000000B1H   SFRSYM    DATA     BYTE      P3M1
      000000B4H   SFRSYM    DATA     BYTE      P4M0
      00000090H   SFRSYM    DATA     BYTE      P1
      00000095H   SFRSYM    DATA     BYTE      P2M1
      000000B2H   SFRSYM    DATA     BYTE      P3M0
      00000080H   SFRSYM    DATA     BYTE      P0
      00000091H   SFRSYM    DATA     BYTE      P1M1
      00000096H   SFRSYM    DATA     BYTE      P2M0
      00000092H   SFRSYM    DATA     BYTE      P1M0
      00000093H   SFRSYM    DATA     BYTE      P0M1
      0000073FH   SYMBOL    EDATA    INT       pin
      00000741H   SYMBOL    EDATA    INT       pull

      00FF0E9EH   BLOCK     CODE     ---       LVL=0
      00000743H   SYMBOL    EDATA    INT       pin
      00000745H   SYMBOL    EDATA    INT       mode
      00FF0E9EH   LINE      CODE     ---       #54
      00FF0EA6H   LINE      CODE     ---       #56
      00FF0EB3H   LINE      CODE     ---       #58
      00FF0EC3H   LINE      CODE     ---       #60
      00FF0EDEH   LINE      CODE     ---       #61
      00FF0EF9H   LINE      CODE     ---       #62
      00FF0EF9H   LINE      CODE     ---       #63
      00FF0F0BH   LINE      CODE     ---       #65
      00FF0F26H   LINE      CODE     ---       #66
      00FF0F41H   LINE      CODE     ---       #67
      00FF0F41H   LINE      CODE     ---       #68
      00FF0F53H   LINE      CODE     ---       #70
      00FF0F6EH   LINE      CODE     ---       #71
      00FF0F89H   LINE      CODE     ---       #72
      00FF0F89H   LINE      CODE     ---       #74
      00FF0F9BH   LINE      CODE     ---       #76
      00FF0FB6H   LINE      CODE     ---       #77
      00FF0FD1H   LINE      CODE     ---       #78
      00FF0FD1H   LINE      CODE     ---       #79
      00FF0FE3H   LINE      CODE     ---       #81
      00FF0FFEH   LINE      CODE     ---       #82
      00FF1019H   LINE      CODE     ---       #83
      00FF1019H   LINE      CODE     ---       #84
      00FF102BH   LINE      CODE     ---       #86
      00FF1046H   LINE      CODE     ---       #87
      00FF1061H   LINE      CODE     ---       #88
      00FF1061H   LINE      CODE     ---       #89
      00FF1073H   LINE      CODE     ---       #91
      00FF108EH   LINE      CODE     ---       #92
      00FF10A9H   LINE      CODE     ---       #93
      00FF10A9H   LINE      CODE     ---       #94
      00FF10BEH   LINE      CODE     ---       #96
      00FF10D9H   LINE      CODE     ---       #97
      00FF10F4H   LINE      CODE     ---       #98
      00FF10F7H   LINE      CODE     ---       #100
      00FF1106H   LINE      CODE     ---       #102
      00FF1116H   LINE      CODE     ---       #104
      00FF1131H   LINE      CODE     ---       #105
      00FF114AH   LINE      CODE     ---       #106
      00FF114AH   LINE      CODE     ---       #107
      00FF115CH   LINE      CODE     ---       #109
      00FF1177H   LINE      CODE     ---       #110
      00FF1190H   LINE      CODE     ---       #111
      00FF1190H   LINE      CODE     ---       #112
      00FF11A2H   LINE      CODE     ---       #114
L251 LINKER/LOCATER V4.66.93.0                                                        05/04/2024  13:35:58  PAGE 29


      00FF11BDH   LINE      CODE     ---       #115
      00FF11D6H   LINE      CODE     ---       #116
      00FF11D6H   LINE      CODE     ---       #118
      00FF11E8H   LINE      CODE     ---       #120
      00FF1203H   LINE      CODE     ---       #121
      00FF121CH   LINE      CODE     ---       #122
      00FF121CH   LINE      CODE     ---       #123
      00FF122EH   LINE      CODE     ---       #125
      00FF1249H   LINE      CODE     ---       #126
      00FF1262H   LINE      CODE     ---       #127
      00FF1262H   LINE      CODE     ---       #128
      00FF1274H   LINE      CODE     ---       #130
      00FF128FH   LINE      CODE     ---       #131
      00FF12A8H   LINE      CODE     ---       #132
      00FF12A8H   LINE      CODE     ---       #133
      00FF12BAH   LINE      CODE     ---       #135
      00FF12D5H   LINE      CODE     ---       #136
      00FF12EEH   LINE      CODE     ---       #137
      00FF12EEH   LINE      CODE     ---       #138
      00FF1303H   LINE      CODE     ---       #140
      00FF131EH   LINE      CODE     ---       #141
      00FF1337H   LINE      CODE     ---       #142
      00FF133AH   LINE      CODE     ---       #145
      00FF1349H   LINE      CODE     ---       #147
      00FF1359H   LINE      CODE     ---       #149
      00FF1372H   LINE      CODE     ---       #150
      00FF138DH   LINE      CODE     ---       #151
      00FF138DH   LINE      CODE     ---       #152
      00FF139FH   LINE      CODE     ---       #154
      00FF13B8H   LINE      CODE     ---       #155
      00FF13D3H   LINE      CODE     ---       #156
      00FF13D3H   LINE      CODE     ---       #157
      00FF13E5H   LINE      CODE     ---       #159
      00FF13FEH   LINE      CODE     ---       #160
      00FF1419H   LINE      CODE     ---       #161
      00FF1419H   LINE      CODE     ---       #163
      00FF142BH   LINE      CODE     ---       #165
      00FF1444H   LINE      CODE     ---       #166
      00FF145FH   LINE      CODE     ---       #167
      00FF145FH   LINE      CODE     ---       #168
      00FF1471H   LINE      CODE     ---       #170
      00FF148AH   LINE      CODE     ---       #171
      00FF14A5H   LINE      CODE     ---       #172
      00FF14A5H   LINE      CODE     ---       #173
      00FF14B7H   LINE      CODE     ---       #175
      00FF14D0H   LINE      CODE     ---       #176
      00FF14EBH   LINE      CODE     ---       #177
      00FF14EBH   LINE      CODE     ---       #178
      00FF14FDH   LINE      CODE     ---       #180
      00FF1516H   LINE      CODE     ---       #181
      00FF1531H   LINE      CODE     ---       #182
      00FF1531H   LINE      CODE     ---       #183
      00FF1546H   LINE      CODE     ---       #185
      00FF155FH   LINE      CODE     ---       #186
      00FF157AH   LINE      CODE     ---       #187
      00FF157DH   LINE      CODE     ---       #189
      00FF158CH   LINE      CODE     ---       #191
      00FF159CH   LINE      CODE     ---       #193
      00FF15B5H   LINE      CODE     ---       #194
      00FF15CEH   LINE      CODE     ---       #195
      00FF15CEH   LINE      CODE     ---       #196
      00FF15E0H   LINE      CODE     ---       #198
      00FF15F9H   LINE      CODE     ---       #199
      00FF1612H   LINE      CODE     ---       #200
      00FF1612H   LINE      CODE     ---       #201
L251 LINKER/LOCATER V4.66.93.0                                                        05/04/2024  13:35:58  PAGE 30


      00FF1624H   LINE      CODE     ---       #203
      00FF163DH   LINE      CODE     ---       #204
      00FF1656H   LINE      CODE     ---       #205
      00FF1656H   LINE      CODE     ---       #207
      00FF1668H   LINE      CODE     ---       #209
      00FF1681H   LINE      CODE     ---       #210
      00FF169AH   LINE      CODE     ---       #211
      00FF169AH   LINE      CODE     ---       #212
      00FF16ACH   LINE      CODE     ---       #214
      00FF16C5H   LINE      CODE     ---       #215
      00FF16DEH   LINE      CODE     ---       #216
      00FF16DEH   LINE      CODE     ---       #217
      00FF16F0H   LINE      CODE     ---       #219
      00FF1709H   LINE      CODE     ---       #220
      00FF1722H   LINE      CODE     ---       #221
      00FF1722H   LINE      CODE     ---       #222
      00FF1734H   LINE      CODE     ---       #224
      00FF174DH   LINE      CODE     ---       #225
      00FF1766H   LINE      CODE     ---       #226
      00FF1766H   LINE      CODE     ---       #227
      00FF1778H   LINE      CODE     ---       #229
      00FF1791H   LINE      CODE     ---       #230
      00FF17AAH   LINE      CODE     ---       #231
      00FF17AAH   LINE      CODE     ---       #233
      ---         BLOCKEND  ---      ---       LVL=0

      ---         MODULE    ---      ---       zf_nvic
      000000D0H   SFRSYM    DATA     BYTE      PSW
      0000009DH   SFRSYM    DATA     BYTE      IRCBAND
      00000097H   SFRSYM    DATA     BYTE      AUXR2
      000000EFH   SFRSYM    DATA     BYTE      AUXINTIF
      000000FDH   SFRSYM    DATA     BYTE      S4CON
      000000ACH   SFRSYM    DATA     BYTE      S3CON
      0000009AH   SFRSYM    DATA     BYTE      S2CON
      000000B7H   SFRSYM    DATA     BYTE      IPH
      000000CDH   SFRSYM    DATA     BYTE      SPSTAT
      000000DDH   SFRSYM    DATA     BYTE      T4T3M
      000000C1H   SFRSYM    DATA     BYTE      WDT_CONTR
      000000DFH   SFRSYM    DATA     BYTE      IP3
      000000F4H   SFRSYM    DATA     BYTE      USBCON
      000000B5H   SFRSYM    DATA     BYTE      IP2
      000000FFH   SFRSYM    DATA     BYTE      RSTCFG
      000000F9H   SFRSYM    DATA     BYTE      LINICR
      0000008EH   SFRSYM    DATA     BYTE      AUXR
      000000AFH   SFRSYM    DATA     BYTE      IE2
      00000088H   SFRSYM    DATA     BYTE      TCON
      00000098H   SFRSYM    DATA     BYTE      SCON
      000000F1H   SFRSYM    DATA     BYTE      CANICR
      00000087H   SFRSYM    DATA     BYTE      PCON
      000000BCH   SFRSYM    DATA     BYTE      ADC_CONTR
      000000E7H   SFRSYM    DATA     BYTE      CMPCR2
      000000E6H   SFRSYM    DATA     BYTE      CMPCR1
      000000B8H   SFRSYM    DATA     BYTE      IP
      0000008FH   SFRSYM    DATA     BYTE      INTCLKO
      000000EEH   SFRSYM    DATA     BYTE      IP3H
      000000B6H   SFRSYM    DATA     BYTE      IP2H
      000000A8H   SFRSYM    DATA     BYTE      IE
      000000BBH   SFRSYM    DATA     BYTE      P_SW3
      000000BAH   SFRSYM    DATA     BYTE      P_SW2
      000000A2H   SFRSYM    DATA     BYTE      P_SW1
      000000CEH   SFRSYM    DATA     BYTE      SPCTL
      000000F8H   SFRSYM    DATA     BYTE      P7
      000000E8H   SFRSYM    DATA     BYTE      P6
      000000C8H   SFRSYM    DATA     BYTE      P5
      000000C0H   SFRSYM    DATA     BYTE      P4
L251 LINKER/LOCATER V4.66.93.0                                                        05/04/2024  13:35:58  PAGE 31


      000000B0H   SFRSYM    DATA     BYTE      P3
      000000A0H   SFRSYM    DATA     BYTE      P2
      00000090H   SFRSYM    DATA     BYTE      P1
      00000080H   SFRSYM    DATA     BYTE      P0
      00000757H   SYMBOL    EDATA    INT       irqn
      00000759H   SYMBOL    EDATA    BYTE      priority

      ---         MODULE    ---      ---       zf_pwm
      00FF35BFH   PUBLIC    CODE     ---       pwm_duty
      00FF26B6H   PUBLIC    CODE     ---       pwm_set_gpio
      00FF22DCH   PUBLIC    CODE     ---       pwm_init
      00FF4EA4H   PUBLIC    HCONST   ---       PWM_CCR_ADDR
      00FF4EC4H   PUBLIC    HCONST   ---       PWM_ARR_ADDR
      00FF4ECCH   PUBLIC    HCONST   ---       PWM_CCER_ADDR
      00FF4EDCH   PUBLIC    HCONST   ---       PWM_CCMR_ADDR
      000004D8H   PUBLIC    EDATA    BYTE      ?pwm_init?BYTE
      000004ECH   PUBLIC    EDATA    BYTE      ?pwm_freq?BYTE
      000000D0H   SFRSYM    DATA     BYTE      PSW
      0000009DH   SFRSYM    DATA     BYTE      IRCBAND
      00000097H   SFRSYM    DATA     BYTE      AUXR2
      000000EFH   SFRSYM    DATA     BYTE      AUXINTIF
      000000FDH   SFRSYM    DATA     BYTE      S4CON
      000000ACH   SFRSYM    DATA     BYTE      S3CON
      0000009AH   SFRSYM    DATA     BYTE      S2CON
      000000B7H   SFRSYM    DATA     BYTE      IPH
      000000CDH   SFRSYM    DATA     BYTE      SPSTAT
      000000DDH   SFRSYM    DATA     BYTE      T4T3M
      000000C1H   SFRSYM    DATA     BYTE      WDT_CONTR
      000000DFH   SFRSYM    DATA     BYTE      IP3
      000000F4H   SFRSYM    DATA     BYTE      USBCON
      000000B5H   SFRSYM    DATA     BYTE      IP2
      000000FFH   SFRSYM    DATA     BYTE      RSTCFG
      000000F9H   SFRSYM    DATA     BYTE      LINICR
      0000008EH   SFRSYM    DATA     BYTE      AUXR
      000000AFH   SFRSYM    DATA     BYTE      IE2
      00000088H   SFRSYM    DATA     BYTE      TCON
      00000098H   SFRSYM    DATA     BYTE      SCON
      000000F1H   SFRSYM    DATA     BYTE      CANICR
      00000087H   SFRSYM    DATA     BYTE      PCON
      000000BCH   SFRSYM    DATA     BYTE      ADC_CONTR
      000000E7H   SFRSYM    DATA     BYTE      CMPCR2
      000000E6H   SFRSYM    DATA     BYTE      CMPCR1
      000000B8H   SFRSYM    DATA     BYTE      IP
      0000008FH   SFRSYM    DATA     BYTE      INTCLKO
      000000EEH   SFRSYM    DATA     BYTE      IP3H
      000000B6H   SFRSYM    DATA     BYTE      IP2H
      000000A8H   SFRSYM    DATA     BYTE      IE
      000000BBH   SFRSYM    DATA     BYTE      P_SW3
      000000BAH   SFRSYM    DATA     BYTE      P_SW2
      000000A2H   SFRSYM    DATA     BYTE      P_SW1
      000000CEH   SFRSYM    DATA     BYTE      SPCTL
      000000F8H   SFRSYM    DATA     BYTE      P7
      000000E8H   SFRSYM    DATA     BYTE      P6
      000000C8H   SFRSYM    DATA     BYTE      P5
      000000C0H   SFRSYM    DATA     BYTE      P4
      000000B0H   SFRSYM    DATA     BYTE      P3
      000000A0H   SFRSYM    DATA     BYTE      P2
      00000090H   SFRSYM    DATA     BYTE      P1
      00000080H   SFRSYM    DATA     BYTE      P0

      00FF26B6H   BLOCK     CODE     ---       LVL=0
      00000771H   SYMBOL    EDATA    INT       pwmch
      00FF26B6H   LINE      CODE     ---       #49
      00FF26BAH   LINE      CODE     ---       #51
      00FF282FH   LINE      CODE     ---       #53
L251 LINKER/LOCATER V4.66.93.0                                                        05/04/2024  13:35:58  PAGE 32


      00FF282FH   LINE      CODE     ---       #55
      00FF283AH   LINE      CODE     ---       #56
      00FF283DH   LINE      CODE     ---       #58
      00FF283DH   LINE      CODE     ---       #60
      00FF2848H   LINE      CODE     ---       #61
      00FF284BH   LINE      CODE     ---       #63
      00FF284BH   LINE      CODE     ---       #65
      00FF2856H   LINE      CODE     ---       #66
      00FF2859H   LINE      CODE     ---       #68
      00FF2859H   LINE      CODE     ---       #70
      00FF2864H   LINE      CODE     ---       #71
      00FF2867H   LINE      CODE     ---       #73
      00FF2867H   LINE      CODE     ---       #75
      00FF2872H   LINE      CODE     ---       #76
      00FF2875H   LINE      CODE     ---       #78
      00FF2875H   LINE      CODE     ---       #80
      00FF2880H   LINE      CODE     ---       #81
      00FF2883H   LINE      CODE     ---       #84
      00FF2883H   LINE      CODE     ---       #86
      00FF288EH   LINE      CODE     ---       #87
      00FF2891H   LINE      CODE     ---       #89
      00FF2891H   LINE      CODE     ---       #91
      00FF289CH   LINE      CODE     ---       #92
      00FF289FH   LINE      CODE     ---       #94
      00FF289FH   LINE      CODE     ---       #96
      00FF28AAH   LINE      CODE     ---       #97
      00FF28ADH   LINE      CODE     ---       #99
      00FF28ADH   LINE      CODE     ---       #101
      00FF28B8H   LINE      CODE     ---       #102
      00FF28BBH   LINE      CODE     ---       #104
      00FF28BBH   LINE      CODE     ---       #106
      00FF28C6H   LINE      CODE     ---       #107
      00FF28C9H   LINE      CODE     ---       #109
      00FF28C9H   LINE      CODE     ---       #111
      00FF28D4H   LINE      CODE     ---       #112
      00FF28D7H   LINE      CODE     ---       #115
      00FF28D7H   LINE      CODE     ---       #117
      00FF28E2H   LINE      CODE     ---       #118
      00FF28E5H   LINE      CODE     ---       #120
      00FF28E5H   LINE      CODE     ---       #122
      00FF28F0H   LINE      CODE     ---       #123
      00FF28F3H   LINE      CODE     ---       #125
      00FF28F3H   LINE      CODE     ---       #127
      00FF28FEH   LINE      CODE     ---       #128
      00FF2901H   LINE      CODE     ---       #130
      00FF2901H   LINE      CODE     ---       #132
      00FF290CH   LINE      CODE     ---       #133
      00FF290FH   LINE      CODE     ---       #135
      00FF290FH   LINE      CODE     ---       #137
      00FF291AH   LINE      CODE     ---       #138
      00FF291DH   LINE      CODE     ---       #140
      00FF291DH   LINE      CODE     ---       #142
      00FF2928H   LINE      CODE     ---       #143
      00FF292BH   LINE      CODE     ---       #147
      00FF292BH   LINE      CODE     ---       #149
      00FF2936H   LINE      CODE     ---       #150
      00FF2939H   LINE      CODE     ---       #152
      00FF2939H   LINE      CODE     ---       #154
      00FF2944H   LINE      CODE     ---       #155
      00FF2947H   LINE      CODE     ---       #157
      00FF2947H   LINE      CODE     ---       #159
      00FF2952H   LINE      CODE     ---       #160
      00FF2955H   LINE      CODE     ---       #162
      00FF2955H   LINE      CODE     ---       #164
      00FF2960H   LINE      CODE     ---       #165
L251 LINKER/LOCATER V4.66.93.0                                                        05/04/2024  13:35:58  PAGE 33


      00FF2963H   LINE      CODE     ---       #167
      00FF2963H   LINE      CODE     ---       #169
      00FF296EH   LINE      CODE     ---       #170
      00FF2971H   LINE      CODE     ---       #172
      00FF2971H   LINE      CODE     ---       #174
      00FF297CH   LINE      CODE     ---       #175
      00FF297FH   LINE      CODE     ---       #177
      00FF297FH   LINE      CODE     ---       #179
      00FF298AH   LINE      CODE     ---       #180
      00FF298DH   LINE      CODE     ---       #182
      00FF298DH   LINE      CODE     ---       #184
      00FF2998H   LINE      CODE     ---       #185
      00FF299BH   LINE      CODE     ---       #189
      00FF299BH   LINE      CODE     ---       #191
      00FF29A6H   LINE      CODE     ---       #192
      00FF29A9H   LINE      CODE     ---       #194
      00FF29A9H   LINE      CODE     ---       #196
      00FF29B4H   LINE      CODE     ---       #197
      00FF29B7H   LINE      CODE     ---       #199
      00FF29B7H   LINE      CODE     ---       #201
      00FF29C0H   LINE      CODE     ---       #202
      00FF29C3H   LINE      CODE     ---       #204
      00FF29C3H   LINE      CODE     ---       #206
      00FF29CEH   LINE      CODE     ---       #207
      00FF29D1H   LINE      CODE     ---       #210
      00FF29D1H   LINE      CODE     ---       #212
      00FF29DCH   LINE      CODE     ---       #213
      00FF29DFH   LINE      CODE     ---       #215
      00FF29DFH   LINE      CODE     ---       #217
      00FF29EAH   LINE      CODE     ---       #218
      00FF29EDH   LINE      CODE     ---       #220
      00FF29EDH   LINE      CODE     ---       #222
      00FF29F8H   LINE      CODE     ---       #223
      00FF29FAH   LINE      CODE     ---       #225
      00FF29FAH   LINE      CODE     ---       #227
      00FF2A05H   LINE      CODE     ---       #228
      00FF2A07H   LINE      CODE     ---       #232
      00FF2A07H   LINE      CODE     ---       #234
      00FF2A12H   LINE      CODE     ---       #235
      00FF2A14H   LINE      CODE     ---       #237
      00FF2A14H   LINE      CODE     ---       #239
      00FF2A1FH   LINE      CODE     ---       #240
      00FF2A21H   LINE      CODE     ---       #242
      00FF2A21H   LINE      CODE     ---       #244
      00FF2A2CH   LINE      CODE     ---       #245
      00FF2A2EH   LINE      CODE     ---       #247
      00FF2A2EH   LINE      CODE     ---       #249
      00FF2A39H   LINE      CODE     ---       #250
      00FF2A3BH   LINE      CODE     ---       #254
      00FF2A3BH   LINE      CODE     ---       #256
      00FF2A46H   LINE      CODE     ---       #257
      00FF2A48H   LINE      CODE     ---       #259
      00FF2A48H   LINE      CODE     ---       #261
      00FF2A53H   LINE      CODE     ---       #262
      00FF2A55H   LINE      CODE     ---       #264
      00FF2A55H   LINE      CODE     ---       #266
      00FF2A60H   LINE      CODE     ---       #267
      00FF2A62H   LINE      CODE     ---       #269
      00FF2A62H   LINE      CODE     ---       #271
      00FF2A6DH   LINE      CODE     ---       #272
      00FF2A6DH   LINE      CODE     ---       #275
      00FF2A6DH   LINE      CODE     ---       #277
      ---         BLOCKEND  ---      ---       LVL=0

      00FF22DCH   BLOCK     CODE     ---       LVL=0
L251 LINKER/LOCATER V4.66.93.0                                                        05/04/2024  13:35:58  PAGE 34


      000004D8H   SYMBOL    EDATA    INT       pwmch
      000004DAH   SYMBOL    EDATA    DWORD     freq
      000004DEH   SYMBOL    EDATA    DWORD     duty
      00FF22E4H   BLOCK     CODE     NEAR LAB  LVL=1
      000004E2H   SYMBOL    EDATA    DWORD     match_temp
      000004E6H   SYMBOL    EDATA    DWORD     period_temp
      000004EAH   SYMBOL    EDATA    WORD      freq_div
      ---         BLOCKEND  ---      ---       LVL=1
      00FF22DCH   LINE      CODE     ---       #290
      00FF22E4H   LINE      CODE     ---       #291
      00FF22E4H   LINE      CODE     ---       #295
      00FF22EAH   LINE      CODE     ---       #298
      00FF22EDH   LINE      CODE     ---       #301
      00FF22F4H   LINE      CODE     ---       #305
      00FF2307H   LINE      CODE     ---       #306
      00FF2316H   LINE      CODE     ---       #307
      00FF2331H   LINE      CODE     ---       #309
      00FF233BH   LINE      CODE     ---       #311
      00FF2362H   LINE      CODE     ---       #312
      00FF2364H   LINE      CODE     ---       #315
      00FF2372H   LINE      CODE     ---       #316
      00FF2372H   LINE      CODE     ---       #319
      00FF2381H   LINE      CODE     ---       #322
      00FF23B2H   LINE      CODE     ---       #323
      00FF23E9H   LINE      CODE     ---       #326
      00FF243BH   LINE      CODE     ---       #329
      00FF244EH   LINE      CODE     ---       #330
      00FF245DH   LINE      CODE     ---       #332
      00FF246AH   LINE      CODE     ---       #333
      00FF2477H   LINE      CODE     ---       #334
      00FF247AH   LINE      CODE     ---       #337
      00FF24B8H   LINE      CODE     ---       #338
      00FF24EBH   LINE      CODE     ---       #341
      00FF254BH   LINE      CODE     ---       #345
      00FF255EH   LINE      CODE     ---       #346
      00FF256DH   LINE      CODE     ---       #348
      00FF257AH   LINE      CODE     ---       #349
      00FF2587H   LINE      CODE     ---       #350
      00FF2587H   LINE      CODE     ---       #353
      00FF25B9H   LINE      CODE     ---       #354
      00FF25F1H   LINE      CODE     ---       #357
      00FF261FH   LINE      CODE     ---       #358
      00FF2653H   LINE      CODE     ---       #361
      00FF2684H   LINE      CODE     ---       #362
      00FF26B5H   LINE      CODE     ---       #367
      ---         BLOCKEND  ---      ---       LVL=0

      00FF35BFH   BLOCK     CODE     ---       LVL=0
      00000566H   SYMBOL    EDATA    INT       pwmch
      00000568H   SYMBOL    EDATA    DWORD     duty
      00FF35C7H   BLOCK     CODE     NEAR LAB  LVL=1
      0000056CH   SYMBOL    EDATA    DWORD     match_temp
      00000570H   SYMBOL    EDATA    DWORD     arr
      ---         BLOCKEND  ---      ---       LVL=1
      00FF35BFH   LINE      CODE     ---       #377
      00FF35C7H   LINE      CODE     ---       #378
      00FF35C7H   LINE      CODE     ---       #380
      00FF3633H   LINE      CODE     ---       #384
      00FF363DH   LINE      CODE     ---       #386
      00FF3664H   LINE      CODE     ---       #387
      00FF3666H   LINE      CODE     ---       #390
      00FF3674H   LINE      CODE     ---       #391
      00FF3674H   LINE      CODE     ---       #396
      00FF36A2H   LINE      CODE     ---       #397
      00FF36D6H   LINE      CODE     ---       #401
L251 LINKER/LOCATER V4.66.93.0                                                        05/04/2024  13:35:58  PAGE 35


      ---         BLOCKEND  ---      ---       LVL=0
      000004ECH   SYMBOL    EDATA    INT       pwmch
      000004EEH   SYMBOL    EDATA    DWORD     freq
      000004F2H   SYMBOL    EDATA    DWORD     duty
      000004F6H   SYMBOL    EDATA    DWORD     match_temp
      000004FAH   SYMBOL    EDATA    DWORD     period_temp
      000004FEH   SYMBOL    EDATA    WORD      freq_div

      ---         MODULE    ---      ---       zf_spi
      00FF3D9AH   PUBLIC    CODE     ---       spi_init
      00FF4BC9H   PUBLIC    CODE     ---       spi_mosi
      0000059EH   PUBLIC    EDATA    BYTE      ?spi_init?BYTE
      000000CFH   SFRSYM    DATA     BYTE      SPDAT
      000000D0H   SFRSYM    DATA     BYTE      PSW
      0000009DH   SFRSYM    DATA     BYTE      IRCBAND
      00000097H   SFRSYM    DATA     BYTE      AUXR2
      000000EFH   SFRSYM    DATA     BYTE      AUXINTIF
      000000FDH   SFRSYM    DATA     BYTE      S4CON
      000000ACH   SFRSYM    DATA     BYTE      S3CON
      0000009AH   SFRSYM    DATA     BYTE      S2CON
      000000B7H   SFRSYM    DATA     BYTE      IPH
      000000CDH   SFRSYM    DATA     BYTE      SPSTAT
      000000DDH   SFRSYM    DATA     BYTE      T4T3M
      000000C1H   SFRSYM    DATA     BYTE      WDT_CONTR
      000000DFH   SFRSYM    DATA     BYTE      IP3
      000000F4H   SFRSYM    DATA     BYTE      USBCON
      000000B5H   SFRSYM    DATA     BYTE      IP2
      000000FFH   SFRSYM    DATA     BYTE      RSTCFG
      000000F9H   SFRSYM    DATA     BYTE      LINICR
      0000008EH   SFRSYM    DATA     BYTE      AUXR
      000000AFH   SFRSYM    DATA     BYTE      IE2
      00000088H   SFRSYM    DATA     BYTE      TCON
      00000098H   SFRSYM    DATA     BYTE      SCON
      000000F1H   SFRSYM    DATA     BYTE      CANICR
      00000087H   SFRSYM    DATA     BYTE      PCON
      000000BCH   SFRSYM    DATA     BYTE      ADC_CONTR
      000000E7H   SFRSYM    DATA     BYTE      CMPCR2
      000000E6H   SFRSYM    DATA     BYTE      CMPCR1
      000000B8H   SFRSYM    DATA     BYTE      IP
      0000008FH   SFRSYM    DATA     BYTE      INTCLKO
      000000EEH   SFRSYM    DATA     BYTE      IP3H
      000000B6H   SFRSYM    DATA     BYTE      IP2H
      000000A8H   SFRSYM    DATA     BYTE      IE
      000000BBH   SFRSYM    DATA     BYTE      P_SW3
      000000BAH   SFRSYM    DATA     BYTE      P_SW2
      000000A2H   SFRSYM    DATA     BYTE      P_SW1
      000000CEH   SFRSYM    DATA     BYTE      SPCTL
      000000F8H   SFRSYM    DATA     BYTE      P7
      000000E8H   SFRSYM    DATA     BYTE      P6
      000000C8H   SFRSYM    DATA     BYTE      P5
      000000C0H   SFRSYM    DATA     BYTE      P4
      000000B0H   SFRSYM    DATA     BYTE      P3
      000000A0H   SFRSYM    DATA     BYTE      P2
      00000090H   SFRSYM    DATA     BYTE      P1
      00000080H   SFRSYM    DATA     BYTE      P0

      00FF3D9AH   BLOCK     CODE     ---       LVL=0
      0000059EH   SYMBOL    EDATA    INT       spi_n
      000005A0H   SYMBOL    EDATA    INT       sck_pin
      000005A2H   SYMBOL    EDATA    INT       mosi_pin
      000005A4H   SYMBOL    EDATA    INT       miso_pin
      000005A6H   SYMBOL    EDATA    BYTE      mode
      000005A7H   SYMBOL    EDATA    INT       mstr
      000005A9H   SYMBOL    EDATA    INT       baud
      00FF3D9AH   LINE      CODE     ---       #39
L251 LINKER/LOCATER V4.66.93.0                                                        05/04/2024  13:35:58  PAGE 36


      00FF3DAEH   LINE      CODE     ---       #48
      00FF3DBAH   LINE      CODE     ---       #50
      00FF3DC9H   LINE      CODE     ---       #51
      00FF3DC9H   LINE      CODE     ---       #53
      00FF3DD5H   LINE      CODE     ---       #55
      00FF3DE4H   LINE      CODE     ---       #56
      00FF3DE4H   LINE      CODE     ---       #58
      00FF3DF0H   LINE      CODE     ---       #60
      00FF3DFFH   LINE      CODE     ---       #61
      00FF3DFFH   LINE      CODE     ---       #64
      00FF3E02H   LINE      CODE     ---       #65
      00FF3E18H   LINE      CODE     ---       #67
      00FF3E18H   LINE      CODE     ---       #68
      00FF3E1CH   LINE      CODE     ---       #69
      00FF3E1EH   LINE      CODE     ---       #70
      00FF3E1EH   LINE      CODE     ---       #71
      00FF3E21H   LINE      CODE     ---       #72
      00FF3E23H   LINE      CODE     ---       #73
      00FF3E23H   LINE      CODE     ---       #74
      00FF3E26H   LINE      CODE     ---       #75
      00FF3E28H   LINE      CODE     ---       #76
      00FF3E28H   LINE      CODE     ---       #77
      00FF3E2BH   LINE      CODE     ---       #78
      00FF3E2BH   LINE      CODE     ---       #79
      00FF3E2BH   LINE      CODE     ---       #81
      00FF3E2EH   LINE      CODE     ---       #82
      00FF3E3DH   LINE      CODE     ---       #84
      00FF3E3DH   LINE      CODE     ---       #86
      00FF3E3FH   LINE      CODE     ---       #87
      00FF3E3FH   LINE      CODE     ---       #88
      00FF3E42H   LINE      CODE     ---       #89
      00FF3E44H   LINE      CODE     ---       #90
      00FF3E44H   LINE      CODE     ---       #91
      00FF3E47H   LINE      CODE     ---       #92
      00FF3E49H   LINE      CODE     ---       #93
      00FF3E49H   LINE      CODE     ---       #94
      00FF3E4CH   LINE      CODE     ---       #95
      00FF3E4CH   LINE      CODE     ---       #96
      00FF3E4CH   LINE      CODE     ---       #99
      00FF3E54H   LINE      CODE     ---       #101
      00FF3E5EH   LINE      CODE     ---       #103
      00FF3E61H   LINE      CODE     ---       #104
      00FF3E64H   LINE      CODE     ---       #105
      00FF3E64H   LINE      CODE     ---       #109
      00FF3E64H   LINE      CODE     ---       #110
      00FF3E67H   LINE      CODE     ---       #111
      ---         BLOCKEND  ---      ---       LVL=0

      00FF4BC9H   BLOCK     CODE     ---       LVL=0
      0000078DH   SYMBOL    EDATA    BYTE      dat
      00FF4BC9H   LINE      CODE     ---       #121
      00FF4BCDH   LINE      CODE     ---       #123
      00FF4BCFH   LINE      CODE     ---       #124
      00FF4BD4H   LINE      CODE     ---       #125
      00FF4BD8H   LINE      CODE     ---       #126
      00FF4BDAH   LINE      CODE     ---       #127
      ---         BLOCKEND  ---      ---       LVL=0
      00000773H   SYMBOL    EDATA    INT       spi_n
      0000078EH   SYMBOL    EDATA    BYTE      mode

      ---         MODULE    ---      ---       zf_tim
      000000D0H   SFRSYM    DATA     BYTE      PSW
      0000009DH   SFRSYM    DATA     BYTE      IRCBAND
      00000097H   SFRSYM    DATA     BYTE      AUXR2
      000000EFH   SFRSYM    DATA     BYTE      AUXINTIF
L251 LINKER/LOCATER V4.66.93.0                                                        05/04/2024  13:35:58  PAGE 37


      000000FDH   SFRSYM    DATA     BYTE      S4CON
      000000ACH   SFRSYM    DATA     BYTE      S3CON
      0000009AH   SFRSYM    DATA     BYTE      S2CON
      000000B7H   SFRSYM    DATA     BYTE      IPH
      000000CDH   SFRSYM    DATA     BYTE      SPSTAT
      000000DDH   SFRSYM    DATA     BYTE      T4T3M
      000000C1H   SFRSYM    DATA     BYTE      WDT_CONTR
      00000088H.6 SFRSYM    DATA     BIT       TR1
      00000088H.4 SFRSYM    DATA     BIT       TR0
      000000D3H   SFRSYM    DATA     BYTE      T4L
      000000D5H   SFRSYM    DATA     BYTE      T3L
      000000D7H   SFRSYM    DATA     BYTE      T2L
      0000008BH   SFRSYM    DATA     BYTE      TL1
      0000008AH   SFRSYM    DATA     BYTE      TL0
      000000D2H   SFRSYM    DATA     BYTE      T4H
      000000D4H   SFRSYM    DATA     BYTE      T3H
      000000D6H   SFRSYM    DATA     BYTE      T2H
      0000008DH   SFRSYM    DATA     BYTE      TH1
      0000008CH   SFRSYM    DATA     BYTE      TH0
      000000DFH   SFRSYM    DATA     BYTE      IP3
      000000F4H   SFRSYM    DATA     BYTE      USBCON
      000000B5H   SFRSYM    DATA     BYTE      IP2
      000000FFH   SFRSYM    DATA     BYTE      RSTCFG
      000000A8H.3 SFRSYM    DATA     BIT       ET1
      000000A8H.1 SFRSYM    DATA     BIT       ET0
      000000F9H   SFRSYM    DATA     BYTE      LINICR
      0000008EH   SFRSYM    DATA     BYTE      AUXR
      000000AFH   SFRSYM    DATA     BYTE      IE2
      00000088H   SFRSYM    DATA     BYTE      TCON
      00000089H   SFRSYM    DATA     BYTE      TMOD
      00000098H   SFRSYM    DATA     BYTE      SCON
      000000F1H   SFRSYM    DATA     BYTE      CANICR
      00000087H   SFRSYM    DATA     BYTE      PCON
      000000BCH   SFRSYM    DATA     BYTE      ADC_CONTR
      000000E7H   SFRSYM    DATA     BYTE      CMPCR2
      000000E6H   SFRSYM    DATA     BYTE      CMPCR1
      000000B8H   SFRSYM    DATA     BYTE      IP
      0000008FH   SFRSYM    DATA     BYTE      INTCLKO
      000000EEH   SFRSYM    DATA     BYTE      IP3H
      000000B6H   SFRSYM    DATA     BYTE      IP2H
      000000A8H   SFRSYM    DATA     BYTE      IE
      000000BBH   SFRSYM    DATA     BYTE      P_SW3
      000000BAH   SFRSYM    DATA     BYTE      P_SW2
      000000A2H   SFRSYM    DATA     BYTE      P_SW1
      000000CEH   SFRSYM    DATA     BYTE      SPCTL
      000000F8H   SFRSYM    DATA     BYTE      P7
      000000E8H   SFRSYM    DATA     BYTE      P6
      000000C8H   SFRSYM    DATA     BYTE      P5
      000000C0H   SFRSYM    DATA     BYTE      P4
      000000B0H   SFRSYM    DATA     BYTE      P3
      000000A0H   SFRSYM    DATA     BYTE      P2
      00000090H   SFRSYM    DATA     BYTE      P1
      00000080H   SFRSYM    DATA     BYTE      P0
      00000775H   SYMBOL    EDATA    INT       tim_n
      00000747H   SYMBOL    EDATA    INT       tim_n
      00000749H   SYMBOL    EDATA    WORD      dat
      00000777H   SYMBOL    EDATA    INT       tim_n
      000006B3H   SYMBOL    EDATA    INT       tim_n
      000006B5H   SYMBOL    EDATA    WORD      time_ms
      000006B7H   SYMBOL    EDATA    WORD      temp

      ---         MODULE    ---      ---       zf_uart
      00FF425FH   PUBLIC    CODE     ---       uart_putchar
      00FF2D62H   PUBLIC    CODE     ---       uart_init
      00000713H   PUBLIC    EDATA    ---       busy
L251 LINKER/LOCATER V4.66.93.0                                                        05/04/2024  13:35:58  PAGE 38


      00000574H   PUBLIC    EDATA    BYTE      ?uart_init?BYTE
      00000610H   PUBLIC    EDATA    BYTE      ?uart_putbuff?BYTE
      000000D0H   SFRSYM    DATA     BYTE      PSW
      0000009DH   SFRSYM    DATA     BYTE      IRCBAND
      00000097H   SFRSYM    DATA     BYTE      AUXR2
      000000EFH   SFRSYM    DATA     BYTE      AUXINTIF
      000000FDH   SFRSYM    DATA     BYTE      S4CON
      000000ACH   SFRSYM    DATA     BYTE      S3CON
      0000009AH   SFRSYM    DATA     BYTE      S2CON
      000000FEH   SFRSYM    DATA     BYTE      S4BUF
      000000ADH   SFRSYM    DATA     BYTE      S3BUF
      0000009BH   SFRSYM    DATA     BYTE      S2BUF
      000000B7H   SFRSYM    DATA     BYTE      IPH
      000000CDH   SFRSYM    DATA     BYTE      SPSTAT
      000000DDH   SFRSYM    DATA     BYTE      T4T3M
      000000C1H   SFRSYM    DATA     BYTE      WDT_CONTR
      00000088H.6 SFRSYM    DATA     BIT       TR1
      000000D3H   SFRSYM    DATA     BYTE      T4L
      000000D5H   SFRSYM    DATA     BYTE      T3L
      000000D7H   SFRSYM    DATA     BYTE      T2L
      0000008BH   SFRSYM    DATA     BYTE      TL1
      000000D2H   SFRSYM    DATA     BYTE      T4H
      000000D4H   SFRSYM    DATA     BYTE      T3H
      000000D6H   SFRSYM    DATA     BYTE      T2H
      0000008DH   SFRSYM    DATA     BYTE      TH1
      000000DFH   SFRSYM    DATA     BYTE      IP3
      000000F4H   SFRSYM    DATA     BYTE      USBCON
      000000B5H   SFRSYM    DATA     BYTE      IP2
      000000FFH   SFRSYM    DATA     BYTE      RSTCFG
      000000F9H   SFRSYM    DATA     BYTE      LINICR
      0000008EH   SFRSYM    DATA     BYTE      AUXR
      000000AFH   SFRSYM    DATA     BYTE      IE2
      00000088H   SFRSYM    DATA     BYTE      TCON
      00000089H   SFRSYM    DATA     BYTE      TMOD
      00000098H   SFRSYM    DATA     BYTE      SCON
      000000F1H   SFRSYM    DATA     BYTE      CANICR
      00000087H   SFRSYM    DATA     BYTE      PCON
      00000099H   SFRSYM    DATA     BYTE      SBUF
      000000BCH   SFRSYM    DATA     BYTE      ADC_CONTR
      000000E7H   SFRSYM    DATA     BYTE      CMPCR2
      000000E6H   SFRSYM    DATA     BYTE      CMPCR1
      000000B8H   SFRSYM    DATA     BYTE      IP
      000000A8H.4 SFRSYM    DATA     BIT       ES
      0000008FH   SFRSYM    DATA     BYTE      INTCLKO
      000000EEH   SFRSYM    DATA     BYTE      IP3H
      000000B6H   SFRSYM    DATA     BYTE      IP2H
      000000A8H   SFRSYM    DATA     BYTE      IE
      000000BBH   SFRSYM    DATA     BYTE      P_SW3
      000000BAH   SFRSYM    DATA     BYTE      P_SW2
      000000A2H   SFRSYM    DATA     BYTE      P_SW1
      000000CEH   SFRSYM    DATA     BYTE      SPCTL
      000000F8H   SFRSYM    DATA     BYTE      P7
      000000E8H   SFRSYM    DATA     BYTE      P6
      000000C8H   SFRSYM    DATA     BYTE      P5
      000000C0H   SFRSYM    DATA     BYTE      P4
      000000C9H   SFRSYM    DATA     BYTE      P5M1
      000000B0H   SFRSYM    DATA     BYTE      P3
      000000CAH   SFRSYM    DATA     BYTE      P5M0
      000000A0H   SFRSYM    DATA     BYTE      P2
      00000090H   SFRSYM    DATA     BYTE      P1
      00000080H   SFRSYM    DATA     BYTE      P0

      00FF2D62H   BLOCK     CODE     ---       LVL=0
      00000574H   SYMBOL    EDATA    INT       uart_n
      00000576H   SYMBOL    EDATA    INT       uart_rx_pin
L251 LINKER/LOCATER V4.66.93.0                                                        05/04/2024  13:35:58  PAGE 39


      00000578H   SYMBOL    EDATA    INT       uart_tx_pin
      0000057AH   SYMBOL    EDATA    DWORD     baud
      0000057EH   SYMBOL    EDATA    INT       tim_n
      00FF2D72H   BLOCK     CODE     NEAR LAB  LVL=1
      00000580H   SYMBOL    EDATA    WORD      brt
      ---         BLOCKEND  ---      ---       LVL=1
      00FF2D62H   LINE      CODE     ---       #42
      00FF2D72H   LINE      CODE     ---       #43
      00FF2D72H   LINE      CODE     ---       #46
      00FF2D99H   LINE      CODE     ---       #49
      00FF2DBBH   LINE      CODE     ---       #51
      00FF2DBBH   LINE      CODE     ---       #53
      00FF2DC7H   LINE      CODE     ---       #55
      00FF2DCAH   LINE      CODE     ---       #56
      00FF2DCEH   LINE      CODE     ---       #57
      00FF2DD4H   LINE      CODE     ---       #58
      00FF2DDEH   LINE      CODE     ---       #59
      00FF2DE1H   LINE      CODE     ---       #60
      00FF2DE4H   LINE      CODE     ---       #61
      00FF2DE9H   LINE      CODE     ---       #62
      00FF2DEBH   LINE      CODE     ---       #63
      00FF2DF7H   LINE      CODE     ---       #65
      00FF2DFAH   LINE      CODE     ---       #66
      00FF2E00H   LINE      CODE     ---       #67
      00FF2E0AH   LINE      CODE     ---       #68
      00FF2E0DH   LINE      CODE     ---       #69
      00FF2E0DH   LINE      CODE     ---       #70
      00FF2E10H   LINE      CODE     ---       #71
      00FF2E26H   LINE      CODE     ---       #73
      00FF2E2AH   LINE      CODE     ---       #74
      00FF2E2CH   LINE      CODE     ---       #75
      00FF2E44H   LINE      CODE     ---       #77
      00FF2E47H   LINE      CODE     ---       #78
      00FF2E49H   LINE      CODE     ---       #79
      00FF2E61H   LINE      CODE     ---       #81
      00FF2E64H   LINE      CODE     ---       #82
      00FF2E66H   LINE      CODE     ---       #83
      00FF2E7EH   LINE      CODE     ---       #85
      00FF2E81H   LINE      CODE     ---       #86
      00FF2E81H   LINE      CODE     ---       #87
      00FF2E86H   LINE      CODE     ---       #88
      00FF2E89H   LINE      CODE     ---       #89
      00FF2E8CH   LINE      CODE     ---       #92
      00FF2E8CH   LINE      CODE     ---       #94
      00FF2E98H   LINE      CODE     ---       #96
      00FF2E9BH   LINE      CODE     ---       #97
      00FF2EA1H   LINE      CODE     ---       #98
      00FF2EABH   LINE      CODE     ---       #99
      00FF2EAEH   LINE      CODE     ---       #100
      00FF2EAEH   LINE      CODE     ---       #102
      00FF2EB1H   LINE      CODE     ---       #103
      00FF2EC9H   LINE      CODE     ---       #105
      00FF2ECDH   LINE      CODE     ---       #106
      00FF2ECFH   LINE      CODE     ---       #107
      00FF2EE7H   LINE      CODE     ---       #109
      00FF2EEAH   LINE      CODE     ---       #110
      00FF2EEAH   LINE      CODE     ---       #112
      00FF2EEDH   LINE      CODE     ---       #113
      00FF2EF2H   LINE      CODE     ---       #114
      00FF2EF5H   LINE      CODE     ---       #117
      00FF2EF5H   LINE      CODE     ---       #119
      00FF2F01H   LINE      CODE     ---       #121
      00FF2F04H   LINE      CODE     ---       #122
      00FF2F0AH   LINE      CODE     ---       #123
      00FF2F14H   LINE      CODE     ---       #124
L251 LINKER/LOCATER V4.66.93.0                                                        05/04/2024  13:35:58  PAGE 40


      00FF2F17H   LINE      CODE     ---       #125
      00FF2F19H   LINE      CODE     ---       #126
      00FF2F25H   LINE      CODE     ---       #128
      00FF2F28H   LINE      CODE     ---       #129
      00FF2F2EH   LINE      CODE     ---       #130
      00FF2F38H   LINE      CODE     ---       #131
      00FF2F3BH   LINE      CODE     ---       #132
      00FF2F3BH   LINE      CODE     ---       #134
      00FF2F3EH   LINE      CODE     ---       #135
      00FF2F56H   LINE      CODE     ---       #137
      00FF2F5AH   LINE      CODE     ---       #138
      00FF2F5CH   LINE      CODE     ---       #139
      00FF2F74H   LINE      CODE     ---       #141
      00FF2F77H   LINE      CODE     ---       #142
      00FF2F77H   LINE      CODE     ---       #144
      00FF2F7AH   LINE      CODE     ---       #145
      00FF2F7FH   LINE      CODE     ---       #146
      00FF2F82H   LINE      CODE     ---       #149
      00FF2F82H   LINE      CODE     ---       #151
      00FF2F8EH   LINE      CODE     ---       #153
      00FF2F91H   LINE      CODE     ---       #154
      00FF2F97H   LINE      CODE     ---       #155
      00FF2FA1H   LINE      CODE     ---       #156
      00FF2FA4H   LINE      CODE     ---       #157
      00FF2FA6H   LINE      CODE     ---       #158
      00FF2FB2H   LINE      CODE     ---       #160
      00FF2FB5H   LINE      CODE     ---       #161
      00FF2FBBH   LINE      CODE     ---       #162
      00FF2FC5H   LINE      CODE     ---       #163
      00FF2FC8H   LINE      CODE     ---       #164
      00FF2FC8H   LINE      CODE     ---       #166
      00FF2FCBH   LINE      CODE     ---       #167
      00FF2FE3H   LINE      CODE     ---       #169
      00FF2FE7H   LINE      CODE     ---       #170
      00FF2FE9H   LINE      CODE     ---       #171
      00FF3001H   LINE      CODE     ---       #173
      00FF3004H   LINE      CODE     ---       #174
      00FF3008H   LINE      CODE     ---       #175
      00FF300BH   LINE      CODE     ---       #176
      00FF300BH   LINE      CODE     ---       #177
      00FF300EH   LINE      CODE     ---       #178
      00FF3013H   LINE      CODE     ---       #179
      00FF3013H   LINE      CODE     ---       #182
      00FF3013H   LINE      CODE     ---       #184
      ---         BLOCKEND  ---      ---       LVL=0

      00FF425FH   BLOCK     CODE     ---       LVL=0
      0000075AH   SYMBOL    EDATA    INT       uart_n
      0000075CH   SYMBOL    EDATA    BYTE      dat
      00FF425FH   LINE      CODE     ---       #193
      00FF4267H   LINE      CODE     ---       #195
      00FF4279H   LINE      CODE     ---       #197
      00FF4279H   LINE      CODE     ---       #198
      00FF4282H   LINE      CODE     ---       #199
      00FF4288H   LINE      CODE     ---       #200
      00FF428EH   LINE      CODE     ---       #201
      00FF4290H   LINE      CODE     ---       #202
      00FF4290H   LINE      CODE     ---       #203
      00FF4299H   LINE      CODE     ---       #204
      00FF429FH   LINE      CODE     ---       #205
      00FF42A5H   LINE      CODE     ---       #206
      00FF42A7H   LINE      CODE     ---       #207
      00FF42A7H   LINE      CODE     ---       #208
      00FF42B0H   LINE      CODE     ---       #209
      00FF42B6H   LINE      CODE     ---       #210
L251 LINKER/LOCATER V4.66.93.0                                                        05/04/2024  13:35:58  PAGE 41


      00FF42BCH   LINE      CODE     ---       #211
      00FF42BEH   LINE      CODE     ---       #212
      00FF42BEH   LINE      CODE     ---       #213
      00FF42C7H   LINE      CODE     ---       #214
      00FF42CDH   LINE      CODE     ---       #215
      00FF42D3H   LINE      CODE     ---       #216
      00FF42D3H   LINE      CODE     ---       #217
      00FF42D3H   LINE      CODE     ---       #218
      ---         BLOCKEND  ---      ---       LVL=0
      00000610H   SYMBOL    EDATA    INT       uart_n
      00000612H   SYMBOL    EDATA    ---       p
      00000616H   SYMBOL    EDATA    DWORD     len
      000006B9H   SYMBOL    EDATA    INT       uart_n
      000006BBH   SYMBOL    EDATA    ---       str

      ---         MODULE    ---      ---       zf_fifo
      00000514H   PUBLIC    EDATA    BYTE      ?fifo_write_buffer?BYTE
      000005B8H   PUBLIC    EDATA    BYTE      ?fifo_read_element?BYTE
      00000008H   PUBLIC    EDATA    BYTE      ?fifo_read_buffer?BYTE
      000004AAH   PUBLIC    EDATA    BYTE      ?fifo_read_tail_buffer?BYTE
      00000526H   PUBLIC    EDATA    BYTE      ?fifo_init?BYTE
      000000D0H   SFRSYM    DATA     BYTE      PSW
      0000009DH   SFRSYM    DATA     BYTE      IRCBAND
      00000097H   SFRSYM    DATA     BYTE      AUXR2
      000000EFH   SFRSYM    DATA     BYTE      AUXINTIF
      000000FDH   SFRSYM    DATA     BYTE      S4CON
      000000ACH   SFRSYM    DATA     BYTE      S3CON
      0000009AH   SFRSYM    DATA     BYTE      S2CON
      000000B7H   SFRSYM    DATA     BYTE      IPH
      000000CDH   SFRSYM    DATA     BYTE      SPSTAT
      000000DDH   SFRSYM    DATA     BYTE      T4T3M
      000000C1H   SFRSYM    DATA     BYTE      WDT_CONTR
      000000DFH   SFRSYM    DATA     BYTE      IP3
      000000F4H   SFRSYM    DATA     BYTE      USBCON
      000000B5H   SFRSYM    DATA     BYTE      IP2
      000000FFH   SFRSYM    DATA     BYTE      RSTCFG
      000000F9H   SFRSYM    DATA     BYTE      LINICR
      0000008EH   SFRSYM    DATA     BYTE      AUXR
      000000AFH   SFRSYM    DATA     BYTE      IE2
      00000088H   SFRSYM    DATA     BYTE      TCON
      00000098H   SFRSYM    DATA     BYTE      SCON
      000000F1H   SFRSYM    DATA     BYTE      CANICR
      00000087H   SFRSYM    DATA     BYTE      PCON
      000000BCH   SFRSYM    DATA     BYTE      ADC_CONTR
      000000E7H   SFRSYM    DATA     BYTE      CMPCR2
      000000E6H   SFRSYM    DATA     BYTE      CMPCR1
      000000B8H   SFRSYM    DATA     BYTE      IP
      0000008FH   SFRSYM    DATA     BYTE      INTCLKO
      000000EEH   SFRSYM    DATA     BYTE      IP3H
      000000B6H   SFRSYM    DATA     BYTE      IP2H
      000000A8H   SFRSYM    DATA     BYTE      IE
      000000BBH   SFRSYM    DATA     BYTE      P_SW3
      000000BAH   SFRSYM    DATA     BYTE      P_SW2
      000000A2H   SFRSYM    DATA     BYTE      P_SW1
      000000CEH   SFRSYM    DATA     BYTE      SPCTL
      000000F8H   SFRSYM    DATA     BYTE      P7
      000000E8H   SFRSYM    DATA     BYTE      P6
      000000C8H   SFRSYM    DATA     BYTE      P5
      000000C0H   SFRSYM    DATA     BYTE      P4
      000000B0H   SFRSYM    DATA     BYTE      P3
      000000A0H   SFRSYM    DATA     BYTE      P2
      00000090H   SFRSYM    DATA     BYTE      P1
      00000080H   SFRSYM    DATA     BYTE      P0
      00FF42D4H   SYMBOL    CODE     ---       fifo_head_offset

L251 LINKER/LOCATER V4.66.93.0                                                        05/04/2024  13:35:58  PAGE 42


      00FF42D4H   BLOCK     CODE     ---       LVL=0
      00000641H   SYMBOL    EDATA    ---       fifo
      00000645H   SYMBOL    EDATA    DWORD     offset
      00FF42D4H   LINE      CODE     ---       #42
      00FF42DCH   LINE      CODE     ---       #44
      00FF42F8H   LINE      CODE     ---       #46
      00FF42FAH   LINE      CODE     ---       #48
      00FF4321H   LINE      CODE     ---       #49
      00FF4343H   LINE      CODE     ---       #50
      ---         BLOCKEND  ---      ---       LVL=0
      00000649H   SYMBOL    EDATA    ---       fifo
      0000064DH   SYMBOL    EDATA    DWORD     offset
      000006BFH   SYMBOL    EDATA    ---       fifo
      000006C3H   SYMBOL    EDATA    INT       return_state
      0000074BH   SYMBOL    EDATA    ---       fifo
      0000061AH   SYMBOL    EDATA    ---       fifo
      0000061EH   SYMBOL    EDATA    DWORD     dat
      00000622H   SYMBOL    EDATA    INT       return_state
      00000514H   SYMBOL    EDATA    ---       fifo
      00000518H   SYMBOL    EDATA    ---       dat
      0000051CH   SYMBOL    EDATA    DWORD     length
      00000520H   SYMBOL    EDATA    INT       return_state
      00000522H   SYMBOL    EDATA    DWORD     temp_length
      000005B8H   SYMBOL    EDATA    ---       fifo
      000005BCH   SYMBOL    EDATA    ---       dat
      000005C0H   SYMBOL    EDATA    INT       flag
      000005C2H   SYMBOL    EDATA    INT       return_state
      00000008H   SYMBOL    EDATA    ---       fifo
      0000000CH   SYMBOL    EDATA    ---       dat
      00000010H   SYMBOL    EDATA    ---       length
      00000014H   SYMBOL    EDATA    INT       flag
      00000016H   SYMBOL    EDATA    INT       return_state
      00000018H   SYMBOL    EDATA    DWORD     temp_length
      0000001CH   SYMBOL    EDATA    DWORD     fifo_data_length
      000004AAH   SYMBOL    EDATA    ---       fifo
      000004AEH   SYMBOL    EDATA    ---       dat
      000004B2H   SYMBOL    EDATA    ---       length
      000004B6H   SYMBOL    EDATA    INT       flag
      000004B8H   SYMBOL    EDATA    INT       return_state
      000004BAH   SYMBOL    EDATA    DWORD     temp_length
      000004BEH   SYMBOL    EDATA    DWORD     fifo_data_length
      00000526H   SYMBOL    EDATA    ---       fifo
      0000052AH   SYMBOL    EDATA    INT       type
      0000052CH   SYMBOL    EDATA    ---       buffer_addr
      00000530H   SYMBOL    EDATA    DWORD     len
      00000534H   SYMBOL    EDATA    INT       return_state

      ---         MODULE    ---      ---       zf_iic
      00FF43A3H   PUBLIC    CODE     ---       wait
      00FF4A1CH   PUBLIC    CODE     ---       iic_delay_us
      000006C1H   PUBLIC    EDATA    BYTE      ?iic_init?BYTE
      000000D0H   SFRSYM    DATA     BYTE      PSW
      0000009DH   SFRSYM    DATA     BYTE      IRCBAND
      00000097H   SFRSYM    DATA     BYTE      AUXR2
      000000EFH   SFRSYM    DATA     BYTE      AUXINTIF
      000000FDH   SFRSYM    DATA     BYTE      S4CON
      000000ACH   SFRSYM    DATA     BYTE      S3CON
      0000009AH   SFRSYM    DATA     BYTE      S2CON
      000000B7H   SFRSYM    DATA     BYTE      IPH
      000000CDH   SFRSYM    DATA     BYTE      SPSTAT
      000000DDH   SFRSYM    DATA     BYTE      T4T3M
      000000C1H   SFRSYM    DATA     BYTE      WDT_CONTR
      000000DFH   SFRSYM    DATA     BYTE      IP3
      000000F4H   SFRSYM    DATA     BYTE      USBCON
      000000B5H   SFRSYM    DATA     BYTE      IP2
L251 LINKER/LOCATER V4.66.93.0                                                        05/04/2024  13:35:58  PAGE 43


      000000FFH   SFRSYM    DATA     BYTE      RSTCFG
      000000F9H   SFRSYM    DATA     BYTE      LINICR
      0000008EH   SFRSYM    DATA     BYTE      AUXR
      000000AFH   SFRSYM    DATA     BYTE      IE2
      00000088H   SFRSYM    DATA     BYTE      TCON
      00000098H   SFRSYM    DATA     BYTE      SCON
      000000F1H   SFRSYM    DATA     BYTE      CANICR
      00000087H   SFRSYM    DATA     BYTE      PCON
      000000BCH   SFRSYM    DATA     BYTE      ADC_CONTR
      000000E7H   SFRSYM    DATA     BYTE      CMPCR2
      000000E6H   SFRSYM    DATA     BYTE      CMPCR1
      000000B8H   SFRSYM    DATA     BYTE      IP
      0000008FH   SFRSYM    DATA     BYTE      INTCLKO
      000000EEH   SFRSYM    DATA     BYTE      IP3H
      000000B6H   SFRSYM    DATA     BYTE      IP2H
      000000A8H   SFRSYM    DATA     BYTE      IE
      000000BBH   SFRSYM    DATA     BYTE      P_SW3
      000000BAH   SFRSYM    DATA     BYTE      P_SW2
      000000A2H   SFRSYM    DATA     BYTE      P_SW1
      000000CEH   SFRSYM    DATA     BYTE      SPCTL
      000000F8H   SFRSYM    DATA     BYTE      P7
      000000E8H   SFRSYM    DATA     BYTE      P6
      000000C8H   SFRSYM    DATA     BYTE      P5
      000000C0H   SFRSYM    DATA     BYTE      P4
      000000B0H   SFRSYM    DATA     BYTE      P3
      000000A0H   SFRSYM    DATA     BYTE      P2
      00000090H   SFRSYM    DATA     BYTE      P1
      00000080H   SFRSYM    DATA     BYTE      P0

      00FF4A1CH   BLOCK     CODE     ---       LVL=0
      0000075DH   SYMBOL    EDATA    WORD      x
      00FF4A20H   BLOCK     CODE     NEAR LAB  LVL=1
      0000075FH   SYMBOL    EDATA    BYTE      i
      ---         BLOCKEND  ---      ---       LVL=1
      00FF4A1CH   LINE      CODE     ---       #30
      00FF4A20H   LINE      CODE     ---       #31
      00FF4A20H   LINE      CODE     ---       #33
      00FF4A22H   LINE      CODE     ---       #35
      00FF4A28H   LINE      CODE     ---       #36
      00FF4A3AH   LINE      CODE     ---       #37
      00FF4A50H   LINE      CODE     ---       #38
      ---         BLOCKEND  ---      ---       LVL=0

      00FF43A3H   BLOCK     CODE     ---       LVL=0
      00000760H   SYMBOL    EDATA    WORD      count
      00000762H   SYMBOL    EDATA    BYTE      ret
      00FF43A3H   LINE      CODE     ---       #47
      00FF43A3H   LINE      CODE     ---       #48
      00FF43A3H   LINE      CODE     ---       #49
      00FF43A9H   LINE      CODE     ---       #50
      00FF43AEH   LINE      CODE     ---       #51
      00FF43B0H   LINE      CODE     ---       #53
      00FF43B7H   LINE      CODE     ---       #54
      00FF43CDH   LINE      CODE     ---       #56
      00FF43D3H   LINE      CODE     ---       #57
      00FF43D5H   LINE      CODE     ---       #58
      00FF43E3H   LINE      CODE     ---       #60
      00FF43F5H   LINE      CODE     ---       #61
      00FF43F9H   LINE      CODE     ---       #62
      ---         BLOCKEND  ---      ---       LVL=0
      0000078FH   SYMBOL    EDATA    BYTE      ret
      00000779H   SYMBOL    EDATA    CHAR      dat
      0000077AH   SYMBOL    EDATA    BYTE      ret
      00000790H   SYMBOL    EDATA    BYTE      ret
      00000791H   SYMBOL    EDATA    BYTE      ret
L251 LINKER/LOCATER V4.66.93.0                                                        05/04/2024  13:35:58  PAGE 44


      00000792H   SYMBOL    EDATA    BYTE      ret
      000006C5H   SYMBOL    EDATA    INT       iic_n
      000006C7H   SYMBOL    EDATA    DWORD     wait_time
      00000763H   SYMBOL    EDATA    BYTE      dev_add
      00000764H   SYMBOL    EDATA    BYTE      reg
      00000765H   SYMBOL    EDATA    BYTE      dat
      000006CBH   SYMBOL    EDATA    BYTE      dev_add
      000006CCH   SYMBOL    EDATA    BYTE      reg
      000006CDH   SYMBOL    EDATA    ---       dat
      00000699H   SYMBOL    EDATA    BYTE      dev_add
      0000069AH   SYMBOL    EDATA    BYTE      reg
      0000069BH   SYMBOL    EDATA    ---       dat
      0000069FH   SYMBOL    EDATA    BYTE      num
      0000077BH   SYMBOL    EDATA    INT       iic_n

      ---         MODULE    ---      ---       SEEKFREE_BLUETOOTH_CH9141
      000000D0H   SFRSYM    DATA     BYTE      PSW
      0000009DH   SFRSYM    DATA     BYTE      IRCBAND
      00000097H   SFRSYM    DATA     BYTE      AUXR2
      000000EFH   SFRSYM    DATA     BYTE      AUXINTIF
      000000FDH   SFRSYM    DATA     BYTE      S4CON
      000000ACH   SFRSYM    DATA     BYTE      S3CON
      0000009AH   SFRSYM    DATA     BYTE      S2CON
      000000FEH   SFRSYM    DATA     BYTE      S4BUF
      000000B7H   SFRSYM    DATA     BYTE      IPH
      000000CDH   SFRSYM    DATA     BYTE      SPSTAT
      000000DDH   SFRSYM    DATA     BYTE      T4T3M
      000000C1H   SFRSYM    DATA     BYTE      WDT_CONTR
      000000DFH   SFRSYM    DATA     BYTE      IP3
      000000F4H   SFRSYM    DATA     BYTE      USBCON
      000000B5H   SFRSYM    DATA     BYTE      IP2
      000000FFH   SFRSYM    DATA     BYTE      RSTCFG
      000000F9H   SFRSYM    DATA     BYTE      LINICR
      0000008EH   SFRSYM    DATA     BYTE      AUXR
      000000AFH   SFRSYM    DATA     BYTE      IE2
      00000080H.7 SFRSYM    DATA     BIT       P07
      00000088H   SFRSYM    DATA     BYTE      TCON
      00000098H   SFRSYM    DATA     BYTE      SCON
      000000F1H   SFRSYM    DATA     BYTE      CANICR
      00000087H   SFRSYM    DATA     BYTE      PCON
      000000BCH   SFRSYM    DATA     BYTE      ADC_CONTR
      000000E7H   SFRSYM    DATA     BYTE      CMPCR2
      000000E6H   SFRSYM    DATA     BYTE      CMPCR1
      000000B8H   SFRSYM    DATA     BYTE      IP
      0000008FH   SFRSYM    DATA     BYTE      INTCLKO
      000000EEH   SFRSYM    DATA     BYTE      IP3H
      000000B6H   SFRSYM    DATA     BYTE      IP2H
      000000A8H   SFRSYM    DATA     BYTE      IE
      000000BBH   SFRSYM    DATA     BYTE      P_SW3
      000000BAH   SFRSYM    DATA     BYTE      P_SW2
      000000A2H   SFRSYM    DATA     BYTE      P_SW1
      000000CEH   SFRSYM    DATA     BYTE      SPCTL
      000000F8H   SFRSYM    DATA     BYTE      P7
      000000E8H   SFRSYM    DATA     BYTE      P6
      000000C8H   SFRSYM    DATA     BYTE      P5
      000000C0H   SFRSYM    DATA     BYTE      P4
      000000B0H   SFRSYM    DATA     BYTE      P3
      000000A0H   SFRSYM    DATA     BYTE      P2
      00000090H   SFRSYM    DATA     BYTE      P1
      00000080H   SFRSYM    DATA     BYTE      P0
      00010000H   SYMBOL    XDATA    ---       bluetooth_ch9141_buffer
      00010040H   SYMBOL    XDATA    BYTE      bluetooth_ch9141_data
      00010041H   SYMBOL    XDATA    ---       bluetooth_ch9141_fifo
      00000651H   SYMBOL    EDATA    ---       buff
      00000655H   SYMBOL    EDATA    DWORD     len
L251 LINKER/LOCATER V4.66.93.0                                                        05/04/2024  13:35:58  PAGE 45


      00010114H   SYMBOL    XDATA    WORD      time_count
      00000659H   SYMBOL    EDATA    ---       buff
      0000065DH   SYMBOL    EDATA    DWORD     len
      00010108H   SYMBOL    XDATA    DWORD     data_len

      ---         MODULE    ---      ---       SEEKFREE_FONT
      00FF0096H   PUBLIC    CODE     ---       oled_8x16
      00FF0686H   PUBLIC    CODE     ---       tft_ascii
      00FF0C76H   PUBLIC    CODE     ---       oled_6x8
      000000D0H   SFRSYM    DATA     BYTE      PSW
      0000009DH   SFRSYM    DATA     BYTE      IRCBAND
      00000097H   SFRSYM    DATA     BYTE      AUXR2
      000000EFH   SFRSYM    DATA     BYTE      AUXINTIF
      000000FDH   SFRSYM    DATA     BYTE      S4CON
      000000ACH   SFRSYM    DATA     BYTE      S3CON
      0000009AH   SFRSYM    DATA     BYTE      S2CON
      000000B7H   SFRSYM    DATA     BYTE      IPH
      000000CDH   SFRSYM    DATA     BYTE      SPSTAT
      000000DDH   SFRSYM    DATA     BYTE      T4T3M
      000000C1H   SFRSYM    DATA     BYTE      WDT_CONTR
      000000DFH   SFRSYM    DATA     BYTE      IP3
      000000F4H   SFRSYM    DATA     BYTE      USBCON
      000000B5H   SFRSYM    DATA     BYTE      IP2
      000000FFH   SFRSYM    DATA     BYTE      RSTCFG
      000000F9H   SFRSYM    DATA     BYTE      LINICR
      0000008EH   SFRSYM    DATA     BYTE      AUXR
      000000AFH   SFRSYM    DATA     BYTE      IE2
      00000088H   SFRSYM    DATA     BYTE      TCON
      00000098H   SFRSYM    DATA     BYTE      SCON
      000000F1H   SFRSYM    DATA     BYTE      CANICR
      00000087H   SFRSYM    DATA     BYTE      PCON
      000000BCH   SFRSYM    DATA     BYTE      ADC_CONTR
      000000E7H   SFRSYM    DATA     BYTE      CMPCR2
      000000E6H   SFRSYM    DATA     BYTE      CMPCR1
      000000B8H   SFRSYM    DATA     BYTE      IP
      0000008FH   SFRSYM    DATA     BYTE      INTCLKO
      000000EEH   SFRSYM    DATA     BYTE      IP3H
      000000B6H   SFRSYM    DATA     BYTE      IP2H
      000000A8H   SFRSYM    DATA     BYTE      IE
      000000BBH   SFRSYM    DATA     BYTE      P_SW3
      000000BAH   SFRSYM    DATA     BYTE      P_SW2
      000000A2H   SFRSYM    DATA     BYTE      P_SW1
      000000CEH   SFRSYM    DATA     BYTE      SPCTL
      000000F8H   SFRSYM    DATA     BYTE      P7
      000000E8H   SFRSYM    DATA     BYTE      P6
      000000C8H   SFRSYM    DATA     BYTE      P5
      000000C0H   SFRSYM    DATA     BYTE      P4
      000000B0H   SFRSYM    DATA     BYTE      P3
      000000A0H   SFRSYM    DATA     BYTE      P2
      00000090H   SFRSYM    DATA     BYTE      P1
      00000080H   SFRSYM    DATA     BYTE      P0

      ---         MODULE    ---      ---       SEEKFREE_OLED
      00FF4A51H   PUBLIC    CODE     ---       oled_set_pos
      00FF4787H   PUBLIC    CODE     ---       oled_wrcmd
      00FF47D2H   PUBLIC    CODE     ---       oled_wrdat
      00FF49B1H   PUBLIC    CODE     ---       oled_set_pos_spi
      00FF4B8AH   PUBLIC    CODE     ---       oled_wrcmd_spi
      00FF4B9FH   PUBLIC    CODE     ---       oled_wrdat_spi
      00FF4344H   PUBLIC    CODE     ---       oled_fill_spi
      00FF3E68H   PUBLIC    CODE     ---       oled_printf_int32_spi
      00FF3CC8H   PUBLIC    CODE     ---       oled_p6x8str_spi
      00FF3F36H   PUBLIC    CODE     ---       oled_init_spi
      000003F2H   PUBLIC    EDATA    BYTE      ?oled_printf_float?BYTE
      00000422H   PUBLIC    EDATA    BYTE      ?oled_printf_float_spi?BYTE
L251 LINKER/LOCATER V4.66.93.0                                                        05/04/2024  13:35:58  PAGE 46


      000000D0H   SFRSYM    DATA     BYTE      PSW
      0000009DH   SFRSYM    DATA     BYTE      IRCBAND
      00000097H   SFRSYM    DATA     BYTE      AUXR2
      000000EFH   SFRSYM    DATA     BYTE      AUXINTIF
      000000FDH   SFRSYM    DATA     BYTE      S4CON
      000000ACH   SFRSYM    DATA     BYTE      S3CON
      0000009AH   SFRSYM    DATA     BYTE      S2CON
      000000B7H   SFRSYM    DATA     BYTE      IPH
      000000CDH   SFRSYM    DATA     BYTE      SPSTAT
      000000DDH   SFRSYM    DATA     BYTE      T4T3M
      000000C1H   SFRSYM    DATA     BYTE      WDT_CONTR
      000000DFH   SFRSYM    DATA     BYTE      IP3
      000000F4H   SFRSYM    DATA     BYTE      USBCON
      000000B5H   SFRSYM    DATA     BYTE      IP2
      000000FFH   SFRSYM    DATA     BYTE      RSTCFG
      000000F9H   SFRSYM    DATA     BYTE      LINICR
      0000008EH   SFRSYM    DATA     BYTE      AUXR
      000000AFH   SFRSYM    DATA     BYTE      IE2
      000000A0H.5 SFRSYM    DATA     BIT       P25
      00000088H   SFRSYM    DATA     BYTE      TCON
      000000A0H.3 SFRSYM    DATA     BIT       P23
      00000098H   SFRSYM    DATA     BYTE      SCON
      000000A0H.2 SFRSYM    DATA     BIT       P22
      000000A0H.1 SFRSYM    DATA     BIT       P21
      000000A0H.0 SFRSYM    DATA     BIT       P20
      000000F1H   SFRSYM    DATA     BYTE      CANICR
      00000087H   SFRSYM    DATA     BYTE      PCON
      000000BCH   SFRSYM    DATA     BYTE      ADC_CONTR
      000000E7H   SFRSYM    DATA     BYTE      CMPCR2
      000000E6H   SFRSYM    DATA     BYTE      CMPCR1
      000000B8H   SFRSYM    DATA     BYTE      IP
      0000008FH   SFRSYM    DATA     BYTE      INTCLKO
      000000EEH   SFRSYM    DATA     BYTE      IP3H
      000000B6H   SFRSYM    DATA     BYTE      IP2H
      000000A8H   SFRSYM    DATA     BYTE      IE
      000000BBH   SFRSYM    DATA     BYTE      P_SW3
      000000BAH   SFRSYM    DATA     BYTE      P_SW2
      000000A2H   SFRSYM    DATA     BYTE      P_SW1
      000000CEH   SFRSYM    DATA     BYTE      SPCTL
      000000F8H   SFRSYM    DATA     BYTE      P7
      000000E8H   SFRSYM    DATA     BYTE      P6
      000000C8H   SFRSYM    DATA     BYTE      P5
      000000C0H   SFRSYM    DATA     BYTE      P4
      000000B0H   SFRSYM    DATA     BYTE      P3
      000000A0H   SFRSYM    DATA     BYTE      P2
      00000090H   SFRSYM    DATA     BYTE      P1
      00000080H   SFRSYM    DATA     BYTE      P0

      00FF47D2H   BLOCK     CODE     ---       LVL=0
      00000793H   SYMBOL    EDATA    BYTE      dat
      00FF47D6H   BLOCK     CODE     NEAR LAB  LVL=1
      0001011EH   SYMBOL    XDATA    BYTE      i
      ---         BLOCKEND  ---      ---       LVL=1
      00FF47D2H   LINE      CODE     ---       #47
      00FF47D6H   LINE      CODE     ---       #48
      00FF47D6H   LINE      CODE     ---       #49
      00FF47DCH   LINE      CODE     ---       #51
      00FF47DFH   LINE      CODE     ---       #52
      00FF47E2H   LINE      CODE     ---       #53
      00FF47E5H   LINE      CODE     ---       #54
      00FF47E7H   LINE      CODE     ---       #56
      00FF47F3H   LINE      CODE     ---       #57
      00FF47F6H   LINE      CODE     ---       #58
      00FF47F9H   LINE      CODE     ---       #60
      00FF47FCH   LINE      CODE     ---       #61
L251 LINKER/LOCATER V4.66.93.0                                                        05/04/2024  13:35:58  PAGE 47


      00FF4806H   LINE      CODE     ---       #62
      00FF4819H   LINE      CODE     ---       #63
      00FF481CH   LINE      CODE     ---       #64
      ---         BLOCKEND  ---      ---       LVL=0

      00FF4787H   BLOCK     CODE     ---       LVL=0
      00000794H   SYMBOL    EDATA    BYTE      cmd
      00FF478BH   BLOCK     CODE     NEAR LAB  LVL=1
      0001011FH   SYMBOL    XDATA    BYTE      i
      ---         BLOCKEND  ---      ---       LVL=1
      00FF4787H   LINE      CODE     ---       #98
      00FF478BH   LINE      CODE     ---       #99
      00FF478BH   LINE      CODE     ---       #100
      00FF4791H   LINE      CODE     ---       #102
      00FF4794H   LINE      CODE     ---       #103
      00FF4797H   LINE      CODE     ---       #104
      00FF479AH   LINE      CODE     ---       #106
      00FF479CH   LINE      CODE     ---       #108
      00FF47A8H   LINE      CODE     ---       #109
      00FF47ABH   LINE      CODE     ---       #110
      00FF47AEH   LINE      CODE     ---       #112
      00FF47B1H   LINE      CODE     ---       #113
      00FF47BBH   LINE      CODE     ---       #114
      00FF47CEH   LINE      CODE     ---       #115
      00FF47D1H   LINE      CODE     ---       #116
      ---         BLOCKEND  ---      ---       LVL=0
      000006D1H   SYMBOL    EDATA    WORD      hex
      000006D3H   SYMBOL    EDATA    ---       Print
      00010116H   SYMBOL    XDATA    BYTE      hexcheck
      00010117H   SYMBOL    XDATA    BYTE      TEMP

      00FF4A51H   BLOCK     CODE     ---       LVL=0
      0000077DH   SYMBOL    EDATA    BYTE      x
      0000077EH   SYMBOL    EDATA    BYTE      y
      00FF4A51H   LINE      CODE     ---       #205
      00FF4A59H   LINE      CODE     ---       #207
      00FF4A64H   LINE      CODE     ---       #208
      00FF4A7AH   LINE      CODE     ---       #209
      00FF4A85H   LINE      CODE     ---       #210
      ---         BLOCKEND  ---      ---       LVL=0
      0000077FH   SYMBOL    EDATA    BYTE      bmp_data
      00010120H   SYMBOL    XDATA    BYTE      y
      00000780H   SYMBOL    EDATA    BYTE      x
      00000766H   SYMBOL    EDATA    BYTE      x
      00000767H   SYMBOL    EDATA    BYTE      y
      00000768H   SYMBOL    EDATA    BYTE      data1
      00000781H   SYMBOL    EDATA    BYTE      x
      00000782H   SYMBOL    EDATA    BYTE      y
      00000661H   SYMBOL    EDATA    BYTE      x
      00000662H   SYMBOL    EDATA    BYTE      y
      00000663H   SYMBOL    EDATA    ---       ch
      00010121H   SYMBOL    XDATA    BYTE      c
      00000667H   SYMBOL    EDATA    BYTE      i
      00000668H   SYMBOL    EDATA    BYTE      j
      00000669H   SYMBOL    EDATA    BYTE      x
      0000066AH   SYMBOL    EDATA    BYTE      y
      0000066BH   SYMBOL    EDATA    ---       ch
      00010122H   SYMBOL    XDATA    BYTE      c
      0000066FH   SYMBOL    EDATA    BYTE      i
      00000670H   SYMBOL    EDATA    BYTE      j
      000005D0H   SYMBOL    EDATA    BYTE      x
      000005D1H   SYMBOL    EDATA    BYTE      y
      000005D2H   SYMBOL    EDATA    WORD      num
      000005D4H   SYMBOL    EDATA    ---       ch
      000005DBH   SYMBOL    EDATA    BYTE      x
L251 LINKER/LOCATER V4.66.93.0                                                        05/04/2024  13:35:58  PAGE 48


      000005DCH   SYMBOL    EDATA    BYTE      y
      000005DDH   SYMBOL    EDATA    INT       num
      000005DFH   SYMBOL    EDATA    ---       ch
      00000452H   SYMBOL    EDATA    WORD      x
      00000454H   SYMBOL    EDATA    WORD      y
      00000456H   SYMBOL    EDATA    LONG      dat
      0000045AH   SYMBOL    EDATA    BYTE      num
      0000045BH   SYMBOL    EDATA    ---       buff
      0000047DH   SYMBOL    EDATA    BYTE      length
      000003F2H   SYMBOL    EDATA    WORD      x
      000003F4H   SYMBOL    EDATA    WORD      y
      000003F6H   SYMBOL    EDATA    FLOAT     dat
      000003FAH   SYMBOL    EDATA    BYTE      num
      000003FBH   SYMBOL    EDATA    BYTE      pointnum
      000003FCH   SYMBOL    EDATA    BYTE      length
      000003FDH   SYMBOL    EDATA    ---       buff
      0000041FH   SYMBOL    EDATA    CHAR      start
      00000420H   SYMBOL    EDATA    CHAR      end
      00000421H   SYMBOL    EDATA    CHAR      point
      00000536H   SYMBOL    EDATA    WORD      high
      00000538H   SYMBOL    EDATA    WORD      width
      0000053AH   SYMBOL    EDATA    ---       p
      0000053EH   SYMBOL    EDATA    BYTE      value
      0000053FH   SYMBOL    EDATA    WORD      i
      00010118H   SYMBOL    XDATA    WORD      j
      00000541H   SYMBOL    EDATA    WORD      temp
      00000543H   SYMBOL    EDATA    WORD      temp1
      00000545H   SYMBOL    EDATA    BYTE      dat
      00000582H   SYMBOL    EDATA    BYTE      x
      00000583H   SYMBOL    EDATA    BYTE      y
      00000584H   SYMBOL    EDATA    BYTE      size
      00000585H   SYMBOL    EDATA    ---       p
      00000589H   SYMBOL    EDATA    BYTE      len
      0000058AH   SYMBOL    EDATA    WORD      i
      0000058CH   SYMBOL    EDATA    WORD      j
      0000058EH   SYMBOL    EDATA    WORD      k

      00FF4B9FH   BLOCK     CODE     ---       LVL=0
      00000795H   SYMBOL    EDATA    BYTE      dat
      00FF4B9FH   LINE      CODE     ---       #534
      00FF4BA3H   LINE      CODE     ---       #536
      00FF4BA6H   LINE      CODE     ---       #537
      00FF4BA9H   LINE      CODE     ---       #538
      00FF4BB0H   LINE      CODE     ---       #539
      00FF4BB3H   LINE      CODE     ---       #542
      ---         BLOCKEND  ---      ---       LVL=0

      00FF4B8AH   BLOCK     CODE     ---       LVL=0
      00000796H   SYMBOL    EDATA    BYTE      cmd
      00FF4B8AH   LINE      CODE     ---       #576
      00FF4B8EH   LINE      CODE     ---       #578
      00FF4B91H   LINE      CODE     ---       #579
      00FF4B94H   LINE      CODE     ---       #580
      00FF4B9BH   LINE      CODE     ---       #581
      00FF4B9EH   LINE      CODE     ---       #582
      ---         BLOCKEND  ---      ---       LVL=0
      000006D7H   SYMBOL    EDATA    WORD      hex
      000006D9H   SYMBOL    EDATA    ---       Print
      0001011AH   SYMBOL    XDATA    BYTE      hexcheck
      0001011BH   SYMBOL    XDATA    BYTE      TEMP

      00FF3F36H   BLOCK     CODE     ---       LVL=0
      00FF3F36H   LINE      CODE     ---       #614
      00FF3F36H   LINE      CODE     ---       #617
      00FF3F39H   LINE      CODE     ---       #619
L251 LINKER/LOCATER V4.66.93.0                                                        05/04/2024  13:35:58  PAGE 49


      00FF3F59H   LINE      CODE     ---       #621
      00FF3F5CH   LINE      CODE     ---       #622
      00FF3F63H   LINE      CODE     ---       #623
      00FF3F66H   LINE      CODE     ---       #625
      00FF3F6BH   LINE      CODE     ---       #626
      00FF3F6FH   LINE      CODE     ---       #627
      00FF3F74H   LINE      CODE     ---       #628
      00FF3F79H   LINE      CODE     ---       #629
      00FF3F7EH   LINE      CODE     ---       #630
      00FF3F83H   LINE      CODE     ---       #633
      00FF3F88H   LINE      CODE     ---       #634
      00FF3F8DH   LINE      CODE     ---       #640
      00FF3F92H   LINE      CODE     ---       #641
      00FF3F97H   LINE      CODE     ---       #642
      00FF3F9CH   LINE      CODE     ---       #643
      00FF3FA1H   LINE      CODE     ---       #644
      00FF3FA5H   LINE      CODE     ---       #645
      00FF3FAAH   LINE      CODE     ---       #646
      00FF3FAFH   LINE      CODE     ---       #647
      00FF3FB4H   LINE      CODE     ---       #648
      00FF3FB9H   LINE      CODE     ---       #649
      00FF3FBEH   LINE      CODE     ---       #650
      00FF3FC3H   LINE      CODE     ---       #651
      00FF3FC8H   LINE      CODE     ---       #652
      00FF3FCDH   LINE      CODE     ---       #653
      00FF3FD2H   LINE      CODE     ---       #654
      00FF3FD7H   LINE      CODE     ---       #655
      00FF3FDCH   LINE      CODE     ---       #656
      00FF3FE1H   LINE      CODE     ---       #657
      00FF3FE6H   LINE      CODE     ---       #658
      00FF3FEBH   LINE      CODE     ---       #659
      00FF3FF0H   LINE      CODE     ---       #660
      00FF3FF4H   LINE      CODE     ---       #661
      00FF3FFAH   LINE      CODE     ---       #662
      ---         BLOCKEND  ---      ---       LVL=0

      00FF49B1H   BLOCK     CODE     ---       LVL=0
      00000783H   SYMBOL    EDATA    BYTE      x
      00000784H   SYMBOL    EDATA    BYTE      y
      00FF49B1H   LINE      CODE     ---       #672
      00FF49B9H   LINE      CODE     ---       #676
      00FF49C4H   LINE      CODE     ---       #677
      00FF49DBH   LINE      CODE     ---       #678
      00FF49E6H   LINE      CODE     ---       #679
      ---         BLOCKEND  ---      ---       LVL=0

      00FF4344H   BLOCK     CODE     ---       LVL=0
      00000785H   SYMBOL    EDATA    BYTE      bmp_data
      00FF4348H   BLOCK     CODE     NEAR LAB  LVL=1
      00010123H   SYMBOL    XDATA    BYTE      y
      00000786H   SYMBOL    EDATA    BYTE      x
      ---         BLOCKEND  ---      ---       LVL=1
      00FF4344H   LINE      CODE     ---       #688
      00FF4348H   LINE      CODE     ---       #689
      00FF4348H   LINE      CODE     ---       #692
      00FF434FH   LINE      CODE     ---       #694
      00FF435CH   LINE      CODE     ---       #695
      00FF4361H   LINE      CODE     ---       #696
      00FF4366H   LINE      CODE     ---       #697
      00FF438BH   LINE      CODE     ---       #698
      00FF43A2H   LINE      CODE     ---       #699
      ---         BLOCKEND  ---      ---       LVL=0
      00000769H   SYMBOL    EDATA    BYTE      x
      0000076AH   SYMBOL    EDATA    BYTE      y
      0000076BH   SYMBOL    EDATA    BYTE      data1
L251 LINKER/LOCATER V4.66.93.0                                                        05/04/2024  13:35:58  PAGE 50


      00000787H   SYMBOL    EDATA    BYTE      x
      00000788H   SYMBOL    EDATA    BYTE      y

      00FF3CC8H   BLOCK     CODE     ---       LVL=0
      00000671H   SYMBOL    EDATA    BYTE      x
      00000672H   SYMBOL    EDATA    BYTE      y
      00000673H   SYMBOL    EDATA    ---       ch
      00FF3CD4H   BLOCK     CODE     NEAR LAB  LVL=1
      00010124H   SYMBOL    XDATA    BYTE      c
      00000677H   SYMBOL    EDATA    BYTE      i
      00000678H   SYMBOL    EDATA    BYTE      j
      ---         BLOCKEND  ---      ---       LVL=1
      00FF3CC8H   LINE      CODE     ---       #748
      00FF3CD4H   LINE      CODE     ---       #749
      00FF3CD4H   LINE      CODE     ---       #750
      00FF3CE3H   LINE      CODE     ---       #751
      00FF3CE6H   LINE      CODE     ---       #753
      00FF3D01H   LINE      CODE     ---       #754
      00FF3D1DH   LINE      CODE     ---       #755
      00FF3D28H   LINE      CODE     ---       #756
      00FF3D69H   LINE      CODE     ---       #757
      00FF3D75H   LINE      CODE     ---       #758
      00FF3D82H   LINE      CODE     ---       #759
      00FF3D99H   LINE      CODE     ---       #760
      ---         BLOCKEND  ---      ---       LVL=0
      00000679H   SYMBOL    EDATA    BYTE      x
      0000067AH   SYMBOL    EDATA    BYTE      y
      0000067BH   SYMBOL    EDATA    ---       ch
      00010125H   SYMBOL    XDATA    BYTE      c
      0000067FH   SYMBOL    EDATA    BYTE      i
      00000680H   SYMBOL    EDATA    BYTE      j
      000005E6H   SYMBOL    EDATA    BYTE      x
      000005E7H   SYMBOL    EDATA    BYTE      y
      000005E8H   SYMBOL    EDATA    WORD      num
      000005EAH   SYMBOL    EDATA    ---       ch
      000005F1H   SYMBOL    EDATA    BYTE      x
      000005F2H   SYMBOL    EDATA    BYTE      y
      000005F3H   SYMBOL    EDATA    INT       num
      000005F5H   SYMBOL    EDATA    ---       ch

      00FF3E68H   BLOCK     CODE     ---       LVL=0
      0000047EH   SYMBOL    EDATA    WORD      x
      00000480H   SYMBOL    EDATA    WORD      y
      00000482H   SYMBOL    EDATA    LONG      dat
      00000486H   SYMBOL    EDATA    BYTE      num
      00FF3E78H   BLOCK     CODE     NEAR LAB  LVL=1
      00000487H   SYMBOL    EDATA    ---       buff
      000004A9H   SYMBOL    EDATA    BYTE      length
      ---         BLOCKEND  ---      ---       LVL=1
      00FF3E68H   LINE      CODE     ---       #841
      00FF3E78H   LINE      CODE     ---       #842
      00FF3E78H   LINE      CODE     ---       #846
      00FF3E88H   LINE      CODE     ---       #848
      00FF3E95H   LINE      CODE     ---       #849
      00FF3EBCH   LINE      CODE     ---       #852
      00FF3EC2H   LINE      CODE     ---       #853
      00FF3EDDH   LINE      CODE     ---       #854
      00FF3EEAH   LINE      CODE     ---       #855
      00FF3EEAH   LINE      CODE     ---       #856
      00FF3EECH   LINE      CODE     ---       #858
      00FF3EFDH   LINE      CODE     ---       #859
      00FF3F0AH   LINE      CODE     ---       #860
      00FF3F16H   LINE      CODE     ---       #861
      00FF3F26H   LINE      CODE     ---       #863
      00FF3F35H   LINE      CODE     ---       #864
L251 LINKER/LOCATER V4.66.93.0                                                        05/04/2024  13:35:58  PAGE 51


      ---         BLOCKEND  ---      ---       LVL=0
      00000422H   SYMBOL    EDATA    WORD      x
      00000424H   SYMBOL    EDATA    WORD      y
      00000426H   SYMBOL    EDATA    FLOAT     dat
      0000042AH   SYMBOL    EDATA    BYTE      num
      0000042BH   SYMBOL    EDATA    BYTE      pointnum
      0000042CH   SYMBOL    EDATA    BYTE      length
      0000042DH   SYMBOL    EDATA    ---       buff
      0000044FH   SYMBOL    EDATA    CHAR      start
      00000450H   SYMBOL    EDATA    CHAR      end
      00000451H   SYMBOL    EDATA    CHAR      point
      00000546H   SYMBOL    EDATA    WORD      high
      00000548H   SYMBOL    EDATA    WORD      width
      0000054AH   SYMBOL    EDATA    ---       p
      0000054EH   SYMBOL    EDATA    BYTE      value
      0001011CH   SYMBOL    XDATA    WORD      i
      0000054FH   SYMBOL    EDATA    WORD      j
      00000551H   SYMBOL    EDATA    WORD      temp
      00000553H   SYMBOL    EDATA    WORD      temp1
      00000555H   SYMBOL    EDATA    BYTE      dat
      00000590H   SYMBOL    EDATA    BYTE      x
      00000591H   SYMBOL    EDATA    BYTE      y
      00000592H   SYMBOL    EDATA    BYTE      size
      00000593H   SYMBOL    EDATA    ---       p
      00000597H   SYMBOL    EDATA    BYTE      len
      00000598H   SYMBOL    EDATA    WORD      i
      0000059AH   SYMBOL    EDATA    WORD      j
      0000059CH   SYMBOL    EDATA    WORD      k

      ---         MODULE    ---      ---       SEEKFREE_PRINTF
      00FF36D7H   PUBLIC    CODE     ---       number_conversion_ascii
      00FF17ABH   PUBLIC    CODE     ---       zf_sprintf
      00FF4151H   PUBLIC    CODE     ---       printf_reverse_order
      00000500H   PUBLIC    EDATA    BYTE      ?number_conversion_ascii?BYTE
      00000363H   PUBLIC    EDATA    BYTE      ?zf_sprintf?BYTE
      000000D0H   SFRSYM    DATA     BYTE      PSW
      0000009DH   SFRSYM    DATA     BYTE      IRCBAND
      00000097H   SFRSYM    DATA     BYTE      AUXR2
      000000EFH   SFRSYM    DATA     BYTE      AUXINTIF
      000000FDH   SFRSYM    DATA     BYTE      S4CON
      000000ACH   SFRSYM    DATA     BYTE      S3CON
      0000009AH   SFRSYM    DATA     BYTE      S2CON
      000000B7H   SFRSYM    DATA     BYTE      IPH
      000000CDH   SFRSYM    DATA     BYTE      SPSTAT
      000000DDH   SFRSYM    DATA     BYTE      T4T3M
      000000C1H   SFRSYM    DATA     BYTE      WDT_CONTR
      000000DFH   SFRSYM    DATA     BYTE      IP3
      000000F4H   SFRSYM    DATA     BYTE      USBCON
      000000B5H   SFRSYM    DATA     BYTE      IP2
      000000FFH   SFRSYM    DATA     BYTE      RSTCFG
      000000F9H   SFRSYM    DATA     BYTE      LINICR
      0000008EH   SFRSYM    DATA     BYTE      AUXR
      000000AFH   SFRSYM    DATA     BYTE      IE2
      00000088H   SFRSYM    DATA     BYTE      TCON
      00000098H   SFRSYM    DATA     BYTE      SCON
      000000F1H   SFRSYM    DATA     BYTE      CANICR
      00000087H   SFRSYM    DATA     BYTE      PCON
      000000BCH   SFRSYM    DATA     BYTE      ADC_CONTR
      000000E7H   SFRSYM    DATA     BYTE      CMPCR2
      000000E6H   SFRSYM    DATA     BYTE      CMPCR1
      000000B8H   SFRSYM    DATA     BYTE      IP
      0000008FH   SFRSYM    DATA     BYTE      INTCLKO
      000000EEH   SFRSYM    DATA     BYTE      IP3H
      000000B6H   SFRSYM    DATA     BYTE      IP2H
      000000A8H   SFRSYM    DATA     BYTE      IE
L251 LINKER/LOCATER V4.66.93.0                                                        05/04/2024  13:35:58  PAGE 52


      000000BBH   SFRSYM    DATA     BYTE      P_SW3
      000000BAH   SFRSYM    DATA     BYTE      P_SW2
      000000A2H   SFRSYM    DATA     BYTE      P_SW1
      000000CEH   SFRSYM    DATA     BYTE      SPCTL
      000000F8H   SFRSYM    DATA     BYTE      P7
      000000E8H   SFRSYM    DATA     BYTE      P6
      000000C8H   SFRSYM    DATA     BYTE      P5
      000000C0H   SFRSYM    DATA     BYTE      P4
      000000B0H   SFRSYM    DATA     BYTE      P3
      000000A0H   SFRSYM    DATA     BYTE      P2
      00000090H   SFRSYM    DATA     BYTE      P1
      00000080H   SFRSYM    DATA     BYTE      P0

      00FF36D7H   BLOCK     CODE     ---       LVL=0
      00000500H   SYMBOL    EDATA    DWORD     dat
      00000504H   SYMBOL    EDATA    ---       p
      00000508H   SYMBOL    EDATA    BYTE      neg_type
      00000509H   SYMBOL    EDATA    BYTE      radix
      00FF36E3H   BLOCK     CODE     NEAR LAB  LVL=1
      0000050AH   SYMBOL    EDATA    LONG      neg_dat
      0000050EH   SYMBOL    EDATA    DWORD     pos_dat
      00000512H   SYMBOL    EDATA    BYTE      temp_data
      00000513H   SYMBOL    EDATA    BYTE      valid_num
      ---         BLOCKEND  ---      ---       LVL=1
      00FF36D7H   LINE      CODE     ---       #29
      00FF36E3H   LINE      CODE     ---       #30
      00FF36E3H   LINE      CODE     ---       #33
      00FF36E8H   LINE      CODE     ---       #34
      00FF36EDH   LINE      CODE     ---       #36
      00FF36F6H   LINE      CODE     ---       #38
      00FF36FEH   LINE      CODE     ---       #39
      00FF3716H   LINE      CODE     ---       #40
      00FF3716H   LINE      CODE     ---       #42
      00FF3732H   LINE      CODE     ---       #43
      00FF3745H   LINE      CODE     ---       #44
      00FF3752H   LINE      CODE     ---       #46
      00FF375AH   LINE      CODE     ---       #47
      00FF3764H   LINE      CODE     ---       #48
      00FF3766H   LINE      CODE     ---       #49
      00FF3769H   LINE      CODE     ---       #52
      00FF3771H   LINE      CODE     ---       #53
      00FF3771H   LINE      CODE     ---       #55
      00FF3786H   LINE      CODE     ---       #56
      00FF379EH   LINE      CODE     ---       #57
      00FF37AAH   LINE      CODE     ---       #59
      00FF37B5H   LINE      CODE     ---       #61
      00FF37C8H   LINE      CODE     ---       #62
      00FF37D5H   LINE      CODE     ---       #64
      00FF37DDH   LINE      CODE     ---       #65
      00FF37E7H   LINE      CODE     ---       #66
      00FF37E9H   LINE      CODE     ---       #67
      00FF37E9H   LINE      CODE     ---       #68
      00FF37EDH   LINE      CODE     ---       #69
      ---         BLOCKEND  ---      ---       LVL=0

      00FF4151H   BLOCK     CODE     ---       LVL=0
      000005ABH   SYMBOL    EDATA    ---       d_buff
      000005AFH   SYMBOL    EDATA    DWORD     len
      00FF4159H   BLOCK     CODE     NEAR LAB  LVL=1
      000005B3H   SYMBOL    EDATA    DWORD     i
      000005B7H   SYMBOL    EDATA    CHAR      temp_data
      ---         BLOCKEND  ---      ---       LVL=1
      00FF4151H   LINE      CODE     ---       #71
      00FF4159H   LINE      CODE     ---       #72
      00FF4159H   LINE      CODE     ---       #75
L251 LINKER/LOCATER V4.66.93.0                                                        05/04/2024  13:35:58  PAGE 53


      00FF4161H   LINE      CODE     ---       #77
      00FF4180H   LINE      CODE     ---       #78
      00FF41AAH   LINE      CODE     ---       #79
      00FF41BDH   LINE      CODE     ---       #80
      00FF41E5H   LINE      CODE     ---       #81
      ---         BLOCKEND  ---      ---       LVL=0

      00FF17ABH   BLOCK     CODE     ---       LVL=0
      00000363H   SYMBOL    EDATA    ---       buff
      00000367H   SYMBOL    EDATA    ---       format
      00FF17B3H   BLOCK     CODE     NEAR LAB  LVL=1
      0000036BH   SYMBOL    EDATA    DWORD     buff_len
      0000036FH   SYMBOL    EDATA    ---       arg
      00FF17C8H   BLOCK     CODE     NEAR LAB  LVL=2
      00000373H   SYMBOL    EDATA    CHAR      ret
      00FF18FDH   BLOCK     CODE     NEAR LAB  LVL=3
      00000374H   SYMBOL    EDATA    CHAR      ch
      ---         BLOCKEND  ---      ---       LVL=3
      00FF193CH   BLOCK     CODE     NEAR LAB  LVL=3
      00000374H   SYMBOL    EDATA    ---       vstr
      00000395H   SYMBOL    EDATA    LONG      ival
      00000399H   SYMBOL    EDATA    BYTE      vlen
      ---         BLOCKEND  ---      ---       LVL=3
      00FF19DDH   BLOCK     CODE     NEAR LAB  LVL=3
      00000374H   SYMBOL    EDATA    ---       vstr
      00000395H   SYMBOL    EDATA    FLOAT     ival
      00000399H   SYMBOL    EDATA    BYTE      vlen
      ---         BLOCKEND  ---      ---       LVL=3
      00FF1B7EH   BLOCK     CODE     NEAR LAB  LVL=3
      00000374H   SYMBOL    EDATA    ---       vstr
      00000395H   SYMBOL    EDATA    DWORD     ival
      00000399H   SYMBOL    EDATA    BYTE      vlen
      ---         BLOCKEND  ---      ---       LVL=3
      00FF1BF6H   BLOCK     CODE     NEAR LAB  LVL=3
      00000374H   SYMBOL    EDATA    ---       vstr
      00000395H   SYMBOL    EDATA    DWORD     ival
      00000399H   SYMBOL    EDATA    BYTE      vlen
      ---         BLOCKEND  ---      ---       LVL=3
      00FF1C6EH   BLOCK     CODE     NEAR LAB  LVL=3
      00000374H   SYMBOL    EDATA    ---       vstr
      00000395H   SYMBOL    EDATA    DWORD     ival
      00000399H   SYMBOL    EDATA    BYTE      vlen
      ---         BLOCKEND  ---      ---       LVL=3
      00FF1CE6H   BLOCK     CODE     NEAR LAB  LVL=3
      00000374H   SYMBOL    EDATA    ---       pc
      ---         BLOCKEND  ---      ---       LVL=3
      00FF1D40H   BLOCK     CODE     NEAR LAB  LVL=3
      00000374H   SYMBOL    EDATA    ---       vstr
      00000395H   SYMBOL    EDATA    DWORD     ival
      ---         BLOCKEND  ---      ---       LVL=3
      ---         BLOCKEND  ---      ---       LVL=2
      ---         BLOCKEND  ---      ---       LVL=1
      00FF17ABH   LINE      CODE     ---       #216
      00FF17B3H   LINE      CODE     ---       #217
      00FF17B3H   LINE      CODE     ---       #218
      00FF17B9H   LINE      CODE     ---       #220
      00FF17C5H   LINE      CODE     ---       #222
      00FF17C8H   LINE      CODE     ---       #223
      00FF17C8H   LINE      CODE     ---       #224
      00FF17D3H   LINE      CODE     ---       #225
      00FF17DFH   LINE      CODE     ---       #227
      00FF18FAH   LINE      CODE     ---       #229
      00FF18FAH   LINE      CODE     ---       #233
      00FF18FDH   LINE      CODE     ---       #236
      00FF18FDH   LINE      CODE     ---       #237
L251 LINKER/LOCATER V4.66.93.0                                                        05/04/2024  13:35:58  PAGE 54


      00FF18FDH   LINE      CODE     ---       #238
      00FF1916H   LINE      CODE     ---       #239
      00FF1921H   LINE      CODE     ---       #240
      00FF192BH   LINE      CODE     ---       #241
      00FF1939H   LINE      CODE     ---       #243
      00FF193CH   LINE      CODE     ---       #246
      00FF193CH   LINE      CODE     ---       #247
      00FF193CH   LINE      CODE     ---       #248
      00FF193CH   LINE      CODE     ---       #250
      00FF1955H   LINE      CODE     ---       #251
      00FF196CH   LINE      CODE     ---       #253
      00FF1976H   LINE      CODE     ---       #255
      00FF1987H   LINE      CODE     ---       #256
      00FF1994H   LINE      CODE     ---       #257
      00FF1994H   LINE      CODE     ---       #258
      00FF19A3H   LINE      CODE     ---       #259
      00FF19B8H   LINE      CODE     ---       #260
      00FF19C8H   LINE      CODE     ---       #261
      00FF19DAH   LINE      CODE     ---       #264
      00FF19DDH   LINE      CODE     ---       #266
      00FF19DDH   LINE      CODE     ---       #267
      00FF19DDH   LINE      CODE     ---       #268
      00FF19DDH   LINE      CODE     ---       #270
      00FF19F6H   LINE      CODE     ---       #271
      00FF1A10H   LINE      CODE     ---       #273
      00FF1A1BH   LINE      CODE     ---       #275
      00FF1A2CH   LINE      CODE     ---       #276
      00FF1A39H   LINE      CODE     ---       #277
      00FF1A39H   LINE      CODE     ---       #278
      00FF1A48H   LINE      CODE     ---       #279
      00FF1A5DH   LINE      CODE     ---       #280
      00FF1A6DH   LINE      CODE     ---       #281
      00FF1A7FH   LINE      CODE     ---       #283
      00FF1AA3H   LINE      CODE     ---       #284
      00FF1AA7H   LINE      CODE     ---       #286
      00FF1AC1H   LINE      CODE     ---       #287
      00FF1AC3H   LINE      CODE     ---       #290
      00FF1AE7H   LINE      CODE     ---       #291
      00FF1AEDH   LINE      CODE     ---       #292
      00FF1AEDH   LINE      CODE     ---       #294
      00FF1AEFH   LINE      CODE     ---       #296
      00FF1B00H   LINE      CODE     ---       #297
      00FF1B0DH   LINE      CODE     ---       #298
      00FF1B17H   LINE      CODE     ---       #300
      00FF1B28H   LINE      CODE     ---       #301
      00FF1B35H   LINE      CODE     ---       #303
      00FF1B44H   LINE      CODE     ---       #304
      00FF1B59H   LINE      CODE     ---       #305
      00FF1B69H   LINE      CODE     ---       #306
      00FF1B7BH   LINE      CODE     ---       #308
      00FF1B7EH   LINE      CODE     ---       #311
      00FF1B7EH   LINE      CODE     ---       #312
      00FF1B7EH   LINE      CODE     ---       #314
      00FF1B97H   LINE      CODE     ---       #315
      00FF1BADH   LINE      CODE     ---       #317
      00FF1BBCH   LINE      CODE     ---       #318
      00FF1BD1H   LINE      CODE     ---       #319
      00FF1BE1H   LINE      CODE     ---       #320
      00FF1BF3H   LINE      CODE     ---       #321
      00FF1BF6H   LINE      CODE     ---       #323
      00FF1BF6H   LINE      CODE     ---       #324
      00FF1BF6H   LINE      CODE     ---       #326
      00FF1C0FH   LINE      CODE     ---       #327
      00FF1C25H   LINE      CODE     ---       #329
      00FF1C34H   LINE      CODE     ---       #330
L251 LINKER/LOCATER V4.66.93.0                                                        05/04/2024  13:35:58  PAGE 55


      00FF1C49H   LINE      CODE     ---       #331
      00FF1C59H   LINE      CODE     ---       #332
      00FF1C6BH   LINE      CODE     ---       #334
      00FF1C6EH   LINE      CODE     ---       #336
      00FF1C6EH   LINE      CODE     ---       #337
      00FF1C6EH   LINE      CODE     ---       #338
      00FF1C6EH   LINE      CODE     ---       #340
      00FF1C87H   LINE      CODE     ---       #341
      00FF1C9DH   LINE      CODE     ---       #343
      00FF1CACH   LINE      CODE     ---       #344
      00FF1CC1H   LINE      CODE     ---       #345
      00FF1CD1H   LINE      CODE     ---       #346
      00FF1CE3H   LINE      CODE     ---       #347
      00FF1CE6H   LINE      CODE     ---       #350
      00FF1CE6H   LINE      CODE     ---       #351
      00FF1CE6H   LINE      CODE     ---       #352
      00FF1CFFH   LINE      CODE     ---       #353
      00FF1D01H   LINE      CODE     ---       #355
      00FF1D0FH   LINE      CODE     ---       #356
      00FF1D19H   LINE      CODE     ---       #357
      00FF1D27H   LINE      CODE     ---       #358
      00FF1D31H   LINE      CODE     ---       #359
      00FF1D3DH   LINE      CODE     ---       #360
      00FF1D40H   LINE      CODE     ---       #362
      00FF1D40H   LINE      CODE     ---       #363
      00FF1D40H   LINE      CODE     ---       #365
      00FF1D59H   LINE      CODE     ---       #367
      00FF1D6BH   LINE      CODE     ---       #369
      00FF1D76H   LINE      CODE     ---       #370
      00FF1D89H   LINE      CODE     ---       #371
      00FF1D95H   LINE      CODE     ---       #372
      00FF1DA3H   LINE      CODE     ---       #374
      00FF1DA5H   LINE      CODE     ---       #377
      00FF1DA5H   LINE      CODE     ---       #379
      00FF1DAEH   LINE      CODE     ---       #380
      00FF1DB8H   LINE      CODE     ---       #381
      00FF1DC6H   LINE      CODE     ---       #382
      00FF1DC8H   LINE      CODE     ---       #384
      00FF1DC8H   LINE      CODE     ---       #385
      00FF1DC8H   LINE      CODE     ---       #386
      00FF1DC8H   LINE      CODE     ---       #389
      00FF1DD6H   LINE      CODE     ---       #390
      00FF1DE0H   LINE      CODE     ---       #391
      00FF1DEEH   LINE      CODE     ---       #392
      00FF1DEEH   LINE      CODE     ---       #393
      00FF1DF8H   LINE      CODE     ---       #394
      00FF1E07H   LINE      CODE     ---       #397
      00FF1E0BH   LINE      CODE     ---       #398
      ---         BLOCKEND  ---      ---       LVL=0

      ---         MODULE    ---      ---       SEEKFREE_WIRELESS
      000000D0H   SFRSYM    DATA     BYTE      PSW
      0000009DH   SFRSYM    DATA     BYTE      IRCBAND
      00000097H   SFRSYM    DATA     BYTE      AUXR2
      000000EFH   SFRSYM    DATA     BYTE      AUXINTIF
      000000FDH   SFRSYM    DATA     BYTE      S4CON
      000000ACH   SFRSYM    DATA     BYTE      S3CON
      0000009AH   SFRSYM    DATA     BYTE      S2CON
      000000FEH   SFRSYM    DATA     BYTE      S4BUF
      000000B7H   SFRSYM    DATA     BYTE      IPH
      000000CDH   SFRSYM    DATA     BYTE      SPSTAT
      000000DDH   SFRSYM    DATA     BYTE      T4T3M
      000000C1H   SFRSYM    DATA     BYTE      WDT_CONTR
      000000DFH   SFRSYM    DATA     BYTE      IP3
      000000F4H   SFRSYM    DATA     BYTE      USBCON
L251 LINKER/LOCATER V4.66.93.0                                                        05/04/2024  13:35:58  PAGE 56


      000000B5H   SFRSYM    DATA     BYTE      IP2
      000000FFH   SFRSYM    DATA     BYTE      RSTCFG
      000000F9H   SFRSYM    DATA     BYTE      LINICR
      0000008EH   SFRSYM    DATA     BYTE      AUXR
      000000AFH   SFRSYM    DATA     BYTE      IE2
      00000080H.7 SFRSYM    DATA     BIT       P07
      00000088H   SFRSYM    DATA     BYTE      TCON
      00000098H   SFRSYM    DATA     BYTE      SCON
      000000F1H   SFRSYM    DATA     BYTE      CANICR
      00000087H   SFRSYM    DATA     BYTE      PCON
      000000BCH   SFRSYM    DATA     BYTE      ADC_CONTR
      000000E7H   SFRSYM    DATA     BYTE      CMPCR2
      000000E6H   SFRSYM    DATA     BYTE      CMPCR1
      000000B8H   SFRSYM    DATA     BYTE      IP
      0000008FH   SFRSYM    DATA     BYTE      INTCLKO
      000000EEH   SFRSYM    DATA     BYTE      IP3H
      000000B6H   SFRSYM    DATA     BYTE      IP2H
      000000A8H   SFRSYM    DATA     BYTE      IE
      000000BBH   SFRSYM    DATA     BYTE      P_SW3
      000000BAH   SFRSYM    DATA     BYTE      P_SW2
      000000A2H   SFRSYM    DATA     BYTE      P_SW1
      000000CEH   SFRSYM    DATA     BYTE      SPCTL
      000000F8H   SFRSYM    DATA     BYTE      P7
      000000E8H   SFRSYM    DATA     BYTE      P6
      000000C8H   SFRSYM    DATA     BYTE      P5
      000000C0H   SFRSYM    DATA     BYTE      P4
      000000B0H   SFRSYM    DATA     BYTE      P3
      000000A0H   SFRSYM    DATA     BYTE      P2
      00000090H   SFRSYM    DATA     BYTE      P1
      00000080H   SFRSYM    DATA     BYTE      P0
      00010058H   SYMBOL    XDATA    BYTE      wireless_uart_data
      00010059H   SYMBOL    XDATA    ---       wireless_uart_fifo
      00010070H   SYMBOL    XDATA    ---       wireless_uart_buffer
      00000681H   SYMBOL    EDATA    ---       buff
      00000685H   SYMBOL    EDATA    DWORD     len
      00000689H   SYMBOL    EDATA    ---       buff
      0000068DH   SYMBOL    EDATA    DWORD     len
      0001010CH   SYMBOL    XDATA    DWORD     data_len

      ---         MODULE    ---      ---       SEEKFREE_WIRELESS_CH573
      000000D0H   SFRSYM    DATA     BYTE      PSW
      0000009DH   SFRSYM    DATA     BYTE      IRCBAND
      00000097H   SFRSYM    DATA     BYTE      AUXR2
      000000EFH   SFRSYM    DATA     BYTE      AUXINTIF
      000000FDH   SFRSYM    DATA     BYTE      S4CON
      000000ACH   SFRSYM    DATA     BYTE      S3CON
      0000009AH   SFRSYM    DATA     BYTE      S2CON
      000000FEH   SFRSYM    DATA     BYTE      S4BUF
      000000B7H   SFRSYM    DATA     BYTE      IPH
      000000CDH   SFRSYM    DATA     BYTE      SPSTAT
      000000DDH   SFRSYM    DATA     BYTE      T4T3M
      000000C1H   SFRSYM    DATA     BYTE      WDT_CONTR
      000000DFH   SFRSYM    DATA     BYTE      IP3
      000000F4H   SFRSYM    DATA     BYTE      USBCON
      000000B5H   SFRSYM    DATA     BYTE      IP2
      000000FFH   SFRSYM    DATA     BYTE      RSTCFG
      000000F9H   SFRSYM    DATA     BYTE      LINICR
      0000008EH   SFRSYM    DATA     BYTE      AUXR
      000000AFH   SFRSYM    DATA     BYTE      IE2
      00000080H.7 SFRSYM    DATA     BIT       P07
      00000088H   SFRSYM    DATA     BYTE      TCON
      00000098H   SFRSYM    DATA     BYTE      SCON
      000000F1H   SFRSYM    DATA     BYTE      CANICR
      00000087H   SFRSYM    DATA     BYTE      PCON
      000000BCH   SFRSYM    DATA     BYTE      ADC_CONTR
L251 LINKER/LOCATER V4.66.93.0                                                        05/04/2024  13:35:58  PAGE 57


      000000E7H   SFRSYM    DATA     BYTE      CMPCR2
      000000E6H   SFRSYM    DATA     BYTE      CMPCR1
      000000B8H   SFRSYM    DATA     BYTE      IP
      0000008FH   SFRSYM    DATA     BYTE      INTCLKO
      000000EEH   SFRSYM    DATA     BYTE      IP3H
      000000B6H   SFRSYM    DATA     BYTE      IP2H
      000000A8H   SFRSYM    DATA     BYTE      IE
      000000BBH   SFRSYM    DATA     BYTE      P_SW3
      000000BAH   SFRSYM    DATA     BYTE      P_SW2
      000000A2H   SFRSYM    DATA     BYTE      P_SW1
      000000CEH   SFRSYM    DATA     BYTE      SPCTL
      000000F8H   SFRSYM    DATA     BYTE      P7
      000000E8H   SFRSYM    DATA     BYTE      P6
      000000C8H   SFRSYM    DATA     BYTE      P5
      000000C0H   SFRSYM    DATA     BYTE      P4
      000000B0H   SFRSYM    DATA     BYTE      P3
      000000A0H   SFRSYM    DATA     BYTE      P2
      00000090H   SFRSYM    DATA     BYTE      P1
      00000080H   SFRSYM    DATA     BYTE      P0
      000100B0H   SYMBOL    XDATA    ---       wireless_ch573_buffer
      000100F0H   SYMBOL    XDATA    BYTE      wireless_ch573_data
      000100F1H   SYMBOL    XDATA    ---       wireless_ch573_fifo
      000006DDH   SYMBOL    EDATA    ---       buff
      000006E1H   SYMBOL    EDATA    WORD      len
      00000691H   SYMBOL    EDATA    ---       buff
      00000695H   SYMBOL    EDATA    DWORD     len
      00010110H   SYMBOL    XDATA    DWORD     data_len

      ---         MODULE    ---      ---       main
      00FF473BH   PUBLIC    CODE     ---       main
      00FF0003H   PUBLIC    CODE     ---       gpio_init
      00FF43FAH   PUBLIC    CODE     ---       motor_drivers_pwm_init
      000000D0H   SFRSYM    DATA     BYTE      PSW
      0000009DH   SFRSYM    DATA     BYTE      IRCBAND
      00000097H   SFRSYM    DATA     BYTE      AUXR2
      000000EFH   SFRSYM    DATA     BYTE      AUXINTIF
      000000FDH   SFRSYM    DATA     BYTE      S4CON
      000000ACH   SFRSYM    DATA     BYTE      S3CON
      0000009AH   SFRSYM    DATA     BYTE      S2CON
      000000B7H   SFRSYM    DATA     BYTE      IPH
      000000CDH   SFRSYM    DATA     BYTE      SPSTAT
      000000DDH   SFRSYM    DATA     BYTE      T4T3M
      000000C1H   SFRSYM    DATA     BYTE      WDT_CONTR
      000000DFH   SFRSYM    DATA     BYTE      IP3
      000000F4H   SFRSYM    DATA     BYTE      USBCON
      000000B5H   SFRSYM    DATA     BYTE      IP2
      000000FFH   SFRSYM    DATA     BYTE      RSTCFG
      000000F8H.5 SFRSYM    DATA     BIT       led_4
      000000F8H.6 SFRSYM    DATA     BIT       led_3
      000000F8H.7 SFRSYM    DATA     BIT       led_2
      000000C0H.5 SFRSYM    DATA     BIT       led_1
      000000F9H   SFRSYM    DATA     BYTE      LINICR
      0000008EH   SFRSYM    DATA     BYTE      AUXR
      000000AFH   SFRSYM    DATA     BYTE      IE2
      00000088H   SFRSYM    DATA     BYTE      TCON
      00000098H   SFRSYM    DATA     BYTE      SCON
      000000F1H   SFRSYM    DATA     BYTE      CANICR
      00000087H   SFRSYM    DATA     BYTE      PCON
      000000BCH   SFRSYM    DATA     BYTE      ADC_CONTR
      000000E7H   SFRSYM    DATA     BYTE      CMPCR2
      000000E6H   SFRSYM    DATA     BYTE      CMPCR1
      000000B8H   SFRSYM    DATA     BYTE      IP
      0000008FH   SFRSYM    DATA     BYTE      INTCLKO
      000000EEH   SFRSYM    DATA     BYTE      IP3H
      000000B6H   SFRSYM    DATA     BYTE      IP2H
L251 LINKER/LOCATER V4.66.93.0                                                        05/04/2024  13:35:58  PAGE 58


      000000A8H   SFRSYM    DATA     BYTE      IE
      000000BBH   SFRSYM    DATA     BYTE      P_SW3
      000000BAH   SFRSYM    DATA     BYTE      P_SW2
      000000A2H   SFRSYM    DATA     BYTE      P_SW1
      000000CEH   SFRSYM    DATA     BYTE      SPCTL
      000000F8H   SFRSYM    DATA     BYTE      P7
      000000E8H   SFRSYM    DATA     BYTE      P6
      000000C8H   SFRSYM    DATA     BYTE      P5
      000000CBH   SFRSYM    DATA     BYTE      P6M1
      000000C0H   SFRSYM    DATA     BYTE      P4
      000000CCH   SFRSYM    DATA     BYTE      P6M0
      000000B0H   SFRSYM    DATA     BYTE      P3
      000000A0H   SFRSYM    DATA     BYTE      P2
      00000090H   SFRSYM    DATA     BYTE      P1
      00000080H   SFRSYM    DATA     BYTE      P0
      00000091H   SFRSYM    DATA     BYTE      P1M1
      00000092H   SFRSYM    DATA     BYTE      P1M0

      00FF0003H   BLOCK     CODE     ---       LVL=0
      00FF0003H   LINE      CODE     ---       #6
      00FF0003H   LINE      CODE     ---       #8
      00FF000AH   LINE      CODE     ---       #9
      00FF0011H   LINE      CODE     ---       #10
      00FF0018H   LINE      CODE     ---       #11
      00FF001FH   LINE      CODE     ---       #12
      ---         BLOCKEND  ---      ---       LVL=0

      00FF43FAH   BLOCK     CODE     ---       LVL=0
      00FF43FAH   LINE      CODE     ---       #14
      00FF43FAH   LINE      CODE     ---       #17
      00FF440BH   LINE      CODE     ---       #18
      00FF441CH   LINE      CODE     ---       #19
      00FF442DH   LINE      CODE     ---       #20
      00FF443EH   LINE      CODE     ---       #21
      00FF4447H   LINE      CODE     ---       #22
      00FF4450H   LINE      CODE     ---       #23
      ---         BLOCKEND  ---      ---       LVL=0

      00FF473BH   BLOCK     CODE     ---       LVL=0
      00FF473BH   LINE      CODE     ---       #34
      00FF473BH   LINE      CODE     ---       #36
      00FF473EH   LINE      CODE     ---       #37
      00FF4741H   LINE      CODE     ---       #38
      00FF4744H   LINE      CODE     ---       #39
      00FF4747H   LINE      CODE     ---       #41
      00FF474AH   LINE      CODE     ---       #43
      00FF474DH   LINE      CODE     ---       #44
      00FF4750H   LINE      CODE     ---       #45
      00FF4753H   LINE      CODE     ---       #46
      00FF4756H   LINE      CODE     ---       #47
      00FF4759H   LINE      CODE     ---       #49
      00FF4760H   LINE      CODE     ---       #51
      00FF4763H   LINE      CODE     ---       #53
      00FF4766H   LINE      CODE     ---       #54
      00FF4769H   LINE      CODE     ---       #56
      00FF4769H   LINE      CODE     ---       #58
      00FF476CH   LINE      CODE     ---       #59
      00FF476FH   LINE      CODE     ---       #60
      00FF4772H   LINE      CODE     ---       #61
      00FF4775H   LINE      CODE     ---       #62
      00FF4778H   LINE      CODE     ---       #63
      00FF477BH   LINE      CODE     ---       #64
      00FF477EH   LINE      CODE     ---       #65
      00FF4781H   LINE      CODE     ---       #66
      00FF4784H   LINE      CODE     ---       #67
L251 LINKER/LOCATER V4.66.93.0                                                        05/04/2024  13:35:58  PAGE 59


      00FF4786H   LINE      CODE     ---       #68
      ---         BLOCKEND  ---      ---       LVL=0

      ---         MODULE    ---      ---       uart
      00FF3904H   PUBLIC    CODE     ---       uart_sendcmd
      00FF3BEFH   PUBLIC    CODE     ---       uart1_isr
      00FF481DH   PUBLIC    CODE     ---       uart2_isr
      00FF4866H   PUBLIC    CODE     ---       uart3_isr
      00FF48AFH   PUBLIC    CODE     ---       uart4_isr
      00FF3FFBH   PUBLIC    CODE     ---       uart_sendstring
      00FF4ADDH   PUBLIC    CODE     ---       uart_tx_send_buffer
      00000023H   PUBLIC    EDATA    BYTE      uart1_tx_buffer_from_uart2_index
      00000024H   PUBLIC    EDATA    BYTE      uart1_tx_buffer_from_uart3_index
      00000025H   PUBLIC    EDATA    BYTE      uart1_tx_buffer_from_uart4_index
      00000026H   PUBLIC    EDATA    ---       uart1_tx_buffer_from_uart2
      00000036H   PUBLIC    EDATA    ---       uart1_tx_buffer_from_uart3
      00000046H   PUBLIC    EDATA    ---       uart1_tx_buffer_from_uart4
      00000056H   PUBLIC    EDATA    ---       uart1_rx_buffer
      00000096H   PUBLIC    EDATA    ---       uart2_rx_buffer
      000000D6H   PUBLIC    EDATA    ---       uart3_rx_buffer
      00000116H   PUBLIC    EDATA    ---       uart4_rx_buffer
      00000156H   PUBLIC    EDATA    BYTE      uart1_rx_counter
      00000157H   PUBLIC    EDATA    BYTE      uart2_rx_counter
      00000158H   PUBLIC    EDATA    BYTE      uart3_rx_counter
      00000159H   PUBLIC    EDATA    BYTE      uart1_tx_counter
      0000015AH   PUBLIC    EDATA    BYTE      uart4_rx_counter
      0000015BH   PUBLIC    EDATA    BYTE      uart2_tx_counter
      0000015CH   PUBLIC    EDATA    BYTE      uart3_tx_counter
      0000015DH   PUBLIC    EDATA    BYTE      uart4_tx_counter
      00000020H.0 PUBLIC    BIT      BIT       uart1_lf
      00000020H.1 PUBLIC    BIT      BIT       uart2_lf
      00000020H.2 PUBLIC    BIT      BIT       uart3_lf
      00000020H.3 PUBLIC    BIT      BIT       uart4_lf
      00000020H.4 PUBLIC    BIT      BIT       uart1_cr
      00000020H.5 PUBLIC    BIT      BIT       uart2_cr
      00000020H.6 PUBLIC    BIT      BIT       uart3_cr
      00000020H.7 PUBLIC    BIT      BIT       uart4_cr
      00000021H.0 PUBLIC    BIT      BIT       uart1_tx_busy
      00000021H.1 PUBLIC    BIT      BIT       uart2_tx_busy
      00000021H.2 PUBLIC    BIT      BIT       uart3_tx_busy
      00000021H.3 PUBLIC    BIT      BIT       uart4_tx_busy
      00000021H.4 PUBLIC    BIT      BIT       uart1_rx_rdy
      00000021H.5 PUBLIC    BIT      BIT       uart2_rx_rdy
      00000021H.6 PUBLIC    BIT      BIT       uart3_rx_rdy
      00000021H.7 PUBLIC    BIT      BIT       uart4_rx_rdy
      000000D0H   SFRSYM    DATA     BYTE      PSW
      0000009DH   SFRSYM    DATA     BYTE      IRCBAND
      00000097H   SFRSYM    DATA     BYTE      AUXR2
      000000EFH   SFRSYM    DATA     BYTE      AUXINTIF
      000000FDH   SFRSYM    DATA     BYTE      S4CON
      000000ACH   SFRSYM    DATA     BYTE      S3CON
      0000009AH   SFRSYM    DATA     BYTE      S2CON
      000000FEH   SFRSYM    DATA     BYTE      S4BUF
      000000ADH   SFRSYM    DATA     BYTE      S3BUF
      0000009BH   SFRSYM    DATA     BYTE      S2BUF
      000000B7H   SFRSYM    DATA     BYTE      IPH
      000000CDH   SFRSYM    DATA     BYTE      SPSTAT
      000000DDH   SFRSYM    DATA     BYTE      T4T3M
      000000C1H   SFRSYM    DATA     BYTE      WDT_CONTR
      000000D7H   SFRSYM    DATA     BYTE      T2L
      000000D6H   SFRSYM    DATA     BYTE      T2H
      000000DFH   SFRSYM    DATA     BYTE      IP3
      000000F4H   SFRSYM    DATA     BYTE      USBCON
      000000B5H   SFRSYM    DATA     BYTE      IP2
      000000FFH   SFRSYM    DATA     BYTE      RSTCFG
L251 LINKER/LOCATER V4.66.93.0                                                        05/04/2024  13:35:58  PAGE 60


      000000F9H   SFRSYM    DATA     BYTE      LINICR
      0000008EH   SFRSYM    DATA     BYTE      AUXR
      000000AFH   SFRSYM    DATA     BYTE      IE2
      00000088H   SFRSYM    DATA     BYTE      TCON
      00000098H   SFRSYM    DATA     BYTE      SCON
      000000F1H   SFRSYM    DATA     BYTE      CANICR
      00000087H   SFRSYM    DATA     BYTE      PCON
      00000099H   SFRSYM    DATA     BYTE      SBUF
      000000BCH   SFRSYM    DATA     BYTE      ADC_CONTR
      000000E7H   SFRSYM    DATA     BYTE      CMPCR2
      000000E6H   SFRSYM    DATA     BYTE      CMPCR1
      00000098H.1 SFRSYM    DATA     BIT       TI
      00000098H.0 SFRSYM    DATA     BIT       RI
      000000B8H   SFRSYM    DATA     BYTE      IP
      000000A8H.4 SFRSYM    DATA     BIT       ES
      0000008FH   SFRSYM    DATA     BYTE      INTCLKO
      000000EEH   SFRSYM    DATA     BYTE      IP3H
      000000B6H   SFRSYM    DATA     BYTE      IP2H
      000000A8H   SFRSYM    DATA     BYTE      IE
      000000BBH   SFRSYM    DATA     BYTE      P_SW3
      000000BAH   SFRSYM    DATA     BYTE      P_SW2
      000000A2H   SFRSYM    DATA     BYTE      P_SW1
      000000CEH   SFRSYM    DATA     BYTE      SPCTL
      000000F8H   SFRSYM    DATA     BYTE      P7
      000000E8H   SFRSYM    DATA     BYTE      P6
      000000C8H   SFRSYM    DATA     BYTE      P5
      000000C0H   SFRSYM    DATA     BYTE      P4
      000000B0H   SFRSYM    DATA     BYTE      P3
      000000A0H   SFRSYM    DATA     BYTE      P2
      00000090H   SFRSYM    DATA     BYTE      P1
      00000080H   SFRSYM    DATA     BYTE      P0
      00000797H   SYMBOL    EDATA    BYTE      uart_num

      00FF3FFBH   BLOCK     CODE     ---       LVL=0
      00000718H   SYMBOL    EDATA    BYTE      uart_num
      00000719H   SYMBOL    EDATA    ---       puts
      00FF3FFBH   LINE      CODE     ---       #55
      00FF4003H   LINE      CODE     ---       #57
      00FF4017H   LINE      CODE     ---       #59
      00FF4017H   LINE      CODE     ---       #60
      00FF4019H   LINE      CODE     ---       #62
      00FF4022H   LINE      CODE     ---       #63
      00FF4025H   LINE      CODE     ---       #64
      00FF4028H   LINE      CODE     ---       #65
      00FF403EH   LINE      CODE     ---       #66
      00FF4040H   LINE      CODE     ---       #67
      00FF4040H   LINE      CODE     ---       #68
      00FF4042H   LINE      CODE     ---       #70
      00FF404BH   LINE      CODE     ---       #71
      00FF404EH   LINE      CODE     ---       #72
      00FF4051H   LINE      CODE     ---       #73
      00FF4067H   LINE      CODE     ---       #74
      00FF4069H   LINE      CODE     ---       #75
      00FF4069H   LINE      CODE     ---       #76
      00FF406BH   LINE      CODE     ---       #78
      00FF4074H   LINE      CODE     ---       #79
      00FF4077H   LINE      CODE     ---       #80
      00FF407AH   LINE      CODE     ---       #81
      00FF4090H   LINE      CODE     ---       #82
      00FF4092H   LINE      CODE     ---       #83
      00FF4092H   LINE      CODE     ---       #84
      00FF4094H   LINE      CODE     ---       #86
      00FF409DH   LINE      CODE     ---       #87
      00FF40A0H   LINE      CODE     ---       #88
      00FF40A3H   LINE      CODE     ---       #89
L251 LINKER/LOCATER V4.66.93.0                                                        05/04/2024  13:35:58  PAGE 61


      00FF40B9H   LINE      CODE     ---       #90
      00FF40B9H   LINE      CODE     ---       #91
      00FF40B9H   LINE      CODE     ---       #92
      00FF40B9H   LINE      CODE     ---       #93
      00FF40B9H   LINE      CODE     ---       #94
      ---         BLOCKEND  ---      ---       LVL=0

      00FF3904H   BLOCK     CODE     ---       LVL=0
      000006A0H   SYMBOL    EDATA    BYTE      uart_num
      000006A1H   SYMBOL    EDATA    ---       bytes
      000006A5H   SYMBOL    EDATA    BYTE      length
      00FF3910H   BLOCK     CODE     NEAR LAB  LVL=1
      000006A6H   SYMBOL    EDATA    BYTE      i
      ---         BLOCKEND  ---      ---       LVL=1
      00FF3904H   LINE      CODE     ---       #96
      00FF3910H   LINE      CODE     ---       #97
      00FF3910H   LINE      CODE     ---       #99
      00FF3927H   LINE      CODE     ---       #101
      00FF3927H   LINE      CODE     ---       #102
      00FF392EH   LINE      CODE     ---       #104
      00FF393FH   LINE      CODE     ---       #105
      00FF3942H   LINE      CODE     ---       #106
      00FF3945H   LINE      CODE     ---       #107
      00FF395EH   LINE      CODE     ---       #108
      00FF3961H   LINE      CODE     ---       #109
      00FF3961H   LINE      CODE     ---       #110
      00FF3968H   LINE      CODE     ---       #112
      00FF3979H   LINE      CODE     ---       #113
      00FF397CH   LINE      CODE     ---       #114
      00FF397FH   LINE      CODE     ---       #115
      00FF3998H   LINE      CODE     ---       #116
      00FF399AH   LINE      CODE     ---       #117
      00FF399AH   LINE      CODE     ---       #118
      00FF39A1H   LINE      CODE     ---       #120
      00FF39B2H   LINE      CODE     ---       #121
      00FF39B5H   LINE      CODE     ---       #122
      00FF39B8H   LINE      CODE     ---       #123
      00FF39D1H   LINE      CODE     ---       #124
      00FF39D3H   LINE      CODE     ---       #125
      00FF39D3H   LINE      CODE     ---       #126
      00FF39DAH   LINE      CODE     ---       #128
      00FF39EBH   LINE      CODE     ---       #129
      00FF39EEH   LINE      CODE     ---       #130
      00FF39F1H   LINE      CODE     ---       #131
      00FF3A0AH   LINE      CODE     ---       #132
      00FF3A0AH   LINE      CODE     ---       #133
      00FF3A0AH   LINE      CODE     ---       #134
      00FF3A0AH   LINE      CODE     ---       #135
      00FF3A0AH   LINE      CODE     ---       #136
      ---         BLOCKEND  ---      ---       LVL=0
      00000789H   SYMBOL    EDATA    BYTE      uart_num
      0000078AH   SYMBOL    EDATA    BYTE      byte

      00FF3BEFH   BLOCK     CODE     ---       LVL=0
      00FF3BEFH   LINE      CODE     ---       #167
      00FF3C05H   LINE      CODE     ---       #169
      00FF3C08H   LINE      CODE     ---       #171
      00FF3C0BH   LINE      CODE     ---       #172
      00FF3C0EH   LINE      CODE     ---       #173
      00FF3C0EH   LINE      CODE     ---       #174
      00FF3C14H   LINE      CODE     ---       #176
      00FF3C17H   LINE      CODE     ---       #177
      00FF3C28H   LINE      CODE     ---       #180
      00FF3C50H   LINE      CODE     ---       #182
      00FF3C5CH   LINE      CODE     ---       #183
L251 LINKER/LOCATER V4.66.93.0                                                        05/04/2024  13:35:58  PAGE 62


      00FF3C62H   LINE      CODE     ---       #184
      00FF3C68H   LINE      CODE     ---       #185
      00FF3C6EH   LINE      CODE     ---       #186
      00FF3C6EH   LINE      CODE     ---       #187
      00FF3C96H   LINE      CODE     ---       #189
      00FF3C99H   LINE      CODE     ---       #190
      00FF3C99H   LINE      CODE     ---       #192
      00FF3CB1H   LINE      CODE     ---       #193
      00FF3CB1H   LINE      CODE     ---       #194
      ---         BLOCKEND  ---      ---       LVL=0

      00FF481DH   BLOCK     CODE     ---       LVL=0
      00FF481DH   LINE      CODE     ---       #197
      00FF4823H   LINE      CODE     ---       #199
      00FF4828H   LINE      CODE     ---       #201
      00FF482BH   LINE      CODE     ---       #202
      00FF482EH   LINE      CODE     ---       #203
      00FF482EH   LINE      CODE     ---       #204
      00FF4833H   LINE      CODE     ---       #206
      00FF4836H   LINE      CODE     ---       #207
      00FF4847H   LINE      CODE     ---       #220
      00FF485FH   LINE      CODE     ---       #221
      00FF485FH   LINE      CODE     ---       #222
      ---         BLOCKEND  ---      ---       LVL=0

      00FF4866H   BLOCK     CODE     ---       LVL=0
      00FF4866H   LINE      CODE     ---       #224
      00FF486CH   LINE      CODE     ---       #226
      00FF4871H   LINE      CODE     ---       #228
      00FF4874H   LINE      CODE     ---       #229
      00FF4877H   LINE      CODE     ---       #230
      00FF4877H   LINE      CODE     ---       #231
      00FF487CH   LINE      CODE     ---       #233
      00FF487FH   LINE      CODE     ---       #234
      00FF4890H   LINE      CODE     ---       #247
      00FF48A8H   LINE      CODE     ---       #248
      00FF48A8H   LINE      CODE     ---       #249
      ---         BLOCKEND  ---      ---       LVL=0

      00FF48AFH   BLOCK     CODE     ---       LVL=0
      00FF48AFH   LINE      CODE     ---       #251
      00FF48B5H   LINE      CODE     ---       #253
      00FF48BAH   LINE      CODE     ---       #255
      00FF48BDH   LINE      CODE     ---       #256
      00FF48C0H   LINE      CODE     ---       #257
      00FF48C0H   LINE      CODE     ---       #258
      00FF48C5H   LINE      CODE     ---       #260
      00FF48C8H   LINE      CODE     ---       #261
      00FF48D9H   LINE      CODE     ---       #276
      00FF48F1H   LINE      CODE     ---       #277
      00FF48F1H   LINE      CODE     ---       #278
      ---         BLOCKEND  ---      ---       LVL=0
      00000798H   SYMBOL    EDATA    BYTE      uart_num

      00FF4ADDH   BLOCK     CODE     ---       LVL=0
      00FF4ADDH   LINE      CODE     ---       #321
      00FF4ADDH   LINE      CODE     ---       #323
      00FF4AE7H   LINE      CODE     ---       #325
      00FF4AF0H   LINE      CODE     ---       #327
      00FF4AF0H   LINE      CODE     ---       #329
      00FF4AFAH   LINE      CODE     ---       #331
      00FF4B03H   LINE      CODE     ---       #332
      ---         BLOCKEND  ---      ---       LVL=0

      ---         MODULE    ---      ---       isr
L251 LINKER/LOCATER V4.66.93.0                                                        05/04/2024  13:35:58  PAGE 63


      000000D0H   SFRSYM    DATA     BYTE      PSW
      0000009DH   SFRSYM    DATA     BYTE      IRCBAND
      00000097H   SFRSYM    DATA     BYTE      AUXR2
      000000EFH   SFRSYM    DATA     BYTE      AUXINTIF
      000000FDH   SFRSYM    DATA     BYTE      S4CON
      000000ACH   SFRSYM    DATA     BYTE      S3CON
      0000009AH   SFRSYM    DATA     BYTE      S2CON
      000000B7H   SFRSYM    DATA     BYTE      IPH
      000000CDH   SFRSYM    DATA     BYTE      SPSTAT
      000000DDH   SFRSYM    DATA     BYTE      T4T3M
      000000C1H   SFRSYM    DATA     BYTE      WDT_CONTR
      000000DFH   SFRSYM    DATA     BYTE      IP3
      000000F4H   SFRSYM    DATA     BYTE      USBCON
      000000B5H   SFRSYM    DATA     BYTE      IP2
      000000FFH   SFRSYM    DATA     BYTE      RSTCFG
      000000F9H   SFRSYM    DATA     BYTE      LINICR
      0000008EH   SFRSYM    DATA     BYTE      AUXR
      000000AFH   SFRSYM    DATA     BYTE      IE2
      00000088H   SFRSYM    DATA     BYTE      TCON
      00000098H   SFRSYM    DATA     BYTE      SCON
      000000F1H   SFRSYM    DATA     BYTE      CANICR
      00000087H   SFRSYM    DATA     BYTE      PCON
      000000BCH   SFRSYM    DATA     BYTE      ADC_CONTR
      000000E7H   SFRSYM    DATA     BYTE      CMPCR2
      000000E6H   SFRSYM    DATA     BYTE      CMPCR1
      000000B8H   SFRSYM    DATA     BYTE      IP
      0000008FH   SFRSYM    DATA     BYTE      INTCLKO
      000000EEH   SFRSYM    DATA     BYTE      IP3H
      000000B6H   SFRSYM    DATA     BYTE      IP2H
      000000A8H   SFRSYM    DATA     BYTE      IE
      000000BBH   SFRSYM    DATA     BYTE      P_SW3
      000000BAH   SFRSYM    DATA     BYTE      P_SW2
      000000A2H   SFRSYM    DATA     BYTE      P_SW1
      000000CEH   SFRSYM    DATA     BYTE      SPCTL
      000000F8H   SFRSYM    DATA     BYTE      P7
      000000E8H   SFRSYM    DATA     BYTE      P6
      000000C8H   SFRSYM    DATA     BYTE      P5
      000000C0H   SFRSYM    DATA     BYTE      P4
      000000B0H   SFRSYM    DATA     BYTE      P3
      000000A0H   SFRSYM    DATA     BYTE      P2
      00000090H   SFRSYM    DATA     BYTE      P1
      00000080H   SFRSYM    DATA     BYTE      P0

      ---         MODULE    ---      ---       key
      00FF4BEBH   PUBLIC    CODE     ---       key1_short_press
      00FF3B07H   PUBLIC    CODE     ---       key2_short_press
      00FF3A0BH   PUBLIC    CODE     ---       key3_short_press
      00FF4BF5H   PUBLIC    CODE     ---       key4_short_press
      00FF464DH   PUBLIC    CODE     ---       key1_check
      00FF4554H   PUBLIC    CODE     ---       key2_check
      00FF45A7H   PUBLIC    CODE     ---       key3_check
      00FF45FAH   PUBLIC    CODE     ---       key4_check
      00FF469EH   PUBLIC    CODE     ---       key5_check
      0000071DH   PUBLIC    EDATA    BYTE      key1_up_store
      0000071EH   PUBLIC    EDATA    BYTE      key2_up_store
      0000071FH   PUBLIC    EDATA    BYTE      key3_up_store
      00000720H   PUBLIC    EDATA    BYTE      key4_up_store
      00000721H   PUBLIC    EDATA    BYTE      key5_up_store
      000000C0H.3 SFRSYM    DATA     BIT       key3
      000000F8H.3 SFRSYM    DATA     BIT       key2
      000000C0H.1 SFRSYM    DATA     BIT       key1
      000000D0H   SFRSYM    DATA     BYTE      PSW
      0000009DH   SFRSYM    DATA     BYTE      IRCBAND
      00000097H   SFRSYM    DATA     BYTE      AUXR2
      000000EFH   SFRSYM    DATA     BYTE      AUXINTIF
L251 LINKER/LOCATER V4.66.93.0                                                        05/04/2024  13:35:58  PAGE 64


      000000FDH   SFRSYM    DATA     BYTE      S4CON
      000000ACH   SFRSYM    DATA     BYTE      S3CON
      0000009AH   SFRSYM    DATA     BYTE      S2CON
      000000B7H   SFRSYM    DATA     BYTE      IPH
      000000CDH   SFRSYM    DATA     BYTE      SPSTAT
      000000DDH   SFRSYM    DATA     BYTE      T4T3M
      000000C1H   SFRSYM    DATA     BYTE      WDT_CONTR
      000000DFH   SFRSYM    DATA     BYTE      IP3
      000000F4H   SFRSYM    DATA     BYTE      USBCON
      000000B5H   SFRSYM    DATA     BYTE      IP2
      000000FFH   SFRSYM    DATA     BYTE      RSTCFG
      000000F8H.5 SFRSYM    DATA     BIT       led_4
      000000F8H.6 SFRSYM    DATA     BIT       led_3
      000000F8H.7 SFRSYM    DATA     BIT       led_2
      000000C0H.5 SFRSYM    DATA     BIT       led_1
      000000F9H   SFRSYM    DATA     BYTE      LINICR
      0000008EH   SFRSYM    DATA     BYTE      AUXR
      000000AFH   SFRSYM    DATA     BYTE      IE2
      00000088H   SFRSYM    DATA     BYTE      TCON
      00000098H   SFRSYM    DATA     BYTE      SCON
      000000F1H   SFRSYM    DATA     BYTE      CANICR
      00000087H   SFRSYM    DATA     BYTE      PCON
      000000BCH   SFRSYM    DATA     BYTE      ADC_CONTR
      000000E7H   SFRSYM    DATA     BYTE      CMPCR2
      000000E6H   SFRSYM    DATA     BYTE      CMPCR1
      000000B8H   SFRSYM    DATA     BYTE      IP
      0000008FH   SFRSYM    DATA     BYTE      INTCLKO
      000000EEH   SFRSYM    DATA     BYTE      IP3H
      000000B6H   SFRSYM    DATA     BYTE      IP2H
      000000A8H   SFRSYM    DATA     BYTE      IE
      000000BBH   SFRSYM    DATA     BYTE      P_SW3
      000000BAH   SFRSYM    DATA     BYTE      P_SW2
      000000A2H   SFRSYM    DATA     BYTE      P_SW1
      000000CEH   SFRSYM    DATA     BYTE      SPCTL
      000000F8H   SFRSYM    DATA     BYTE      P7
      000000E8H   SFRSYM    DATA     BYTE      P6
      000000C8H   SFRSYM    DATA     BYTE      P5
      000000C0H   SFRSYM    DATA     BYTE      P4
      000000B0H   SFRSYM    DATA     BYTE      P3
      000000A0H   SFRSYM    DATA     BYTE      P2
      00000090H   SFRSYM    DATA     BYTE      P1
      00000080H   SFRSYM    DATA     BYTE      P0
      000000C0H.4 SFRSYM    DATA     BIT       key5
      000000C0H.2 SFRSYM    DATA     BIT       key4

      00FF4BEBH   BLOCK     CODE     ---       LVL=0
      00FF4BEBH   LINE      CODE     ---       #17
      00FF4BEBH   LINE      CODE     ---       #20
      00FF4BF4H   LINE      CODE     ---       #50
      ---         BLOCKEND  ---      ---       LVL=0

      00FF3B07H   BLOCK     CODE     ---       LVL=0
      00FF3B07H   LINE      CODE     ---       #52
      00FF3B07H   LINE      CODE     ---       #55
      00FF3B10H   LINE      CODE     ---       #56
      00FF3B15H   LINE      CODE     ---       #57
      00FF3B1CH   LINE      CODE     ---       #58
      00FF3B23H   LINE      CODE     ---       #59
      00FF3B2AH   LINE      CODE     ---       #60
      00FF3B31H   LINE      CODE     ---       #61
      00FF3B3AH   LINE      CODE     ---       #62
      00FF3B43H   LINE      CODE     ---       #63
      00FF3B4AH   LINE      CODE     ---       #64
      00FF3B51H   LINE      CODE     ---       #65
      00FF3B58H   LINE      CODE     ---       #66
L251 LINKER/LOCATER V4.66.93.0                                                        05/04/2024  13:35:58  PAGE 65


      00FF3B5FH   LINE      CODE     ---       #67
      00FF3B68H   LINE      CODE     ---       #68
      00FF3B71H   LINE      CODE     ---       #69
      00FF3B78H   LINE      CODE     ---       #70
      00FF3B7FH   LINE      CODE     ---       #71
      00FF3B86H   LINE      CODE     ---       #72
      00FF3B8DH   LINE      CODE     ---       #73
      00FF3B96H   LINE      CODE     ---       #74
      00FF3B9FH   LINE      CODE     ---       #75
      00FF3BA6H   LINE      CODE     ---       #76
      00FF3BADH   LINE      CODE     ---       #77
      00FF3BB4H   LINE      CODE     ---       #78
      00FF3BBBH   LINE      CODE     ---       #79
      00FF3BC4H   LINE      CODE     ---       #80
      00FF3BCDH   LINE      CODE     ---       #81
      00FF3BD4H   LINE      CODE     ---       #82
      00FF3BDBH   LINE      CODE     ---       #83
      00FF3BE2H   LINE      CODE     ---       #84
      00FF3BE9H   LINE      CODE     ---       #85
      00FF3BEEH   LINE      CODE     ---       #86
      ---         BLOCKEND  ---      ---       LVL=0

      00FF3A0BH   BLOCK     CODE     ---       LVL=0
      00FF3A0BH   LINE      CODE     ---       #89
      00FF3A0BH   LINE      CODE     ---       #92
      00FF3A14H   LINE      CODE     ---       #94
      00FF3A1FH   LINE      CODE     ---       #95
      00FF3A26H   LINE      CODE     ---       #96
      00FF3A2DH   LINE      CODE     ---       #97
      00FF3A34H   LINE      CODE     ---       #98
      00FF3A3BH   LINE      CODE     ---       #99
      00FF3A44H   LINE      CODE     ---       #101
      00FF3A4FH   LINE      CODE     ---       #102
      00FF3A56H   LINE      CODE     ---       #103
      00FF3A5DH   LINE      CODE     ---       #104
      00FF3A64H   LINE      CODE     ---       #105
      00FF3A6BH   LINE      CODE     ---       #106
      00FF3A74H   LINE      CODE     ---       #108
      00FF3A7FH   LINE      CODE     ---       #109
      00FF3A86H   LINE      CODE     ---       #110
      00FF3A8DH   LINE      CODE     ---       #111
      00FF3A94H   LINE      CODE     ---       #112
      00FF3A9BH   LINE      CODE     ---       #113
      00FF3AA4H   LINE      CODE     ---       #115
      00FF3AAFH   LINE      CODE     ---       #116
      00FF3AB6H   LINE      CODE     ---       #117
      00FF3ABDH   LINE      CODE     ---       #118
      00FF3AC4H   LINE      CODE     ---       #119
      00FF3ACBH   LINE      CODE     ---       #120
      00FF3AD4H   LINE      CODE     ---       #122
      00FF3ADFH   LINE      CODE     ---       #123
      00FF3AE6H   LINE      CODE     ---       #124
      00FF3AEDH   LINE      CODE     ---       #125
      00FF3AF4H   LINE      CODE     ---       #126
      00FF3AFBH   LINE      CODE     ---       #127
      00FF3B06H   LINE      CODE     ---       #129
      ---         BLOCKEND  ---      ---       LVL=0

      00FF4BF5H   BLOCK     CODE     ---       LVL=0
      00FF4BF5H   LINE      CODE     ---       #131
      00FF4BF5H   LINE      CODE     ---       #134
      00FF4BFEH   LINE      CODE     ---       #135
      ---         BLOCKEND  ---      ---       LVL=0

      00FF464DH   BLOCK     CODE     ---       LVL=0
L251 LINKER/LOCATER V4.66.93.0                                                        05/04/2024  13:35:58  PAGE 66


      00FF464DH   LINE      CODE     ---       #143
      00FF464DH   LINE      CODE     ---       #145
      00FF465FH   LINE      CODE     ---       #147
      00FF4664H   LINE      CODE     ---       #148
      00FF4673H   LINE      CODE     ---       #149
      00FF4673H   LINE      CODE     ---       #150
      00FF4685H   LINE      CODE     ---       #152
      00FF468BH   LINE      CODE     ---       #153
      00FF468EH   LINE      CODE     ---       #154
      00FF469DH   LINE      CODE     ---       #155
      ---         BLOCKEND  ---      ---       LVL=0

      00FF4554H   BLOCK     CODE     ---       LVL=0
      00FF4554H   LINE      CODE     ---       #158
      00FF4554H   LINE      CODE     ---       #160
      00FF4566H   LINE      CODE     ---       #162
      00FF456BH   LINE      CODE     ---       #163
      00FF457BH   LINE      CODE     ---       #164
      00FF457BH   LINE      CODE     ---       #165
      00FF458DH   LINE      CODE     ---       #167
      00FF4593H   LINE      CODE     ---       #168
      00FF4596H   LINE      CODE     ---       #169
      00FF45A6H   LINE      CODE     ---       #170
      ---         BLOCKEND  ---      ---       LVL=0

      00FF45A7H   BLOCK     CODE     ---       LVL=0
      00FF45A7H   LINE      CODE     ---       #173
      00FF45A7H   LINE      CODE     ---       #175
      00FF45B9H   LINE      CODE     ---       #177
      00FF45BEH   LINE      CODE     ---       #178
      00FF45CEH   LINE      CODE     ---       #179
      00FF45CEH   LINE      CODE     ---       #180
      00FF45E0H   LINE      CODE     ---       #182
      00FF45E6H   LINE      CODE     ---       #183
      00FF45E9H   LINE      CODE     ---       #184
      00FF45F9H   LINE      CODE     ---       #185
      ---         BLOCKEND  ---      ---       LVL=0

      00FF45FAH   BLOCK     CODE     ---       LVL=0
      00FF45FAH   LINE      CODE     ---       #188
      00FF45FAH   LINE      CODE     ---       #190
      00FF460CH   LINE      CODE     ---       #192
      00FF4611H   LINE      CODE     ---       #193
      00FF4621H   LINE      CODE     ---       #194
      00FF4621H   LINE      CODE     ---       #195
      00FF4633H   LINE      CODE     ---       #197
      00FF4639H   LINE      CODE     ---       #198
      00FF463CH   LINE      CODE     ---       #199
      00FF464CH   LINE      CODE     ---       #200
      ---         BLOCKEND  ---      ---       LVL=0

      00FF469EH   BLOCK     CODE     ---       LVL=0
      00FF469EH   LINE      CODE     ---       #203
      00FF469EH   LINE      CODE     ---       #205
      00FF46B0H   LINE      CODE     ---       #207
      00FF46B5H   LINE      CODE     ---       #208
      00FF46C5H   LINE      CODE     ---       #209
      00FF46C5H   LINE      CODE     ---       #210
      00FF46D7H   LINE      CODE     ---       #212
      00FF46DDH   LINE      CODE     ---       #214
      00FF46EDH   LINE      CODE     ---       #215
      ---         BLOCKEND  ---      ---       LVL=0

      ---         MODULE    ---      ---       ui
      00FF4BDBH   PUBLIC    CODE     ---       ui_keys_init
L251 LINKER/LOCATER V4.66.93.0                                                        05/04/2024  13:35:58  PAGE 67


      00FF48F8H   PUBLIC    CODE     ---       ui_init
      00000799H   PUBLIC    EDATA    BYTE      ui_loading_index
      000000D0H   SFRSYM    DATA     BYTE      PSW
      0000009DH   SFRSYM    DATA     BYTE      IRCBAND
      00000097H   SFRSYM    DATA     BYTE      AUXR2
      000000EFH   SFRSYM    DATA     BYTE      AUXINTIF
      000000FDH   SFRSYM    DATA     BYTE      S4CON
      000000ACH   SFRSYM    DATA     BYTE      S3CON
      0000009AH   SFRSYM    DATA     BYTE      S2CON
      000000B7H   SFRSYM    DATA     BYTE      IPH
      000000CDH   SFRSYM    DATA     BYTE      SPSTAT
      000000DDH   SFRSYM    DATA     BYTE      T4T3M
      000000C1H   SFRSYM    DATA     BYTE      WDT_CONTR
      000000DFH   SFRSYM    DATA     BYTE      IP3
      000000F4H   SFRSYM    DATA     BYTE      USBCON
      000000B5H   SFRSYM    DATA     BYTE      IP2
      000000FFH   SFRSYM    DATA     BYTE      RSTCFG
      000000F9H   SFRSYM    DATA     BYTE      LINICR
      0000008EH   SFRSYM    DATA     BYTE      AUXR
      000000AFH   SFRSYM    DATA     BYTE      IE2
      00000088H   SFRSYM    DATA     BYTE      TCON
      00000098H   SFRSYM    DATA     BYTE      SCON
      000000F1H   SFRSYM    DATA     BYTE      CANICR
      00000087H   SFRSYM    DATA     BYTE      PCON
      000000BCH   SFRSYM    DATA     BYTE      ADC_CONTR
      000000E7H   SFRSYM    DATA     BYTE      CMPCR2
      000000E6H   SFRSYM    DATA     BYTE      CMPCR1
      000000B8H   SFRSYM    DATA     BYTE      IP
      0000008FH   SFRSYM    DATA     BYTE      INTCLKO
      000000EEH   SFRSYM    DATA     BYTE      IP3H
      000000B6H   SFRSYM    DATA     BYTE      IP2H
      000000A8H   SFRSYM    DATA     BYTE      IE
      000000BBH   SFRSYM    DATA     BYTE      P_SW3
      000000BAH   SFRSYM    DATA     BYTE      P_SW2
      000000A2H   SFRSYM    DATA     BYTE      P_SW1
      000000CEH   SFRSYM    DATA     BYTE      SPCTL
      000000F8H   SFRSYM    DATA     BYTE      P7
      000000E8H   SFRSYM    DATA     BYTE      P6
      000000C8H   SFRSYM    DATA     BYTE      P5
      000000C0H   SFRSYM    DATA     BYTE      P4
      000000B0H   SFRSYM    DATA     BYTE      P3
      000000A0H   SFRSYM    DATA     BYTE      P2
      00000090H   SFRSYM    DATA     BYTE      P1
      00000080H   SFRSYM    DATA     BYTE      P0

      00FF48F8H   BLOCK     CODE     ---       LVL=0
      00FF48F8H   LINE      CODE     ---       #6
      00FF48F8H   LINE      CODE     ---       #8
      00FF4906H   LINE      CODE     ---       #9
      00FF4915H   LINE      CODE     ---       #10
      00FF4924H   LINE      CODE     ---       #11
      00FF4934H   LINE      CODE     ---       #17
      00FF4937H   LINE      CODE     ---       #18
      ---         BLOCKEND  ---      ---       LVL=0

      00FF4BDBH   BLOCK     CODE     ---       LVL=0
      00FF4BDBH   LINE      CODE     ---       #20
      00FF4BDBH   LINE      CODE     ---       #23
      00FF4BEAH   LINE      CODE     ---       #24
      ---         BLOCKEND  ---      ---       LVL=0

      ---         MODULE    ---      ---       host_comm
      00FF37EEH   PUBLIC    CODE     ---       wheel_speed_parser
      00FF4A86H   PUBLIC    CODE     ---       host_comm_uart_init
      00FF41E6H   PUBLIC    CODE     ---       host_comm_sender
L251 LINKER/LOCATER V4.66.93.0                                                        05/04/2024  13:35:58  PAGE 68


      00FF2A6EH   PUBLIC    CODE     ---       host_comm_irqhandler
      00000022H.0 PUBLIC    BIT      BIT       sendok
      00000022H.1 PUBLIC    BIT      BIT       sendwrongcmd
      00000022H.2 PUBLIC    BIT      BIT       sendwheelok
      00000022H.3 PUBLIC    BIT      BIT       sendwheelwarnexceed
      00000022H.4 PUBLIC    BIT      BIT       senderr
      000000D0H   SFRSYM    DATA     BYTE      PSW
      0000009DH   SFRSYM    DATA     BYTE      IRCBAND
      00000097H   SFRSYM    DATA     BYTE      AUXR2
      000000EFH   SFRSYM    DATA     BYTE      AUXINTIF
      000000FDH   SFRSYM    DATA     BYTE      S4CON
      000000ACH   SFRSYM    DATA     BYTE      S3CON
      0000009AH   SFRSYM    DATA     BYTE      S2CON
      000000B7H   SFRSYM    DATA     BYTE      IPH
      000000CDH   SFRSYM    DATA     BYTE      SPSTAT
      000000DDH   SFRSYM    DATA     BYTE      T4T3M
      000000C1H   SFRSYM    DATA     BYTE      WDT_CONTR
      00000088H.6 SFRSYM    DATA     BIT       TR1
      0000008BH   SFRSYM    DATA     BYTE      TL1
      0000008DH   SFRSYM    DATA     BYTE      TH1
      000000DFH   SFRSYM    DATA     BYTE      IP3
      000000F4H   SFRSYM    DATA     BYTE      USBCON
      000000B5H   SFRSYM    DATA     BYTE      IP2
      000000FFH   SFRSYM    DATA     BYTE      RSTCFG
      000000A8H.3 SFRSYM    DATA     BIT       ET1
      000000C0H.5 SFRSYM    DATA     BIT       led_1
      000000F9H   SFRSYM    DATA     BYTE      LINICR
      0000008EH   SFRSYM    DATA     BYTE      AUXR
      000000AFH   SFRSYM    DATA     BYTE      IE2
      00000088H   SFRSYM    DATA     BYTE      TCON
      00000089H   SFRSYM    DATA     BYTE      TMOD
      00000098H   SFRSYM    DATA     BYTE      SCON
      000000F1H   SFRSYM    DATA     BYTE      CANICR
      00000087H   SFRSYM    DATA     BYTE      PCON
      000000BCH   SFRSYM    DATA     BYTE      ADC_CONTR
      000000E7H   SFRSYM    DATA     BYTE      CMPCR2
      000000E6H   SFRSYM    DATA     BYTE      CMPCR1
      000000B8H   SFRSYM    DATA     BYTE      IP
      000000A8H.4 SFRSYM    DATA     BIT       ES
      0000008FH   SFRSYM    DATA     BYTE      INTCLKO
      000000EEH   SFRSYM    DATA     BYTE      IP3H
      000000B6H   SFRSYM    DATA     BYTE      IP2H
      000000A8H   SFRSYM    DATA     BYTE      IE
      000000BBH   SFRSYM    DATA     BYTE      P_SW3
      000000BAH   SFRSYM    DATA     BYTE      P_SW2
      000000A2H   SFRSYM    DATA     BYTE      P_SW1
      000000CEH   SFRSYM    DATA     BYTE      SPCTL
      000000F8H   SFRSYM    DATA     BYTE      P7
      000000E8H   SFRSYM    DATA     BYTE      P6
      000000C8H   SFRSYM    DATA     BYTE      P5
      000000C0H   SFRSYM    DATA     BYTE      P4
      000000B0H   SFRSYM    DATA     BYTE      P3
      000000A0H   SFRSYM    DATA     BYTE      P2
      00000090H   SFRSYM    DATA     BYTE      P1
      00000080H   SFRSYM    DATA     BYTE      P0

      00FF37EEH   BLOCK     CODE     ---       LVL=0
      00000624H   SYMBOL    EDATA    ---       str
      00FF37F2H   BLOCK     CODE     NEAR LAB  LVL=1
      00000628H   SYMBOL    EDATA    INT       result
      0000062AH   SYMBOL    EDATA    INT       sign
      0000062CH   SYMBOL    EDATA    INT       i
      ---         BLOCKEND  ---      ---       LVL=1
      00FF37EEH   LINE      CODE     ---       #13
      00FF37F2H   LINE      CODE     ---       #14
L251 LINKER/LOCATER V4.66.93.0                                                        05/04/2024  13:35:58  PAGE 69


      00FF37F2H   LINE      CODE     ---       #16
      00FF37F8H   LINE      CODE     ---       #17
      00FF3800H   LINE      CODE     ---       #18
      00FF3806H   LINE      CODE     ---       #21
      00FF3812H   LINE      CODE     ---       #23
      00FF3817H   LINE      CODE     ---       #24
      00FF3817H   LINE      CODE     ---       #27
      00FF3819H   LINE      CODE     ---       #29
      00FF3827H   LINE      CODE     ---       #30
      00FF3837H   LINE      CODE     ---       #33
      00FF3847H   LINE      CODE     ---       #35
      00FF384FH   LINE      CODE     ---       #36
      00FF385DH   LINE      CODE     ---       #37
      00FF386FH   LINE      CODE     ---       #39
      00FF387DH   LINE      CODE     ---       #40
      00FF387DH   LINE      CODE     ---       #43
      00FF387FH   LINE      CODE     ---       #45
      00FF38A1H   LINE      CODE     ---       #46
      00FF38C4H   LINE      CODE     ---       #47
      00FF38C4H   LINE      CODE     ---       #48
      00FF38C4H   LINE      CODE     ---       #49
      00FF38C4H   LINE      CODE     ---       #50
      00FF38D2H   LINE      CODE     ---       #51
      00FF38E2H   LINE      CODE     ---       #52
      00FF38EEH   LINE      CODE     ---       #54
      00FF38F6H   LINE      CODE     ---       #55
      00FF38F9H   LINE      CODE     ---       #56
      00FF38F9H   LINE      CODE     ---       #57
      00FF3903H   LINE      CODE     ---       #58
      ---         BLOCKEND  ---      ---       LVL=0

      00FF4A86H   BLOCK     CODE     ---       LVL=0
      00FF4A86H   LINE      CODE     ---       #60
      00FF4A86H   LINE      CODE     ---       #67
      00FF4A8AH   LINE      CODE     ---       #68
      00FF4A8DH   LINE      CODE     ---       #69
      00FF4A90H   LINE      CODE     ---       #70
      00FF4A93H   LINE      CODE     ---       #71
      00FF4A97H   LINE      CODE     ---       #72
      00FF4A9BH   LINE      CODE     ---       #73
      00FF4A9EH   LINE      CODE     ---       #74
      00FF4AA1H   LINE      CODE     ---       #75
      00FF4AA4H   LINE      CODE     ---       #77
      00FF4AB1H   LINE      CODE     ---       #78
      ---         BLOCKEND  ---      ---       LVL=0

      00FF2A6EH   BLOCK     CODE     ---       LVL=0
      00000556H   SYMBOL    EDATA    WORD      i
      00000558H   SYMBOL    EDATA    ---       wheel_speed_buffer
      0000055FH   SYMBOL    EDATA    INT       wheel_speed
      00000561H   SYMBOL    EDATA    ---       servo_angle_buffer
      00000564H   SYMBOL    EDATA    INT       servo_angle
      00FF2A6EH   LINE      CODE     ---       #80
      00FF2A6EH   LINE      CODE     ---       #81
      00FF2A6EH   LINE      CODE     ---       #90
      00FF2A85H   LINE      CODE     ---       #93
      00FF2A9DH   LINE      CODE     ---       #95
      00FF2AA6H   LINE      CODE     ---       #97
      00FF2AC1H   LINE      CODE     ---       #100
      00FF2AD0H   LINE      CODE     ---       #101
      00FF2AD3H   LINE      CODE     ---       #102
      00FF2AD6H   LINE      CODE     ---       #104
      00FF2AFAH   LINE      CODE     ---       #107
      00FF2B02H   LINE      CODE     ---       #110
      00FF2B14H   LINE      CODE     ---       #111
L251 LINKER/LOCATER V4.66.93.0                                                        05/04/2024  13:35:58  PAGE 70


      00FF2B2EH   LINE      CODE     ---       #112
      00FF2B48H   LINE      CODE     ---       #114
      00FF2B53H   LINE      CODE     ---       #117
      00FF2B5CH   LINE      CODE     ---       #119
      00FF2B65H   LINE      CODE     ---       #121
      00FF2B6DH   LINE      CODE     ---       #122
      00FF2B75H   LINE      CODE     ---       #123
      00FF2B78H   LINE      CODE     ---       #124
      00FF2B7BH   LINE      CODE     ---       #125
      00FF2B84H   LINE      CODE     ---       #127
      00FF2B8CH   LINE      CODE     ---       #128
      00FF2B8FH   LINE      CODE     ---       #129
      00FF2B92H   LINE      CODE     ---       #130
      00FF2B9BH   LINE      CODE     ---       #132
      00FF2BA3H   LINE      CODE     ---       #133
      00FF2BA6H   LINE      CODE     ---       #134
      00FF2BA9H   LINE      CODE     ---       #135
      00FF2BACH   LINE      CODE     ---       #136
      00FF2BAFH   LINE      CODE     ---       #137
      00FF2BB8H   LINE      CODE     ---       #139
      00FF2BC1H   LINE      CODE     ---       #141
      00FF2BC9H   LINE      CODE     ---       #142
      00FF2BD1H   LINE      CODE     ---       #143
      00FF2BD4H   LINE      CODE     ---       #144
      00FF2BD7H   LINE      CODE     ---       #145
      00FF2BE0H   LINE      CODE     ---       #147
      00FF2BE8H   LINE      CODE     ---       #148
      00FF2BEBH   LINE      CODE     ---       #149
      00FF2BEEH   LINE      CODE     ---       #150
      00FF2BF7H   LINE      CODE     ---       #152
      00FF2BFFH   LINE      CODE     ---       #153
      00FF2C02H   LINE      CODE     ---       #154
      00FF2C05H   LINE      CODE     ---       #155
      00FF2C08H   LINE      CODE     ---       #156
      00FF2C0BH   LINE      CODE     ---       #157
      00FF2C23H   LINE      CODE     ---       #159
      00FF2C31H   LINE      CODE     ---       #160
      00FF2C39H   LINE      CODE     ---       #161
      00FF2C41H   LINE      CODE     ---       #162
      00FF2C4FH   LINE      CODE     ---       #163
      00FF2C52H   LINE      CODE     ---       #164
      00FF2C55H   LINE      CODE     ---       #167
      00FF2C79H   LINE      CODE     ---       #173
      00FF2C81H   LINE      CODE     ---       #175
      00FF2CA3H   LINE      CODE     ---       #176
      00FF2CBDH   LINE      CODE     ---       #178
      00FF2CDDH   LINE      CODE     ---       #181
      00FF2CE6H   LINE      CODE     ---       #183
      00FF2CF2H   LINE      CODE     ---       #184
      00FF2CF5H   LINE      CODE     ---       #185
      00FF2CF7H   LINE      CODE     ---       #186
      00FF2D12H   LINE      CODE     ---       #188
      00FF2D1EH   LINE      CODE     ---       #189
      00FF2D21H   LINE      CODE     ---       #190
      00FF2D23H   LINE      CODE     ---       #191
      00FF2D3EH   LINE      CODE     ---       #193
      00FF2D4AH   LINE      CODE     ---       #194
      00FF2D4DH   LINE      CODE     ---       #195
      00FF2D4FH   LINE      CODE     ---       #196
      00FF2D52H   LINE      CODE     ---       #197
      00FF2D54H   LINE      CODE     ---       #198
      00FF2D57H   LINE      CODE     ---       #199
      00FF2D59H   LINE      CODE     ---       #200
      00FF2D5CH   LINE      CODE     ---       #201
      00FF2D5EH   LINE      CODE     ---       #202
L251 LINKER/LOCATER V4.66.93.0                                                        05/04/2024  13:35:58  PAGE 71


      00FF2D61H   LINE      CODE     ---       #203
      ---         BLOCKEND  ---      ---       LVL=0

      00FF41E6H   BLOCK     CODE     ---       LVL=0
      00FF41E6H   LINE      CODE     ---       #205
      00FF41E6H   LINE      CODE     ---       #208
      00FF41E9H   LINE      CODE     ---       #211
      00FF41F6H   LINE      CODE     ---       #212
      00FF41F9H   LINE      CODE     ---       #213
      00FF41FEH   LINE      CODE     ---       #214
      00FF41FEH   LINE      CODE     ---       #215
      00FF4201H   LINE      CODE     ---       #218
      00FF420EH   LINE      CODE     ---       #219
      00FF4211H   LINE      CODE     ---       #220
      00FF4216H   LINE      CODE     ---       #221
      00FF4216H   LINE      CODE     ---       #222
      00FF4219H   LINE      CODE     ---       #225
      00FF4226H   LINE      CODE     ---       #226
      00FF4229H   LINE      CODE     ---       #227
      00FF422EH   LINE      CODE     ---       #228
      00FF422EH   LINE      CODE     ---       #229
      00FF4231H   LINE      CODE     ---       #232
      00FF423EH   LINE      CODE     ---       #233
      00FF4241H   LINE      CODE     ---       #234
      00FF4246H   LINE      CODE     ---       #235
      00FF4246H   LINE      CODE     ---       #236
      00FF4249H   LINE      CODE     ---       #239
      00FF4256H   LINE      CODE     ---       #240
      00FF4259H   LINE      CODE     ---       #241
      00FF425EH   LINE      CODE     ---       #242
      ---         BLOCKEND  ---      ---       LVL=0

      ---         MODULE    ---      ---       laser_ranging
      00FF4B74H   PUBLIC    CODE     ---       laser_ranging_get_uart_value
      0000026EH   PUBLIC    EDATA    ---       lrcmd_setrange_10m
      00000273H   PUBLIC    EDATA    ---       laser_ranging_cmd_arr_shutdown
      00000277H   PUBLIC    EDATA    ---       lrcmd_setrange_30m
      0000027CH   PUBLIC    EDATA    ---       lrcmd_setrange_50m
      00000281H   PUBLIC    EDATA    ---       laser_ranging_cmd_arr_single
      00000285H   PUBLIC    EDATA    ---       lrcmd_setrange_80m
      0000028AH   PUBLIC    EDATA    ---       lrcmd_readcache
      0000028FH   PUBLIC    EDATA    ---       lrcmd_setresolution_1mm
      00000294H   PUBLIC    EDATA    ---       laser_ranging_cmd_arr_setrange_10m
      00000299H   PUBLIC    EDATA    ---       laser_ranging_cmd_arr_setrange_30m
      0000029EH   PUBLIC    EDATA    ---       laser_ranging_cmd_arr_setrange_50m
      000002A3H   PUBLIC    EDATA    ---       lrcmd_single_broadcast
      000002A8H   PUBLIC    EDATA    ---       laser_ranging_cmd_arr_setrange_80m
      000002ADH   PUBLIC    EDATA    ---       laser_ranging_cmd_arr_readcache
      000002B1H   PUBLIC    EDATA    ---       lrcmd_setfreq_10hz
      000002B6H   PUBLIC    EDATA    ---       laser_ranging_cmd_arr_setresolution_1mm
      000002BBH   PUBLIC    EDATA    ---       lrcmd_setfreq_20hz
      000002C0H   PUBLIC    EDATA    ---       lrcmd_setresolution_0_1mm
      000002C5H   PUBLIC    EDATA    ---       laser_ranging_cmd_arr_single_broadcast
      000002C9H   PUBLIC    EDATA    ---       laser_ranging_cmd_arr_setfreq_10hz
      000002CEH   PUBLIC    EDATA    ---       laser_ranging_cmd_arr_setfreq_20hz
      000002D3H   PUBLIC    EDATA    ---       laser_ranging_cmd_arr_setresolution_0_1mm
      000002D8H   PUBLIC    EDATA    ---       lrcmd_laseroff
      000002DDH   PUBLIC    EDATA    ---       lrcmd_setrange_5m
      000002E2H   PUBLIC    EDATA    ---       laser_ranging_cmd_arr_laseroff
      000002E7H   PUBLIC    EDATA    ---       lrcmd_continous
      000002ECH   PUBLIC    EDATA    ---       laser_ranging_cmd_arr_setrange_5m
      000002F1H   PUBLIC    EDATA    ---       laser_ranging_cmd_arr_continous
      000002F5H   PUBLIC    EDATA    ---       lrcmd_setfreq_5hz
      000002FAH   PUBLIC    EDATA    ---       lrcmd_laseron
      000002FFH   PUBLIC    EDATA    ---       lrcmd_shutdown
L251 LINKER/LOCATER V4.66.93.0                                                        05/04/2024  13:35:58  PAGE 72


      00000304H   PUBLIC    EDATA    ---       laser_ranging_cmd_arr_setfreq_5hz
      00000309H   PUBLIC    EDATA    ---       lrdata
      00000331H   PUBLIC    EDATA    ---       lrcmd_single
      00000336H   PUBLIC    EDATA    ---       laser_ranging_cmd_arr_laseron
      000000D0H   SFRSYM    DATA     BYTE      PSW
      0000009DH   SFRSYM    DATA     BYTE      IRCBAND
      00000097H   SFRSYM    DATA     BYTE      AUXR2
      000000EFH   SFRSYM    DATA     BYTE      AUXINTIF
      000000FDH   SFRSYM    DATA     BYTE      S4CON
      000000ACH   SFRSYM    DATA     BYTE      S3CON
      0000009AH   SFRSYM    DATA     BYTE      S2CON
      000000B7H   SFRSYM    DATA     BYTE      IPH
      000000CDH   SFRSYM    DATA     BYTE      SPSTAT
      000000DDH   SFRSYM    DATA     BYTE      T4T3M
      000000C1H   SFRSYM    DATA     BYTE      WDT_CONTR
      000000DFH   SFRSYM    DATA     BYTE      IP3
      000000F4H   SFRSYM    DATA     BYTE      USBCON
      000000B5H   SFRSYM    DATA     BYTE      IP2
      000000FFH   SFRSYM    DATA     BYTE      RSTCFG
      000000F9H   SFRSYM    DATA     BYTE      LINICR
      0000008EH   SFRSYM    DATA     BYTE      AUXR
      000000AFH   SFRSYM    DATA     BYTE      IE2
      00000088H   SFRSYM    DATA     BYTE      TCON
      00000098H   SFRSYM    DATA     BYTE      SCON
      000000F1H   SFRSYM    DATA     BYTE      CANICR
      00000087H   SFRSYM    DATA     BYTE      PCON
      000000BCH   SFRSYM    DATA     BYTE      ADC_CONTR
      000000E7H   SFRSYM    DATA     BYTE      CMPCR2
      000000E6H   SFRSYM    DATA     BYTE      CMPCR1
      000000B8H   SFRSYM    DATA     BYTE      IP
      0000008FH   SFRSYM    DATA     BYTE      INTCLKO
      000000EEH   SFRSYM    DATA     BYTE      IP3H
      000000B6H   SFRSYM    DATA     BYTE      IP2H
      000000A8H   SFRSYM    DATA     BYTE      IE
      000000BBH   SFRSYM    DATA     BYTE      P_SW3
      000000BAH   SFRSYM    DATA     BYTE      P_SW2
      000000A2H   SFRSYM    DATA     BYTE      P_SW1
      000000CEH   SFRSYM    DATA     BYTE      SPCTL
      000000F8H   SFRSYM    DATA     BYTE      P7
      000000E8H   SFRSYM    DATA     BYTE      P6
      000000C8H   SFRSYM    DATA     BYTE      P5
      000000C0H   SFRSYM    DATA     BYTE      P4
      000000B0H   SFRSYM    DATA     BYTE      P3
      000000A0H   SFRSYM    DATA     BYTE      P2
      00000090H   SFRSYM    DATA     BYTE      P1
      00000080H   SFRSYM    DATA     BYTE      P0
      0000076CH   SYMBOL    EDATA    BYTE      lr_axis
      0000076DH   SYMBOL    EDATA    WORD      i

      00FF4B74H   BLOCK     CODE     ---       LVL=0
      0000079AH   SYMBOL    EDATA    BYTE      lr_axis
      00FF4B74H   LINE      CODE     ---       #133
      00FF4B78H   LINE      CODE     ---       #135
      00FF4B7FH   LINE      CODE     ---       #137
      00FF4B7FH   LINE      CODE     ---       #138
      00FF4B83H   LINE      CODE     ---       #139
      00FF4B83H   LINE      CODE     ---       #141
      00FF4B83H   LINE      CODE     ---       #142
      00FF4B87H   LINE      CODE     ---       #143
      00FF4B87H   LINE      CODE     ---       #145
      00FF4B87H   LINE      CODE     ---       #146
      00FF4B89H   LINE      CODE     ---       #147
      00FF4B89H   LINE      CODE     ---       #148
      00FF4B89H   LINE      CODE     ---       #149
      ---         BLOCKEND  ---      ---       LVL=0
L251 LINKER/LOCATER V4.66.93.0                                                        05/04/2024  13:35:58  PAGE 73


      00000722H   SYMBOL    EDATA    BYTE      lr_axis
      00000723H   SYMBOL    EDATA    ---       specific_cmd

      ---         MODULE    ---      ---       motor_driver_boards
      00FF44FFH   PUBLIC    CODE     ---       wheel_oled_update
      00FF3461H   PUBLIC    CODE     ---       wheel_adjust
      00FF4AB2H   PUBLIC    CODE     ---       wheel_dynamic_adjusting
      00FF4938H   PUBLIC    CODE     ---       wheel_oled_init
      00FF3014H   PUBLIC    CODE     ---       wheel_direction
      00000022H.5 PUBLIC    BIT      BIT       wheel_yaw_calibrating_flag
      000005C4H   PUBLIC    EDATA    FLOAT     wheel_target_yaw
      000005C8H   PUBLIC    EDATA    INT       wheel_x_rear_speed
      000005CAH   PUBLIC    EDATA    INT       wheel_x_front_speed
      000005CCH   PUBLIC    EDATA    INT       wheel_y_rear_speed
      000005CEH   PUBLIC    EDATA    INT       wheel_y_front_speed
      000000D0H   SFRSYM    DATA     BYTE      PSW
      0000009DH   SFRSYM    DATA     BYTE      IRCBAND
      00000097H   SFRSYM    DATA     BYTE      AUXR2
      000000EFH   SFRSYM    DATA     BYTE      AUXINTIF
      00000090H.0 SFRSYM    DATA     BIT       gpio_wheel_y_front_forward
      00000090H.6 SFRSYM    DATA     BIT       gpio_wheel_y_rear_forward
      000000E8H.2 SFRSYM    DATA     BIT       gpio_wheel_x_front_forward
      000000E8H.4 SFRSYM    DATA     BIT       gpio_wheel_x_rear_forward
      000000FDH   SFRSYM    DATA     BYTE      S4CON
      000000ACH   SFRSYM    DATA     BYTE      S3CON
      0000009AH   SFRSYM    DATA     BYTE      S2CON
      000000B7H   SFRSYM    DATA     BYTE      IPH
      000000CDH   SFRSYM    DATA     BYTE      SPSTAT
      000000DDH   SFRSYM    DATA     BYTE      T4T3M
      000000C1H   SFRSYM    DATA     BYTE      WDT_CONTR
      000000DFH   SFRSYM    DATA     BYTE      IP3
      000000F4H   SFRSYM    DATA     BYTE      USBCON
      000000B5H   SFRSYM    DATA     BYTE      IP2
      000000FFH   SFRSYM    DATA     BYTE      RSTCFG
      000000F9H   SFRSYM    DATA     BYTE      LINICR
      0000008EH   SFRSYM    DATA     BYTE      AUXR
      000000AFH   SFRSYM    DATA     BYTE      IE2
      00000090H.1 SFRSYM    DATA     BIT       gpio_wheel_y_front_backward
      00000090H.5 SFRSYM    DATA     BIT       gpio_wheel_y_rear_backward
      00000088H   SFRSYM    DATA     BYTE      TCON
      000000E8H.1 SFRSYM    DATA     BIT       gpio_wheel_x_front_backward
      000000E8H.5 SFRSYM    DATA     BIT       gpio_wheel_x_rear_backward
      00000098H   SFRSYM    DATA     BYTE      SCON
      000000F1H   SFRSYM    DATA     BYTE      CANICR
      00000087H   SFRSYM    DATA     BYTE      PCON
      000000BCH   SFRSYM    DATA     BYTE      ADC_CONTR
      000000E7H   SFRSYM    DATA     BYTE      CMPCR2
      000000E6H   SFRSYM    DATA     BYTE      CMPCR1
      000000B8H   SFRSYM    DATA     BYTE      IP
      0000008FH   SFRSYM    DATA     BYTE      INTCLKO
      000000EEH   SFRSYM    DATA     BYTE      IP3H
      000000B6H   SFRSYM    DATA     BYTE      IP2H
      000000A8H   SFRSYM    DATA     BYTE      IE
      000000BBH   SFRSYM    DATA     BYTE      P_SW3
      000000BAH   SFRSYM    DATA     BYTE      P_SW2
      000000A2H   SFRSYM    DATA     BYTE      P_SW1
      000000CEH   SFRSYM    DATA     BYTE      SPCTL
      000000F8H   SFRSYM    DATA     BYTE      P7
      000000E8H   SFRSYM    DATA     BYTE      P6
      000000C8H   SFRSYM    DATA     BYTE      P5
      000000C0H   SFRSYM    DATA     BYTE      P4
      000000B0H   SFRSYM    DATA     BYTE      P3
      000000A0H   SFRSYM    DATA     BYTE      P2
      00000090H   SFRSYM    DATA     BYTE      P1
      00000080H   SFRSYM    DATA     BYTE      P0
L251 LINKER/LOCATER V4.66.93.0                                                        05/04/2024  13:35:58  PAGE 74



      00FF3014H   BLOCK     CODE     ---       LVL=0
      0000074FH   SYMBOL    EDATA    INT       wheel_select
      00000751H   SYMBOL    EDATA    INT       wheel_direction
      00FF3014H   LINE      CODE     ---       #26
      00FF301CH   LINE      CODE     ---       #28
      00FF304CH   LINE      CODE     ---       #30
      00FF304CH   LINE      CODE     ---       #31
      00FF3056H   LINE      CODE     ---       #33
      00FF3059H   LINE      CODE     ---       #34
      00FF305CH   LINE      CODE     ---       #35
      00FF305FH   LINE      CODE     ---       #36
      00FF306BH   LINE      CODE     ---       #38
      00FF306EH   LINE      CODE     ---       #39
      00FF3071H   LINE      CODE     ---       #40
      00FF3074H   LINE      CODE     ---       #41
      00FF3083H   LINE      CODE     ---       #43
      00FF3086H   LINE      CODE     ---       #44
      00FF3089H   LINE      CODE     ---       #45
      00FF3089H   LINE      CODE     ---       #46
      00FF308CH   LINE      CODE     ---       #47
      00FF308CH   LINE      CODE     ---       #48
      00FF3096H   LINE      CODE     ---       #50
      00FF3099H   LINE      CODE     ---       #51
      00FF309CH   LINE      CODE     ---       #52
      00FF309FH   LINE      CODE     ---       #53
      00FF30ABH   LINE      CODE     ---       #55
      00FF30AEH   LINE      CODE     ---       #56
      00FF30B1H   LINE      CODE     ---       #57
      00FF30B4H   LINE      CODE     ---       #58
      00FF30C3H   LINE      CODE     ---       #60
      00FF30C6H   LINE      CODE     ---       #61
      00FF30C9H   LINE      CODE     ---       #62
      00FF30C9H   LINE      CODE     ---       #63
      00FF30CCH   LINE      CODE     ---       #64
      00FF30CCH   LINE      CODE     ---       #65
      00FF30D6H   LINE      CODE     ---       #67
      00FF30D9H   LINE      CODE     ---       #68
      00FF30DCH   LINE      CODE     ---       #69
      00FF30DFH   LINE      CODE     ---       #70
      00FF30E2H   LINE      CODE     ---       #71
      00FF30E5H   LINE      CODE     ---       #72
      00FF30F1H   LINE      CODE     ---       #74
      00FF30F4H   LINE      CODE     ---       #75
      00FF30F7H   LINE      CODE     ---       #76
      00FF30FAH   LINE      CODE     ---       #77
      00FF30FDH   LINE      CODE     ---       #78
      00FF3100H   LINE      CODE     ---       #79
      00FF310FH   LINE      CODE     ---       #81
      00FF3112H   LINE      CODE     ---       #82
      00FF3115H   LINE      CODE     ---       #83
      00FF3118H   LINE      CODE     ---       #84
      00FF311BH   LINE      CODE     ---       #85
      00FF311BH   LINE      CODE     ---       #86
      00FF311EH   LINE      CODE     ---       #87
      00FF311EH   LINE      CODE     ---       #88
      00FF3128H   LINE      CODE     ---       #90
      00FF312BH   LINE      CODE     ---       #91
      00FF312EH   LINE      CODE     ---       #92
      00FF3131H   LINE      CODE     ---       #93
      00FF313DH   LINE      CODE     ---       #95
      00FF3140H   LINE      CODE     ---       #96
      00FF3143H   LINE      CODE     ---       #97
      00FF3146H   LINE      CODE     ---       #98
      00FF3155H   LINE      CODE     ---       #100
L251 LINKER/LOCATER V4.66.93.0                                                        05/04/2024  13:35:58  PAGE 75


      00FF3158H   LINE      CODE     ---       #101
      00FF315BH   LINE      CODE     ---       #102
      00FF315BH   LINE      CODE     ---       #103
      00FF315EH   LINE      CODE     ---       #104
      00FF315EH   LINE      CODE     ---       #105
      00FF3168H   LINE      CODE     ---       #107
      00FF316BH   LINE      CODE     ---       #108
      00FF316EH   LINE      CODE     ---       #109
      00FF3171H   LINE      CODE     ---       #110
      00FF317DH   LINE      CODE     ---       #112
      00FF3180H   LINE      CODE     ---       #113
      00FF3183H   LINE      CODE     ---       #114
      00FF3186H   LINE      CODE     ---       #115
      00FF3195H   LINE      CODE     ---       #117
      00FF3198H   LINE      CODE     ---       #118
      00FF319BH   LINE      CODE     ---       #119
      00FF319BH   LINE      CODE     ---       #120
      00FF319EH   LINE      CODE     ---       #121
      00FF319EH   LINE      CODE     ---       #122
      00FF31A8H   LINE      CODE     ---       #124
      00FF31ABH   LINE      CODE     ---       #125
      00FF31AEH   LINE      CODE     ---       #126
      00FF31B1H   LINE      CODE     ---       #127
      00FF31B4H   LINE      CODE     ---       #128
      00FF31B7H   LINE      CODE     ---       #129
      00FF31C3H   LINE      CODE     ---       #131
      00FF31C6H   LINE      CODE     ---       #132
      00FF31C9H   LINE      CODE     ---       #133
      00FF31CCH   LINE      CODE     ---       #134
      00FF31CFH   LINE      CODE     ---       #135
      00FF31D2H   LINE      CODE     ---       #136
      00FF31DEH   LINE      CODE     ---       #138
      00FF31E1H   LINE      CODE     ---       #139
      00FF31E4H   LINE      CODE     ---       #140
      00FF31E7H   LINE      CODE     ---       #141
      00FF31EAH   LINE      CODE     ---       #142
      00FF31EAH   LINE      CODE     ---       #143
      00FF31ECH   LINE      CODE     ---       #144
      00FF31ECH   LINE      CODE     ---       #145
      00FF31F6H   LINE      CODE     ---       #147
      00FF31F9H   LINE      CODE     ---       #148
      00FF31FCH   LINE      CODE     ---       #149
      00FF31FFH   LINE      CODE     ---       #150
      00FF3202H   LINE      CODE     ---       #151
      00FF3205H   LINE      CODE     ---       #152
      00FF3208H   LINE      CODE     ---       #153
      00FF320BH   LINE      CODE     ---       #154
      00FF320EH   LINE      CODE     ---       #155
      00FF3210H   LINE      CODE     ---       #156
      00FF321CH   LINE      CODE     ---       #158
      00FF321FH   LINE      CODE     ---       #159
      00FF3222H   LINE      CODE     ---       #160
      00FF3225H   LINE      CODE     ---       #161
      00FF3228H   LINE      CODE     ---       #162
      00FF322BH   LINE      CODE     ---       #163
      00FF322EH   LINE      CODE     ---       #164
      00FF3231H   LINE      CODE     ---       #165
      00FF3234H   LINE      CODE     ---       #166
      00FF3236H   LINE      CODE     ---       #167
      00FF3242H   LINE      CODE     ---       #169
      00FF3245H   LINE      CODE     ---       #170
      00FF3248H   LINE      CODE     ---       #171
      00FF324BH   LINE      CODE     ---       #172
      00FF324EH   LINE      CODE     ---       #173
      00FF3251H   LINE      CODE     ---       #174
L251 LINKER/LOCATER V4.66.93.0                                                        05/04/2024  13:35:58  PAGE 76


      00FF3254H   LINE      CODE     ---       #175
      00FF3257H   LINE      CODE     ---       #176
      00FF325AH   LINE      CODE     ---       #177
      00FF325AH   LINE      CODE     ---       #178
      00FF325AH   LINE      CODE     ---       #179
      00FF325AH   LINE      CODE     ---       #180
      00FF325AH   LINE      CODE     ---       #181
      00FF325AH   LINE      CODE     ---       #182
      ---         BLOCKEND  ---      ---       LVL=0

      00FF3461H   BLOCK     CODE     ---       LVL=0
      000006E3H   SYMBOL    EDATA    INT       wheel_select
      000006E5H   SYMBOL    EDATA    INT       speed
      00FF3469H   BLOCK     CODE     NEAR LAB  LVL=1
      000006E7H   SYMBOL    EDATA    WORD      pwm_duty_value
      ---         BLOCKEND  ---      ---       LVL=1
      00FF3461H   LINE      CODE     ---       #193
      00FF3469H   LINE      CODE     ---       #194
      00FF3469H   LINE      CODE     ---       #198
      00FF347EH   LINE      CODE     ---       #199
      00FF3495H   LINE      CODE     ---       #200
      00FF34A0H   LINE      CODE     ---       #203
      00FF34B4H   LINE      CODE     ---       #204
      00FF34C2H   LINE      CODE     ---       #207
      00FF34D8H   LINE      CODE     ---       #208
      00FF34ECH   LINE      CODE     ---       #210
      00FF3514H   LINE      CODE     ---       #212
      00FF3514H   LINE      CODE     ---       #213
      00FF3521H   LINE      CODE     ---       #214
      00FF3524H   LINE      CODE     ---       #216
      00FF3524H   LINE      CODE     ---       #217
      00FF3531H   LINE      CODE     ---       #218
      00FF3534H   LINE      CODE     ---       #220
      00FF3534H   LINE      CODE     ---       #221
      00FF3541H   LINE      CODE     ---       #222
      00FF354EH   LINE      CODE     ---       #223
      00FF3550H   LINE      CODE     ---       #225
      00FF3550H   LINE      CODE     ---       #226
      00FF355DH   LINE      CODE     ---       #227
      00FF355FH   LINE      CODE     ---       #229
      00FF355FH   LINE      CODE     ---       #230
      00FF356CH   LINE      CODE     ---       #231
      00FF356EH   LINE      CODE     ---       #233
      00FF356EH   LINE      CODE     ---       #234
      00FF357BH   LINE      CODE     ---       #235
      00FF3588H   LINE      CODE     ---       #236
      00FF358AH   LINE      CODE     ---       #238
      00FF358AH   LINE      CODE     ---       #239
      00FF3597H   LINE      CODE     ---       #240
      00FF35A4H   LINE      CODE     ---       #241
      00FF35B1H   LINE      CODE     ---       #242
      00FF35BEH   LINE      CODE     ---       #243
      00FF35BEH   LINE      CODE     ---       #245
      00FF35BEH   LINE      CODE     ---       #246
      00FF35BEH   LINE      CODE     ---       #247
      00FF35BEH   LINE      CODE     ---       #248
      ---         BLOCKEND  ---      ---       LVL=0
      000006E9H   SYMBOL    EDATA    INT       wheel_select
      000006EBH   SYMBOL    EDATA    WORD      speed
      000006EDH   SYMBOL    EDATA    WORD      pwm_duty_value

      00FF4AB2H   BLOCK     CODE     ---       LVL=0
      00FF4AB2H   LINE      CODE     ---       #304
      00FF4AB2H   LINE      CODE     ---       #306
      00FF4ABBH   LINE      CODE     ---       #307
L251 LINKER/LOCATER V4.66.93.0                                                        05/04/2024  13:35:58  PAGE 77


      00FF4AC6H   LINE      CODE     ---       #308
      00FF4AD1H   LINE      CODE     ---       #309
      00FF4ADCH   LINE      CODE     ---       #310
      ---         BLOCKEND  ---      ---       LVL=0

      00FF4938H   BLOCK     CODE     ---       LVL=0
      00FF4938H   LINE      CODE     ---       #317
      00FF4938H   LINE      CODE     ---       #319
      00FF4947H   LINE      CODE     ---       #320
      00FF4957H   LINE      CODE     ---       #321
      00FF4966H   LINE      CODE     ---       #322
      00FF4976H   LINE      CODE     ---       #323
      ---         BLOCKEND  ---      ---       LVL=0

      00FF44FFH   BLOCK     CODE     ---       LVL=0
      00FF44FFH   LINE      CODE     ---       #325
      00FF44FFH   LINE      CODE     ---       #327
      00FF4514H   LINE      CODE     ---       #328
      00FF4529H   LINE      CODE     ---       #329
      00FF453EH   LINE      CODE     ---       #330
      00FF4553H   LINE      CODE     ---       #331
      ---         BLOCKEND  ---      ---       LVL=0

      ---         MODULE    ---      ---       qmc5883
      0000015EH   PUBLIC    EDATA    ---       qmccmd_set_uart_baudrate_115200
      00000168H   PUBLIC    EDATA    ---       qmccmd_set_uart_baudrate_460800
      00000172H   PUBLIC    EDATA    ---       qmccmd_set_measure_rate
      0000017CH   PUBLIC    EDATA    ---       qmccmd_init_sensor
      00000184H   PUBLIC    EDATA    ---       qmccmd_set_filter_value
      0000018DH   PUBLIC    EDATA    ---       qmccmd_stop_calibration
      00000197H   PUBLIC    EDATA    ---       qmc5883_data
      000001D7H   PUBLIC    EDATA    ---       qmccmd_disable_filter
      000001E1H   PUBLIC    EDATA    ---       qmccmd_get_device_id
      000001E9H   PUBLIC    EDATA    ---       qmccmd_set_uart_baudrate_9600
      000001F3H   PUBLIC    EDATA    ---       qmccmd_set_device_id
      000001FAH   PUBLIC    EDATA    INT       qmc5883_magx
      000001FCH   PUBLIC    EDATA    ---       qmc5883_char_magx
      00000206H   PUBLIC    EDATA    INT       qmc5883_magy
      00000208H   PUBLIC    EDATA    ---       qmc5883_char_magy
      00000212H   PUBLIC    EDATA    INT       qmc5883_magz
      00000214H   PUBLIC    EDATA    ---       qmc5883_char_magz
      0000021EH   PUBLIC    EDATA    FLOAT     qmc5883_yaw
      00000222H   PUBLIC    EDATA    ---       qmc5883_char_yaw
      0000022CH   PUBLIC    EDATA    ---       qmc5883_cmd_buf
      0000024CH   PUBLIC    EDATA    ---       qmccmd_clear_mag_offset
      00000256H   PUBLIC    EDATA    ---       qmccmd_set_single_measure_mode
      00000261H   PUBLIC    EDATA    ---       qmccmd_check_connection
      00000264H   PUBLIC    EDATA    ---       qmccmd_start_calibration
      000000D0H   SFRSYM    DATA     BYTE      PSW
      0000009DH   SFRSYM    DATA     BYTE      IRCBAND
      00000097H   SFRSYM    DATA     BYTE      AUXR2
      000000EFH   SFRSYM    DATA     BYTE      AUXINTIF
      000000FDH   SFRSYM    DATA     BYTE      S4CON
      000000ACH   SFRSYM    DATA     BYTE      S3CON
      0000009AH   SFRSYM    DATA     BYTE      S2CON
      000000B7H   SFRSYM    DATA     BYTE      IPH
      000000CDH   SFRSYM    DATA     BYTE      SPSTAT
      000000DDH   SFRSYM    DATA     BYTE      T4T3M
      000000C1H   SFRSYM    DATA     BYTE      WDT_CONTR
      000000DFH   SFRSYM    DATA     BYTE      IP3
      000000F4H   SFRSYM    DATA     BYTE      USBCON
      000000B5H   SFRSYM    DATA     BYTE      IP2
      000000FFH   SFRSYM    DATA     BYTE      RSTCFG
      000000F9H   SFRSYM    DATA     BYTE      LINICR
      0000008EH   SFRSYM    DATA     BYTE      AUXR
L251 LINKER/LOCATER V4.66.93.0                                                        05/04/2024  13:35:58  PAGE 78


      000000AFH   SFRSYM    DATA     BYTE      IE2
      00000088H   SFRSYM    DATA     BYTE      TCON
      00000098H   SFRSYM    DATA     BYTE      SCON
      000000F1H   SFRSYM    DATA     BYTE      CANICR
      00000087H   SFRSYM    DATA     BYTE      PCON
      000000BCH   SFRSYM    DATA     BYTE      ADC_CONTR
      000000E7H   SFRSYM    DATA     BYTE      CMPCR2
      000000E6H   SFRSYM    DATA     BYTE      CMPCR1
      000000B8H   SFRSYM    DATA     BYTE      IP
      0000008FH   SFRSYM    DATA     BYTE      INTCLKO
      000000EEH   SFRSYM    DATA     BYTE      IP3H
      000000B6H   SFRSYM    DATA     BYTE      IP2H
      000000A8H   SFRSYM    DATA     BYTE      IE
      000000BBH   SFRSYM    DATA     BYTE      P_SW3
      000000BAH   SFRSYM    DATA     BYTE      P_SW2
      000000A2H   SFRSYM    DATA     BYTE      P_SW1
      000000CEH   SFRSYM    DATA     BYTE      SPCTL
      000000F8H   SFRSYM    DATA     BYTE      P7
      000000E8H   SFRSYM    DATA     BYTE      P6
      000000C8H   SFRSYM    DATA     BYTE      P5
      000000C0H   SFRSYM    DATA     BYTE      P4
      000000B0H   SFRSYM    DATA     BYTE      P3
      000000A0H   SFRSYM    DATA     BYTE      P2
      00000090H   SFRSYM    DATA     BYTE      P1
      00000080H   SFRSYM    DATA     BYTE      P0
      0000062EH   SYMBOL    EDATA    ---       str
      00000632H   SYMBOL    EDATA    INT       result
      00000634H   SYMBOL    EDATA    INT       sign
      00000636H   SYMBOL    EDATA    INT       i
      000004C2H   SYMBOL    EDATA    ---       str
      000004C6H   SYMBOL    EDATA    FLOAT     integerPart
      000004CAH   SYMBOL    EDATA    FLOAT     decimalPart
      000004CEH   SYMBOL    EDATA    FLOAT     decimalPlace
      000004D2H   SYMBOL    EDATA    INT       sign
      000004D4H   SYMBOL    EDATA    INT       i
      000004D6H   SYMBOL    EDATA    INT       state
      00000638H   SYMBOL    EDATA    ---       dat
      0000063CH   SYMBOL    EDATA    INT       i
      0000063EH   SYMBOL    EDATA    INT       j
      00000640H   SYMBOL    EDATA    CHAR      counter

      ---         MODULE    ---      ---       servo
      00FF4451H   PUBLIC    CODE     ---       servo_claw_get_duty
      00FF4B29H   PUBLIC    CODE     ---       servo_pitch_set_angle
      00FF4977H   PUBLIC    CODE     ---       servo_init
      00FF4B42H   PUBLIC    CODE     ---       servo_claw_set_angle
      00FF4B5BH   PUBLIC    CODE     ---       servo_pan_set_angle
      00FF44A8H   PUBLIC    CODE     ---       servo_pitch_get_duty
      000000D0H   SFRSYM    DATA     BYTE      PSW
      0000009DH   SFRSYM    DATA     BYTE      IRCBAND
      00000097H   SFRSYM    DATA     BYTE      AUXR2
      000000EFH   SFRSYM    DATA     BYTE      AUXINTIF
      000000FDH   SFRSYM    DATA     BYTE      S4CON
      000000ACH   SFRSYM    DATA     BYTE      S3CON
      0000009AH   SFRSYM    DATA     BYTE      S2CON
      000000B7H   SFRSYM    DATA     BYTE      IPH
      000000CDH   SFRSYM    DATA     BYTE      SPSTAT
      000000DDH   SFRSYM    DATA     BYTE      T4T3M
      000000C1H   SFRSYM    DATA     BYTE      WDT_CONTR
      000000DFH   SFRSYM    DATA     BYTE      IP3
      000000F4H   SFRSYM    DATA     BYTE      USBCON
      000000B5H   SFRSYM    DATA     BYTE      IP2
      000000FFH   SFRSYM    DATA     BYTE      RSTCFG
      000000F9H   SFRSYM    DATA     BYTE      LINICR
      0000008EH   SFRSYM    DATA     BYTE      AUXR
L251 LINKER/LOCATER V4.66.93.0                                                        05/04/2024  13:35:58  PAGE 79


      000000AFH   SFRSYM    DATA     BYTE      IE2
      00000088H   SFRSYM    DATA     BYTE      TCON
      00000098H   SFRSYM    DATA     BYTE      SCON
      000000F1H   SFRSYM    DATA     BYTE      CANICR
      00000087H   SFRSYM    DATA     BYTE      PCON
      000000BCH   SFRSYM    DATA     BYTE      ADC_CONTR
      000000E7H   SFRSYM    DATA     BYTE      CMPCR2
      000000E6H   SFRSYM    DATA     BYTE      CMPCR1
      000000B8H   SFRSYM    DATA     BYTE      IP
      0000008FH   SFRSYM    DATA     BYTE      INTCLKO
      000000EEH   SFRSYM    DATA     BYTE      IP3H
      000000B6H   SFRSYM    DATA     BYTE      IP2H
      000000A8H   SFRSYM    DATA     BYTE      IE
      000000BBH   SFRSYM    DATA     BYTE      P_SW3
      000000BAH   SFRSYM    DATA     BYTE      P_SW2
      000000A2H   SFRSYM    DATA     BYTE      P_SW1
      000000CEH   SFRSYM    DATA     BYTE      SPCTL
      000000F8H   SFRSYM    DATA     BYTE      P7
      000000E8H   SFRSYM    DATA     BYTE      P6
      000000C8H   SFRSYM    DATA     BYTE      P5
      000000C0H   SFRSYM    DATA     BYTE      P4
      000000B0H   SFRSYM    DATA     BYTE      P3
      000000A0H   SFRSYM    DATA     BYTE      P2
      00000090H   SFRSYM    DATA     BYTE      P1
      00000080H   SFRSYM    DATA     BYTE      P0

      00FF4451H   BLOCK     CODE     ---       LVL=0
      000006EFH   SYMBOL    EDATA    FLOAT     angle
      00FF4455H   BLOCK     CODE     NEAR LAB  LVL=1
      000006F3H   SYMBOL    EDATA    WORD      duty
      ---         BLOCKEND  ---      ---       LVL=1
      00FF4451H   LINE      CODE     ---       #19
      00FF4455H   LINE      CODE     ---       #20
      00FF4455H   LINE      CODE     ---       #23
      00FF4468H   LINE      CODE     ---       #24
      00FF4481H   LINE      CODE     ---       #25
      00FF44A7H   LINE      CODE     ---       #26
      00FF44A7H   LINE      CODE     ---       #27
      ---         BLOCKEND  ---      ---       LVL=0

      00FF44A8H   BLOCK     CODE     ---       LVL=0
      000006F5H   SYMBOL    EDATA    FLOAT     angle
      00FF44ACH   BLOCK     CODE     NEAR LAB  LVL=1
      000006F9H   SYMBOL    EDATA    WORD      duty
      ---         BLOCKEND  ---      ---       LVL=1
      00FF44A8H   LINE      CODE     ---       #37
      00FF44ACH   LINE      CODE     ---       #38
      00FF44ACH   LINE      CODE     ---       #41
      00FF44BFH   LINE      CODE     ---       #42
      00FF44D8H   LINE      CODE     ---       #43
      00FF44FEH   LINE      CODE     ---       #44
      00FF44FEH   LINE      CODE     ---       #45
      ---         BLOCKEND  ---      ---       LVL=0
      000006FBH   SYMBOL    EDATA    FLOAT     angle
      000006FFH   SYMBOL    EDATA    WORD      duty

      00FF4977H   BLOCK     CODE     ---       LVL=0
      00FF4977H   LINE      CODE     ---       #65
      00FF4977H   LINE      CODE     ---       #67
      00FF498AH   LINE      CODE     ---       #68
      00FF499DH   LINE      CODE     ---       #69
      00FF49B0H   LINE      CODE     ---       #70
      ---         BLOCKEND  ---      ---       LVL=0

      00FF4B42H   BLOCK     CODE     ---       LVL=0
L251 LINKER/LOCATER V4.66.93.0                                                        05/04/2024  13:35:58  PAGE 80


      00000701H   SYMBOL    EDATA    FLOAT     angle
      00FF4B46H   BLOCK     CODE     NEAR LAB  LVL=1
      00000705H   SYMBOL    EDATA    WORD      duty
      ---         BLOCKEND  ---      ---       LVL=1
      00FF4B42H   LINE      CODE     ---       #72
      00FF4B46H   LINE      CODE     ---       #73
      00FF4B46H   LINE      CODE     ---       #74
      00FF4B4DH   LINE      CODE     ---       #75
      00FF4B5AH   LINE      CODE     ---       #76
      ---         BLOCKEND  ---      ---       LVL=0

      00FF4B29H   BLOCK     CODE     ---       LVL=0
      00000707H   SYMBOL    EDATA    FLOAT     angle
      00FF4B2DH   BLOCK     CODE     NEAR LAB  LVL=1
      0000070BH   SYMBOL    EDATA    WORD      duty
      ---         BLOCKEND  ---      ---       LVL=1
      00FF4B29H   LINE      CODE     ---       #78
      00FF4B2DH   LINE      CODE     ---       #79
      00FF4B2DH   LINE      CODE     ---       #80
      00FF4B34H   LINE      CODE     ---       #81
      00FF4B41H   LINE      CODE     ---       #82
      ---         BLOCKEND  ---      ---       LVL=0

      00FF4B5BH   BLOCK     CODE     ---       LVL=0
      0000070DH   SYMBOL    EDATA    FLOAT     angle
      00FF4B5FH   BLOCK     CODE     NEAR LAB  LVL=1
      00000711H   SYMBOL    EDATA    WORD      duty
      ---         BLOCKEND  ---      ---       LVL=1
      00FF4B5BH   LINE      CODE     ---       #84
      00FF4B5FH   LINE      CODE     ---       #85
      00FF4B5FH   LINE      CODE     ---       #86
      00FF4B66H   LINE      CODE     ---       #87
      00FF4B73H   LINE      CODE     ---       #88
      ---         BLOCKEND  ---      ---       LVL=0

      ---         MODULE    ---      ---       stepper
      00FF4BB4H   PUBLIC    CODE     ---       stepper_init
      000000D0H   SFRSYM    DATA     BYTE      PSW
      0000009DH   SFRSYM    DATA     BYTE      IRCBAND
      00000097H   SFRSYM    DATA     BYTE      AUXR2
      000000EFH   SFRSYM    DATA     BYTE      AUXINTIF
      000000FDH   SFRSYM    DATA     BYTE      S4CON
      000000ACH   SFRSYM    DATA     BYTE      S3CON
      0000009AH   SFRSYM    DATA     BYTE      S2CON
      000000B7H   SFRSYM    DATA     BYTE      IPH
      000000CDH   SFRSYM    DATA     BYTE      SPSTAT
      000000DDH   SFRSYM    DATA     BYTE      T4T3M
      000000C1H   SFRSYM    DATA     BYTE      WDT_CONTR
      000000DFH   SFRSYM    DATA     BYTE      IP3
      000000F4H   SFRSYM    DATA     BYTE      USBCON
      000000B5H   SFRSYM    DATA     BYTE      IP2
      000000FFH   SFRSYM    DATA     BYTE      RSTCFG
      000000F9H   SFRSYM    DATA     BYTE      LINICR
      0000008EH   SFRSYM    DATA     BYTE      AUXR
      000000AFH   SFRSYM    DATA     BYTE      IE2
      00000080H.5 SFRSYM    DATA     BIT       stepper_en
      00000088H   SFRSYM    DATA     BYTE      TCON
      00000098H   SFRSYM    DATA     BYTE      SCON
      000000F1H   SFRSYM    DATA     BYTE      CANICR
      00000087H   SFRSYM    DATA     BYTE      PCON
      000000BCH   SFRSYM    DATA     BYTE      ADC_CONTR
      000000E7H   SFRSYM    DATA     BYTE      CMPCR2
      000000E6H   SFRSYM    DATA     BYTE      CMPCR1
      000000B8H   SFRSYM    DATA     BYTE      IP
      0000008FH   SFRSYM    DATA     BYTE      INTCLKO
L251 LINKER/LOCATER V4.66.93.0                                                        05/04/2024  13:35:58  PAGE 81


      000000EEH   SFRSYM    DATA     BYTE      IP3H
      000000B6H   SFRSYM    DATA     BYTE      IP2H
      000000A8H   SFRSYM    DATA     BYTE      IE
      000000BBH   SFRSYM    DATA     BYTE      P_SW3
      000000BAH   SFRSYM    DATA     BYTE      P_SW2
      000000A2H   SFRSYM    DATA     BYTE      P_SW1
      000000CEH   SFRSYM    DATA     BYTE      SPCTL
      000000F8H   SFRSYM    DATA     BYTE      P7
      000000E8H   SFRSYM    DATA     BYTE      P6
      000000C8H   SFRSYM    DATA     BYTE      P5
      000000C0H   SFRSYM    DATA     BYTE      P4
      000000B0H   SFRSYM    DATA     BYTE      P3
      000000A0H   SFRSYM    DATA     BYTE      P2
      00000090H   SFRSYM    DATA     BYTE      P1
      00000080H   SFRSYM    DATA     BYTE      P0

      00FF4BB4H   BLOCK     CODE     ---       LVL=0
      00FF4BB4H   LINE      CODE     ---       #7
      00FF4BB4H   LINE      CODE     ---       #9
      00FF4BB7H   LINE      CODE     ---       #10
      00FF4BC8H   LINE      CODE     ---       #11
      ---         BLOCKEND  ---      ---       LVL=0

      ---         MODULE    ---      ---       wt61
      0000039AH   PUBLIC    EDATA    ---       wt61_cmd_calibrate_acc
      0000039DH   PUBLIC    EDATA    FLOAT     acc_x
      000003A1H   PUBLIC    EDATA    FLOAT     acc_y
      000003A5H   PUBLIC    EDATA    FLOAT     acc_z
      000003A9H   PUBLIC    EDATA    FLOAT     x_roll
      000003ADH   PUBLIC    EDATA    ---       wt61_cmd_set_band_10Hz
      000003B0H   PUBLIC    EDATA    ---       wt61_cmd_set_band_20Hz
      000003B3H   PUBLIC    EDATA    ---       wt61_cmd_set_band_42Hz
      000003B6H   PUBLIC    EDATA    FLOAT     gyro_x
      000003BAH   PUBLIC    EDATA    FLOAT     gyro_y
      000003BEH   PUBLIC    EDATA    FLOAT     gyro_z
      000003C2H   PUBLIC    EDATA    ---       wt61_cmd_set_band_98Hz
      000003C5H   PUBLIC    EDATA    FLOAT     z_yaw
      000003C9H   PUBLIC    EDATA    ---       wt61_cmd_set_axis_z_zero
      000003CCH   PUBLIC    EDATA    FLOAT     temperature
      000003D0H   PUBLIC    EDATA    ---       wt61_cmd_set_iic_mode
      000003D3H   PUBLIC    EDATA    ---       wt61_cmd_set_uart_mode
      000003D6H   PUBLIC    EDATA    ---       wt61_cmd_set_uart_115200
      000003D9H   PUBLIC    EDATA    ---       wt61_cmd_set_horizontal
      000003DCH   PUBLIC    EDATA    ---       wt61_cmd_set_band_265Hz
      000003DFH   PUBLIC    EDATA    ---       wt61_cmd_set_band_188Hz
      000003E2H   PUBLIC    EDATA    ---       wt61_cmd_set_vertical
      000003E5H   PUBLIC    EDATA    ---       wt61_cmd_set_uart_9600
      000003E8H   PUBLIC    EDATA    ---       wt61_cmd_set_band_5Hz
      000003EBH   PUBLIC    EDATA    ---       wt61_cmd_switch_power
      000003EEH   PUBLIC    EDATA    FLOAT     y_pitch
      00000022H.6 PUBLIC    BIT      BIT       wt61_oled_disp_flag
      000000D0H   SFRSYM    DATA     BYTE      PSW
      0000009DH   SFRSYM    DATA     BYTE      IRCBAND
      00000097H   SFRSYM    DATA     BYTE      AUXR2
      000000EFH   SFRSYM    DATA     BYTE      AUXINTIF
      000000FDH   SFRSYM    DATA     BYTE      S4CON
      000000ACH   SFRSYM    DATA     BYTE      S3CON
      0000009AH   SFRSYM    DATA     BYTE      S2CON
      000000B7H   SFRSYM    DATA     BYTE      IPH
      000000CDH   SFRSYM    DATA     BYTE      SPSTAT
      000000DDH   SFRSYM    DATA     BYTE      T4T3M
      000000C1H   SFRSYM    DATA     BYTE      WDT_CONTR
      000000DFH   SFRSYM    DATA     BYTE      IP3
      000000F4H   SFRSYM    DATA     BYTE      USBCON
      000000B5H   SFRSYM    DATA     BYTE      IP2
L251 LINKER/LOCATER V4.66.93.0                                                        05/04/2024  13:35:58  PAGE 82


      000000FFH   SFRSYM    DATA     BYTE      RSTCFG
      000000F9H   SFRSYM    DATA     BYTE      LINICR
      0000008EH   SFRSYM    DATA     BYTE      AUXR
      000000AFH   SFRSYM    DATA     BYTE      IE2
      00000088H   SFRSYM    DATA     BYTE      TCON
      00000098H   SFRSYM    DATA     BYTE      SCON
      000000F1H   SFRSYM    DATA     BYTE      CANICR
      00000087H   SFRSYM    DATA     BYTE      PCON
      000000BCH   SFRSYM    DATA     BYTE      ADC_CONTR
      000000E7H   SFRSYM    DATA     BYTE      CMPCR2
      000000E6H   SFRSYM    DATA     BYTE      CMPCR1
      000000B8H   SFRSYM    DATA     BYTE      IP
      0000008FH   SFRSYM    DATA     BYTE      INTCLKO
      000000EEH   SFRSYM    DATA     BYTE      IP3H
      000000B6H   SFRSYM    DATA     BYTE      IP2H
      000000A8H   SFRSYM    DATA     BYTE      IE
      000000BBH   SFRSYM    DATA     BYTE      P_SW3
      000000BAH   SFRSYM    DATA     BYTE      P_SW2
      000000A2H   SFRSYM    DATA     BYTE      P_SW1
      000000CEH   SFRSYM    DATA     BYTE      SPCTL
      000000F8H   SFRSYM    DATA     BYTE      P7
      000000E8H   SFRSYM    DATA     BYTE      P6
      000000C8H   SFRSYM    DATA     BYTE      P5
      000000C0H   SFRSYM    DATA     BYTE      P4
      000000B0H   SFRSYM    DATA     BYTE      P3
      000000A0H   SFRSYM    DATA     BYTE      P2
      00000090H   SFRSYM    DATA     BYTE      P1
      00000080H   SFRSYM    DATA     BYTE      P0
      00000753H   SYMBOL    EDATA    ---       buf

      ---         MODULE    ---      ---       ?C?FPADD
      00FF1E12H   PUBLIC    CODE     ---       ?C?FPADD
      00FF1E0FH   PUBLIC    CODE     ---       ?C?FPSUB

      ---         MODULE    ---      ---       ?C?FPMUL
      00FF1ECAH   PUBLIC    CODE     ---       ?C?FPMUL

      ---         MODULE    ---      ---       ?C?FPDIV
      00FF1F6AH   PUBLIC    CODE     ---       ?C?FPDIV

      ---         MODULE    ---      ---       ?C?FPCMP
      00FF1FEDH   PUBLIC    CODE     ---       ?C?FPCMP
      00FF1FEBH   PUBLIC    CODE     ---       ?C?FPCMP3

      ---         MODULE    ---      ---       ?C?FCAST
      00FF203BH   PUBLIC    CODE     NEAR LAB  ?C?FCASTC
      00FF2036H   PUBLIC    CODE     NEAR LAB  ?C?FCASTI
      00FF2031H   PUBLIC    CODE     NEAR LAB  ?C?FCASTL

      ---         MODULE    ---      ---       ?C?CASTF
      00FF206EH   PUBLIC    CODE     NEAR LAB  ?C?CASTF

      ---         MODULE    ---      ---       ATOF?_
      00FF20ABH   PUBLIC    CODE     NEAR LAB  ATOF?_

      ---         MODULE    ---      ---       ?C?FPGETOPN
      00FF20CAH   PUBLIC    CODE     ---       ?C?FPGETOPN2
      00FF2107H   PUBLIC    CODE     ---       ?C?FPNANRESULT
      00FF210FH   PUBLIC    CODE     ---       ?C?FPOVERFLOW
      00FF20E3H   PUBLIC    CODE     ---       ?C?FPRESULT
      00FF20F9H   PUBLIC    CODE     ---       ?C?FPRESULT2
      00FF210CH   PUBLIC    CODE     ---       ?C?FPUNDERFLOW

      ---         MODULE    ---      ---       ?C?ATOF
      00FF211BH   PUBLIC    CODE     NEAR LAB  ?C?FPATOF
L251 LINKER/LOCATER V4.66.93.0                                                        05/04/2024  13:35:58  PAGE 83



      ---         MODULE    ---      ---       ?C?FPNEG
      00FF21D7H   PUBLIC    CODE     ---       ?C?FPNEG

      ---         MODULE    ---      ---       ?C?FTNPWR
      00FF2215H   PUBLIC    CODE     ---       ?C?FTNPWR

      ---         MODULE    ---      ---       ?C_START
      00FF0000H   PUBLIC    CODE     ---       ?C?STARTUP
      00FF0000H   PUBLIC    CODE     ---       ?C_STARTUP

      ---         MODULE    ---      ---       ?C?INITEDATA
      00FF470FH   PUBLIC    CODE     ---       ?C?INITEDATA

      ---         MODULE    ---      ---       ?C?LIMUL
      00FF224CH   PUBLIC    CODE     ---       ?C?LIMUL

      ---         MODULE    ---      ---       ?C?ULDIV
      00FF2257H   PUBLIC    CODE     NEAR LAB  ?C?ULDIV
      00FF2255H   PUBLIC    CODE     NEAR LAB  ?C?ULIDIV

      ---         MODULE    ---      ---       ?C?SLDIV
      00FF22A8H   PUBLIC    CODE     NEAR LAB  ?C?SLDIV

      ---         MODULE    ---      ---       ISSPACE

      ---         MODULE    ---      ---       memcpy
      00FF4B04H   PUBLIC    CODE     ---       memcpy?_

      ---         MODULE    ---      ---       memset
      00FF0026H   PUBLIC    CODE     ---       memset?_

      ---         MODULE    ---      ---       ?C?INITEDATA_END
      00FF4EA2H   PUBLIC    HCONST   WORD      ?C?INITEDATA_END

Program Size: data=10.7 edata+hdata=2192 xdata=294 const=965 code=19444
L251 RUN COMPLETE.  0 WARNING(S),  0 ERROR(S)
