L251 LINKER/LOCATER V4.66.93.0                                                          04/10/2024  20:12:08  PAGE 1


L251 LINKER/LOCATER V4.66.93.0, INVOKED BY:
C:\KEIL_V5\C251\BIN\L251.EXE .\Out_File\board.obj, .\Out_File\common.obj, .\Out_File\zf_adc.obj, .\Out_File\zf_delay.obj
>> , .\Out_File\zf_eeprom.obj, .\Out_File\zf_exti.obj, .\Out_File\zf_gpio.obj, .\Out_File\zf_nvic.obj, .\Out_File\zf_pwm
>> .obj, .\Out_File\zf_spi.obj, .\Out_File\zf_tim.obj, .\Out_File\zf_uart.obj, .\Out_File\zf_fifo.obj, .\Out_File\zf_iic
>> .obj, .\Out_File\SEEKFREE_18TFT.obj, .\Out_File\SEEKFREE_BLUETOOTH_CH9141.obj, Libraries\seekfree_peripheral\SEEKFREE
>> _CONFIG.LIB, .\Out_File\SEEKFREE_DL1A.obj, .\Out_File\SEEKFREE_DL1B.obj, .\Out_File\SEEKFREE_FONT.obj, .\Out_File\SEE
>> KFREE_ICM20602.obj, .\Out_File\SEEKFREE_IMU660RA.obj, .\Out_File\SEEKFREE_IMU963RA.obj, .\Out_File\SEEKFREE_IPS114_SP
>> I.obj, .\Out_File\SEEKFREE_MPU6050.obj, .\Out_File\SEEKFREE_OLED.obj, .\Out_File\SEEKFREE_PRINTF.obj, .\Out_File\SEEK
>> FREE_TSL1401.obj, .\Out_File\SEEKFREE_VIRSCO.obj, .\Out_File\SEEKFREE_WIRELESS.obj, .\Out_File\SEEKFREE_WIRELESS_CH57
>> 3.obj, .\Out_File\isr.obj, .\Out_File\main.obj, .\Out_File\motor_driver_boards.obj, .\Out_File\laser_ranging.obj, .\O
>> ut_File\key.obj, .\Out_File\seekfree_assistant.obj, .\Out_File\seekfree_assistant_inface.obj TO .\Out_File\SEEKFREE P
>> RINT (.\Out_File\SEEKFREE.map) CASE DISABLEWARNING (15, 16, 57) REMOVEUNUSED CLASSES (EDATA (0X0-0XFFF), HDATA (0X0-0
>> XFFF))


CPU MODE:     251 SOURCE MODE
INTR FRAME:   2 BYTES SAVED ON INTERRUPT
MEMORY MODEL: XSMALL WITH FLOATING POINT ARITHMETIC


INPUT MODULES INCLUDED:
  .\Out_File\board.obj (board)
         COMMENT TYPE 0: C251 V5.60.0
  .\Out_File\common.obj (common)
         COMMENT TYPE 0: C251 V5.60.0
  .\Out_File\zf_adc.obj (zf_adc)
         COMMENT TYPE 0: C251 V5.60.0
  .\Out_File\zf_delay.obj (zf_delay)
         COMMENT TYPE 0: C251 V5.60.0
  .\Out_File\zf_eeprom.obj (zf_eeprom)
         COMMENT TYPE 0: C251 V5.60.0
  .\Out_File\zf_exti.obj (zf_exti)
         COMMENT TYPE 0: C251 V5.60.0
  .\Out_File\zf_gpio.obj (zf_gpio)
         COMMENT TYPE 0: C251 V5.60.0
  .\Out_File\zf_nvic.obj (zf_nvic)
         COMMENT TYPE 0: C251 V5.60.0
  .\Out_File\zf_pwm.obj (zf_pwm)
         COMMENT TYPE 0: C251 V5.60.0
  .\Out_File\zf_spi.obj (zf_spi)
         COMMENT TYPE 0: C251 V5.60.0
  .\Out_File\zf_tim.obj (zf_tim)
         COMMENT TYPE 0: C251 V5.60.0
  .\Out_File\zf_uart.obj (zf_uart)
         COMMENT TYPE 0: C251 V5.60.0
  .\Out_File\zf_fifo.obj (zf_fifo)
         COMMENT TYPE 0: C251 V5.60.0
  .\Out_File\zf_iic.obj (zf_iic)
         COMMENT TYPE 0: C251 V5.60.0
  .\Out_File\SEEKFREE_18TFT.obj (SEEKFREE_18TFT)
         COMMENT TYPE 0: C251 V5.60.0
  .\Out_File\SEEKFREE_BLUETOOTH_CH9141.obj (SEEKFREE_BLUETOOTH_CH9141)
         COMMENT TYPE 0: C251 V5.60.0
  .\Out_File\SEEKFREE_DL1A.obj (SEEKFREE_DL1A)
         COMMENT TYPE 0: C251 V5.60.0
  .\Out_File\SEEKFREE_DL1B.obj (SEEKFREE_DL1B)
         COMMENT TYPE 0: C251 V5.60.0
  .\Out_File\SEEKFREE_FONT.obj (SEEKFREE_FONT)
         COMMENT TYPE 0: C251 V5.60.0
  .\Out_File\SEEKFREE_ICM20602.obj (SEEKFREE_ICM20602)
         COMMENT TYPE 0: C251 V5.60.0
  .\Out_File\SEEKFREE_IMU660RA.obj (SEEKFREE_IMU660RA)
         COMMENT TYPE 0: C251 V5.60.0
  .\Out_File\SEEKFREE_IMU963RA.obj (SEEKFREE_IMU963RA)
         COMMENT TYPE 0: C251 V5.60.0
  .\Out_File\SEEKFREE_IPS114_SPI.obj (SEEKFREE_IPS114_SPI)
L251 LINKER/LOCATER V4.66.93.0                                                        04/10/2024  20:12:08  PAGE 2


         COMMENT TYPE 0: C251 V5.60.0
  .\Out_File\SEEKFREE_MPU6050.obj (SEEKFREE_MPU6050)
         COMMENT TYPE 0: C251 V5.60.0
  .\Out_File\SEEKFREE_OLED.obj (SEEKFREE_OLED)
         COMMENT TYPE 0: C251 V5.60.0
  .\Out_File\SEEKFREE_PRINTF.obj (SEEKFREE_PRINTF)
         COMMENT TYPE 0: C251 V5.60.0
  .\Out_File\SEEKFREE_TSL1401.obj (SEEKFREE_TSL1401)
         COMMENT TYPE 0: C251 V5.60.0
  .\Out_File\SEEKFREE_VIRSCO.obj (SEEKFREE_VIRSCO)
         COMMENT TYPE 0: C251 V5.60.0
  .\Out_File\SEEKFREE_WIRELESS.obj (SEEKFREE_WIRELESS)
         COMMENT TYPE 0: C251 V5.60.0
  .\Out_File\SEEKFREE_WIRELESS_CH573.obj (SEEKFREE_WIRELESS_CH573)
         COMMENT TYPE 0: C251 V5.60.0
  .\Out_File\isr.obj (isr)
         COMMENT TYPE 0: C251 V5.60.0
  .\Out_File\main.obj (main)
         COMMENT TYPE 0: C251 V5.60.0
  .\Out_File\motor_driver_boards.obj (motor_driver_boards)
         COMMENT TYPE 0: C251 V5.60.0
  .\Out_File\laser_ranging.obj (laser_ranging)
         COMMENT TYPE 0: C251 V5.60.0
  .\Out_File\key.obj (key)
         COMMENT TYPE 0: C251 V5.60.0
  .\Out_File\seekfree_assistant.obj (seekfree_assistant)
         COMMENT TYPE 0: C251 V5.60.0
  .\Out_File\seekfree_assistant_inface.obj (seekfree_assistant_inface)
         COMMENT TYPE 0: C251 V5.60.0
  Libraries\seekfree_peripheral\SEEKFREE_CONFIG.LIB (SEEKFREE_CONFIG)
         COMMENT TYPE 0: C251 V5.60.0
  C:\KEIL_V5\C251\LIB\C2SFPXS.LIB (?C?FPADD)
         COMMENT TYPE 0: A251 V4.69.6.0
  C:\KEIL_V5\C251\LIB\C2SFPXS.LIB (?C?FPMUL)
         COMMENT TYPE 0: A251 V4.69.6.0
  C:\KEIL_V5\C251\LIB\C2SFPXS.LIB (?C?FPDIV)
         COMMENT TYPE 0: A251 V4.69.6.0
  C:\KEIL_V5\C251\LIB\C2SFPXS.LIB (?C?FPCMP)
         COMMENT TYPE 0: A251 V4.69.6.0
  C:\KEIL_V5\C251\LIB\C2SFPXS.LIB (?C?FCAST)
         COMMENT TYPE 0: A251 V4.69.6.0
  C:\KEIL_V5\C251\LIB\C2SFPXS.LIB (?C?CASTF)
         COMMENT TYPE 0: A251 V4.69.6.0
  C:\KEIL_V5\C251\LIB\C2SFPXS.LIB (PRINTF)
         COMMENT TYPE 0: A251 V4.69.6.0
  C:\KEIL_V5\C251\LIB\C2SFPXS.LIB (?C?FPGETOPN)
         COMMENT TYPE 0: A251 V4.69.6.0
  C:\KEIL_V5\C251\LIB\C2SFPXS.LIB (?C?PRNFMT)
         COMMENT TYPE 0: A251 V4.69.6.0
  C:\KEIL_V5\C251\LIB\C2SFPXS.LIB (?C?FPCONVERT)
         COMMENT TYPE 0: A251 V4.69.6.0
  C:\KEIL_V5\C251\LIB\C2SFPXS.LIB (?C?FTNPWR)
         COMMENT TYPE 0: A251 V4.69.6.0
  C:\KEIL_V5\C251\LIB\C2SXS.LIB (?C_START)
         COMMENT TYPE 0: A251 V4.69.6.0
  C:\KEIL_V5\C251\LIB\C2SXS.LIB (?C?INITEDATA)
         COMMENT TYPE 0: A251 V4.69.6.0
  C:\KEIL_V5\C251\LIB\C2SXS.LIB (?C?INITHDATA)
         COMMENT TYPE 0: A251 V4.69.6.0
  C:\KEIL_V5\C251\LIB\C2SXS.LIB (?C?SIDIV)
         COMMENT TYPE 0: A251 V4.69.6.0
  C:\KEIL_V5\C251\LIB\C2SXS.LIB (?C?LMUL)
         COMMENT TYPE 0: A251 V4.69.6.0
  C:\KEIL_V5\C251\LIB\C2SXS.LIB (?C?LIMUL)
         COMMENT TYPE 0: A251 V4.69.6.0
L251 LINKER/LOCATER V4.66.93.0                                                        04/10/2024  20:12:08  PAGE 3


  C:\KEIL_V5\C251\LIB\C2SXS.LIB (?C?ULDIV)
         COMMENT TYPE 0: A251 V4.69.6.0
  C:\KEIL_V5\C251\LIB\C2SXS.LIB (?C?SLDIV)
         COMMENT TYPE 0: A251 V4.69.6.0
  C:\KEIL_V5\C251\LIB\C2SXS.LIB (memcpy)
         COMMENT TYPE 0: C251 V5.58.7
  C:\KEIL_V5\C251\LIB\C2SXS.LIB (memset)
         COMMENT TYPE 0: C251 V5.58.7
  C:\KEIL_V5\C251\LIB\C2SXS.LIB (?C?INITEDATA_END)
         COMMENT TYPE 0: A251 V4.69.6.0
  C:\KEIL_V5\C251\LIB\C2SXS.LIB (?C?INITHDATA_END)
         COMMENT TYPE 0: A251 V4.69.6.0


ACTIVE MEMORY CLASSES OF MODULE:  .\Out_File\SEEKFREE (board)

BASE        START       END         USED      MEMORY CLASS
==========================================================
000000H     000000H     000FFFH     0009ACH   EDATA
000000H     000000H     000FFFH               HDATA
FF0000H     FF0000H     FFFFFFH     00740FH   CODE
000000H     FF0000H     FFFFFFH     00039FH   HCONST
010000H     010000H     01FFFFH     0006DDH   XDATA
000020H.0   000020H.0   00002FH.7   000000H.1 BIT
FF0000H     FF0000H     FFFFFFH     000004H   CONST
000000H     000000H     00007FH     000008H   DATA


MEMORY MAP OF MODULE:  .\Out_File\SEEKFREE (board)


START     STOP      LENGTH    ALIGN  RELOC    MEMORY CLASS   SEGMENT NAME
=========================================================================
000000H   000007H   000008H   ---    AT..     DATA           "REG BANK 0"
000008H   00001FH   000018H   BYTE   UNIT     EDATA          ?ED?FIFO_READ_BUFFER?ZF_FIFO
000020H.0 000020H.0 000000H.1 BIT    UNIT     BIT            ?BI?KEY
000020H.1 000020H   000000H.7 ---    ---      **GAP**
000021H   0000F7H   0000D7H   BYTE   UNIT     EDATA          ?ED?LASER_RANGING
0000F8H   000184H   00008DH   BYTE   UNIT     EDATA          ?ED?SEEKFREE_ASSISTANT_DATA_ANALYSIS?SEEKFREE_ASSISTANT
000185H   0001E3H   00005FH   BYTE   UNIT     EDATA          ?ED?ZF_SPRINTF?SEEKFREE_PRINTF
0001E4H   00023DH   00005AH   BYTE   UNIT     EDATA          ?ED?SEEKFREE_ASSISTANT
00023EH   00026DH   000030H   BYTE   UNIT     EDATA          ?ED?OLED_PRINTF_FLOAT?SEEKFREE_OLED
00026EH   00029DH   000030H   BYTE   UNIT     EDATA          ?ED?OLED_PRINTF_FLOAT_SPI?SEEKFREE_OLED
00029EH   0002C9H   00002CH   BYTE   UNIT     EDATA          ?ED?OLED_PRINTF_INT32?SEEKFREE_OLED
0002CAH   0002F5H   00002CH   BYTE   UNIT     EDATA          ?ED?OLED_PRINTF_INT32_SPI?SEEKFREE_OLED
0002F6H   00031FH   00002AH   BYTE   UNIT     EDATA          ?ED?SEEKFREE_ASSISTANT_OSCILLOSCOPE_SEND?SEEKFREE_ASSISTAN
                                                             -T
000320H   00033EH   00001FH   BYTE   UNIT     EDATA          ?ED?DL1A_SET_MEASUREMENT_TIMING_BUDGET?SEEKFREE_DL1A
00033FH   00035DH   00001FH   BYTE   UNIT     EDATA          ?ED?SEEKFREE_ASSISTANT_CAMERA_BOUNDARY_CONFIG?SEEKFREE_ASS
                                                             -ISTANT
00035EH   000378H   00001BH   BYTE   UNIT     EDATA          ?ED?DL1A_GET_MEASUREMENT_TIMING_BUDGET?SEEKFREE_DL1A
000379H   000390H   000018H   BYTE   UNIT     EDATA          ?ED?FIFO_READ_TAIL_BUFFER?ZF_FIFO
000391H   0003A4H   000014H   BYTE   UNIT     EDATA          ?ED?PWM_INIT?ZF_PWM
0003A5H   0003B8H   000014H   BYTE   UNIT     EDATA          ?ED?PWM_FREQ?ZF_PWM
0003B9H   0003CCH   000014H   BYTE   UNIT     EDATA          ?ED?NUMBER_CONVERSION_ASCII?SEEKFREE_PRINTF
0003CDH   0003DEH   000012H   BYTE   UNIT     EDATA          ?ED?FIFO_WRITE_BUFFER?ZF_FIFO
0003DFH   0003F0H   000012H   BYTE   UNIT     EDATA          ?ED?SEEKFREE_IMU963RA
0003F1H   000400H   000010H   BYTE   UNIT     EDATA          ?ED?FIFO_INIT?ZF_FIFO
000401H   000410H   000010H   BYTE   UNIT     EDATA          ?ED?DL1B_IIC_TRANSFER_8BIT_ARRAY?SEEKFREE_DL1B
000411H   000420H   000010H   BYTE   UNIT     EDATA          ?ED?OLED_DIS_BMP?SEEKFREE_OLED
000421H   000430H   000010H   BYTE   UNIT     EDATA          ?ED?OLED_DIS_BMP_SPI?SEEKFREE_OLED
000431H   00043FH   00000FH   BYTE   UNIT     EDATA          ?ED?SEEKFREE_ASSISTANT_CAMERA_DATA_SEND?SEEKFREE_ASSISTANT
000440H   00044DH   00000EH   BYTE   UNIT     EDATA          ?ED?PWM_DUTY?ZF_PWM
00044EH   00045BH   00000EH   BYTE   UNIT     EDATA          ?ED?UART_INIT?ZF_UART
00045CH   000469H   00000EH   BYTE   UNIT     EDATA          ?ED?OLED_PRINT_CHINESE?SEEKFREE_OLED
L251 LINKER/LOCATER V4.66.93.0                                                        04/10/2024  20:12:08  PAGE 4


00046AH   000477H   00000EH   BYTE   UNIT     EDATA          ?ED?OLED_PRINT_CHINESE_SPI?SEEKFREE_OLED
000478H   000485H   00000EH   BYTE   UNIT     EDATA          ?ED?DATA_CONVERSION?SEEKFREE_VIRSCO
000486H   000492H   00000DH   BYTE   UNIT     EDATA          ?ED?SPI_INIT?ZF_SPI
000493H   00049FH   00000DH   BYTE   UNIT     EDATA          ?ED?PRINTF_REVERSE_ORDER?SEEKFREE_PRINTF
0004A0H   0004ABH   00000CH   BYTE   UNIT     EDATA          ?ED?FIFO_READ_ELEMENT?ZF_FIFO
0004ACH   0004B7H   00000CH   BYTE   UNIT     EDATA          ?ED?LCD_SHOWFLOAT_SIMSPI?SEEKFREE_18TFT
0004B8H   0004C3H   00000CH   BYTE   UNIT     EDATA          ?ED?LCD_SHOWFLOAT?SEEKFREE_18TFT
0004C4H   0004CFH   00000CH   BYTE   UNIT     EDATA          ?ED?SHOWIMAGE?SEEKFREE_18TFT
0004D0H   0004DBH   00000CH   BYTE   UNIT     EDATA          ?ED?SEEKFREE_ICM20602
0004DCH   0004E7H   00000CH   BYTE   UNIT     EDATA          ?ED?SEEKFREE_IMU660RA
0004E8H   0004F3H   00000CH   BYTE   UNIT     EDATA          ?ED?IPS114_SHOWFLOAT_SIMSPI?SEEKFREE_IPS114_SPI
0004F4H   0004FFH   00000CH   BYTE   UNIT     EDATA          ?ED?IPS114_SHOWFLOAT?SEEKFREE_IPS114_SPI
000500H   00050BH   00000CH   BYTE   UNIT     EDATA          ?ED?SEEKFREE_MPU6050
00050CH   000516H   00000BH   BYTE   UNIT     EDATA          ?ED?OLED_UINT16?SEEKFREE_OLED
000517H   000521H   00000BH   BYTE   UNIT     EDATA          ?ED?OLED_INT16?SEEKFREE_OLED
000522H   00052CH   00000BH   BYTE   UNIT     EDATA          ?ED?OLED_UINT16_SPI?SEEKFREE_OLED
00052DH   000537H   00000BH   BYTE   UNIT     EDATA          ?ED?OLED_INT16_SPI?SEEKFREE_OLED
000538H   000541H   00000AH   BYTE   UNIT     EDATA          ?ED?IAP_READ_BYTES?ZF_EEPROM
000542H   00054BH   00000AH   BYTE   UNIT     EDATA          ?ED?IAP_WRITE_BYTES?ZF_EEPROM
00054CH   000555H   00000AH   BYTE   UNIT     EDATA          ?ED?UART_PUTBUFF?ZF_UART
000556H   00055FH   00000AH   BYTE   UNIT     EDATA          ?ED?FIFO_WRITE_ELEMENT?ZF_FIFO
000560H   000569H   00000AH   BYTE   UNIT     EDATA          ?ED?DL1A_SIMIIC_READ_REGS?SEEKFREE_DL1A
00056AH   000573H   00000AH   BYTE   UNIT     EDATA          ?ED?DL1A_SIMIIC_READ_REGS_1?SEEKFREE_DL1A
000574H   00057DH   00000AH   BYTE   UNIT     EDATA          ?ED?DL1A_GET_SPAD_INFO?SEEKFREE_DL1A
00057EH   000587H   00000AH   BYTE   UNIT     EDATA          ?ED?SEEKFREE_VIRSCO
000588H   000591H   00000AH   BYTE   UNIT     EDATA          ?ED?SEEKFREE_ASSISTANT_CAMERA_INFORMATION_CONFIG?SEEKFREE_
                                                             -ASSISTANT
000592H   00059AH   000009H   BYTE   UNIT     EDATA          ?ED?LCD_SHOWINT32_SIMSPI?SEEKFREE_18TFT
00059BH   0005A3H   000009H   BYTE   UNIT     EDATA          ?ED?LCD_SHOWINT32?SEEKFREE_18TFT
0005A4H   0005ACH   000009H   BYTE   UNIT     EDATA          ?ED?DL1A_SIMIIC_WRITE_DATS?SEEKFREE_DL1A
0005ADH   0005B5H   000009H   BYTE   UNIT     EDATA          ?ED?ICM20602_SIMSPI_R_REG_BYTES?SEEKFREE_ICM20602
0005B6H   0005BEH   000009H   BYTE   UNIT     EDATA          ?ED?ICM20602_READ_REGISTERS?SEEKFREE_ICM20602
0005BFH   0005C7H   000009H   BYTE   UNIT     EDATA          ?ED?IMU660RA_SIMSPI_W_REG_BYTES?SEEKFREE_IMU660RA
0005C8H   0005D0H   000009H   BYTE   UNIT     EDATA          ?ED?IMU660RA_SIMSPI_R_REG_BYTES?SEEKFREE_IMU660RA
0005D1H   0005D9H   000009H   BYTE   UNIT     EDATA          ?ED?IMU660RA_WRITE_REGISTERS?SEEKFREE_IMU660RA
0005DAH   0005E2H   000009H   BYTE   UNIT     EDATA          ?ED?IMU660RA_READ_REGISTERS?SEEKFREE_IMU660RA
0005E3H   0005EBH   000009H   BYTE   UNIT     EDATA          ?ED?IMU963RA_SIMSPI_R_REG_BYTES?SEEKFREE_IMU963RA
0005ECH   0005F4H   000009H   BYTE   UNIT     EDATA          ?ED?IMU963RA_READ_ACC_GYRO_REGISTERS?SEEKFREE_IMU963RA
0005F5H   0005FDH   000009H   BYTE   UNIT     EDATA          ?ED?IPS114_SHOWINT32_SIMSPI?SEEKFREE_IPS114_SPI
0005FEH   000606H   000009H   BYTE   UNIT     EDATA          ?ED?IPS114_SHOWINT32?SEEKFREE_IPS114_SPI
000607H   00060FH   000009H   BYTE   UNIT     EDATA          ?ED?CRC_CHECK?SEEKFREE_VIRSCO
000610H   000618H   000009H   BYTE   UNIT     EDATA          ?ED?SEEKFREE_ASSISTANT_SUM?SEEKFREE_ASSISTANT
000619H   000620H   000008H   BYTE   UNIT     EDATA          ?ED?FIFO_HEAD_OFFSET?ZF_FIFO
000621H   000628H   000008H   BYTE   UNIT     EDATA          ?ED?FIFO_END_OFFSET?ZF_FIFO
000629H   000630H   000008H   BYTE   UNIT     EDATA          ?ED?LCD_SET_REGION_SIMSPI?SEEKFREE_18TFT
000631H   000638H   000008H   BYTE   UNIT     EDATA          ?ED?LCD_SHOWSTR_SIMSPI?SEEKFREE_18TFT
000639H   000640H   000008H   BYTE   UNIT     EDATA          ?ED?LCD_SET_REGION?SEEKFREE_18TFT
000641H   000648H   000008H   BYTE   UNIT     EDATA          ?ED?LCD_SHOWSTR?SEEKFREE_18TFT
000649H   000650H   000008H   BYTE   UNIT     EDATA          ?ED?BLUETOOTH_CH9141_SEND_BUFF?SEEKFREE_BLUETOOTH_CH9141
000651H   000658H   000008H   BYTE   UNIT     EDATA          ?ED?BLUETOOTH_CH9141_READ_BUFF?SEEKFREE_BLUETOOTH_CH9141
000659H   000660H   000008H   BYTE   UNIT     EDATA          ?ED?DL1A_GET_SEQUENCE_STEP_TIMEOUTS?SEEKFREE_DL1A
000661H   000668H   000008H   BYTE   UNIT     EDATA          ?ED?IPS114_SET_REGION_SIMSPI?SEEKFREE_IPS114_SPI
000669H   000670H   000008H   BYTE   UNIT     EDATA          ?ED?IPS114_SHOWSTR_SIMSPI?SEEKFREE_IPS114_SPI
000671H   000678H   000008H   BYTE   UNIT     EDATA          ?ED?IPS114_SET_REGION?SEEKFREE_IPS114_SPI
000679H   000680H   000008H   BYTE   UNIT     EDATA          ?ED?IPS114_SHOWSTR?SEEKFREE_IPS114_SPI
000681H   000688H   000008H   BYTE   UNIT     EDATA          ?ED?OLED_P6X8STR?SEEKFREE_OLED
000689H   000690H   000008H   BYTE   UNIT     EDATA          ?ED?OLED_P8X16STR?SEEKFREE_OLED
000691H   000698H   000008H   BYTE   UNIT     EDATA          ?ED?OLED_P6X8STR_SPI?SEEKFREE_OLED
000699H   0006A0H   000008H   BYTE   UNIT     EDATA          ?ED?OLED_P8X16STR_SPI?SEEKFREE_OLED
0006A1H   0006A8H   000008H   BYTE   UNIT     EDATA          ?ED?WIRELESS_UART_SEND_BUFF?SEEKFREE_WIRELESS
0006A9H   0006B0H   000008H   BYTE   UNIT     EDATA          ?ED?WIRELESS_UART_READ_BUFF?SEEKFREE_WIRELESS
0006B1H   0006B8H   000008H   BYTE   UNIT     EDATA          ?ED?WIRELESS_CH573_READ_BUFF?SEEKFREE_WIRELESS_CH573
0006B9H   0006BFH   000007H   BYTE   UNIT     EDATA          ?ED?IIC_READ_REG_BYTES?ZF_IIC
0006C0H   0006C6H   000007H   BYTE   UNIT     EDATA          ?ED?MPU6050_SIMIIC_READ_REGS?SEEKFREE_MPU6050
0006C7H   0006CDH   000007H   BYTE   UNIT     EDATA          ?ED?CCD_SEND_DATA?SEEKFREE_TSL1401
L251 LINKER/LOCATER V4.66.93.0                                                        04/10/2024  20:12:08  PAGE 5


0006CEH   0006D4H   000007H   BYTE   UNIT     EDATA          ?ED?SEEKFREE_ASSISTANT_CAMERA_DOT_SEND?SEEKFREE_ASSISTANT
0006D5H   0006DAH   000006H   BYTE   UNIT     EDATA          ?ED?ADC_ONCE?ZF_ADC
0006DBH   0006E0H   000006H   BYTE   UNIT     EDATA          ?ED?DELAY_US?ZF_DELAY
0006E1H   0006E6H   000006H   BYTE   UNIT     EDATA          ?ED?PIT_TIMER_MS?ZF_TIM
0006E7H   0006ECH   000006H   BYTE   UNIT     EDATA          ?ED?UART_PUTSTR?ZF_UART
0006EDH   0006F2H   000006H   BYTE   UNIT     EDATA          ?ED?FIFO_CLEAR?ZF_FIFO
0006F3H   0006F8H   000006H   BYTE   UNIT     EDATA          ?ED?IIC_INIT?ZF_IIC
0006F9H   0006FEH   000006H   BYTE   UNIT     EDATA          ?ED?IIC_READ_REG?ZF_IIC
0006FFH   000704H   000006H   BYTE   UNIT     EDATA          ?ED?LCD_DRAWPOINT_SIMSPI?SEEKFREE_18TFT
000705H   00070AH   000006H   BYTE   UNIT     EDATA          ?ED?LCD_SHOWCHAR_SIMSPI?SEEKFREE_18TFT
00070BH   000710H   000006H   BYTE   UNIT     EDATA          ?ED?LCD_SHOWINT16_SIMSPI?SEEKFREE_18TFT
000711H   000716H   000006H   BYTE   UNIT     EDATA          ?ED?LCD_SHOWUINT16_SIMSPI?SEEKFREE_18TFT
000717H   00071CH   000006H   BYTE   UNIT     EDATA          ?ED?LCD_DRAWPOINT?SEEKFREE_18TFT
00071DH   000722H   000006H   BYTE   UNIT     EDATA          ?ED?LCD_SHOWCHAR?SEEKFREE_18TFT
000723H   000728H   000006H   BYTE   UNIT     EDATA          ?ED?LCD_SHOWINT16?SEEKFREE_18TFT
000729H   00072EH   000006H   BYTE   UNIT     EDATA          ?ED?LCD_SHOWUINT16?SEEKFREE_18TFT
00072FH   000734H   000006H   BYTE   UNIT     EDATA          ?ED?ICM20602_ACC_TRANSITION?SEEKFREE_ICM20602
000735H   00073AH   000006H   BYTE   UNIT     EDATA          ?ED?ICM20602_GYRO_TRANSITION?SEEKFREE_ICM20602
00073BH   000740H   000006H   BYTE   UNIT     EDATA          ?ED?IMU660RA_ACC_TRANSITION?SEEKFREE_IMU660RA
000741H   000746H   000006H   BYTE   UNIT     EDATA          ?ED?IMU660RA_GYRO_TRANSITION?SEEKFREE_IMU660RA
000747H   00074CH   000006H   BYTE   UNIT     EDATA          ?ED?IMU963RA_ACC_TRANSITION?SEEKFREE_IMU963RA
00074DH   000752H   000006H   BYTE   UNIT     EDATA          ?ED?IMU963RA_GYRO_TRANSITION?SEEKFREE_IMU963RA
000753H   000758H   000006H   BYTE   UNIT     EDATA          ?ED?IMU963RA_MAG_TRANSITION?SEEKFREE_IMU963RA
000759H   00075EH   000006H   BYTE   UNIT     EDATA          ?ED?IPS114_DRAWPOINT_SIMSPI?SEEKFREE_IPS114_SPI
00075FH   000764H   000006H   BYTE   UNIT     EDATA          ?ED?IPS114_SHOWCHAR_SIMSPI?SEEKFREE_IPS114_SPI
000765H   00076AH   000006H   BYTE   UNIT     EDATA          ?ED?IPS114_SHOWINT16_SIMSPI?SEEKFREE_IPS114_SPI
00076BH   000770H   000006H   BYTE   UNIT     EDATA          ?ED?IPS114_SHOWUINT16_SIMSPI?SEEKFREE_IPS114_SPI
000771H   000776H   000006H   BYTE   UNIT     EDATA          ?ED?IPS114_DRAWPOINT?SEEKFREE_IPS114_SPI
000777H   00077CH   000006H   BYTE   UNIT     EDATA          ?ED?IPS114_SHOWCHAR?SEEKFREE_IPS114_SPI
00077DH   000782H   000006H   BYTE   UNIT     EDATA          ?ED?IPS114_SHOWINT16?SEEKFREE_IPS114_SPI
000783H   000788H   000006H   BYTE   UNIT     EDATA          ?ED?IPS114_SHOWUINT16?SEEKFREE_IPS114_SPI
000789H   00078EH   000006H   BYTE   UNIT     EDATA          ?ED?OLED_HEXASCII?SEEKFREE_OLED
00078FH   000794H   000006H   BYTE   UNIT     EDATA          ?ED?OLED_HEXASCII_SPI?SEEKFREE_OLED
000795H   00079AH   000006H   BYTE   UNIT     EDATA          ?ED?WIRELESS_CH573_SEND_BUFF?SEEKFREE_WIRELESS_CH573
00079BH   00079FH   000005H   BYTE   UNIT     EDATA          ?ED?ZF_UART
0007A0H   0007A4H   000005H   BYTE   UNIT     EDATA          ?ED?LCD_SHOWINT8_SIMSPI?SEEKFREE_18TFT
0007A5H   0007A9H   000005H   BYTE   UNIT     EDATA          ?ED?LCD_SHOWUINT8_SIMSPI?SEEKFREE_18TFT
0007AAH   0007AEH   000005H   BYTE   UNIT     EDATA          ?ED?LCD_SHOWINT8?SEEKFREE_18TFT
0007AFH   0007B3H   000005H   BYTE   UNIT     EDATA          ?ED?LCD_SHOWUINT8?SEEKFREE_18TFT
0007B4H   0007B8H   000005H   BYTE   UNIT     EDATA          ?ED?DL1A_TIMEOUT_MICROSECONDS_TO_MCLKS?SEEKFREE_DL1A
0007B9H   0007BDH   000005H   BYTE   UNIT     EDATA          ?ED?ICM20602_SIMSPI_R_REG_BYTE?SEEKFREE_ICM20602
0007BEH   0007C2H   000005H   BYTE   UNIT     EDATA          ?ED?IMU963RA_SIMSPI_R_REG_BYTE?SEEKFREE_IMU963RA
0007C3H   0007C7H   000005H   BYTE   UNIT     EDATA          ?ED?IPS114_SHOWINT8_SIMSPI?SEEKFREE_IPS114_SPI
0007C8H   0007CCH   000005H   BYTE   UNIT     EDATA          ?ED?IPS114_SHOWUINT8_SIMSPI?SEEKFREE_IPS114_SPI
0007CDH   0007D1H   000005H   BYTE   UNIT     EDATA          ?ED?IPS114_SHOWINT8?SEEKFREE_IPS114_SPI
0007D2H   0007D6H   000005H   BYTE   UNIT     EDATA          ?ED?IPS114_SHOWUINT8?SEEKFREE_IPS114_SPI
0007D7H   0007DBH   000005H   BYTE   UNIT     EDATA          ?ED?LASER_RANGING?LASER_RANGING
0007DCH   0007DFH   000004H   BYTE   UNIT     EDATA          ?ED?BOARD
0007E0H   0007E3H   000004H   BYTE   UNIT     EDATA          ?ED?ADC_INIT?ZF_ADC
0007E4H   0007E7H   000004H   BYTE   UNIT     EDATA          ?ED?ZF_DELAY
0007E8H   0007EBH   000004H   BYTE   UNIT     EDATA          ?ED?DELAY_MS?ZF_DELAY
0007ECH   0007EFH   000004H   BYTE   UNIT     EDATA          ?ED?IAP_ERASE_PAGE?ZF_EEPROM
0007F0H   0007F3H   000004H   BYTE   UNIT     EDATA          ?ED?EXIT_INIT?ZF_EXTI
0007F4H   0007F7H   000004H   BYTE   UNIT     EDATA          ?ED?GPIO_PULL_SET?ZF_GPIO
0007F8H   0007FBH   000004H   BYTE   UNIT     EDATA          ?ED?GPIO_MODE?ZF_GPIO
0007FCH   0007FFH   000004H   BYTE   UNIT     EDATA          ?ED?CTIMER_COUNT_READ?ZF_TIM
000800H   000803H   000004H   BYTE   UNIT     EDATA          ?ED?FIFO_USED?ZF_FIFO
000804H   000807H   000004H   BYTE   UNIT     EDATA          ?ED?DL1A_GET_SEQUENCE_STEP_ENABLES?SEEKFREE_DL1A
000808H   00080BH   000004H   BYTE   UNIT     EDATA          ?ED?DL1A_SET_SIGNAL_RATE_LIMIT?SEEKFREE_DL1A
00080CH   00080FH   000004H   BYTE   UNIT     EDATA          ?ED?SEEKFREE_DL1B
000810H   000813H   000004H   BYTE   UNIT     EDATA          ?ED?IPS114_CLEAR_SIMSPI?SEEKFREE_IPS114_SPI
000814H   000817H   000004H   BYTE   UNIT     EDATA          ?ED?IPS114_CLEAR?SEEKFREE_IPS114_SPI
000818H   00081BH   000004H   BYTE   UNIT     EDATA          ?ED?KEY
00081CH   00081FH   000004H   BYTE   UNIT     EDATA          ?ED?SEEKFREE_ASSISTANT_INFACE
000820H   000822H   000003H   BYTE   UNIT     EDATA          ?ED?NVIC_SETPRIORITY?ZF_NVIC
L251 LINKER/LOCATER V4.66.93.0                                                        04/10/2024  20:12:08  PAGE 6


000823H   000825H   000003H   BYTE   UNIT     EDATA          ?ED?UART_PUTCHAR?ZF_UART
000826H   000828H   000003H   BYTE   UNIT     EDATA          ?ED?IIC_DELAY_US?ZF_IIC
000829H   00082BH   000003H   BYTE   UNIT     EDATA          ?ED?WAIT?ZF_IIC
00082CH   00082EH   000003H   BYTE   UNIT     EDATA          ?ED?IIC_WRITE_REG?ZF_IIC
00082FH   000831H   000003H   BYTE   UNIT     EDATA          ?ED?LCD_CLEAR_SIMSPI?SEEKFREE_18TFT
000832H   000834H   000003H   BYTE   UNIT     EDATA          ?ED?LCD_CLEAR?SEEKFREE_18TFT
000835H   000837H   000003H   BYTE   UNIT     EDATA          ?ED?SEEKFREE_DL1A
000838H   00083AH   000003H   BYTE   UNIT     EDATA          ?ED?DL1A_SIMIIC_WRITE_REG?SEEKFREE_DL1A
00083BH   00083DH   000003H   BYTE   UNIT     EDATA          ?ED?DL1A_TIMEOUT_MCLKS_TO_MICROSECONDS?SEEKFREE_DL1A
00083EH   000840H   000003H   BYTE   UNIT     EDATA          ?ED?DL1A_PERFORM_SINGLE_REF_CALIBRATION?SEEKFREE_DL1A
000841H   000843H   000003H   BYTE   UNIT     EDATA          ?ED?IMU963RA_WRITE_MAG_REGISTER?SEEKFREE_IMU963RA
000844H   000846H   000003H   BYTE   UNIT     EDATA          ?ED?MPU6050_SIMIIC_WRITE_REG?SEEKFREE_MPU6050
000847H   000849H   000003H   BYTE   UNIT     EDATA          ?ED?OLED_PUTPIXEL?SEEKFREE_OLED
00084AH   00084CH   000003H   BYTE   UNIT     EDATA          ?ED?OLED_PUTPIXEL_SPI?SEEKFREE_OLED
00084DH   00084EH   000002H   BYTE   UNIT     EDATA          ?ED?COMMON
00084FH   000850H   000002H   BYTE   UNIT     EDATA          ?ED?PWM_SET_GPIO?ZF_PWM
000851H   000852H   000002H   BYTE   UNIT     EDATA          ?ED?SPI_CHANGE_PIN?ZF_SPI
000853H   000854H   000002H   BYTE   UNIT     EDATA          ?ED?CTIMER_COUNT_INIT?ZF_TIM
000855H   000856H   000002H   BYTE   UNIT     EDATA          ?ED?CTIMER_COUNT_CLEAN?ZF_TIM
000857H   000858H   000002H   BYTE   UNIT     EDATA          ?ED?SEND_DATA?ZF_IIC
000859H   00085AH   000002H   BYTE   UNIT     EDATA          ?ED?IIC_CHANGE_PIN?ZF_IIC
00085BH   00085CH   000002H   BYTE   UNIT     EDATA          ?ED?LCD_WRITEDATA_16BIT_SIMSPI?SEEKFREE_18TFT
00085DH   00085EH   000002H   BYTE   UNIT     EDATA          ?ED?LCD_WRITEDATA_16BIT?SEEKFREE_18TFT
00085FH   000860H   000002H   BYTE   UNIT     EDATA          ?ED?DL1A_SIMIIC_READ_REG?SEEKFREE_DL1A
000861H   000862H   000002H   BYTE   UNIT     EDATA          ?ED?DL1A_DECODE_TIMEOUT?SEEKFREE_DL1A
000863H   000864H   000002H   BYTE   UNIT     EDATA          ?ED?DL1A_ENCODE_TIMEOUT?SEEKFREE_DL1A
000865H   000866H   000002H   BYTE   UNIT     EDATA          ?ED?DL1A_GET_VCSEL_PULSE_PERIOD?SEEKFREE_DL1A
000867H   000868H   000002H   BYTE   UNIT     EDATA          ?ED?DL1B_GET_DISTANCE?SEEKFREE_DL1B
000869H   00086AH   000002H   BYTE   UNIT     EDATA          ?ED?ICM20602_SIMSPI_W_REG_BYTE?SEEKFREE_ICM20602
00086BH   00086CH   000002H   BYTE   UNIT     EDATA          ?ED?ICM20602_WRITE_REGISTER?SEEKFREE_ICM20602
00086DH   00086EH   000002H   BYTE   UNIT     EDATA          ?ED?IMU660RA_SIMSPI_W_REG_BYTE?SEEKFREE_IMU660RA
00086FH   000870H   000002H   BYTE   UNIT     EDATA          ?ED?IMU660RA_WRITE_REGISTER?SEEKFREE_IMU660RA
000871H   000872H   000002H   BYTE   UNIT     EDATA          ?ED?IMU963RA_SIMSPI_W_REG_BYTE?SEEKFREE_IMU963RA
000873H   000874H   000002H   BYTE   UNIT     EDATA          ?ED?IMU963RA_WRITE_ACC_GYRO_REGISTER?SEEKFREE_IMU963RA
000875H   000876H   000002H   BYTE   UNIT     EDATA          ?ED?IMU963RA_READ_MAG_REGISTER?SEEKFREE_IMU963RA
000877H   000878H   000002H   BYTE   UNIT     EDATA          ?ED?IMU963RA_CONNECT_MAG?SEEKFREE_IMU963RA
000879H   00087AH   000002H   BYTE   UNIT     EDATA          ?ED?IPS114_WRITEDATAI_16BIT_SIMSPI?SEEKFREE_IPS114_SPI
00087BH   00087CH   000002H   BYTE   UNIT     EDATA          ?ED?IPS114_WRITEDATA_16BIT?SEEKFREE_IPS114_SPI
00087DH   00087EH   000002H   BYTE   UNIT     EDATA          ?ED?MPU6050_SIMIIC_READ_REG?SEEKFREE_MPU6050
00087FH   000880H   000002H   BYTE   UNIT     EDATA          ?ED?OLED_SET_POS?SEEKFREE_OLED
000881H   000882H   000002H   BYTE   UNIT     EDATA          ?ED?OLED_FILL?SEEKFREE_OLED
000883H   000884H   000002H   BYTE   UNIT     EDATA          ?ED?OLED_CLRPIXEL?SEEKFREE_OLED
000885H   000886H   000002H   BYTE   UNIT     EDATA          ?ED?OLED_SET_POS_SPI?SEEKFREE_OLED
000887H   000888H   000002H   BYTE   UNIT     EDATA          ?ED?OLED_FILL_SPI?SEEKFREE_OLED
000889H   00088AH   000002H   BYTE   UNIT     EDATA          ?ED?OLED_CLRPIXEL_SPI?SEEKFREE_OLED
00088BH   00088BH   000001H   BYTE   UNIT     EDATA          ?ED?PUTCHAR?BOARD
00088CH   00088CH   000001H   BYTE   UNIT     EDATA          ?ED?IAP_SET_TPS?ZF_EEPROM
00088DH   00088DH   000001H   BYTE   UNIT     EDATA          ?ED?SPI_MOSI?ZF_SPI
00088EH   00088EH   000001H   BYTE   UNIT     EDATA          ?ED?SPI_CHANGE_MODE?ZF_SPI
00088FH   00088FH   000001H   BYTE   UNIT     EDATA          ?ED?START?ZF_IIC
000890H   000890H   000001H   BYTE   UNIT     EDATA          ?ED?RECV_ACK?ZF_IIC
000891H   000891H   000001H   BYTE   UNIT     EDATA          ?ED?SEND_ACK?ZF_IIC
000892H   000892H   000001H   BYTE   UNIT     EDATA          ?ED?STOP?ZF_IIC
000893H   000893H   000001H   BYTE   UNIT     EDATA          ?ED?LCD_WRITEINDEX_SIMSPI?SEEKFREE_18TFT
000894H   000894H   000001H   BYTE   UNIT     EDATA          ?ED?LCD_WRITEDATA_SIMSPI?SEEKFREE_18TFT
000895H   000895H   000001H   BYTE   UNIT     EDATA          ?ED?LCD_WRITEINDEX?SEEKFREE_18TFT
000896H   000896H   000001H   BYTE   UNIT     EDATA          ?ED?LCD_WRITEDATA?SEEKFREE_18TFT
000897H   000897H   000001H   BYTE   UNIT     EDATA          ?ED?DL1A_SIMIIC_SENDACK?SEEKFREE_DL1A
000898H   000898H   000001H   BYTE   UNIT     EDATA          ?ED?DL1A_SEND_CH?SEEKFREE_DL1A
000899H   000899H   000001H   BYTE   UNIT     EDATA          ?ED?DL1A_READ_CH?SEEKFREE_DL1A
00089AH   00089AH   000001H   BYTE   UNIT     EDATA          ?ED?DL1B_SIMIIC_SENDACK?SEEKFREE_DL1B
00089BH   00089BH   000001H   BYTE   UNIT     EDATA          ?ED?DL1B_SEND_CH?SEEKFREE_DL1B
00089CH   00089CH   000001H   BYTE   UNIT     EDATA          ?ED?DL1B_READ_CH?SEEKFREE_DL1B
00089DH   00089DH   000001H   BYTE   UNIT     EDATA          ?ED?ICM20602_SIMSPI_WR_BYTE?SEEKFREE_ICM20602
00089EH   00089EH   000001H   BYTE   UNIT     EDATA          ?ED?ICM20602_READ_REGISTER?SEEKFREE_ICM20602
L251 LINKER/LOCATER V4.66.93.0                                                        04/10/2024  20:12:08  PAGE 7


00089FH   00089FH   000001H   BYTE   UNIT     EDATA          ?ED?ICM20602_SELF_CHECK?SEEKFREE_ICM20602
0008A0H   0008A0H   000001H   BYTE   UNIT     EDATA          ?ED?ICM20602_INIT?SEEKFREE_ICM20602
0008A1H   0008A1H   000001H   BYTE   UNIT     EDATA          ?ED?IMU660RA_SIMSPI_WR_BYTE?SEEKFREE_IMU660RA
0008A2H   0008A2H   000001H   BYTE   UNIT     EDATA          ?ED?IMU660RA_READ_REGISTER?SEEKFREE_IMU660RA
0008A3H   0008A3H   000001H   BYTE   UNIT     EDATA          ?ED?IMU660RA_SELF_CHECK?SEEKFREE_IMU660RA
0008A4H   0008A4H   000001H   BYTE   UNIT     EDATA          ?ED?IMU963RA_SIMSPI_WR_BYTE?SEEKFREE_IMU963RA
0008A5H   0008A5H   000001H   BYTE   UNIT     EDATA          ?ED?IMU963RA_READ_ACC_GYRO_REGISTER?SEEKFREE_IMU963RA
0008A6H   0008A6H   000001H   BYTE   UNIT     EDATA          ?ED?IPS114_WRITEINDEX_SIMSPI?SEEKFREE_IPS114_SPI
0008A7H   0008A7H   000001H   BYTE   UNIT     EDATA          ?ED?IPS114_WRITEDATA_SIMSPI?SEEKFREE_IPS114_SPI
0008A8H   0008A8H   000001H   BYTE   UNIT     EDATA          ?ED?IPS114_WRITEINDEX?SEEKFREE_IPS114_SPI
0008A9H   0008A9H   000001H   BYTE   UNIT     EDATA          ?ED?IPS114_WRITEDATA?SEEKFREE_IPS114_SPI
0008AAH   0008AAH   000001H   BYTE   UNIT     EDATA          ?ED?MPU6050_SIMIIC_SENDACK?SEEKFREE_MPU6050
0008ABH   0008ABH   000001H   BYTE   UNIT     EDATA          ?ED?MPU6050_SEND_CH?SEEKFREE_MPU6050
0008ACH   0008ACH   000001H   BYTE   UNIT     EDATA          ?ED?MPU6050_READ_CH?SEEKFREE_MPU6050
0008ADH   0008ADH   000001H   BYTE   UNIT     EDATA          ?ED?OLED_WRDAT?SEEKFREE_OLED
0008AEH   0008AEH   000001H   BYTE   UNIT     EDATA          ?ED?OLED_WRCMD?SEEKFREE_OLED
0008AFH   0008AFH   000001H   BYTE   UNIT     EDATA          ?ED?OLED_WRDAT_SPI?SEEKFREE_OLED
0008B0H   0008B0H   000001H   BYTE   UNIT     EDATA          ?ED?OLED_WRCMD_SPI?SEEKFREE_OLED
0008B1H   0008B1H   000001H   BYTE   UNIT     EDATA          ?ED?CCD_COLLECT?SEEKFREE_TSL1401
0008B2H   0008B2H   000001H   BYTE   UNIT     EDATA          ?ED?UART1_ISR?ISR
0008B3H   0008B3H   000001H   BYTE   UNIT     EDATA          ?ED?ISR
0008B4H   0008B4H   000001H   BYTE   UNIT     EDATA          ?ED?LASER_RANGING_GET_UART_VALUE?LASER_RANGING
0008B5H   0009B4H   000100H   BYTE   UNIT     EDATA          ?STACK
0009B5H   00FFFFH   00F64BH   ---    ---      **GAP**
010000H   010200H   000201H   BYTE   INSEG    XDATA          ?XD?SEEKFREE_TSL1401
010201H   0102E3H   0000E3H   BYTE   INSEG    XDATA          ?XD?SEEKFREE_ASSISTANT
0102E4H   01036FH   00008CH   BYTE   UNIT     XDATA          ?XD?DL1B_INIT?SEEKFREE_DL1B
010370H   0103C7H   000058H   BYTE   INSEG    XDATA          ?XD?SEEKFREE_BLUETOOTH_CH9141
0103C8H   01041FH   000058H   BYTE   INSEG    XDATA          ?XD?SEEKFREE_WIRELESS
010420H   010477H   000058H   BYTE   INSEG    XDATA          ?XD?SEEKFREE_WIRELESS_CH573
010478H   01049BH   000024H   BYTE   UNIT     XDATA          ?XD?LCD_SHOWFLOAT_SIMSPI?SEEKFREE_18TFT
01049CH   0104BFH   000024H   BYTE   UNIT     XDATA          ?XD?LCD_SHOWFLOAT?SEEKFREE_18TFT
0104C0H   0104E3H   000024H   BYTE   UNIT     XDATA          ?XD?IPS114_SHOWFLOAT_SIMSPI?SEEKFREE_IPS114_SPI
0104E4H   010507H   000024H   BYTE   UNIT     XDATA          ?XD?IPS114_SHOWFLOAT?SEEKFREE_IPS114_SPI
010508H   01052AH   000023H   BYTE   UNIT     XDATA          ?XD?LCD_SHOWINT32_SIMSPI?SEEKFREE_18TFT
01052BH   01054DH   000023H   BYTE   UNIT     XDATA          ?XD?LCD_SHOWINT32?SEEKFREE_18TFT
01054EH   010570H   000023H   BYTE   UNIT     XDATA          ?XD?IPS114_SHOWINT32_SIMSPI?SEEKFREE_IPS114_SPI
010571H   010593H   000023H   BYTE   UNIT     XDATA          ?XD?IPS114_SHOWINT32?SEEKFREE_IPS114_SPI
010594H   0105A8H   000015H   BYTE   UNIT     XDATA          ?XD?DL1A_INIT?SEEKFREE_DL1A
0105A9H   0105B8H   000010H   BYTE   UNIT     XDATA          ?XD?DL1A_SET_MEASUREMENT_TIMING_BUDGET?SEEKFREE_DL1A
0105B9H   0105C0H   000008H   BYTE   UNIT     XDATA          ?XD?DL1A_ENCODE_TIMEOUT?SEEKFREE_DL1A
0105C1H   0105C7H   000007H   BYTE   UNIT     XDATA          ?XD?IMU660RA_GET_ACC?SEEKFREE_IMU660RA
0105C8H   0105CEH   000007H   BYTE   UNIT     XDATA          ?XD?IMU660RA_GET_GYRO?SEEKFREE_IMU660RA
0105CFH   0105D5H   000007H   BYTE   UNIT     XDATA          ?XD?IMU963RA_GET_MAG?SEEKFREE_IMU963RA
0105D6H   0105DBH   000006H   BYTE   UNIT     XDATA          ?XD?LCD_SHOWINT16_SIMSPI?SEEKFREE_18TFT
0105DCH   0105E1H   000006H   BYTE   UNIT     XDATA          ?XD?LCD_SHOWUINT16_SIMSPI?SEEKFREE_18TFT
0105E2H   0105E7H   000006H   BYTE   UNIT     XDATA          ?XD?LCD_SHOWINT16?SEEKFREE_18TFT
0105E8H   0105EDH   000006H   BYTE   UNIT     XDATA          ?XD?LCD_SHOWUINT16?SEEKFREE_18TFT
0105EEH   0105F3H   000006H   BYTE   UNIT     XDATA          ?XD?ICM20602_GET_ACC?SEEKFREE_ICM20602
0105F4H   0105F9H   000006H   BYTE   UNIT     XDATA          ?XD?ICM20602_GET_GYRO?SEEKFREE_ICM20602
0105FAH   0105FFH   000006H   BYTE   UNIT     XDATA          ?XD?IMU963RA_GET_ACC?SEEKFREE_IMU963RA
010600H   010605H   000006H   BYTE   UNIT     XDATA          ?XD?IMU963RA_GET_GYRO?SEEKFREE_IMU963RA
010606H   01060BH   000006H   BYTE   UNIT     XDATA          ?XD?IPS114_SHOWINT16_SIMSPI?SEEKFREE_IPS114_SPI
01060CH   010611H   000006H   BYTE   UNIT     XDATA          ?XD?IPS114_SHOWUINT16_SIMSPI?SEEKFREE_IPS114_SPI
010612H   010617H   000006H   BYTE   UNIT     XDATA          ?XD?IPS114_SHOWINT16?SEEKFREE_IPS114_SPI
010618H   01061DH   000006H   BYTE   UNIT     XDATA          ?XD?IPS114_SHOWUINT16?SEEKFREE_IPS114_SPI
01061EH   010623H   000006H   BYTE   UNIT     XDATA          ?XD?MPU6050_GET_ACCDATA?SEEKFREE_MPU6050
010624H   010629H   000006H   BYTE   UNIT     XDATA          ?XD?MPU6050_GET_GYRO?SEEKFREE_MPU6050
01062AH   01062EH   000005H   BYTE   UNIT     XDATA          ?XD?DL1A_SET_SIGNAL_RATE_LIMIT?SEEKFREE_DL1A
01062FH   010632H   000004H   BYTE   UNIT     XDATA          ?XD?LCD_SHOWINT8_SIMSPI?SEEKFREE_18TFT
010633H   010636H   000004H   BYTE   UNIT     XDATA          ?XD?LCD_SHOWUINT8_SIMSPI?SEEKFREE_18TFT
010637H   01063AH   000004H   BYTE   UNIT     XDATA          ?XD?LCD_SHOWINT8?SEEKFREE_18TFT
01063BH   01063EH   000004H   BYTE   UNIT     XDATA          ?XD?LCD_SHOWUINT8?SEEKFREE_18TFT
01063FH   010642H   000004H   BYTE   UNIT     XDATA          ?XD?BLUETOOTH_CH9141_READ_BUFF?SEEKFREE_BLUETOOTH_CH9141
010643H   010646H   000004H   BYTE   UNIT     XDATA          ?XD?DL1A_TIMEOUT_MCLKS_TO_MICROSECONDS?SEEKFREE_DL1A
L251 LINKER/LOCATER V4.66.93.0                                                        04/10/2024  20:12:08  PAGE 8


010647H   01064AH   000004H   BYTE   UNIT     XDATA          ?XD?DL1A_TIMEOUT_MICROSECONDS_TO_MCLKS?SEEKFREE_DL1A
01064BH   01064EH   000004H   BYTE   UNIT     XDATA          ?XD?DL1A_GET_SEQUENCE_STEP_TIMEOUTS?SEEKFREE_DL1A
01064FH   010652H   000004H   BYTE   UNIT     XDATA          ?XD?DL1A_GET_MEASUREMENT_TIMING_BUDGET?SEEKFREE_DL1A
010653H   010656H   000004H   BYTE   UNIT     XDATA          ?XD?ICM20602_SIMSPI_R_REG_BYTES?SEEKFREE_ICM20602
010657H   01065AH   000004H   BYTE   UNIT     XDATA          ?XD?IMU963RA_ACC_GYRO_SELF_CHECK?SEEKFREE_IMU963RA
01065BH   01065EH   000004H   BYTE   UNIT     XDATA          ?XD?IMU963RA_MAG_SELF_CHECK?SEEKFREE_IMU963RA
01065FH   010662H   000004H   BYTE   UNIT     XDATA          ?XD?IPS114_SHOWINT8_SIMSPI?SEEKFREE_IPS114_SPI
010663H   010666H   000004H   BYTE   UNIT     XDATA          ?XD?IPS114_SHOWUINT8_SIMSPI?SEEKFREE_IPS114_SPI
010667H   01066AH   000004H   BYTE   UNIT     XDATA          ?XD?IPS114_SHOWINT8?SEEKFREE_IPS114_SPI
01066BH   01066EH   000004H   BYTE   UNIT     XDATA          ?XD?IPS114_SHOWUINT8?SEEKFREE_IPS114_SPI
01066FH   010672H   000004H   BYTE   UNIT     XDATA          ?XD?WIRELESS_UART_READ_BUFF?SEEKFREE_WIRELESS
010673H   010676H   000004H   BYTE   UNIT     XDATA          ?XD?WIRELESS_CH573_READ_BUFF?SEEKFREE_WIRELESS_CH573
010677H   010679H   000003H   BYTE   UNIT     XDATA          ?XD?DL1A_GET_DISTANCE?SEEKFREE_DL1A
01067AH   01067CH   000003H   BYTE   UNIT     XDATA          ?XD?DL1B_GET_DISTANCE?SEEKFREE_DL1B
01067DH   01067FH   000003H   BYTE   UNIT     XDATA          ?XD?ICM20602_SELF_CHECK?SEEKFREE_ICM20602
010680H   010682H   000003H   BYTE   UNIT     XDATA          ?XD?ICM20602_INIT?SEEKFREE_ICM20602
010683H   010685H   000003H   BYTE   UNIT     XDATA          ?XD?IMU660RA_SELF_CHECK?SEEKFREE_IMU660RA
010686H   010688H   000003H   BYTE   UNIT     XDATA          ?XD?IMU963RA_WRITE_MAG_REGISTER?SEEKFREE_IMU963RA
010689H   01068AH   000002H   BYTE   UNIT     XDATA          ?XD?LCD_SHOWCHAR_SIMSPI?SEEKFREE_18TFT
01068BH   01068CH   000002H   BYTE   UNIT     XDATA          ?XD?LCD_SHOWSTR_SIMSPI?SEEKFREE_18TFT
01068DH   01068EH   000002H   BYTE   UNIT     XDATA          ?XD?LCD_WRITEDATA_16BIT?SEEKFREE_18TFT
01068FH   010690H   000002H   BYTE   UNIT     XDATA          ?XD?LCD_SHOWCHAR?SEEKFREE_18TFT
010691H   010692H   000002H   BYTE   UNIT     XDATA          ?XD?LCD_SHOWSTR?SEEKFREE_18TFT
010693H   010694H   000002H   BYTE   UNIT     XDATA          ?XD?BLUETOOTH_CH9141_SEND_BUFF?SEEKFREE_BLUETOOTH_CH9141
010695H   010696H   000002H   BYTE   UNIT     XDATA          ?XD?DL1A_SIMIIC_DELAY?SEEKFREE_DL1A
010697H   010698H   000002H   BYTE   UNIT     XDATA          ?XD?DL1A_READ_CH?SEEKFREE_DL1A
010699H   01069AH   000002H   BYTE   UNIT     XDATA          ?XD?DL1A_GET_SPAD_INFO?SEEKFREE_DL1A
01069BH   01069CH   000002H   BYTE   UNIT     XDATA          ?XD?DL1A_PERFORM_SINGLE_REF_CALIBRATION?SEEKFREE_DL1A
01069DH   01069EH   000002H   BYTE   UNIT     XDATA          ?XD?DL1B_SIMIIC_DELAY?SEEKFREE_DL1B
01069FH   0106A0H   000002H   BYTE   UNIT     XDATA          ?XD?DL1B_READ_CH?SEEKFREE_DL1B
0106A1H   0106A2H   000002H   BYTE   UNIT     XDATA          ?XD?IMU660RA_READ_REGISTER?SEEKFREE_IMU660RA
0106A3H   0106A4H   000002H   BYTE   UNIT     XDATA          ?XD?IMU963RA_READ_MAG_REGISTER?SEEKFREE_IMU963RA
0106A5H   0106A6H   000002H   BYTE   UNIT     XDATA          ?XD?IPS114_CLEAR_SIMSPI?SEEKFREE_IPS114_SPI
0106A7H   0106A8H   000002H   BYTE   UNIT     XDATA          ?XD?IPS114_SHOWCHAR_SIMSPI?SEEKFREE_IPS114_SPI
0106A9H   0106AAH   000002H   BYTE   UNIT     XDATA          ?XD?IPS114_SHOWSTR_SIMSPI?SEEKFREE_IPS114_SPI
0106ABH   0106ACH   000002H   BYTE   UNIT     XDATA          ?XD?IPS114_WRITEDATA_16BIT?SEEKFREE_IPS114_SPI
0106ADH   0106AEH   000002H   BYTE   UNIT     XDATA          ?XD?IPS114_CLEAR?SEEKFREE_IPS114_SPI
0106AFH   0106B0H   000002H   BYTE   UNIT     XDATA          ?XD?IPS114_SHOWCHAR?SEEKFREE_IPS114_SPI
0106B1H   0106B2H   000002H   BYTE   UNIT     XDATA          ?XD?IPS114_SHOWSTR?SEEKFREE_IPS114_SPI
0106B3H   0106B4H   000002H   BYTE   UNIT     XDATA          ?XD?MPU6050_SIMIIC_DELAY?SEEKFREE_MPU6050
0106B5H   0106B6H   000002H   BYTE   UNIT     XDATA          ?XD?MPU6050_READ_CH?SEEKFREE_MPU6050
0106B7H   0106B8H   000002H   BYTE   UNIT     XDATA          ?XD?OLED_HEXASCII?SEEKFREE_OLED
0106B9H   0106BAH   000002H   BYTE   UNIT     XDATA          ?XD?OLED_DIS_BMP?SEEKFREE_OLED
0106BBH   0106BCH   000002H   BYTE   UNIT     XDATA          ?XD?OLED_HEXASCII_SPI?SEEKFREE_OLED
0106BDH   0106BEH   000002H   BYTE   UNIT     XDATA          ?XD?OLED_DIS_BMP_SPI?SEEKFREE_OLED
0106BFH   0106BFH   000001H   BYTE   UNIT     XDATA          ?XD?LCD_WRITEINDEX_SIMSPI?SEEKFREE_18TFT
0106C0H   0106C0H   000001H   BYTE   UNIT     XDATA          ?XD?LCD_WRITEDATA_SIMSPI?SEEKFREE_18TFT
0106C1H   0106C1H   000001H   BYTE   UNIT     XDATA          ?XD?LCD_WRITEDATA_16BIT_SIMSPI?SEEKFREE_18TFT
0106C2H   0106C2H   000001H   BYTE   UNIT     XDATA          ?XD?LCD_CLEAR_SIMSPI?SEEKFREE_18TFT
0106C3H   0106C3H   000001H   BYTE   UNIT     XDATA          ?XD?LCD_CLEAR?SEEKFREE_18TFT
0106C4H   0106C4H   000001H   BYTE   UNIT     XDATA          ?XD?DL1A_SEND_CH?SEEKFREE_DL1A
0106C5H   0106C5H   000001H   BYTE   UNIT     XDATA          ?XD?DL1A_SIMIIC_READ_REG?SEEKFREE_DL1A
0106C6H   0106C6H   000001H   BYTE   UNIT     XDATA          ?XD?DL1A_GET_SEQUENCE_STEP_ENABLES?SEEKFREE_DL1A
0106C7H   0106C7H   000001H   BYTE   UNIT     XDATA          ?XD?DL1A_GET_VCSEL_PULSE_PERIOD?SEEKFREE_DL1A
0106C8H   0106C8H   000001H   BYTE   UNIT     XDATA          ?XD?DL1B_SEND_CH?SEEKFREE_DL1B
0106C9H   0106C9H   000001H   BYTE   UNIT     XDATA          ?XD?ICM20602_SIMSPI_WR_BYTE?SEEKFREE_ICM20602
0106CAH   0106CAH   000001H   BYTE   UNIT     XDATA          ?XD?ICM20602_READ_REGISTER?SEEKFREE_ICM20602
0106CBH   0106CBH   000001H   BYTE   UNIT     XDATA          ?XD?IMU660RA_SIMSPI_WR_BYTE?SEEKFREE_IMU660RA
0106CCH   0106CCH   000001H   BYTE   UNIT     XDATA          ?XD?IMU660RA_INIT?SEEKFREE_IMU660RA
0106CDH   0106CDH   000001H   BYTE   UNIT     XDATA          ?XD?IMU963RA_SIMSPI_WR_BYTE?SEEKFREE_IMU963RA
0106CEH   0106CEH   000001H   BYTE   UNIT     XDATA          ?XD?IMU963RA_READ_ACC_GYRO_REGISTER?SEEKFREE_IMU963RA
0106CFH   0106CFH   000001H   BYTE   UNIT     XDATA          ?XD?IMU963RA_INIT?SEEKFREE_IMU963RA
0106D0H   0106D0H   000001H   BYTE   UNIT     XDATA          ?XD?IPS114_WRITEINDEX_SIMSPI?SEEKFREE_IPS114_SPI
0106D1H   0106D1H   000001H   BYTE   UNIT     XDATA          ?XD?IPS114_WRITEDATA_SIMSPI?SEEKFREE_IPS114_SPI
0106D2H   0106D2H   000001H   BYTE   UNIT     XDATA          ?XD?IPS114_WRITEDATAI_16BIT_SIMSPI?SEEKFREE_IPS114_SPI
L251 LINKER/LOCATER V4.66.93.0                                                        04/10/2024  20:12:08  PAGE 9


0106D3H   0106D3H   000001H   BYTE   UNIT     XDATA          ?XD?MPU6050_SEND_CH?SEEKFREE_MPU6050
0106D4H   0106D4H   000001H   BYTE   UNIT     XDATA          ?XD?MPU6050_SIMIIC_READ_REG?SEEKFREE_MPU6050
0106D5H   0106D5H   000001H   BYTE   UNIT     XDATA          ?XD?OLED_WRDAT?SEEKFREE_OLED
0106D6H   0106D6H   000001H   BYTE   UNIT     XDATA          ?XD?OLED_WRCMD?SEEKFREE_OLED
0106D7H   0106D7H   000001H   BYTE   UNIT     XDATA          ?XD?OLED_FILL?SEEKFREE_OLED
0106D8H   0106D8H   000001H   BYTE   UNIT     XDATA          ?XD?OLED_P6X8STR?SEEKFREE_OLED
0106D9H   0106D9H   000001H   BYTE   UNIT     XDATA          ?XD?OLED_P8X16STR?SEEKFREE_OLED
0106DAH   0106DAH   000001H   BYTE   UNIT     XDATA          ?XD?OLED_FILL_SPI?SEEKFREE_OLED
0106DBH   0106DBH   000001H   BYTE   UNIT     XDATA          ?XD?OLED_P6X8STR_SPI?SEEKFREE_OLED
0106DCH   0106DCH   000001H   BYTE   UNIT     XDATA          ?XD?OLED_P8X16STR_SPI?SEEKFREE_OLED
0106DDH   FEFFFFH   FDF923H   ---    ---      **GAP**
FF0000H   FF0002H   000003H   ---    OFFS..   CODE           ?CO?start251?4
FF0003H   FF0022H   000020H   BYTE   INSEG    CODE           ?PR?DL1A_SIMIIC_DELAY?SEEKFREE_DL1A
FF0023H   FF0025H   000003H   ---    OFFS..   CODE           ?PR?IV?4
FF0026H   FF003FH   00001AH   BYTE   INSEG    CODE           ?PR?IMU963RA_WRITE_ACC_GYRO_REGISTER?SEEKFREE_IMU963RA
FF0040H   FF0040H   000001H   BYTE   INSEG    CODE           ?PR?KEY1_SHORT_PRESS?KEY
FF0041H   FF0041H   000001H   BYTE   INSEG    CODE           ?PR?KEY2_SHORT_PRESS?KEY
FF0042H   FF0042H   000001H   BYTE   INSEG    CODE           ?PR?KEY3_SHORT_PRESS?KEY
FF0043H   FF0045H   000003H   ---    OFFS..   CODE           ?PR?IV?8
FF0046H   FF0087H   000042H   BYTE   INSEG    CODE           ?PR?DL1A_SIMIIC_WRITE_DATS?SEEKFREE_DL1A
FF0088H   FF008AH   000003H   ---    ---      **GAP**
FF008BH   FF008DH   000003H   ---    OFFS..   CODE           ?PR?IV?17
FF008EH   FF0091H   000004H   BYTE   INSEG    CODE           ?PR?ENABLEGLOBALIRQ?BOARD
FF0092H   FF0092H   000001H   ---    ---      **GAP**
FF0093H   FF0095H   000003H   ---    OFFS..   CODE           ?PR?IV?18
FF0096H   FF211CH   002087H   BYTE   UNIT     CODE           ?CO?SEEKFREE_CONFIG
FF211DH   FF2F24H   000E08H   BYTE   UNIT     CODE           ?CO?SEEKFREE_FONT
FF2F25H   FF38BFH   00099BH   BYTE   UNIT     CODE           ?C?LIB_CODE
FF38C0H   FF41CCH   00090DH   BYTE   INSEG    CODE           ?PR?GPIO_MODE?ZF_GPIO
FF41CDH   FF482DH   000661H   BYTE   INSEG    CODE           ?PR?ZF_SPRINTF?SEEKFREE_PRINTF
FF482EH   FF4C07H   0003DAH   BYTE   INSEG    CODE           ?PR?PWM_INIT?ZF_PWM
FF4C08H   FF4FBFH   0003B8H   BYTE   INSEG    CODE           ?PR?PWM_SET_GPIO?ZF_PWM
FF4FC0H   FF5351H   000392H   BYTE   INSEG    CODE           ?PR?FIFO_WRITE_BUFFER?ZF_FIFO
FF5352H   FF5603H   0002B2H   BYTE   INSEG    CODE           ?PR?UART_INIT?ZF_UART
FF5604H   FF5809H   000206H   BYTE   INSEG    CODE           ?PR?SET_CLK?BOARD
FF580AH   FF5990H   000187H   BYTE   INSEG    CODE           ?PR?DL1A_GET_SEQUENCE_STEP_TIMEOUTS?SEEKFREE_DL1A
FF5991H   FF5AD5H   000145H   BYTE   INSEG    CODE           ?PR?OLED_PRINTF_FLOAT_SPI?SEEKFREE_OLED
FF5AD6H   FF5BECH   000117H   BYTE   INSEG    CODE           ?PR?NUMBER_CONVERSION_ASCII?SEEKFREE_PRINTF
FF5BEDH   FF5CBEH   0000D2H   BYTE   INSEG    CODE           ?PR?OLED_P6X8STR_SPI?SEEKFREE_OLED
FF5CBFH   FF5D8CH   0000CEH   BYTE   INSEG    CODE           ?PR?SPI_INIT?ZF_SPI
FF5D8DH   FF5E51H   0000C5H   BYTE   INSEG    CODE           ?PR?OLED_INIT_SPI?SEEKFREE_OLED
FF5E52H   FF5EFCH   0000ABH   BYTE   INSEG    CODE           ?PR?DL1A_ENCODE_TIMEOUT?SEEKFREE_DL1A
FF5EFDH   FF5F98H   00009CH   BYTE   INSEG    CODE           ?PR?DL1A_GET_SEQUENCE_STEP_ENABLES?SEEKFREE_DL1A
FF5F99H   FF602FH   000097H   BYTE   INSEG    CODE           ?PR?BOARD_INIT?BOARD
FF6030H   FF60C4H   000095H   BYTE   INSEG    CODE           ?PR?PRINTF_REVERSE_ORDER?SEEKFREE_PRINTF
FF60C5H   FF6146H   000082H   BYTE   INSEG    CODE           ?PR?DL1A_GET_VCSEL_PULSE_PERIOD?SEEKFREE_DL1A
FF6147H   FF61C5H   00007FH   BYTE   INSEG    CODE           ?PR?LASER_RANGING?LASER_RANGING
FF61C6H   FF623AH   000075H   BYTE   INSEG    CODE           ?PR?UART_PUTCHAR?ZF_UART
FF623BH   FF62ADH   000073H   BYTE   INSEG    CODE           ?PR?UART4_ISR?ISR
FF62AEH   FF62C0H   000013H   BYTE   UNIT     CODE           ?C_C51STARTUP
FF62C1H   FF62C2H   000002H   BYTE   UNIT     CODE           ?C_C51STARTUP?1
FF62C3H   FF631CH   00005AH   BYTE   UNIT     CODE           ?C_C51STARTUP?2
FF631DH   FF631FH   000003H   BYTE   UNIT     CODE           ?C_C51STARTUP?3
FF6320H   FF638FH   000070H   BYTE   INSEG    CODE           ?PR?FIFO_HEAD_OFFSET?ZF_FIFO
FF6390H   FF63FEH   00006FH   BYTE   INSEG    CODE           ?PR?IMU963RA_READ_MAG_REGISTER?SEEKFREE_IMU963RA
FF63FFH   FF6466H   000068H   BYTE   INSEG    CODE           ?PR?DL1A_SIMIIC_READ_REGS?SEEKFREE_DL1A
FF6467H   FF64CBH   000065H   BYTE   INSEG    CODE           ?PR?DL1A_TIMEOUT_MCLKS_TO_MICROSECONDS?SEEKFREE_DL1A
FF64CCH   FF6530H   000065H   BYTE   INSEG    CODE           ?PR?DL1A_READ_CH?SEEKFREE_DL1A
FF6531H   FF6595H   000065H   BYTE   INSEG    CODE           ?PR?DL1B_READ_CH?SEEKFREE_DL1B
FF6596H   FF65F9H   000064H   BYTE   INSEG    CODE           ?PR?LCD_SET_REGION_SIMSPI?SEEKFREE_18TFT
FF65FAH   FF665DH   000064H   BYTE   INSEG    CODE           ?PR?LCD_SET_REGION?SEEKFREE_18TFT
FF665EH   FF66C0H   000063H   BYTE   INSEG    CODE           ?PR?DL1A_TIMEOUT_MICROSECONDS_TO_MCLKS?SEEKFREE_DL1A
FF66C1H   FF6721H   000061H   BYTE   INSEG    CODE           ?PR?MAIN?MAIN
FF6722H   FF6780H   00005FH   BYTE   INSEG    CODE           ?PR?OLED_FILL_SPI?SEEKFREE_OLED
FF6781H   FF67D9H   000059H   BYTE   INSEG    CODE           ?PR?ICM20602_SIMSPI_WR_BYTE?SEEKFREE_ICM20602
L251 LINKER/LOCATER V4.66.93.0                                                        04/10/2024  20:12:08  PAGE 10


FF67DAH   FF6832H   000059H   BYTE   INSEG    CODE           ?PR?IMU660RA_SIMSPI_WR_BYTE?SEEKFREE_IMU660RA
FF6833H   FF688BH   000059H   BYTE   INSEG    CODE           ?PR?IMU963RA_SIMSPI_WR_BYTE?SEEKFREE_IMU963RA
FF688CH   FF68E2H   000057H   BYTE   INSEG    CODE           ?PR?WAIT?ZF_IIC
FF68E3H   FF6939H   000057H   BYTE   INSEG    CODE           ?PR?ICM20602_SIMSPI_R_REG_BYTES?SEEKFREE_ICM20602
FF693AH   FF698DH   000054H   BYTE   INSEG    CODE           ?PR?LCD_WRITEDATA_16BIT_SIMSPI?SEEKFREE_18TFT
FF698EH   FF69E1H   000054H   BYTE   INSEG    CODE           ?PR?IPS114_WRITEDATAI_16BIT_SIMSPI?SEEKFREE_IPS114_SPI
FF69E2H   FF6A34H   000053H   BYTE   INSEG    CODE           ?PR?KEY2_CHECK?KEY
FF6A35H   FF6A87H   000053H   BYTE   INSEG    CODE           ?PR?KEY3_CHECK?KEY
FF6A88H   FF6ADAH   000053H   BYTE   INSEG    CODE           ?PR?KEY4_CHECK?KEY
FF6ADBH   FF6B2BH   000051H   BYTE   INSEG    CODE           ?PR?KEY1_CHECK?KEY
FF6B2CH   FF6B78H   00004DH   BYTE   INSEG    CODE           ?PR?MOTOR_DRIVERS_PWM_INIT?MAIN
FF6B79H   FF6BC3H   00004BH   BYTE   INSEG    CODE           ?PR?LCD_WRITEINDEX_SIMSPI?SEEKFREE_18TFT
FF6BC4H   FF6C0EH   00004BH   BYTE   INSEG    CODE           ?PR?LCD_WRITEDATA_SIMSPI?SEEKFREE_18TFT
FF6C0FH   FF6C59H   00004BH   BYTE   INSEG    CODE           ?PR?IMU660RA_SIMSPI_R_REG_BYTES?SEEKFREE_IMU660RA
FF6C5AH   FF6CA4H   00004BH   BYTE   INSEG    CODE           ?PR?IPS114_WRITEINDEX_SIMSPI?SEEKFREE_IPS114_SPI
FF6CA5H   FF6CEFH   00004BH   BYTE   INSEG    CODE           ?PR?OLED_WRCMD?SEEKFREE_OLED
FF6CF0H   FF6D3AH   00004BH   BYTE   INSEG    CODE           ?PR?OLED_WRDAT?SEEKFREE_OLED
FF6D3BH   FF6D82H   000048H   BYTE   INSEG    CODE           ?PR?DL1A_SEND_CH?SEEKFREE_DL1A
FF6D83H   FF6DCAH   000048H   BYTE   INSEG    CODE           ?PR?DL1B_SEND_CH?SEEKFREE_DL1B
FF6DCBH   FF6E0CH   000042H   BYTE   INSEG    CODE           ?PR?KEY4_SHORT_PRESS?KEY
FF6E0DH   FF6E4DH   000041H   BYTE   INSEG    CODE           ?PR?DELAY_INIT?ZF_DELAY
FF6E4EH   FF6E84H   000037H   BYTE   INSEG    CODE           ?PR?LASER_RANGING_INIT?LASER_RANGING
FF6E85H   FF6EBAH   000036H   BYTE   INSEG    CODE           ?PR?OLED_SET_POS_SPI?SEEKFREE_OLED
FF6EBBH   FF6EEFH   000035H   BYTE   INSEG    CODE           ?PR?DELAY_MS?ZF_DELAY
FF6EF0H   FF6F24H   000035H   BYTE   INSEG    CODE           ?PR?IIC_DELAY_US?ZF_IIC
FF6F25H   FF6F59H   000035H   BYTE   INSEG    CODE           ?PR?OLED_SET_POS?SEEKFREE_OLED
FF6F5AH   FF6F8EH   000035H   BYTE   INSEG    CODE           ?PR?LASER_RANGING_UART_INIT?MAIN
FF6F8FH   FF6FC1H   000033H   BYTE   INSEG    CODE           ?PR?UART_PUTBUFF?ZF_UART
FF6FC2H   FF6FEEH   00002DH   BYTE   INSEG    CODE           ?PR?IMU963RA_SIMSPI_R_REG_BYTE?SEEKFREE_IMU963RA
FF6FEFH   FF701AH   00002CH   BYTE   INSEG    CODE           ?PR?LCD_WRITEDATA_16BIT?SEEKFREE_18TFT
FF701BH   FF7046H   00002CH   BYTE   INSEG    CODE           ?PR?IPS114_WRITEDATA_16BIT?SEEKFREE_IPS114_SPI
FF7047H   FF7070H   00002AH   BYTE   INSEG    CODE           ?PR?DL1A_DECODE_TIMEOUT?SEEKFREE_DL1A
FF7071H   FF7098H   000028H   BYTE   INSEG    CODE           ?PR?DL1A_SIMIIC_SENDACK?SEEKFREE_DL1A
FF7099H   FF70C0H   000028H   BYTE   INSEG    CODE           ?PR?DL1B_SIMIIC_SENDACK?SEEKFREE_DL1B
FF70C1H   FF70E8H   000028H   BYTE   INSEG    CODE           ?PR?MPU6050_SIMIIC_SENDACK?SEEKFREE_MPU6050
FF70E9H   FF710FH   000027H   BYTE   INSEG    CODE           ?PR?ICM20602_SIMSPI_R_REG_BYTE?SEEKFREE_ICM20602
FF7110H   FF7136H   000027H   BYTE   INSEG    CODE           ?PR?IMU963RA_READ_ACC_GYRO_REGISTER?SEEKFREE_IMU963RA
FF7137H   FF715CH   000026H   BYTE   INSEG    CODE           ?PR?IMU660RA_READ_REGISTER?SEEKFREE_IMU660RA
FF715DH   FF7181H   000025H   BYTE   INSEG    CODE           ?PR?MEMCPY?_?MEMCPY
FF7182H   FF71A5H   000024H   BYTE   INSEG    CODE           ?PR?UART1_ISR?ISR
FF71A6H   FF71C7H   000022H   BYTE   INSEG    CODE           ?PR?BLUETOOTH_CH9141_UART_CALLBACK?SEEKFREE_BLUETOOTH_CH91
                                                             -41
FF71C8H   FF71E9H   000022H   BYTE   INSEG    CODE           ?PR?ICM20602_READ_REGISTER?SEEKFREE_ICM20602
FF71EAH   FF720BH   000022H   BYTE   INSEG    CODE           ?PR?WIRELESS_UART_CALLBACK?SEEKFREE_WIRELESS
FF720CH   FF722DH   000022H   BYTE   INSEG    CODE           ?PR?WIRELESS_CH573_CALLBACK?SEEKFREE_WIRELESS_CH573
FF722EH   FF724EH   000021H   BYTE   INSEG    CODE           ?PR?DL1A_SCCB_WAITACK?SEEKFREE_DL1A
FF724FH   FF726FH   000021H   BYTE   INSEG    CODE           ?PR?DL1B_SCCB_WAITACK?SEEKFREE_DL1B
FF7270H   FF7290H   000021H   BYTE   INSEG    CODE           ?PR?IMU963RA_SIMSPI_W_REG_BYTE?SEEKFREE_IMU963RA
FF7291H   FF72B0H   000020H   BYTE   INSEG    CODE           ?PR?DL1B_SIMIIC_DELAY?SEEKFREE_DL1B
FF72B1H   FF72D0H   000020H   BYTE   INSEG    CODE           ?PR?MPU6050_SIMIIC_DELAY?SEEKFREE_MPU6050
FF72D1H   FF72EEH   00001EH   BYTE   INSEG    CODE           ?PR?UART2_ISR?ISR
FF72EFH   FF730CH   00001EH   BYTE   INSEG    CODE           ?PR?UART3_ISR?ISR
FF730DH   FF7323H   000017H   BYTE   INSEG    CODE           ?PR?GPIO_INIT?MAIN
FF7324H   FF7339H   000016H   BYTE   INSEG    CODE           ?PR?DL1A_SIMIIC_STOP?SEEKFREE_DL1A
FF733AH   FF734FH   000016H   BYTE   INSEG    CODE           ?PR?MPU6050_SIMIIC_STOP?SEEKFREE_MPU6050
FF7350H   FF7364H   000015H   BYTE   INSEG    CODE           ?PR?LCD_WRITEINDEX?SEEKFREE_18TFT
FF7365H   FF7379H   000015H   BYTE   INSEG    CODE           ?PR?LCD_WRITEDATA?SEEKFREE_18TFT
FF737AH   FF738EH   000015H   BYTE   INSEG    CODE           ?PR?IPS114_WRITEINDEX?SEEKFREE_IPS114_SPI
FF738FH   FF73A3H   000015H   BYTE   INSEG    CODE           ?PR?OLED_WRCMD_SPI?SEEKFREE_OLED
FF73A4H   FF73B8H   000015H   BYTE   INSEG    CODE           ?PR?OLED_WRDAT_SPI?SEEKFREE_OLED
FF73B9H   FF73CBH   000013H   BYTE   INSEG    CODE           ?PR?DL1A_SIMIIC_START?SEEKFREE_DL1A
FF73CCH   FF73DEH   000013H   BYTE   INSEG    CODE           ?PR?MPU6050_SIMIIC_START?SEEKFREE_MPU6050
FF73DFH   FF73F0H   000012H   BYTE   INSEG    CODE           ?PR?PUTCHAR?BOARD
FF73F1H   FF7402H   000012H   BYTE   INSEG    CODE           ?PR?SPI_MOSI?ZF_SPI
FF7403H   FF7412H   000010H   BYTE   INSEG    CODE           ?PR?KEYS_UI_INIT?KEY
L251 LINKER/LOCATER V4.66.93.0                                                        04/10/2024  20:12:08  PAGE 11


FF7413H   FF7416H   000004H   BYTE   UNIT     CONST          ?CO?PRINTF
FF7417H   FF75EFH   0001D9H   BYTE   UNIT     HCONST         ?C_INITEDATA
FF75F0H   FF7647H   000058H   BYTE   UNIT     HCONST         ?HC?ZF_PWM
FF7648H   FF7692H   00004BH   BYTE   UNIT     HCONST         ?HC?SEEKFREE_IMU963RA
FF7693H   FF76C7H   000035H   BYTE   UNIT     HCONST         ?HC?KEY
FF76C8H   FF76FBH   000034H   BYTE   UNIT     HCONST         ?HC?SEEKFREE_IMU660RA
FF76FCH   FF772FH   000034H   BYTE   UNIT     HCONST         ?C_INITHDATA
FF7730H   FF7762H   000033H   BYTE   UNIT     HCONST         ?HC?SEEKFREE_ICM20602
FF7763H   FF7778H   000016H   BYTE   UNIT     HCONST         ?HC?SEEKFREE_MPU6050
FF7779H   FF778CH   000014H   BYTE   UNIT     HCONST         ?HC?MAIN
FF778DH   FF779FH   000013H   BYTE   UNIT     HCONST         ?HC?SEEKFREE_DL1A
FF77A0H   FF77A9H   00000AH   BYTE   UNIT     HCONST         ?HC?SEEKFREE_OLED
FF77AAH   FF77AFH   000006H   BYTE   UNIT     HCONST         ?HC?SEEKFREE_18TFT
FF77B0H   FF77B5H   000006H   BYTE   UNIT     HCONST         ?HC?SEEKFREE_IPS114_SPI

* * * * * * * * *   R E M O V E D     S E G M E N T S   * * * * * * * *
   *DEL*:           000004H   BYTE   INSEG    CODE           ?PR?DISABLEGLOBALIRQ?BOARD
   *DEL*:           000056H   BYTE   INSEG    CODE           ?PR?ADC_ONCE?ZF_ADC
   *DEL*:           0000B5H   BYTE   INSEG    CODE           ?PR?ADC_INIT?ZF_ADC
   *DEL*:           000033H   BYTE   INSEG    CODE           ?PR?DELAY_US?ZF_DELAY
   *DEL*:           00001AH   BYTE   INSEG    CODE           ?PR?IAP_SET_TPS?ZF_EEPROM
   *DEL*:           000015H   BYTE   INSEG    CODE           ?PR?EEPROM_TRIG?ZF_EEPROM
   *DEL*:           000029H   BYTE   INSEG    CODE           ?PR?IAP_ERASE_PAGE?ZF_EEPROM
   *DEL*:           000004H   BYTE   INSEG    CODE           ?PR?IAP_IDLE?ZF_EEPROM
   *DEL*:           000062H   BYTE   INSEG    CODE           ?PR?IAP_READ_BYTES?ZF_EEPROM
   *DEL*:           000008H   BYTE   INSEG    CODE           ?PR?IAP_INIT?ZF_EEPROM
   *DEL*:           00005EH   BYTE   INSEG    CODE           ?PR?IAP_WRITE_BYTES?ZF_EEPROM
   *DEL*:           000012H   BYTE   INSEG    CODE           ?PR?IAP_GET_CMD_STATE?ZF_EEPROM
   *DEL*:           000066H   BYTE   INSEG    CODE           ?PR?EXIT_INIT?ZF_EXTI
   *DEL*:           000095H   BYTE   INSEG    CODE           ?PR?GPIO_PULL_SET?ZF_GPIO
   *DEL*:           0000B9H   BYTE   INSEG    CODE           ?PR?NVIC_SETPRIORITY?ZF_NVIC
   *DEL*:           000118H   BYTE   INSEG    CODE           ?PR?PWM_DUTY?ZF_PWM
   *DEL*:           0001ABH   BYTE   INSEG    CODE           ?PR?PWM_FREQ?ZF_PWM
   *DEL*:           000026H   BYTE   INSEG    CODE           ?PR?SPI_CHANGE_MODE?ZF_SPI
   *DEL*:           0000CCH   BYTE   INSEG    CODE           ?PR?SPI_CHANGE_PIN?ZF_SPI
   *DEL*:           0000B4H   BYTE   INSEG    CODE           ?PR?CTIMER_COUNT_READ?ZF_TIM
   *DEL*:           0000E5H   BYTE   INSEG    CODE           ?PR?PIT_TIMER_MS?ZF_TIM
   *DEL*:           000054H   BYTE   INSEG    CODE           ?PR?CTIMER_COUNT_INIT?ZF_TIM
   *DEL*:           00005DH   BYTE   INSEG    CODE           ?PR?CTIMER_COUNT_CLEAN?ZF_TIM
   *DEL*:           00002BH   BYTE   INSEG    CODE           ?PR?UART_PUTSTR?ZF_UART
   *DEL*:           0003ACH   BYTE   INSEG    CODE           ?PR?FIFO_READ_BUFFER?ZF_FIFO
   *DEL*:           00013BH   BYTE   INSEG    CODE           ?PR?FIFO_WRITE_ELEMENT?ZF_FIFO
   *DEL*:           000434H   BYTE   INSEG    CODE           ?PR?FIFO_READ_TAIL_BUFFER?ZF_FIFO
   *DEL*:           0000EAH   BYTE   INSEG    CODE           ?PR?FIFO_CLEAR?ZF_FIFO
   *DEL*:           000070H   BYTE   INSEG    CODE           ?PR?FIFO_END_OFFSET?ZF_FIFO
   *DEL*:           000025H   BYTE   INSEG    CODE           ?PR?FIFO_USED?ZF_FIFO
   *DEL*:           000083H   BYTE   INSEG    CODE           ?PR?FIFO_INIT?ZF_FIFO
   *DEL*:           00018BH   BYTE   INSEG    CODE           ?PR?FIFO_READ_ELEMENT?ZF_FIFO
   *DEL*:           000028H   BYTE   INSEG    CODE           ?PR?SEND_DATA?ZF_IIC
   *DEL*:           000037H   BYTE   INSEG    CODE           ?PR?IIC_CHANGE_PIN?ZF_IIC
   *DEL*:           00001CH   BYTE   INSEG    CODE           ?PR?RECV_DATA?ZF_IIC
   *DEL*:           000015H   BYTE   INSEG    CODE           ?PR?START?ZF_IIC
   *DEL*:           000021H   BYTE   INSEG    CODE           ?PR?SEND_ACK?ZF_IIC
   *DEL*:           000015H   BYTE   INSEG    CODE           ?PR?RECV_ACK?ZF_IIC
   *DEL*:           000015H   BYTE   INSEG    CODE           ?PR?STOP?ZF_IIC
   *DEL*:           00001EH   BYTE   INSEG    CODE           ?PR?SEND_NAK?ZF_IIC
   *DEL*:           00007AH   BYTE   INSEG    CODE           ?PR?IIC_INIT?ZF_IIC
   *DEL*:           000099H   BYTE   INSEG    CODE           ?PR?IIC_READ_REG?ZF_IIC
   *DEL*:           0000D4H   BYTE   INSEG    CODE           ?PR?IIC_READ_REG_BYTES?ZF_IIC
   *DEL*:           00007CH   BYTE   INSEG    CODE           ?PR?IIC_WRITE_REG?ZF_IIC
   *DEL*:           0000D1H   BYTE   INSEG    CODE           ?PR?LCD_SHOWUINT16?SEEKFREE_18TFT
   *DEL*:           0000E5H   BYTE   INSEG    CODE           ?PR?LCD_SHOWINT32_SIMSPI?SEEKFREE_18TFT
   *DEL*:           00011FH   BYTE   INSEG    CODE           ?PR?LCD_SHOWINT16_SIMSPI?SEEKFREE_18TFT
   *DEL*:           0000E5H   BYTE   INSEG    CODE           ?PR?LCD_SHOWINT32?SEEKFREE_18TFT
   *DEL*:           00011FH   BYTE   INSEG    CODE           ?PR?LCD_SHOWINT16?SEEKFREE_18TFT
L251 LINKER/LOCATER V4.66.93.0                                                        04/10/2024  20:12:08  PAGE 12


   *DEL*:           000057H   BYTE   INSEG    CODE           ?PR?LCD_CLEAR_SIMSPI?SEEKFREE_18TFT
   *DEL*:           000057H   BYTE   INSEG    CODE           ?PR?LCD_CLEAR?SEEKFREE_18TFT
   *DEL*:           00006AH   BYTE   INSEG    CODE           ?PR?LCD_SHOWSTR_SIMSPI?SEEKFREE_18TFT
   *DEL*:           00006AH   BYTE   INSEG    CODE           ?PR?LCD_SHOWSTR?SEEKFREE_18TFT
   *DEL*:           0001FDH   BYTE   INSEG    CODE           ?PR?LCD_INIT_SIMSPI?SEEKFREE_18TFT
   *DEL*:           0000ECH   BYTE   INSEG    CODE           ?PR?SHOWIMAGE?SEEKFREE_18TFT
   *DEL*:           0001F3H   BYTE   INSEG    CODE           ?PR?LCD_INIT?SEEKFREE_18TFT
   *DEL*:           0000ADH   BYTE   INSEG    CODE           ?PR?LCD_SHOWUINT8_SIMSPI?SEEKFREE_18TFT
   *DEL*:           0000ADH   BYTE   INSEG    CODE           ?PR?LCD_SHOWUINT8?SEEKFREE_18TFT
   *DEL*:           0000F1H   BYTE   INSEG    CODE           ?PR?LCD_SHOWINT8_SIMSPI?SEEKFREE_18TFT
   *DEL*:           0000F1H   BYTE   INSEG    CODE           ?PR?LCD_SHOWINT8?SEEKFREE_18TFT
   *DEL*:           000169H   BYTE   INSEG    CODE           ?PR?LCD_SHOWFLOAT_SIMSPI?SEEKFREE_18TFT
   *DEL*:           000023H   BYTE   INSEG    CODE           ?PR?LCD_DRAWPOINT_SIMSPI?SEEKFREE_18TFT
   *DEL*:           000169H   BYTE   INSEG    CODE           ?PR?LCD_SHOWFLOAT?SEEKFREE_18TFT
   *DEL*:           000023H   BYTE   INSEG    CODE           ?PR?LCD_DRAWPOINT?SEEKFREE_18TFT
   *DEL*:           0000BCH   BYTE   INSEG    CODE           ?PR?LCD_SHOWCHAR_SIMSPI?SEEKFREE_18TFT
   *DEL*:           0000BCH   BYTE   INSEG    CODE           ?PR?LCD_SHOWCHAR?SEEKFREE_18TFT
   *DEL*:           0000D1H   BYTE   INSEG    CODE           ?PR?LCD_SHOWUINT16_SIMSPI?SEEKFREE_18TFT
   *DEL*:           000042H   BYTE   INSEG    CODE           ?PR?BLUETOOTH_CH9141_READ_BUFF?SEEKFREE_BLUETOOTH_CH9141
   *DEL*:           0000E0H   BYTE   INSEG    CODE           ?PR?BLUETOOTH_CH9141_SEND_BUFF?SEEKFREE_BLUETOOTH_CH9141
   *DEL*:           00004AH   BYTE   INSEG    CODE           ?PR?BLUETOOTH_CH9141_INIT?SEEKFREE_BLUETOOTH_CH9141
   *DEL*:           00004AH   BYTE   INSEG    CODE           ?PR?DL1A_SET_SIGNAL_RATE_LIMIT?SEEKFREE_DL1A
   *DEL*:           0001ACH   BYTE   INSEG    CODE           ?PR?DL1A_GET_SPAD_INFO?SEEKFREE_DL1A
   *DEL*:           000076H   BYTE   INSEG    CODE           ?PR?DL1A_GET_DISTANCE?SEEKFREE_DL1A
   *DEL*:           0000B5H   BYTE   INSEG    CODE           ?PR?DL1A_PERFORM_SINGLE_REF_CALIBRATION?SEEKFREE_DL1A
   *DEL*:           0000EFH   BYTE   INSEG    CODE           ?PR?DL1A_GET_MEASUREMENT_TIMING_BUDGET?SEEKFREE_DL1A
   *DEL*:           00003BH   BYTE   INSEG    CODE           ?PR?DL1A_SIMIIC_READ_REG?SEEKFREE_DL1A
   *DEL*:           000068H   BYTE   INSEG    CODE           ?PR?DL1A_SIMIIC_READ_REGS_1?SEEKFREE_DL1A
   *DEL*:           0001ACH   BYTE   INSEG    CODE           ?PR?DL1A_SET_MEASUREMENT_TIMING_BUDGET?SEEKFREE_DL1A
   *DEL*:           00002AH   BYTE   INSEG    CODE           ?PR?DL1A_SIMIIC_WRITE_REG?SEEKFREE_DL1A
   *DEL*:           0006F9H   BYTE   INSEG    CODE           ?PR?DL1A_INIT?SEEKFREE_DL1A
   *DEL*:           000079H   BYTE   INSEG    CODE           ?PR?DL1B_IIC_TRANSFER_8BIT_ARRAY?SEEKFREE_DL1B
   *DEL*:           000156H   BYTE   INSEG    CODE           ?PR?DL1B_GET_DISTANCE?SEEKFREE_DL1B
   *DEL*:           000013H   BYTE   INSEG    CODE           ?PR?DL1B_SIMIIC_START?SEEKFREE_DL1B
   *DEL*:           000016H   BYTE   INSEG    CODE           ?PR?DL1B_SIMIIC_STOP?SEEKFREE_DL1B
   *DEL*:           000133H   BYTE   INSEG    CODE           ?PR?DL1B_INIT?SEEKFREE_DL1B
   *DEL*:           00008DH   BYTE   INSEG    CODE           ?PR?ICM20602_GYRO_TRANSITION?SEEKFREE_ICM20602
   *DEL*:           00001AH   BYTE   INSEG    CODE           ?PR?ICM20602_WRITE_REGISTER?SEEKFREE_ICM20602
   *DEL*:           000051H   BYTE   INSEG    CODE           ?PR?ICM20602_SELF_CHECK?SEEKFREE_ICM20602
   *DEL*:           00001BH   BYTE   INSEG    CODE           ?PR?ICM20602_SIMSPI_W_REG_BYTE?SEEKFREE_ICM20602
   *DEL*:           0000C5H   BYTE   INSEG    CODE           ?PR?ICM20602_INIT?SEEKFREE_ICM20602
   *DEL*:           000054H   BYTE   INSEG    CODE           ?PR?ICM20602_GET_ACC?SEEKFREE_ICM20602
   *DEL*:           000089H   BYTE   INSEG    CODE           ?PR?ICM20602_ACC_TRANSITION?SEEKFREE_ICM20602
   *DEL*:           000026H   BYTE   INSEG    CODE           ?PR?ICM20602_READ_REGISTERS?SEEKFREE_ICM20602
   *DEL*:           000054H   BYTE   INSEG    CODE           ?PR?ICM20602_GET_GYRO?SEEKFREE_ICM20602
   *DEL*:           000054H   BYTE   INSEG    CODE           ?PR?IMU660RA_GET_GYRO?SEEKFREE_IMU660RA
   *DEL*:           000022H   BYTE   INSEG    CODE           ?PR?IMU660RA_WRITE_REGISTERS?SEEKFREE_IMU660RA
   *DEL*:           0000A8H   BYTE   INSEG    CODE           ?PR?IMU660RA_GYRO_TRANSITION?SEEKFREE_IMU660RA
   *DEL*:           00001AH   BYTE   INSEG    CODE           ?PR?IMU660RA_WRITE_REGISTER?SEEKFREE_IMU660RA
   *DEL*:           00004EH   BYTE   INSEG    CODE           ?PR?IMU660RA_SELF_CHECK?SEEKFREE_IMU660RA
   *DEL*:           00003EH   BYTE   INSEG    CODE           ?PR?IMU660RA_SIMSPI_W_REG_BYTES?SEEKFREE_IMU660RA
   *DEL*:           00001BH   BYTE   INSEG    CODE           ?PR?IMU660RA_SIMSPI_W_REG_BYTE?SEEKFREE_IMU660RA
   *DEL*:           0000AEH   BYTE   INSEG    CODE           ?PR?IMU660RA_INIT?SEEKFREE_IMU660RA
   *DEL*:           000054H   BYTE   INSEG    CODE           ?PR?IMU660RA_GET_ACC?SEEKFREE_IMU660RA
   *DEL*:           00007CH   BYTE   INSEG    CODE           ?PR?IMU660RA_ACC_TRANSITION?SEEKFREE_IMU660RA
   *DEL*:           000026H   BYTE   INSEG    CODE           ?PR?IMU660RA_READ_REGISTERS?SEEKFREE_IMU660RA
   *DEL*:           00008DH   BYTE   INSEG    CODE           ?PR?IMU963RA_ACC_TRANSITION?SEEKFREE_IMU963RA
   *DEL*:           000054H   BYTE   INSEG    CODE           ?PR?IMU963RA_GET_GYRO?SEEKFREE_IMU963RA
   *DEL*:           000051H   BYTE   INSEG    CODE           ?PR?IMU963RA_MAG_TRANSITION?SEEKFREE_IMU963RA
   *DEL*:           0000D2H   BYTE   INSEG    CODE           ?PR?IMU963RA_GYRO_TRANSITION?SEEKFREE_IMU963RA
   *DEL*:           00003AH   BYTE   INSEG    CODE           ?PR?IMU963RA_CONNECT_MAG?SEEKFREE_IMU963RA
   *DEL*:           000026H   BYTE   INSEG    CODE           ?PR?IMU963RA_READ_ACC_GYRO_REGISTERS?SEEKFREE_IMU963RA
   *DEL*:           000082H   BYTE   INSEG    CODE           ?PR?IMU963RA_WRITE_MAG_REGISTER?SEEKFREE_IMU963RA
   *DEL*:           00004BH   BYTE   INSEG    CODE           ?PR?IMU963RA_SIMSPI_R_REG_BYTES?SEEKFREE_IMU963RA
   *DEL*:           000054H   BYTE   INSEG    CODE           ?PR?IMU963RA_MAG_SELF_CHECK?SEEKFREE_IMU963RA
L251 LINKER/LOCATER V4.66.93.0                                                        04/10/2024  20:12:08  PAGE 13


   *DEL*:           00011DH   BYTE   INSEG    CODE           ?PR?IMU963RA_INIT?SEEKFREE_IMU963RA
   *DEL*:           000051H   BYTE   INSEG    CODE           ?PR?IMU963RA_ACC_GYRO_SELF_CHECK?SEEKFREE_IMU963RA
   *DEL*:           000054H   BYTE   INSEG    CODE           ?PR?IMU963RA_GET_ACC?SEEKFREE_IMU963RA
   *DEL*:           000073H   BYTE   INSEG    CODE           ?PR?IMU963RA_GET_MAG?SEEKFREE_IMU963RA
   *DEL*:           0000ADH   BYTE   INSEG    CODE           ?PR?IPS114_SHOWUINT8_SIMSPI?SEEKFREE_IPS114_SPI
   *DEL*:           0000A9H   BYTE   INSEG    CODE           ?PR?IPS114_SHOWUINT8?SEEKFREE_IPS114_SPI
   *DEL*:           0000F1H   BYTE   INSEG    CODE           ?PR?IPS114_SHOWINT8_SIMSPI?SEEKFREE_IPS114_SPI
   *DEL*:           0000EDH   BYTE   INSEG    CODE           ?PR?IPS114_SHOWINT8?SEEKFREE_IPS114_SPI
   *DEL*:           000169H   BYTE   INSEG    CODE           ?PR?IPS114_SHOWFLOAT_SIMSPI?SEEKFREE_IPS114_SPI
   *DEL*:           000023H   BYTE   INSEG    CODE           ?PR?IPS114_DRAWPOINT_SIMSPI?SEEKFREE_IPS114_SPI
   *DEL*:           000169H   BYTE   INSEG    CODE           ?PR?IPS114_SHOWFLOAT?SEEKFREE_IPS114_SPI
   *DEL*:           000023H   BYTE   INSEG    CODE           ?PR?IPS114_DRAWPOINT?SEEKFREE_IPS114_SPI
   *DEL*:           0000BCH   BYTE   INSEG    CODE           ?PR?IPS114_SHOWCHAR_SIMSPI?SEEKFREE_IPS114_SPI
   *DEL*:           0000BCH   BYTE   INSEG    CODE           ?PR?IPS114_SHOWCHAR?SEEKFREE_IPS114_SPI
   *DEL*:           0000D1H   BYTE   INSEG    CODE           ?PR?IPS114_SHOWUINT16_SIMSPI?SEEKFREE_IPS114_SPI
   *DEL*:           0000D1H   BYTE   INSEG    CODE           ?PR?IPS114_SHOWUINT16?SEEKFREE_IPS114_SPI
   *DEL*:           0000E5H   BYTE   INSEG    CODE           ?PR?IPS114_SHOWINT32_SIMSPI?SEEKFREE_IPS114_SPI
   *DEL*:           00011FH   BYTE   INSEG    CODE           ?PR?IPS114_SHOWINT16_SIMSPI?SEEKFREE_IPS114_SPI
   *DEL*:           0000E5H   BYTE   INSEG    CODE           ?PR?IPS114_SHOWINT32?SEEKFREE_IPS114_SPI
   *DEL*:           00011BH   BYTE   INSEG    CODE           ?PR?IPS114_SHOWINT16?SEEKFREE_IPS114_SPI
   *DEL*:           000064H   BYTE   INSEG    CODE           ?PR?IPS114_CLEAR_SIMSPI?SEEKFREE_IPS114_SPI
   *DEL*:           000064H   BYTE   INSEG    CODE           ?PR?IPS114_CLEAR?SEEKFREE_IPS114_SPI
   *DEL*:           00006AH   BYTE   INSEG    CODE           ?PR?IPS114_SHOWSTR_SIMSPI?SEEKFREE_IPS114_SPI
   *DEL*:           00006AH   BYTE   INSEG    CODE           ?PR?IPS114_SHOWSTR?SEEKFREE_IPS114_SPI
   *DEL*:           00004BH   BYTE   INSEG    CODE           ?PR?IPS114_WRITEDATA_SIMSPI?SEEKFREE_IPS114_SPI
   *DEL*:           000015H   BYTE   INSEG    CODE           ?PR?IPS114_WRITEDATA?SEEKFREE_IPS114_SPI
   *DEL*:           000054H   BYTE   INSEG    CODE           ?PR?IPS114_SET_REGION_SIMSPI?SEEKFREE_IPS114_SPI
   *DEL*:           000154H   BYTE   INSEG    CODE           ?PR?IPS114_INIT_SIMSPI?SEEKFREE_IPS114_SPI
   *DEL*:           000054H   BYTE   INSEG    CODE           ?PR?IPS114_SET_REGION?SEEKFREE_IPS114_SPI
   *DEL*:           000174H   BYTE   INSEG    CODE           ?PR?IPS114_INIT?SEEKFREE_IPS114_SPI
   *DEL*:           00006CH   BYTE   INSEG    CODE           ?PR?MPU6050_SIMIIC_READ_REGS?SEEKFREE_MPU6050
   *DEL*:           00003BH   BYTE   INSEG    CODE           ?PR?MPU6050_SIMIIC_READ_REG?SEEKFREE_MPU6050
   *DEL*:           00002AH   BYTE   INSEG    CODE           ?PR?MPU6050_SIMIIC_WRITE_REG?SEEKFREE_MPU6050
   *DEL*:           000060H   BYTE   INSEG    CODE           ?PR?MPU6050_INIT?SEEKFREE_MPU6050
   *DEL*:           000033H   BYTE   INSEG    CODE           ?PR?MPU6050_SELF1_CHECK?SEEKFREE_MPU6050
   *DEL*:           000065H   BYTE   INSEG    CODE           ?PR?MPU6050_READ_CH?SEEKFREE_MPU6050
   *DEL*:           000048H   BYTE   INSEG    CODE           ?PR?MPU6050_SEND_CH?SEEKFREE_MPU6050
   *DEL*:           000056H   BYTE   INSEG    CODE           ?PR?MPU6050_GET_GYRO?SEEKFREE_MPU6050
   *DEL*:           000021H   BYTE   INSEG    CODE           ?PR?MPU6050_SCCB_WAITACK?SEEKFREE_MPU6050
   *DEL*:           000056H   BYTE   INSEG    CODE           ?PR?MPU6050_GET_ACCDATA?SEEKFREE_MPU6050
   *DEL*:           000047H   BYTE   INSEG    CODE           ?PR?OLED_PUTPIXEL?SEEKFREE_OLED
   *DEL*:           000074H   BYTE   INSEG    CODE           ?PR?OLED_HEXASCII_SPI?SEEKFREE_OLED
   *DEL*:           000474H   BYTE   INSEG    CODE           ?PR?OLED_DIS_BMP_SPI?SEEKFREE_OLED
   *DEL*:           000145H   BYTE   INSEG    CODE           ?PR?OLED_PRINTF_FLOAT?SEEKFREE_OLED
   *DEL*:           000123H   BYTE   INSEG    CODE           ?PR?OLED_P8X16STR_SPI?SEEKFREE_OLED
   *DEL*:           000041H   BYTE   INSEG    CODE           ?PR?OLED_CLRPIXEL_SPI?SEEKFREE_OLED
   *DEL*:           0000C0H   BYTE   INSEG    CODE           ?PR?OLED_PRINT_CHINESE_SPI?SEEKFREE_OLED
   *DEL*:           00005FH   BYTE   INSEG    CODE           ?PR?OLED_FILL?SEEKFREE_OLED
   *DEL*:           0000CEH   BYTE   INSEG    CODE           ?PR?OLED_PRINTF_INT32?SEEKFREE_OLED
   *DEL*:           000027H   BYTE   INSEG    CODE           ?PR?OLED_UINT16?SEEKFREE_OLED
   *DEL*:           000048H   BYTE   INSEG    CODE           ?PR?OLED_PUTPIXEL_SPI?SEEKFREE_OLED
   *DEL*:           0000D2H   BYTE   INSEG    CODE           ?PR?OLED_P6X8STR?SEEKFREE_OLED
   *DEL*:           000073H   BYTE   INSEG    CODE           ?PR?OLED_INT16?SEEKFREE_OLED
   *DEL*:           0000A8H   BYTE   INSEG    CODE           ?PR?OLED_INIT?SEEKFREE_OLED
   *DEL*:           000074H   BYTE   INSEG    CODE           ?PR?OLED_HEXASCII?SEEKFREE_OLED
   *DEL*:           0000CEH   BYTE   INSEG    CODE           ?PR?OLED_PRINTF_INT32_SPI?SEEKFREE_OLED
   *DEL*:           000027H   BYTE   INSEG    CODE           ?PR?OLED_UINT16_SPI?SEEKFREE_OLED
   *DEL*:           000073H   BYTE   INSEG    CODE           ?PR?OLED_INT16_SPI?SEEKFREE_OLED
   *DEL*:           000481H   BYTE   INSEG    CODE           ?PR?OLED_DIS_BMP?SEEKFREE_OLED
   *DEL*:           000123H   BYTE   INSEG    CODE           ?PR?OLED_P8X16STR?SEEKFREE_OLED
   *DEL*:           000040H   BYTE   INSEG    CODE           ?PR?OLED_CLRPIXEL?SEEKFREE_OLED
   *DEL*:           0000C0H   BYTE   INSEG    CODE           ?PR?OLED_PRINT_CHINESE?SEEKFREE_OLED
   *DEL*:           00008AH   BYTE   INSEG    CODE           ?PR?CCD_SEND_DATA?SEEKFREE_TSL1401
   *DEL*:           000022H   BYTE   INSEG    CODE           ?PR?CCD_INIT?SEEKFREE_TSL1401
   *DEL*:           000088H   BYTE   INSEG    CODE           ?PR?CCD_COLLECT?SEEKFREE_TSL1401
L251 LINKER/LOCATER V4.66.93.0                                                        04/10/2024  20:12:08  PAGE 14


   *DEL*:           00009AH   BYTE   INSEG    CODE           ?PR?CRC_CHECK?SEEKFREE_VIRSCO
   *DEL*:           0000DCH   BYTE   INSEG    CODE           ?PR?DATA_CONVERSION?SEEKFREE_VIRSCO
   *DEL*:           000042H   BYTE   INSEG    CODE           ?PR?WIRELESS_UART_READ_BUFF?SEEKFREE_WIRELESS
   *DEL*:           000075H   BYTE   INSEG    CODE           ?PR?WIRELESS_UART_SEND_BUFF?SEEKFREE_WIRELESS
   *DEL*:           00004CH   BYTE   INSEG    CODE           ?PR?WIRELESS_UART_INIT?SEEKFREE_WIRELESS
   *DEL*:           000042H   BYTE   INSEG    CODE           ?PR?WIRELESS_CH573_READ_BUFF?SEEKFREE_WIRELESS_CH573
   *DEL*:           00007DH   BYTE   INSEG    CODE           ?PR?WIRELESS_CH573_SEND_BUFF?SEEKFREE_WIRELESS_CH573
   *DEL*:           00004CH   BYTE   INSEG    CODE           ?PR?WIRELESS_CH573_INIT?SEEKFREE_WIRELESS_CH573
   *DEL*:           000018H   BYTE   INSEG    CODE           ?PR?LSM303_IIC_INIT?MAIN
   *DEL*:           000007H   BYTE   INSEG    CODE           ?PR?WHEELS_X_BACKWARD?MOTOR_DRIVER_BOARDS
   *DEL*:           000007H   BYTE   INSEG    CODE           ?PR?WHEELS_Y_BACKWARD?MOTOR_DRIVER_BOARDS
   *DEL*:           000007H   BYTE   INSEG    CODE           ?PR?WHEELS_X_STOP?MOTOR_DRIVER_BOARDS
   *DEL*:           000007H   BYTE   INSEG    CODE           ?PR?WHEELS_Y_STOP?MOTOR_DRIVER_BOARDS
   *DEL*:           000007H   BYTE   INSEG    CODE           ?PR?WHEEL_X_REAR_BACKWARD?MOTOR_DRIVER_BOARDS
   *DEL*:           000007H   BYTE   INSEG    CODE           ?PR?WHEEL_X_FRONT_BACKWARD?MOTOR_DRIVER_BOARDS
   *DEL*:           000007H   BYTE   INSEG    CODE           ?PR?WHEEL_Y_REAR_BACKWARD?MOTOR_DRIVER_BOARDS
   *DEL*:           000007H   BYTE   INSEG    CODE           ?PR?WHEEL_Y_FRONT_BACKWARD?MOTOR_DRIVER_BOARDS
   *DEL*:           000007H   BYTE   INSEG    CODE           ?PR?WHEEL_X_REAR_STOP?MOTOR_DRIVER_BOARDS
   *DEL*:           000007H   BYTE   INSEG    CODE           ?PR?WHEEL_X_FRONT_STOP?MOTOR_DRIVER_BOARDS
   *DEL*:           000007H   BYTE   INSEG    CODE           ?PR?WHEEL_Y_REAR_STOP?MOTOR_DRIVER_BOARDS
   *DEL*:           000007H   BYTE   INSEG    CODE           ?PR?WHEEL_Y_FRONT_STOP?MOTOR_DRIVER_BOARDS
   *DEL*:           000007H   BYTE   INSEG    CODE           ?PR?WHEELS_X_FORWARD?MOTOR_DRIVER_BOARDS
   *DEL*:           000007H   BYTE   INSEG    CODE           ?PR?WHEELS_Y_FORWARD?MOTOR_DRIVER_BOARDS
   *DEL*:           000019H   BYTE   INSEG    CODE           ?PR?WHEELS_ALL_STOP?MOTOR_DRIVER_BOARDS
   *DEL*:           000007H   BYTE   INSEG    CODE           ?PR?WHEEL_X_REAR_FORWARD?MOTOR_DRIVER_BOARDS
   *DEL*:           000007H   BYTE   INSEG    CODE           ?PR?WHEEL_X_FRONT_FORWARD?MOTOR_DRIVER_BOARDS
   *DEL*:           000007H   BYTE   INSEG    CODE           ?PR?WHEEL_Y_REAR_FORWARD?MOTOR_DRIVER_BOARDS
   *DEL*:           000007H   BYTE   INSEG    CODE           ?PR?WHEEL_Y_FRONT_FORWARD?MOTOR_DRIVER_BOARDS
   *DEL*:           00001EH   BYTE   INSEG    CODE           ?PR?LASER_RANGING_GET_UART_VALUE?LASER_RANGING
   *DEL*:           0003F2H   BYTE   INSEG    CODE           ?PR?SEEKFREE_ASSISTANT_CAMERA_BOUNDARY_CONFIG?SEEKFREE_ASS
                                                             -ISTANT
   *DEL*:           000101H   BYTE   INSEG    CODE           ?PR?SEEKFREE_ASSISTANT_CAMERA_DOT_SEND?SEEKFREE_ASSISTANT
   *DEL*:           000138H   BYTE   INSEG    CODE           ?PR?SEEKFREE_ASSISTANT_OSCILLOSCOPE_SEND?SEEKFREE_ASSISTAN
                                                             -T
   *DEL*:           000022H   BYTE   INSEG    CODE           ?PR?SEEKFREE_ASSISTANT_INIT?SEEKFREE_ASSISTANT
   *DEL*:           00003FH   BYTE   INSEG    CODE           ?PR?SEEKFREE_ASSISTANT_SUM?SEEKFREE_ASSISTANT
   *DEL*:           00003FH   BYTE   INSEG    CODE           ?PR?SEEKFREE_ASSISTANT_CAMERA_INFORMATION_CONFIG?SEEKFREE_
                                                             -ASSISTANT
   *DEL*:           0001B8H   BYTE   INSEG    CODE           ?PR?SEEKFREE_ASSISTANT_DATA_ANALYSIS?SEEKFREE_ASSISTANT
   *DEL*:           000101H   BYTE   INSEG    CODE           ?PR?SEEKFREE_ASSISTANT_CAMERA_DATA_SEND?SEEKFREE_ASSISTANT
   *DEL*:           000034H   BYTE   INSEG    CODE           ?PR?SEEKFREE_ASSISTANT_CAMERA_SEND?SEEKFREE_ASSISTANT
   *DEL*:           000028H   BYTE   UNIT     EDATA          ?ED?PRINTF
   *DEL*:           00001AH   BYTE   INSEG    CODE           ?PR?MEMSET?_?MEMSET



OVERLAY MAP OF MODULE:   .\Out_File\SEEKFREE (board)


FUNCTION/MODULE                                BIT_GROUP   DATA_GROUP 
--> CALLED FUNCTION/MODULE                    START  STOP  START  STOP
======================================================================
UART1_Isr/isr                                 ----- -----  ----- -----

*** NEW ROOT ********************************

UART2_Isr/isr                                 ----- -----  ----- -----

*** NEW ROOT ********************************

UART3_Isr/isr                                 ----- -----  ----- -----

*** NEW ROOT ********************************

UART4_Isr/isr                                 ----- -----  ----- -----
L251 LINKER/LOCATER V4.66.93.0                                                        04/10/2024  20:12:08  PAGE 15


  +--> wireless_uart_callback/SEEKFREE_WIRELESS
  +--> bluetooth_ch9141_uart_callback/SEEKFREE_BLUETOOTH_CH9141
  +--> wireless_ch573_callback/SEEKFREE_WIRELESS_CH573

wireless_uart_callback/SEEKFREE_WIRELESS      ----- -----  ----- -----
  +--> fifo_write_buffer/zf_fifo

fifo_write_buffer/zf_fifo                     ----- -----  ----- -----
  +--> memcpy?_/memcpy
  +--> fifo_head_offset/zf_fifo

memcpy?_/memcpy                               ----- -----  ----- -----

fifo_head_offset/zf_fifo                      ----- -----  ----- -----

bluetooth_ch9141_uart_callback/SEEKFREE_+     ----- -----  ----- -----
... BLUETOOTH_CH9141
  +--> fifo_write_buffer/zf_fifo

wireless_ch573_callback/SEEKFREE_WIRELES+     ----- -----  ----- -----
... S_CH573
  +--> fifo_write_buffer/zf_fifo

*** NEW ROOT ********************************

?C_C51STARTUP?1                               ----- -----  ----- -----

*** NEW ROOT ********************************

?C_C51STARTUP                                 ----- -----  ----- -----

*** NEW ROOT ********************************

?C_C51STARTUP?3                               ----- -----  ----- -----
  +--> main/main

main/main                                     ----- -----  ----- -----
  +--> board_init/board
  +--> gpio_init/main
  +--> oled_init_spi/SEEKFREE_OLED
  +--> oled_p6x8str_spi/SEEKFREE_OLED
  +--> keys_ui_init/key
  +--> motor_drivers_pwm_init/main
  +--> laser_ranging_uart_init/main
  +--> laser_ranging_init/laser_ranging
  +--> laser_ranging/laser_ranging
  +--> key1_check/key
  +--> key2_check/key
  +--> key3_check/key
  +--> key4_check/key
  +--> oled_printf_float_spi/SEEKFREE_OLED

board_init/board                              ----- -----  ----- -----
  +--> set_clk/board
  +--> delay_init/zf_delay
  +--> uart_init/zf_uart
  +--> EnableGlobalIRQ/board

set_clk/board                                 ----- -----  ----- -----

delay_init/zf_delay                           ----- -----  ----- -----
  +--> ?C?SLDIV/?C?SLDIV

?C?SLDIV/?C?SLDIV                             ----- -----  ----- -----
  +--> ?C?ULIDIV/?C?ULDIV
L251 LINKER/LOCATER V4.66.93.0                                                        04/10/2024  20:12:08  PAGE 16



?C?ULIDIV/?C?ULDIV                            ----- -----  ----- -----

uart_init/zf_uart                             ----- -----  ----- -----
  +--> ?C?ULIDIV/?C?ULDIV

EnableGlobalIRQ/board                         ----- -----  ----- -----

gpio_init/main                                ----- -----  ----- -----
  +--> gpio_mode/zf_gpio

gpio_mode/zf_gpio                             ----- -----  ----- -----

oled_init_spi/SEEKFREE_OLED                   ----- -----  ----- -----
  +--> spi_init/zf_spi
  +--> delay_ms/zf_delay
  +--> oled_wrcmd_spi/SEEKFREE_OLED
  +--> oled_fill_spi/SEEKFREE_OLED
  +--> oled_set_pos_spi/SEEKFREE_OLED

spi_init/zf_spi                               ----- -----  ----- -----
  +--> gpio_mode/zf_gpio

delay_ms/zf_delay                             ----- -----  ----- -----

oled_wrcmd_spi/SEEKFREE_OLED                  ----- -----  ----- -----
  +--> spi_mosi/zf_spi

spi_mosi/zf_spi                               ----- -----  ----- -----

oled_fill_spi/SEEKFREE_OLED                   ----- -----  ----- -----
  +--> oled_wrcmd_spi/SEEKFREE_OLED
  +--> oled_wrdat_spi/SEEKFREE_OLED

oled_wrdat_spi/SEEKFREE_OLED                  ----- -----  ----- -----
  +--> spi_mosi/zf_spi

oled_set_pos_spi/SEEKFREE_OLED                ----- -----  ----- -----
  +--> oled_wrcmd_spi/SEEKFREE_OLED

oled_p6x8str_spi/SEEKFREE_OLED                ----- -----  ----- -----
  +--> oled_set_pos_spi/SEEKFREE_OLED
  +--> oled_wrdat_spi/SEEKFREE_OLED

keys_ui_init/key                              ----- -----  ----- -----
  +--> oled_p6x8str_spi/SEEKFREE_OLED

motor_drivers_pwm_init/main                   ----- -----  ----- -----
  +--> pwm_init/zf_pwm

pwm_init/zf_pwm                               ----- -----  ----- -----
  +--> pwm_set_gpio/zf_pwm
  +--> ?C?ULIDIV/?C?ULDIV

pwm_set_gpio/zf_pwm                           ----- -----  ----- -----
  +--> gpio_mode/zf_gpio

laser_ranging_uart_init/main                  ----- -----  ----- -----
  +--> uart_init/zf_uart

laser_ranging_init/laser_ranging              ----- -----  ----- -----
  +--> laser_ranging/laser_ranging

laser_ranging/laser_ranging                   ----- -----  ----- -----
  +--> uart_putbuff/zf_uart
L251 LINKER/LOCATER V4.66.93.0                                                        04/10/2024  20:12:08  PAGE 17



uart_putbuff/zf_uart                          ----- -----  ----- -----
  +--> uart_putchar/zf_uart

uart_putchar/zf_uart                          ----- -----  ----- -----

key1_check/key                                ----- -----  ----- -----
  +--> oled_p6x8str_spi/SEEKFREE_OLED
  +--> key1_short_press/key

key1_short_press/key                          ----- -----  ----- -----

key2_check/key                                ----- -----  ----- -----
  +--> oled_p6x8str_spi/SEEKFREE_OLED
  +--> key2_short_press/key

key2_short_press/key                          ----- -----  ----- -----

key3_check/key                                ----- -----  ----- -----
  +--> oled_p6x8str_spi/SEEKFREE_OLED
  +--> key3_short_press/key

key3_short_press/key                          ----- -----  ----- -----

key4_check/key                                ----- -----  ----- -----
  +--> oled_p6x8str_spi/SEEKFREE_OLED
  +--> key4_short_press/key

key4_short_press/key                          ----- -----  ----- -----
  +--> oled_p6x8str_spi/SEEKFREE_OLED
  +--> uart_putbuff/zf_uart

oled_printf_float_spi/SEEKFREE_OLED           ----- -----  ----- -----
  +--> zf_sprintf/SEEKFREE_PRINTF
  +--> oled_p6x8str_spi/SEEKFREE_OLED

zf_sprintf/SEEKFREE_PRINTF                    ----- -----  ----- -----
  +--> number_conversion_ascii/SEEKFREE_PRINTF
  +--> printf_reverse_order/SEEKFREE_PRINTF
  +--> memcpy?_/memcpy

number_conversion_ascii/SEEKFREE_PRINTF       ----- -----  ----- -----
  +--> ?C?SLDIV/?C?SLDIV
  +--> ?C?ULIDIV/?C?ULDIV

printf_reverse_order/SEEKFREE_PRINTF          ----- -----  ----- -----

*** NEW ROOT ********************************

?C_C51STARTUP?2                               ----- -----  ----- -----



PUBLIC SYMBOLS OF MODULE:  .\Out_File\SEEKFREE (board)


      VALUE       CLASS    TYPE      PUBLIC SYMBOL NAME
      =================================================
      00FF3187H   CODE     NEAR LAB  ?C?CASTF
      000000FFH   NUMBER   ---       ?C?CODESEG
      00FF3154H   CODE     NEAR LAB  ?C?FCASTC
      00FF314FH   CODE     NEAR LAB  ?C?FCASTI
      00FF314AH   CODE     NEAR LAB  ?C?FCASTL
      00FF2F2BH   CODE     ---       ?C?FPADD
      00FF3106H   CODE     ---       ?C?FPCMP
L251 LINKER/LOCATER V4.66.93.0                                                        04/10/2024  20:12:08  PAGE 18


      00FF3104H   CODE     ---       ?C?FPCMP3
      00FF368BH   CODE     ---       ?C?FPCONVERT
      00FF3083H   CODE     ---       ?C?FPDIV
      00FF31F0H   CODE     ---       ?C?FPGETOPN2
      00FF2FE3H   CODE     ---       ?C?FPMUL
      00FF322DH   CODE     ---       ?C?FPNANRESULT
      00FF3235H   CODE     ---       ?C?FPOVERFLOW
      00FF3209H   CODE     ---       ?C?FPRESULT
      00FF321FH   CODE     ---       ?C?FPRESULT2
      00FF3743H   CODE     ---       ?C?FPROUND
      00FF2F28H   CODE     ---       ?C?FPSUB
      00FF3232H   CODE     ---       ?C?FPUNDERFLOW
      00FF37B6H   CODE     ---       ?C?FTNPWR
      00FF62C3H   CODE     ---       ?C?INITEDATA
      00FF75EEH   HCONST   WORD      ?C?INITEDATA_END
      00FF62ECH   CODE     ---       ?C?INITHDATA
      00FF772EH   HCONST   WORD      ?C?INITHDATA_END
      00FF3830H   CODE     ---       ?C?LIMUL
      00FF381FH   CODE     ---       ?C?LMUL
      00FF326EH   CODE     ---       ?C?PRNFMT
      00FF37EDH   CODE     ---       ?C?SIDIV
      00FF388CH   CODE     NEAR LAB  ?C?SLDIV
      00FF0000H   CODE     ---       ?C?STARTUP
      00FF383BH   CODE     NEAR LAB  ?C?ULDIV
      00FF3839H   CODE     NEAR LAB  ?C?ULIDIV
      00000001H   NUMBER   ---       ?C?XDATASEG
      00FF0000H   CODE     ---       ?C_STARTUP
      00000478H   EDATA    BYTE      ?data_conversion?BYTE
      00000401H   EDATA    BYTE      ?dl1b_iic_transfer_8bit_array?BYTE
      000003F1H   EDATA    BYTE      ?fifo_init?BYTE
      00000008H   EDATA    BYTE      ?fifo_read_buffer?BYTE
      000004A0H   EDATA    BYTE      ?fifo_read_element?BYTE
      00000379H   EDATA    BYTE      ?fifo_read_tail_buffer?BYTE
      000003CDH   EDATA    BYTE      ?fifo_write_buffer?BYTE
      00000538H   EDATA    BYTE      ?iap_read_bytes?BYTE
      00000542H   EDATA    BYTE      ?iap_write_bytes?BYTE
      000006EFH   EDATA    BYTE      ?iic_init?BYTE
      000004F4H   EDATA    BYTE      ?ips114_showfloat?BYTE
      000004E8H   EDATA    BYTE      ?ips114_showfloat_simspi?BYTE
      000004B8H   EDATA    BYTE      ?lcd_showfloat?BYTE
      000004ACH   EDATA    BYTE      ?lcd_showfloat_simspi?BYTE
      000003B9H   EDATA    BYTE      ?number_conversion_ascii?BYTE
      0000023EH   EDATA    BYTE      ?oled_printf_float?BYTE
      0000026EH   EDATA    BYTE      ?oled_printf_float_spi?BYTE
*DEL*:00000028H   EDATA    ---       ?printf?BYTE
      000003A5H   EDATA    BYTE      ?pwm_freq?BYTE
      00000391H   EDATA    BYTE      ?pwm_init?BYTE
      0000033FH   EDATA    BYTE      ?seekfree_assistant_camera_boundary_config?BYTE
      00000431H   EDATA    BYTE      ?seekfree_assistant_camera_data_send?BYTE
      00000588H   EDATA    BYTE      ?seekfree_assistant_camera_information_config?BYTE
      00000486H   EDATA    BYTE      ?spi_init?BYTE
      0000044EH   EDATA    BYTE      ?uart_init?BYTE
      0000054CH   EDATA    BYTE      ?uart_putbuff?BYTE
      000001ADH   EDATA    BYTE      ?zf_sprintf?BYTE
*SFR* 000000BCH   DATA     BYTE      ADC_CONTR
*DEL*:00000000H   CODE     ---       adc_init
*DEL*:00000000H   CODE     ---       adc_once
*SFR* 000000BDH   DATA     BYTE      ADC_RES
*SFR* 000000BEH   DATA     BYTE      ADC_RESL
*SFR* 000000DEH   DATA     BYTE      ADCCFG
*SFR* 000000EFH   DATA     BYTE      AUXINTIF
*SFR* 0000008EH   DATA     BYTE      AUXR
*SFR* 00000097H   DATA     BYTE      AUXR2
*DEL*:00000000H   CODE     ---       bluetooth_ch9141_init
*DEL*:00000000H   CODE     ---       bluetooth_ch9141_read_buff
L251 LINKER/LOCATER V4.66.93.0                                                        04/10/2024  20:12:08  PAGE 19


*DEL*:00000000H   CODE     ---       bluetooth_ch9141_send_buff
      00FF71A6H   CODE     ---       bluetooth_ch9141_uart_callback
      00FF5F99H   CODE     ---       board_init
      0000079BH   EDATA    ---       busy
*SFR* 000000F1H   DATA     BYTE      CANICR
*DEL*:00000000H   CODE     ---       ccd_collect
      00010001H   XDATA    ---       ccd_data_ch1
      00010101H   XDATA    ---       ccd_data_ch2
*DEL*:00000000H   CODE     ---       ccd_init
*DEL*:00000000H   CODE     ---       ccd_send_data
*SFR* 000000EAH   DATA     BYTE      CKCON
*SFR* 000000E6H   DATA     BYTE      CMPCR1
*SFR* 000000E7H   DATA     BYTE      CMPCR2
*DEL*:00000000H   CODE     ---       CRC_CHECK
*DEL*:00000000H   CODE     ---       ctimer_count_clean
*DEL*:00000000H   CODE     ---       ctimer_count_init
*DEL*:00000000H   CODE     ---       ctimer_count_read
*DEL*:00000000H   CODE     ---       data_conversion
      00FF6E0DH   CODE     ---       delay_init
      00FF6EBBH   CODE     ---       delay_ms
*DEL*:00000000H   CODE     ---       delay_us
*DEL*:00000000H   CODE     ---       DisableGlobalIRQ
      00000835H   EDATA    WORD      dl1a_distance_mm
      00000837H   EDATA    BYTE      dl1a_finsh_flag
*DEL*:00000000H   CODE     ---       dl1a_get_distance
*DEL*:00000000H   CODE     ---       dl1a_init
      00FF0096H   CODE     ---       dl1b_default_configuration
      0000080CH   EDATA    WORD      dl1b_distance_mm
      0000080EH   EDATA    BYTE      dl1b_finsh_flag
*DEL*:00000000H   CODE     ---       dl1b_get_distance
*DEL*:00000000H   CODE     ---       dl1b_iic_transfer_8bit_array
*DEL*:00000000H   CODE     ---       dl1b_init
      0000080FH   EDATA    BYTE      dl1b_init_flag
*SFR* 000000A8H.7 DATA     BIT       EA
*SFR* 000000BAH.7 DATA     BIT       EAXFR
*DEL*:00000000H   CODE     ---       eeprom_trig
      00FF008EH   CODE     ---       EnableGlobalIRQ
*SFR* 000000A8H.4 DATA     BIT       ES
*SFR* 000000A8H.1 DATA     BIT       ET0
*SFR* 000000A8H.3 DATA     BIT       ET1
*SFR* 000000A8H.0 DATA     BIT       EX0
*SFR* 000000A8H.2 DATA     BIT       EX1
*DEL*:00000000H   CODE     ---       exit_init
*SFR* 000000D0H.5 DATA     BIT       F0
*DEL*:00000000H   CODE     ---       fifo_clear
*DEL*:00000000H   CODE     ---       fifo_init
*DEL*:00000000H   CODE     ---       fifo_read_buffer
*DEL*:00000000H   CODE     ---       fifo_read_element
*DEL*:00000000H   CODE     ---       fifo_read_tail_buffer
*DEL*:00000000H   CODE     ---       fifo_used
      00FF4FC0H   CODE     ---       fifo_write_buffer
*DEL*:00000000H   CODE     ---       fifo_write_element
      00FF730DH   CODE     ---       gpio_init
      00FF38C0H   CODE     ---       gpio_mode
*DEL*:00000000H   CODE     ---       gpio_pull_set
*SFR* 000000C0H.0 DATA     BIT       gpio_wheel_x_front_clockwise
*SFR* 000000C0H.1 DATA     BIT       gpio_wheel_x_front_counterclockwise
*SFR* 000000C0H.3 DATA     BIT       gpio_wheel_x_rear_clockwise
*SFR* 000000C0H.2 DATA     BIT       gpio_wheel_x_rear_counterclockwise
*SFR* 000000C0H.4 DATA     BIT       gpio_wheel_y_front_clockwise
*SFR* 000000C0H.5 DATA     BIT       gpio_wheel_y_front_counterclockwise
*SFR* 000000C0H.7 DATA     BIT       gpio_wheel_y_rear_clockwise
*SFR* 000000C0H.6 DATA     BIT       gpio_wheel_y_rear_counterclockwise
*SFR* 000000F6H   DATA     BYTE      IAP_ADDRE
*SFR* 000000C3H   DATA     BYTE      IAP_ADDRH
L251 LINKER/LOCATER V4.66.93.0                                                        04/10/2024  20:12:08  PAGE 20


*SFR* 000000C4H   DATA     BYTE      IAP_ADDRL
*SFR* 000000C5H   DATA     BYTE      IAP_CMD
*SFR* 000000C7H   DATA     BYTE      IAP_CONTR
*SFR* 000000C2H   DATA     BYTE      IAP_DATA
*DEL*:00000000H   CODE     ---       iap_erase_page
*DEL*:00000000H   CODE     ---       iap_get_cmd_state
*DEL*:00000000H   CODE     ---       iap_idle
*DEL*:00000000H   CODE     ---       iap_init
*DEL*:00000000H   CODE     ---       iap_read_bytes
*DEL*:00000000H   CODE     ---       iap_set_tps
*SFR* 000000F5H   DATA     BYTE      IAP_TPS
*SFR* 000000C6H   DATA     BYTE      IAP_TRIG
*DEL*:00000000H   CODE     ---       iap_write_bytes
*DEL*:00000000H   CODE     ---       icm20602_acc_transition
      000004D0H   EDATA    INT       icm20602_acc_x
      000004D2H   EDATA    INT       icm20602_acc_y
      000004D4H   EDATA    INT       icm20602_acc_z
*DEL*:00000000H   CODE     ---       icm20602_get_acc
*DEL*:00000000H   CODE     ---       icm20602_get_gyro
*DEL*:00000000H   CODE     ---       icm20602_gyro_transition
      000004D6H   EDATA    INT       icm20602_gyro_x
      000004D8H   EDATA    INT       icm20602_gyro_y
      000004DAH   EDATA    INT       icm20602_gyro_z
*DEL*:00000000H   CODE     ---       icm20602_init
*SFR* 000000A8H   DATA     BYTE      IE
*SFR* 000000AFH   DATA     BYTE      IE2
*DEL*:00000000H   CODE     ---       iic_change_pin
      00FF6EF0H   CODE     ---       iic_delay_us
*DEL*:00000000H   CODE     ---       iic_init
*DEL*:00000000H   CODE     ---       iic_read_reg
*DEL*:00000000H   CODE     ---       iic_read_reg_bytes
*DEL*:00000000H   CODE     ---       iic_write_reg
*DEL*:00000000H   CODE     ---       imu660ra_acc_transition
      000004DCH   EDATA    INT       imu660ra_acc_x
      000004DEH   EDATA    INT       imu660ra_acc_y
      000004E0H   EDATA    INT       imu660ra_acc_z
      00FF011DH   CODE     ---       imu660ra_config_file
*DEL*:00000000H   CODE     ---       imu660ra_get_acc
*DEL*:00000000H   CODE     ---       imu660ra_get_gyro
*DEL*:00000000H   CODE     ---       imu660ra_gyro_transition
      000004E2H   EDATA    INT       imu660ra_gyro_x
      000004E4H   EDATA    INT       imu660ra_gyro_y
      000004E6H   EDATA    INT       imu660ra_gyro_z
*DEL*:00000000H   CODE     ---       imu660ra_init
*DEL*:00000000H   CODE     ---       imu963ra_acc_transition
      000003DFH   EDATA    INT       imu963ra_acc_x
      000003E1H   EDATA    INT       imu963ra_acc_y
      000003E3H   EDATA    INT       imu963ra_acc_z
*DEL*:00000000H   CODE     ---       imu963ra_get_acc
*DEL*:00000000H   CODE     ---       imu963ra_get_gyro
*DEL*:00000000H   CODE     ---       imu963ra_get_mag
*DEL*:00000000H   CODE     ---       imu963ra_gyro_transition
      000003EBH   EDATA    INT       imu963ra_gyro_x
      000003EDH   EDATA    INT       imu963ra_gyro_y
      000003EFH   EDATA    INT       imu963ra_gyro_z
*DEL*:00000000H   CODE     ---       imu963ra_init
*DEL*:00000000H   CODE     ---       imu963ra_mag_transition
      000003E5H   EDATA    INT       imu963ra_mag_x
      000003E7H   EDATA    INT       imu963ra_mag_y
      000003E9H   EDATA    INT       imu963ra_mag_z
*SFR* 0000008FH   DATA     BYTE      INTCLKO
*SFR* 000000B8H   DATA     BYTE      IP
*SFR* 000000B5H   DATA     BYTE      IP2
*SFR* 000000B6H   DATA     BYTE      IP2H
*SFR* 000000DFH   DATA     BYTE      IP3
L251 LINKER/LOCATER V4.66.93.0                                                        04/10/2024  20:12:08  PAGE 21


*SFR* 000000EEH   DATA     BYTE      IP3H
*SFR* 000000B7H   DATA     BYTE      IPH
*DEL*:00000000H   CODE     ---       ips114_clear
*DEL*:00000000H   CODE     ---       ips114_clear_simspi
*DEL*:00000000H   CODE     ---       ips114_drawpoint
*DEL*:00000000H   CODE     ---       ips114_drawpoint_simspi
*DEL*:00000000H   CODE     ---       ips114_init
*DEL*:00000000H   CODE     ---       ips114_init_simspi
*DEL*:00000000H   CODE     ---       ips114_set_region
*DEL*:00000000H   CODE     ---       ips114_set_region_simspi
*DEL*:00000000H   CODE     ---       ips114_showchar
*DEL*:00000000H   CODE     ---       ips114_showchar_simspi
*DEL*:00000000H   CODE     ---       ips114_showfloat
*DEL*:00000000H   CODE     ---       ips114_showfloat_simspi
*DEL*:00000000H   CODE     ---       ips114_showint16
*DEL*:00000000H   CODE     ---       ips114_showint16_simspi
*DEL*:00000000H   CODE     ---       ips114_showint32
*DEL*:00000000H   CODE     ---       ips114_showint32_simspi
*DEL*:00000000H   CODE     ---       ips114_showint8
*DEL*:00000000H   CODE     ---       ips114_showint8_simspi
*DEL*:00000000H   CODE     ---       ips114_showstr
*DEL*:00000000H   CODE     ---       ips114_showstr_simspi
*DEL*:00000000H   CODE     ---       ips114_showuint16
*DEL*:00000000H   CODE     ---       ips114_showuint16_simspi
*DEL*:00000000H   CODE     ---       ips114_showuint8
*DEL*:00000000H   CODE     ---       ips114_showuint8_simspi
*DEL*:00000000H   CODE     ---       ips114_writeData
      00FF701BH   CODE     ---       ips114_writedata_16bit
*DEL*:00000000H   CODE     ---       ips114_writeData_simspi
      00FF698EH   CODE     ---       ips114_writeDatai_16bit_simspi
      00FF737AH   CODE     ---       ips114_writeIndex
      00FF6C5AH   CODE     ---       ips114_writeIndex_simspi
*SFR* 0000009DH   DATA     BYTE      IRCBAND
*SFR* 0000009FH   DATA     BYTE      IRTRIM
*SFR* 00000088H.0 DATA     BIT       IT0
*SFR* 00000088H.2 DATA     BIT       IT1
*SFR* 000000B0H.4 DATA     BIT       key1
      00FF6ADBH   CODE     ---       key1_check
      00FF0040H   CODE     ---       key1_short_press
      00000818H   EDATA    BYTE      key1_up_store
*SFR* 000000B0H.5 DATA     BIT       key2
      00FF69E2H   CODE     ---       key2_check
      00FF0041H   CODE     ---       key2_short_press
      00000819H   EDATA    BYTE      key2_up_store
*SFR* 000000B0H.6 DATA     BIT       key3
      00FF6A35H   CODE     ---       key3_check
      00FF0042H   CODE     ---       key3_short_press
      0000081AH   EDATA    BYTE      key3_up_store
*SFR* 000000B0H.7 DATA     BIT       key4
      00FF6A88H   CODE     ---       key4_check
      00FF6DCBH   CODE     ---       key4_short_press
      0000081BH   EDATA    BYTE      key4_up_store
      00FF7403H   CODE     ---       keys_ui_init
      00FF6147H   CODE     ---       laser_ranging
      000000A9H   EDATA    ---       laser_ranging_cmd_arr_continous
      00000095H   EDATA    ---       laser_ranging_cmd_arr_laseroff
      000000F3H   EDATA    ---       laser_ranging_cmd_arr_laseron
      00000060H   EDATA    ---       laser_ranging_cmd_arr_readcache
      0000007CH   EDATA    ---       laser_ranging_cmd_arr_setfreq_10hz
      000000B7H   EDATA    ---       laser_ranging_cmd_arr_setfreq_1hz
      00000081H   EDATA    ---       laser_ranging_cmd_arr_setfreq_20hz
      000000C1H   EDATA    ---       laser_ranging_cmd_arr_setfreq_5hz
      00000047H   EDATA    ---       laser_ranging_cmd_arr_setrange_10m
      0000004CH   EDATA    ---       laser_ranging_cmd_arr_setrange_30m
      00000051H   EDATA    ---       laser_ranging_cmd_arr_setrange_50m
L251 LINKER/LOCATER V4.66.93.0                                                        04/10/2024  20:12:08  PAGE 22


      0000009FH   EDATA    ---       laser_ranging_cmd_arr_setrange_5m
      0000005BH   EDATA    ---       laser_ranging_cmd_arr_setrange_80m
      00000086H   EDATA    ---       laser_ranging_cmd_arr_setresolution_0_1mm
      00000069H   EDATA    ---       laser_ranging_cmd_arr_setresolution_1mm
      00000026H   EDATA    ---       laser_ranging_cmd_arr_shutdown
      00000034H   EDATA    ---       laser_ranging_cmd_arr_single
      00000078H   EDATA    ---       laser_ranging_cmd_arr_single_broadcast
*DEL*:00000000H   CODE     ---       laser_ranging_get_uart_value
      00FF6E4EH   CODE     ---       laser_ranging_init
      00FF6F5AH   CODE     ---       laser_ranging_uart_init
      00000020H.0 BIT      BIT       LaserRanging_State
*DEL*:00000000H   CODE     ---       lcd_clear
*DEL*:00000000H   CODE     ---       lcd_clear_simspi
*DEL*:00000000H   CODE     ---       lcd_drawpoint
*DEL*:00000000H   CODE     ---       lcd_drawpoint_simspi
*DEL*:00000000H   CODE     ---       lcd_init
*DEL*:00000000H   CODE     ---       lcd_init_simspi
      00FF65FAH   CODE     ---       lcd_set_region
      00FF6596H   CODE     ---       lcd_set_region_simspi
*DEL*:00000000H   CODE     ---       lcd_showchar
*DEL*:00000000H   CODE     ---       lcd_showchar_simspi
*DEL*:00000000H   CODE     ---       lcd_showfloat
*DEL*:00000000H   CODE     ---       lcd_showfloat_simspi
*DEL*:00000000H   CODE     ---       lcd_showint16
*DEL*:00000000H   CODE     ---       lcd_showint16_simspi
*DEL*:00000000H   CODE     ---       lcd_showint32
*DEL*:00000000H   CODE     ---       lcd_showint32_simspi
*DEL*:00000000H   CODE     ---       lcd_showint8
*DEL*:00000000H   CODE     ---       lcd_showint8_simspi
*DEL*:00000000H   CODE     ---       lcd_showstr
*DEL*:00000000H   CODE     ---       lcd_showstr_simspi
*DEL*:00000000H   CODE     ---       lcd_showuint16
*DEL*:00000000H   CODE     ---       lcd_showuint16_simspi
*DEL*:00000000H   CODE     ---       lcd_showuint8
*DEL*:00000000H   CODE     ---       lcd_showuint8_simspi
      00FF7365H   CODE     ---       lcd_writeData
      00FF6FEFH   CODE     ---       lcd_writedata_16bit
      00FF693AH   CODE     ---       lcd_writeData_16bit_simspi
      00FF6BC4H   CODE     ---       lcd_writeData_simspi
      00FF7350H   CODE     ---       lcd_writeIndex
      00FF6B79H   CODE     ---       lcd_writeIndex_simspi
*SFR* 000000F9H   DATA     BYTE      LINICR
      0000009AH   EDATA    ---       lrcmd_continous
      0000008BH   EDATA    ---       lrcmd_laseroff
      000000B2H   EDATA    ---       lrcmd_laseron
      0000003DH   EDATA    ---       lrcmd_readcache
      00000064H   EDATA    ---       lrcmd_setfreq_10hz
      000000A4H   EDATA    ---       lrcmd_setfreq_1hz
      0000006EH   EDATA    ---       lrcmd_setfreq_20hz
      000000ADH   EDATA    ---       lrcmd_setfreq_5hz
      00000021H   EDATA    ---       lrcmd_setrange_10m
      0000002AH   EDATA    ---       lrcmd_setrange_30m
      0000002FH   EDATA    ---       lrcmd_setrange_50m
      00000090H   EDATA    ---       lrcmd_setrange_5m
      00000038H   EDATA    ---       lrcmd_setrange_80m
      00000073H   EDATA    ---       lrcmd_setresolution_0_1mm
      00000042H   EDATA    ---       lrcmd_setresolution_1mm
      000000BCH   EDATA    ---       lrcmd_shutdown
      000000EEH   EDATA    ---       lrcmd_single
      00000056H   EDATA    ---       lrcmd_single_broadcast
      000000C6H   EDATA    ---       lrdata
*DEL*:00000000H   CODE     ---       lsm303_iic_init
      00FF66C1H   CODE     ---       main
      00FF715DH   CODE     ---       memcpy?_
*DEL*:00000000H   CODE     ---       memset?_
L251 LINKER/LOCATER V4.66.93.0                                                        04/10/2024  20:12:08  PAGE 23


      00FF6B2CH   CODE     ---       motor_drivers_pwm_init
      00000500H   EDATA    INT       mpu6050_acc_x
      00000502H   EDATA    INT       mpu6050_acc_y
      00000504H   EDATA    INT       mpu6050_acc_z
*DEL*:00000000H   CODE     ---       mpu6050_get_accdata
*DEL*:00000000H   CODE     ---       mpu6050_get_gyro
      00000506H   EDATA    INT       mpu6050_gyro_x
      00000508H   EDATA    INT       mpu6050_gyro_y
      0000050AH   EDATA    INT       mpu6050_gyro_z
*DEL*:00000000H   CODE     ---       mpu6050_init
*DEL*:00000000H   CODE     ---       mpu6050_simiic_read_reg
*DEL*:00000000H   CODE     ---       mpu6050_simiic_read_regs
      00FF5AD6H   CODE     ---       number_conversion_ascii
*DEL*:00000000H   CODE     ---       NVIC_SetPriority
      00FF2CFDH   CODE     ---       oled_6x8
      00FF211DH   CODE     ---       oled_8x16
*DEL*:00000000H   CODE     ---       oled_clrpixel
*DEL*:00000000H   CODE     ---       oled_clrpixel_spi
*DEL*:00000000H   CODE     ---       oled_dis_bmp
*DEL*:00000000H   CODE     ---       oled_dis_bmp_spi
*DEL*:00000000H   CODE     ---       oled_fill
      00FF6722H   CODE     ---       oled_fill_spi
*DEL*:00000000H   CODE     ---       oled_hexascii
*DEL*:00000000H   CODE     ---       oled_hexascii_spi
*DEL*:00000000H   CODE     ---       oled_init
      00FF5D8DH   CODE     ---       oled_init_spi
*DEL*:00000000H   CODE     ---       oled_int16
*DEL*:00000000H   CODE     ---       oled_int16_spi
*DEL*:00000000H   CODE     ---       oled_p6x8str
      00FF5BEDH   CODE     ---       oled_p6x8str_spi
*DEL*:00000000H   CODE     ---       oled_p8x16str
*DEL*:00000000H   CODE     ---       oled_p8x16str_spi
*DEL*:00000000H   CODE     ---       oled_print_chinese
*DEL*:00000000H   CODE     ---       oled_print_chinese_spi
*DEL*:00000000H   CODE     ---       oled_printf_float
      00FF5991H   CODE     ---       oled_printf_float_spi
*DEL*:00000000H   CODE     ---       oled_printf_int32
*DEL*:00000000H   CODE     ---       oled_printf_int32_spi
*DEL*:00000000H   CODE     ---       oled_putpixel
*DEL*:00000000H   CODE     ---       oled_putpixel_spi
      00FF6F25H   CODE     ---       oled_set_pos
      00FF6E85H   CODE     ---       oled_set_pos_spi
*DEL*:00000000H   CODE     ---       oled_uint16
*DEL*:00000000H   CODE     ---       oled_uint16_spi
      00FF6CA5H   CODE     ---       oled_wrcmd
      00FF738FH   CODE     ---       oled_wrcmd_spi
      00FF6CF0H   CODE     ---       oled_wrdat
      00FF73A4H   CODE     ---       oled_wrdat_spi
*SFR* 00000080H   DATA     BYTE      P0
*SFR* 00000080H.7 DATA     BIT       P07
*SFR* 00000094H   DATA     BYTE      P0M0
*SFR* 00000093H   DATA     BYTE      P0M1
*SFR* 00000090H   DATA     BYTE      P1
*SFR* 00000092H   DATA     BYTE      P1M0
*SFR* 00000091H   DATA     BYTE      P1M1
*SFR* 000000A0H   DATA     BYTE      P2
*SFR* 000000A0H.0 DATA     BIT       P20
*SFR* 000000A0H.1 DATA     BIT       P21
*SFR* 000000A0H.2 DATA     BIT       P22
*SFR* 000000A0H.3 DATA     BIT       P23
*SFR* 000000A0H.5 DATA     BIT       P25
*SFR* 000000A0H.7 DATA     BIT       P27
*SFR* 00000096H   DATA     BYTE      P2M0
*SFR* 00000095H   DATA     BYTE      P2M1
*SFR* 000000B0H   DATA     BYTE      P3
L251 LINKER/LOCATER V4.66.93.0                                                        04/10/2024  20:12:08  PAGE 24


*SFR* 000000B0H.6 DATA     BIT       P36
*SFR* 000000B0H.7 DATA     BIT       P37
*SFR* 000000B2H   DATA     BYTE      P3M0
*SFR* 000000B1H   DATA     BYTE      P3M1
*SFR* 000000C0H   DATA     BYTE      P4
*SFR* 000000C0H.0 DATA     BIT       P40
*SFR* 000000C0H.1 DATA     BIT       P41
*SFR* 000000C0H.2 DATA     BIT       P42
*SFR* 000000C0H.3 DATA     BIT       P43
*SFR* 000000C0H.7 DATA     BIT       P47
*SFR* 000000B4H   DATA     BYTE      P4M0
*SFR* 000000B3H   DATA     BYTE      P4M1
*SFR* 000000C8H   DATA     BYTE      P5
*SFR* 000000CAH   DATA     BYTE      P5M0
*SFR* 000000C9H   DATA     BYTE      P5M1
*SFR* 000000E8H   DATA     BYTE      P6
*SFR* 000000E8H.3 DATA     BIT       P63
*SFR* 000000E8H.5 DATA     BIT       P65
*SFR* 000000CCH   DATA     BYTE      P6M0
*SFR* 000000CBH   DATA     BYTE      P6M1
*SFR* 000000F8H   DATA     BYTE      P7
*SFR* 000000E2H   DATA     BYTE      P7M0
*SFR* 000000E1H   DATA     BYTE      P7M1
*SFR* 000000A2H   DATA     BYTE      P_SW1
*SFR* 000000BAH   DATA     BYTE      P_SW2
*SFR* 000000BBH   DATA     BYTE      P_SW3
*SFR* 00000087H   DATA     BYTE      PCON
*DEL*:00000000H   CODE     ---       pit_timer_ms
      00FF31C4H   CODE     NEAR LAB  printf
      00FF6030H   CODE     ---       printf_reverse_order
*SFR* 000000D0H   DATA     BYTE      PSW
      00FF73DFH   CODE     ---       putchar
      00FF7610H   HCONST   ---       PWM_ARR_ADDR
      00FF7618H   HCONST   ---       PWM_CCER_ADDR
      00FF7628H   HCONST   ---       PWM_CCMR_ADDR
      00FF75F0H   HCONST   ---       PWM_CCR_ADDR
*DEL*:00000000H   CODE     ---       pwm_duty
*DEL*:00000000H   CODE     ---       pwm_freq
      00FF482EH   CODE     ---       pwm_init
      00FF4C08H   CODE     ---       pwm_set_gpio
*DEL*:00000000H   CODE     ---       recv_ack
*DEL*:00000000H   CODE     ---       recv_data
*SFR* 000000FFH   DATA     BYTE      RSTCFG
*SFR* 0000009BH   DATA     BYTE      S2BUF
*SFR* 0000009AH   DATA     BYTE      S2CON
*SFR* 000000ADH   DATA     BYTE      S3BUF
*SFR* 000000ACH   DATA     BYTE      S3CON
*SFR* 000000FEH   DATA     BYTE      S4BUF
*SFR* 000000FDH   DATA     BYTE      S4CON
*SFR* 00000099H   DATA     BYTE      SBUF
*SFR* 00000098H   DATA     BYTE      SCON
*DEL*:00000000H   CODE     ---       seekfree_assistant_camera_boundary_config
*DEL*:00000000H   CODE     ---       seekfree_assistant_camera_data_send
*DEL*:00000000H   CODE     ---       seekfree_assistant_camera_dot_send
*DEL*:00000000H   CODE     ---       seekfree_assistant_camera_information_config
*DEL*:00000000H   CODE     ---       seekfree_assistant_camera_send
*DEL*:00000000H   CODE     ---       seekfree_assistant_data_analysis
*DEL*:00000000H   CODE     ---       seekfree_assistant_init
      00010201H   XDATA    ---       seekfree_assistant_oscilloscope_data
*DEL*:00000000H   CODE     ---       seekfree_assistant_oscilloscope_send
      00010244H   XDATA    ---       seekfree_assistant_parameter
      0001023CH   XDATA    ---       seekfree_assistant_parameter_update_flag
      0000081CH   EDATA    ---       seekfree_assistant_receive
      0000081EH   EDATA    ---       seekfree_assistant_transfer
*DEL*:00000000H   CODE     ---       send_ack
L251 LINKER/LOCATER V4.66.93.0                                                        04/10/2024  20:12:08  PAGE 25


*DEL*:00000000H   CODE     ---       send_data
*DEL*:00000000H   CODE     ---       send_nak
      00FF5604H   CODE     ---       set_clk
*DEL*:00000000H   CODE     ---       showimage
*SFR* 000000CEH   DATA     BYTE      SPCTL
*SFR* 000000CFH   DATA     BYTE      SPDAT
*DEL*:00000000H   CODE     ---       spi_change_mode
*DEL*:00000000H   CODE     ---       spi_change_pin
      00FF5CBFH   CODE     ---       spi_init
      00FF73F1H   CODE     ---       spi_mosi
*SFR* 000000CDH   DATA     BYTE      SPSTAT
*DEL*:00000000H   CODE     ---       start
*DEL*:00000000H   CODE     ---       stop
      000007DCH   EDATA    LONG      sys_clk
*SFR* 000000D6H   DATA     BYTE      T2H
*SFR* 000000D7H   DATA     BYTE      T2L
*SFR* 000000D4H   DATA     BYTE      T3H
*SFR* 000000D5H   DATA     BYTE      T3L
*SFR* 000000D2H   DATA     BYTE      T4H
*SFR* 000000D3H   DATA     BYTE      T4L
*SFR* 000000DDH   DATA     BYTE      T4T3M
*SFR* 00000088H   DATA     BYTE      TCON
      00FF270DH   CODE     ---       tft_ascii
*SFR* 0000008CH   DATA     BYTE      TH0
*SFR* 0000008DH   DATA     BYTE      TH1
*SFR* 0000008AH   DATA     BYTE      TL0
*SFR* 0000008BH   DATA     BYTE      TL1
*SFR* 00000089H   DATA     BYTE      TMOD
*SFR* 00000088H.4 DATA     BIT       TR0
*SFR* 00000088H.6 DATA     BIT       TR1
      00010000H   XDATA    BYTE      tsl1401_finish_flag
      00FF7182H   CODE     ---       UART1_Isr
      00FF72D1H   CODE     ---       UART2_Isr
      00FF72EFH   CODE     ---       UART3_Isr
      00FF623BH   CODE     ---       UART4_Isr
      00FF5352H   CODE     ---       uart_init
      00FF6F8FH   CODE     ---       uart_putbuff
      00FF61C6H   CODE     ---       uart_putchar
*DEL*:00000000H   CODE     ---       uart_putstr
*SFR* 000000F4H   DATA     BYTE      USBCON
      0000057EH   EDATA    ---       virtual_scope_data
*SFR* 000000A6H   DATA     BYTE      VRTRIM
      00FF688CH   CODE     ---       wait
*SFR* 000000C1H   DATA     BYTE      WDT_CONTR
*DEL*:00000000H   CODE     ---       wheel_x_front_backward
*DEL*:00000000H   CODE     ---       wheel_x_front_forward
*DEL*:00000000H   CODE     ---       wheel_x_front_stop
*DEL*:00000000H   CODE     ---       wheel_x_rear_backward
*DEL*:00000000H   CODE     ---       wheel_x_rear_forward
*DEL*:00000000H   CODE     ---       wheel_x_rear_stop
*DEL*:00000000H   CODE     ---       wheel_y_front_backward
*DEL*:00000000H   CODE     ---       wheel_y_front_forward
*DEL*:00000000H   CODE     ---       wheel_y_front_stop
*DEL*:00000000H   CODE     ---       wheel_y_rear_backward
*DEL*:00000000H   CODE     ---       wheel_y_rear_forward
*DEL*:00000000H   CODE     ---       wheel_y_rear_stop
*DEL*:00000000H   CODE     ---       wheels_all_stop
*DEL*:00000000H   CODE     ---       wheels_x_backward
*DEL*:00000000H   CODE     ---       wheels_x_forward
*DEL*:00000000H   CODE     ---       wheels_x_stop
*DEL*:00000000H   CODE     ---       wheels_y_backward
*DEL*:00000000H   CODE     ---       wheels_y_forward
*DEL*:00000000H   CODE     ---       wheels_y_stop
      00FF720CH   CODE     ---       wireless_ch573_callback
*DEL*:00000000H   CODE     ---       wireless_ch573_init
L251 LINKER/LOCATER V4.66.93.0                                                        04/10/2024  20:12:08  PAGE 26


*DEL*:00000000H   CODE     ---       wireless_ch573_read_buff
*DEL*:00000000H   CODE     ---       wireless_ch573_send_buff
      0000084DH   EDATA    INT       wireless_type
      00FF71EAH   CODE     ---       wireless_uart_callback
*DEL*:00000000H   CODE     ---       wireless_uart_init
*DEL*:00000000H   CODE     ---       wireless_uart_read_buff
*DEL*:00000000H   CODE     ---       wireless_uart_send_buff
*SFR* 000000E9H   DATA     BYTE      WTST
      000007E4H   EDATA    WORD      zf_delay_ms
      000007E6H   EDATA    WORD      zf_delay_us
      00FF41CDH   CODE     ---       zf_sprintf



SYMBOL TABLE OF MODULE:  .\Out_File\SEEKFREE (board)

      VALUE       REP       CLASS    TYPE      SYMBOL NAME
      ====================================================
      ---         MODULE    ---      ---       board
      00FF008EH   PUBLIC    CODE     ---       EnableGlobalIRQ
      00FF5F99H   PUBLIC    CODE     ---       board_init
      00FF5604H   PUBLIC    CODE     ---       set_clk
      00FF73DFH   PUBLIC    CODE     ---       putchar
      000007DCH   PUBLIC    EDATA    LONG      sys_clk
      00000094H   SFRSYM    DATA     BYTE      P0M0
      000000D0H   SFRSYM    DATA     BYTE      PSW
      000000BAH.7 SFRSYM    DATA     BIT       EAXFR
      0000009DH   SFRSYM    DATA     BYTE      IRCBAND
      00000097H   SFRSYM    DATA     BYTE      AUXR2
      000000EAH   SFRSYM    DATA     BYTE      CKCON
      000000EFH   SFRSYM    DATA     BYTE      AUXINTIF
      000000FDH   SFRSYM    DATA     BYTE      S4CON
      000000ACH   SFRSYM    DATA     BYTE      S3CON
      0000009AH   SFRSYM    DATA     BYTE      S2CON
      000000A6H   SFRSYM    DATA     BYTE      VRTRIM
      000000B7H   SFRSYM    DATA     BYTE      IPH
      000000CDH   SFRSYM    DATA     BYTE      SPSTAT
      000000DDH   SFRSYM    DATA     BYTE      T4T3M
      0000009FH   SFRSYM    DATA     BYTE      IRTRIM
      000000C1H   SFRSYM    DATA     BYTE      WDT_CONTR
      000000E9H   SFRSYM    DATA     BYTE      WTST
      000000DFH   SFRSYM    DATA     BYTE      IP3
      000000F4H   SFRSYM    DATA     BYTE      USBCON
      000000B5H   SFRSYM    DATA     BYTE      IP2
      000000FFH   SFRSYM    DATA     BYTE      RSTCFG
      000000F9H   SFRSYM    DATA     BYTE      LINICR
      0000008EH   SFRSYM    DATA     BYTE      AUXR
      000000AFH   SFRSYM    DATA     BYTE      IE2
      00000088H   SFRSYM    DATA     BYTE      TCON
      00000089H   SFRSYM    DATA     BYTE      TMOD
      00000098H   SFRSYM    DATA     BYTE      SCON
      000000F1H   SFRSYM    DATA     BYTE      CANICR
      00000087H   SFRSYM    DATA     BYTE      PCON
      000000BCH   SFRSYM    DATA     BYTE      ADC_CONTR
      000000E7H   SFRSYM    DATA     BYTE      CMPCR2
      000000E6H   SFRSYM    DATA     BYTE      CMPCR1
      000000DEH   SFRSYM    DATA     BYTE      ADCCFG
      000000B8H   SFRSYM    DATA     BYTE      IP
      0000008FH   SFRSYM    DATA     BYTE      INTCLKO
      000000EEH   SFRSYM    DATA     BYTE      IP3H
      000000B6H   SFRSYM    DATA     BYTE      IP2H
      000000A8H   SFRSYM    DATA     BYTE      IE
      000000BBH   SFRSYM    DATA     BYTE      P_SW3
      000000BAH   SFRSYM    DATA     BYTE      P_SW2
      000000A2H   SFRSYM    DATA     BYTE      P_SW1
L251 LINKER/LOCATER V4.66.93.0                                                        04/10/2024  20:12:08  PAGE 27


      000000CEH   SFRSYM    DATA     BYTE      SPCTL
      000000F8H   SFRSYM    DATA     BYTE      P7
      000000A8H.7 SFRSYM    DATA     BIT       EA
      000000E1H   SFRSYM    DATA     BYTE      P7M1
      000000E8H   SFRSYM    DATA     BYTE      P6
      000000C8H   SFRSYM    DATA     BYTE      P5
      000000CBH   SFRSYM    DATA     BYTE      P6M1
      000000E2H   SFRSYM    DATA     BYTE      P7M0
      000000C0H   SFRSYM    DATA     BYTE      P4
      000000C9H   SFRSYM    DATA     BYTE      P5M1
      000000CCH   SFRSYM    DATA     BYTE      P6M0
      000000B0H   SFRSYM    DATA     BYTE      P3
      000000B3H   SFRSYM    DATA     BYTE      P4M1
      000000CAH   SFRSYM    DATA     BYTE      P5M0
      000000A0H   SFRSYM    DATA     BYTE      P2
      000000B1H   SFRSYM    DATA     BYTE      P3M1
      000000B4H   SFRSYM    DATA     BYTE      P4M0
      00000090H   SFRSYM    DATA     BYTE      P1
      00000095H   SFRSYM    DATA     BYTE      P2M1
      000000B2H   SFRSYM    DATA     BYTE      P3M0
      00000080H   SFRSYM    DATA     BYTE      P0
      00000091H   SFRSYM    DATA     BYTE      P1M1
      00000096H   SFRSYM    DATA     BYTE      P2M0
      00000092H   SFRSYM    DATA     BYTE      P1M0
      00000093H   SFRSYM    DATA     BYTE      P0M1

      00FF5604H   BLOCK     CODE     ---       LVL=0
      00FF5604H   LINE      CODE     ---       #43
      00FF5604H   LINE      CODE     ---       #46
      00FF5607H   LINE      CODE     ---       #48
      00FF5617H   LINE      CODE     ---       #51
      00FF5624H   LINE      CODE     ---       #52
      00FF5631H   LINE      CODE     ---       #53
      00FF563EH   LINE      CODE     ---       #54
      00FF5642H   LINE      CODE     ---       #55
      00FF564EH   LINE      CODE     ---       #56
      00FF5651H   LINE      CODE     ---       #57
      00FF5661H   LINE      CODE     ---       #60
      00FF566EH   LINE      CODE     ---       #61
      00FF567BH   LINE      CODE     ---       #62
      00FF5688H   LINE      CODE     ---       #63
      00FF568CH   LINE      CODE     ---       #64
      00FF5698H   LINE      CODE     ---       #65
      00FF569BH   LINE      CODE     ---       #66
      00FF56ABH   LINE      CODE     ---       #69
      00FF56B8H   LINE      CODE     ---       #70
      00FF56C5H   LINE      CODE     ---       #71
      00FF56D2H   LINE      CODE     ---       #72
      00FF56D6H   LINE      CODE     ---       #73
      00FF56E2H   LINE      CODE     ---       #74
      00FF56E5H   LINE      CODE     ---       #75
      00FF56F5H   LINE      CODE     ---       #79
      00FF5702H   LINE      CODE     ---       #80
      00FF570FH   LINE      CODE     ---       #81
      00FF571CH   LINE      CODE     ---       #82
      00FF5720H   LINE      CODE     ---       #83
      00FF572CH   LINE      CODE     ---       #84
      00FF572FH   LINE      CODE     ---       #85
      00FF573FH   LINE      CODE     ---       #88
      00FF574CH   LINE      CODE     ---       #89
      00FF5759H   LINE      CODE     ---       #90
      00FF5766H   LINE      CODE     ---       #91
      00FF576AH   LINE      CODE     ---       #92
      00FF5776H   LINE      CODE     ---       #93
      00FF5779H   LINE      CODE     ---       #94
L251 LINKER/LOCATER V4.66.93.0                                                        04/10/2024  20:12:08  PAGE 28


      00FF5789H   LINE      CODE     ---       #97
      00FF5796H   LINE      CODE     ---       #98
      00FF57A3H   LINE      CODE     ---       #99
      00FF57B0H   LINE      CODE     ---       #100
      00FF57B4H   LINE      CODE     ---       #101
      00FF57C0H   LINE      CODE     ---       #102
      00FF57C2H   LINE      CODE     ---       #105
      00FF57CEH   LINE      CODE     ---       #107
      00FF57DBH   LINE      CODE     ---       #108
      00FF57E8H   LINE      CODE     ---       #109
      00FF57F5H   LINE      CODE     ---       #110
      00FF57F9H   LINE      CODE     ---       #111
      00FF5805H   LINE      CODE     ---       #112
      00FF5805H   LINE      CODE     ---       #114
      00FF5809H   LINE      CODE     ---       #115
      ---         BLOCKEND  ---      ---       LVL=0

      00FF5F99H   BLOCK     CODE     ---       LVL=0
      00FF5F99H   LINE      CODE     ---       #121
      00FF5F99H   LINE      CODE     ---       #123
      00FF5F9DH   LINE      CODE     ---       #124
      00FF5FA0H   LINE      CODE     ---       #125
      00FF5FA3H   LINE      CODE     ---       #126
      00FF5FA6H   LINE      CODE     ---       #127
      00FF5FAAH   LINE      CODE     ---       #137
      00FF5FB1H   LINE      CODE     ---       #143
      00FF5FB4H   LINE      CODE     ---       #145
      00FF5FB7H   LINE      CODE     ---       #146
      00FF5FBAH   LINE      CODE     ---       #147
      00FF5FC6H   LINE      CODE     ---       #149
      00FF5FC9H   LINE      CODE     ---       #150
      00FF5FCCH   LINE      CODE     ---       #151
      00FF5FCFH   LINE      CODE     ---       #152
      00FF5FD2H   LINE      CODE     ---       #153
      00FF5FD5H   LINE      CODE     ---       #154
      00FF5FD8H   LINE      CODE     ---       #155
      00FF5FDBH   LINE      CODE     ---       #156
      00FF5FDEH   LINE      CODE     ---       #157
      00FF5FE1H   LINE      CODE     ---       #158
      00FF5FE4H   LINE      CODE     ---       #159
      00FF5FE7H   LINE      CODE     ---       #160
      00FF5FEAH   LINE      CODE     ---       #161
      00FF5FEDH   LINE      CODE     ---       #162
      00FF5FF0H   LINE      CODE     ---       #163
      00FF5FF3H   LINE      CODE     ---       #164
      00FF5FF6H   LINE      CODE     ---       #166
      00FF5FF9H   LINE      CODE     ---       #167
      00FF5FFCH   LINE      CODE     ---       #168
      00FF5FFFH   LINE      CODE     ---       #169
      00FF6002H   LINE      CODE     ---       #170
      00FF6005H   LINE      CODE     ---       #171
      00FF6008H   LINE      CODE     ---       #172
      00FF600BH   LINE      CODE     ---       #173
      00FF600EH   LINE      CODE     ---       #174
      00FF6011H   LINE      CODE     ---       #176
      00FF602CH   LINE      CODE     ---       #177
      00FF602FH   LINE      CODE     ---       #178
      ---         BLOCKEND  ---      ---       LVL=0

      00FF73DFH   BLOCK     CODE     ---       LVL=0
      0000088BH   SYMBOL    EDATA    CHAR      c
      00FF73DFH   LINE      CODE     ---       #183
      00FF73E3H   LINE      CODE     ---       #185
      00FF73ECH   LINE      CODE     ---       #187
      00FF73F0H   LINE      CODE     ---       #188
L251 LINKER/LOCATER V4.66.93.0                                                        04/10/2024  20:12:08  PAGE 29


      ---         BLOCKEND  ---      ---       LVL=0

      00FF008EH   BLOCK     CODE     ---       LVL=0
      00FF008EH   LINE      CODE     ---       #197
      00FF008EH   LINE      CODE     ---       #199
      00FF0091H   LINE      CODE     ---       #200
      ---         BLOCKEND  ---      ---       LVL=0

      ---         MODULE    ---      ---       common
      0000084DH   PUBLIC    EDATA    INT       wireless_type
      000000D0H   SFRSYM    DATA     BYTE      PSW
      0000009DH   SFRSYM    DATA     BYTE      IRCBAND
      00000097H   SFRSYM    DATA     BYTE      AUXR2
      000000EFH   SFRSYM    DATA     BYTE      AUXINTIF
      000000FDH   SFRSYM    DATA     BYTE      S4CON
      000000ACH   SFRSYM    DATA     BYTE      S3CON
      0000009AH   SFRSYM    DATA     BYTE      S2CON
      000000B7H   SFRSYM    DATA     BYTE      IPH
      000000CDH   SFRSYM    DATA     BYTE      SPSTAT
      000000DDH   SFRSYM    DATA     BYTE      T4T3M
      000000C1H   SFRSYM    DATA     BYTE      WDT_CONTR
      000000DFH   SFRSYM    DATA     BYTE      IP3
      000000F4H   SFRSYM    DATA     BYTE      USBCON
      000000B5H   SFRSYM    DATA     BYTE      IP2
      000000FFH   SFRSYM    DATA     BYTE      RSTCFG
      000000F9H   SFRSYM    DATA     BYTE      LINICR
      0000008EH   SFRSYM    DATA     BYTE      AUXR
      000000AFH   SFRSYM    DATA     BYTE      IE2
      00000088H   SFRSYM    DATA     BYTE      TCON
      00000098H   SFRSYM    DATA     BYTE      SCON
      000000F1H   SFRSYM    DATA     BYTE      CANICR
      00000087H   SFRSYM    DATA     BYTE      PCON
      000000BCH   SFRSYM    DATA     BYTE      ADC_CONTR
      000000E7H   SFRSYM    DATA     BYTE      CMPCR2
      000000E6H   SFRSYM    DATA     BYTE      CMPCR1
      000000B8H   SFRSYM    DATA     BYTE      IP
      0000008FH   SFRSYM    DATA     BYTE      INTCLKO
      000000EEH   SFRSYM    DATA     BYTE      IP3H
      000000B6H   SFRSYM    DATA     BYTE      IP2H
      000000A8H   SFRSYM    DATA     BYTE      IE
      000000BBH   SFRSYM    DATA     BYTE      P_SW3
      000000BAH   SFRSYM    DATA     BYTE      P_SW2
      000000A2H   SFRSYM    DATA     BYTE      P_SW1
      000000CEH   SFRSYM    DATA     BYTE      SPCTL
      000000F8H   SFRSYM    DATA     BYTE      P7
      000000E8H   SFRSYM    DATA     BYTE      P6
      000000C8H   SFRSYM    DATA     BYTE      P5
      000000C0H   SFRSYM    DATA     BYTE      P4
      000000B0H   SFRSYM    DATA     BYTE      P3
      000000A0H   SFRSYM    DATA     BYTE      P2
      00000090H   SFRSYM    DATA     BYTE      P1
      00000080H   SFRSYM    DATA     BYTE      P0

      ---         MODULE    ---      ---       zf_adc
      00000094H   SFRSYM    DATA     BYTE      P0M0
      000000D0H   SFRSYM    DATA     BYTE      PSW
      0000009DH   SFRSYM    DATA     BYTE      IRCBAND
      00000097H   SFRSYM    DATA     BYTE      AUXR2
      000000EFH   SFRSYM    DATA     BYTE      AUXINTIF
      000000FDH   SFRSYM    DATA     BYTE      S4CON
      000000ACH   SFRSYM    DATA     BYTE      S3CON
      0000009AH   SFRSYM    DATA     BYTE      S2CON
      000000B7H   SFRSYM    DATA     BYTE      IPH
      000000CDH   SFRSYM    DATA     BYTE      SPSTAT
      000000BEH   SFRSYM    DATA     BYTE      ADC_RESL
L251 LINKER/LOCATER V4.66.93.0                                                        04/10/2024  20:12:08  PAGE 30


      000000DDH   SFRSYM    DATA     BYTE      T4T3M
      000000C1H   SFRSYM    DATA     BYTE      WDT_CONTR
      000000DFH   SFRSYM    DATA     BYTE      IP3
      000000F4H   SFRSYM    DATA     BYTE      USBCON
      000000B5H   SFRSYM    DATA     BYTE      IP2
      000000FFH   SFRSYM    DATA     BYTE      RSTCFG
      000000F9H   SFRSYM    DATA     BYTE      LINICR
      0000008EH   SFRSYM    DATA     BYTE      AUXR
      000000AFH   SFRSYM    DATA     BYTE      IE2
      00000088H   SFRSYM    DATA     BYTE      TCON
      00000098H   SFRSYM    DATA     BYTE      SCON
      000000F1H   SFRSYM    DATA     BYTE      CANICR
      00000087H   SFRSYM    DATA     BYTE      PCON
      000000BCH   SFRSYM    DATA     BYTE      ADC_CONTR
      000000E7H   SFRSYM    DATA     BYTE      CMPCR2
      000000E6H   SFRSYM    DATA     BYTE      CMPCR1
      000000DEH   SFRSYM    DATA     BYTE      ADCCFG
      000000B8H   SFRSYM    DATA     BYTE      IP
      0000008FH   SFRSYM    DATA     BYTE      INTCLKO
      000000EEH   SFRSYM    DATA     BYTE      IP3H
      000000B6H   SFRSYM    DATA     BYTE      IP2H
      000000BDH   SFRSYM    DATA     BYTE      ADC_RES
      000000A8H   SFRSYM    DATA     BYTE      IE
      000000BBH   SFRSYM    DATA     BYTE      P_SW3
      000000BAH   SFRSYM    DATA     BYTE      P_SW2
      000000A2H   SFRSYM    DATA     BYTE      P_SW1
      000000CEH   SFRSYM    DATA     BYTE      SPCTL
      000000F8H   SFRSYM    DATA     BYTE      P7
      000000E8H   SFRSYM    DATA     BYTE      P6
      000000C8H   SFRSYM    DATA     BYTE      P5
      000000C0H   SFRSYM    DATA     BYTE      P4
      000000B0H   SFRSYM    DATA     BYTE      P3
      000000A0H   SFRSYM    DATA     BYTE      P2
      00000090H   SFRSYM    DATA     BYTE      P1
      00000080H   SFRSYM    DATA     BYTE      P0
      00000091H   SFRSYM    DATA     BYTE      P1M1
      00000092H   SFRSYM    DATA     BYTE      P1M0
      00000093H   SFRSYM    DATA     BYTE      P0M1
      000007E0H   SYMBOL    EDATA    INT       adcn
      000007E2H   SYMBOL    EDATA    INT       speed
      000006D5H   SYMBOL    EDATA    INT       adcn
      000006D7H   SYMBOL    EDATA    INT       resolution
      000006D9H   SYMBOL    EDATA    WORD      adc_value

      ---         MODULE    ---      ---       zf_delay
      00FF6E0DH   PUBLIC    CODE     ---       delay_init
      00FF6EBBH   PUBLIC    CODE     ---       delay_ms
      000007E4H   PUBLIC    EDATA    WORD      zf_delay_ms
      000007E6H   PUBLIC    EDATA    WORD      zf_delay_us
      000000D0H   SFRSYM    DATA     BYTE      PSW
      0000009DH   SFRSYM    DATA     BYTE      IRCBAND
      00000097H   SFRSYM    DATA     BYTE      AUXR2
      000000EFH   SFRSYM    DATA     BYTE      AUXINTIF
      000000FDH   SFRSYM    DATA     BYTE      S4CON
      000000ACH   SFRSYM    DATA     BYTE      S3CON
      0000009AH   SFRSYM    DATA     BYTE      S2CON
      000000B7H   SFRSYM    DATA     BYTE      IPH
      000000CDH   SFRSYM    DATA     BYTE      SPSTAT
      000000DDH   SFRSYM    DATA     BYTE      T4T3M
      000000C1H   SFRSYM    DATA     BYTE      WDT_CONTR
      000000DFH   SFRSYM    DATA     BYTE      IP3
      000000F4H   SFRSYM    DATA     BYTE      USBCON
      000000B5H   SFRSYM    DATA     BYTE      IP2
      000000FFH   SFRSYM    DATA     BYTE      RSTCFG
      000000F9H   SFRSYM    DATA     BYTE      LINICR
L251 LINKER/LOCATER V4.66.93.0                                                        04/10/2024  20:12:08  PAGE 31


      0000008EH   SFRSYM    DATA     BYTE      AUXR
      000000AFH   SFRSYM    DATA     BYTE      IE2
      00000088H   SFRSYM    DATA     BYTE      TCON
      00000098H   SFRSYM    DATA     BYTE      SCON
      000000F1H   SFRSYM    DATA     BYTE      CANICR
      00000087H   SFRSYM    DATA     BYTE      PCON
      000000BCH   SFRSYM    DATA     BYTE      ADC_CONTR
      000000E7H   SFRSYM    DATA     BYTE      CMPCR2
      000000E6H   SFRSYM    DATA     BYTE      CMPCR1
      000000B8H   SFRSYM    DATA     BYTE      IP
      0000008FH   SFRSYM    DATA     BYTE      INTCLKO
      000000EEH   SFRSYM    DATA     BYTE      IP3H
      000000B6H   SFRSYM    DATA     BYTE      IP2H
      000000A8H   SFRSYM    DATA     BYTE      IE
      000000BBH   SFRSYM    DATA     BYTE      P_SW3
      000000BAH   SFRSYM    DATA     BYTE      P_SW2
      000000A2H   SFRSYM    DATA     BYTE      P_SW1
      000000CEH   SFRSYM    DATA     BYTE      SPCTL
      000000F8H   SFRSYM    DATA     BYTE      P7
      000000E8H   SFRSYM    DATA     BYTE      P6
      000000C8H   SFRSYM    DATA     BYTE      P5
      000000C0H   SFRSYM    DATA     BYTE      P4
      000000B0H   SFRSYM    DATA     BYTE      P3
      000000A0H   SFRSYM    DATA     BYTE      P2
      00000090H   SFRSYM    DATA     BYTE      P1
      00000080H   SFRSYM    DATA     BYTE      P0

      00FF6E0DH   BLOCK     CODE     ---       LVL=0
      00FF6E0DH   LINE      CODE     ---       #34
      00FF6E0DH   LINE      CODE     ---       #36
      00FF6E1CH   LINE      CODE     ---       #37
      00FF6E2FH   LINE      CODE     ---       #38
      00FF6E4DH   LINE      CODE     ---       #40
      ---         BLOCKEND  ---      ---       LVL=0

      00FF6EBBH   BLOCK     CODE     ---       LVL=0
      000007E8H   SYMBOL    EDATA    WORD      ms
      00FF6EBFH   BLOCK     CODE     NEAR LAB  LVL=1
      000007EAH   SYMBOL    EDATA    WORD      i
      ---         BLOCKEND  ---      ---       LVL=1
      00FF6EBBH   LINE      CODE     ---       #48
      00FF6EBFH   LINE      CODE     ---       #49
      00FF6EBFH   LINE      CODE     ---       #51
      00FF6EBFH   LINE      CODE     ---       #52
      00FF6EC7H   LINE      CODE     ---       #54
      00FF6EDBH   LINE      CODE     ---       #55
      00FF6EEFH   LINE      CODE     ---       #56
      ---         BLOCKEND  ---      ---       LVL=0
      000006DBH   SYMBOL    EDATA    DWORD     us
      000006DFH   SYMBOL    EDATA    WORD      i

      ---         MODULE    ---      ---       zf_eeprom
      00000538H   PUBLIC    EDATA    BYTE      ?iap_read_bytes?BYTE
      00000542H   PUBLIC    EDATA    BYTE      ?iap_write_bytes?BYTE
      000000D0H   SFRSYM    DATA     BYTE      PSW
      0000009DH   SFRSYM    DATA     BYTE      IRCBAND
      000000D0H.5 SFRSYM    DATA     BIT       F0
      00000097H   SFRSYM    DATA     BYTE      AUXR2
      000000C6H   SFRSYM    DATA     BYTE      IAP_TRIG
      000000EFH   SFRSYM    DATA     BYTE      AUXINTIF
      000000FDH   SFRSYM    DATA     BYTE      S4CON
      000000ACH   SFRSYM    DATA     BYTE      S3CON
      0000009AH   SFRSYM    DATA     BYTE      S2CON
      000000B7H   SFRSYM    DATA     BYTE      IPH
      000000CDH   SFRSYM    DATA     BYTE      SPSTAT
L251 LINKER/LOCATER V4.66.93.0                                                        04/10/2024  20:12:08  PAGE 32


      000000DDH   SFRSYM    DATA     BYTE      T4T3M
      000000C1H   SFRSYM    DATA     BYTE      WDT_CONTR
      000000C2H   SFRSYM    DATA     BYTE      IAP_DATA
      000000DFH   SFRSYM    DATA     BYTE      IP3
      000000F4H   SFRSYM    DATA     BYTE      USBCON
      000000B5H   SFRSYM    DATA     BYTE      IP2
      000000FFH   SFRSYM    DATA     BYTE      RSTCFG
      000000C7H   SFRSYM    DATA     BYTE      IAP_CONTR
      000000F9H   SFRSYM    DATA     BYTE      LINICR
      0000008EH   SFRSYM    DATA     BYTE      AUXR
      000000AFH   SFRSYM    DATA     BYTE      IE2
      00000088H   SFRSYM    DATA     BYTE      TCON
      00000098H   SFRSYM    DATA     BYTE      SCON
      000000F5H   SFRSYM    DATA     BYTE      IAP_TPS
      000000F1H   SFRSYM    DATA     BYTE      CANICR
      00000087H   SFRSYM    DATA     BYTE      PCON
      000000BCH   SFRSYM    DATA     BYTE      ADC_CONTR
      000000E7H   SFRSYM    DATA     BYTE      CMPCR2
      000000E6H   SFRSYM    DATA     BYTE      CMPCR1
      000000C4H   SFRSYM    DATA     BYTE      IAP_ADDRL
      000000C3H   SFRSYM    DATA     BYTE      IAP_ADDRH
      000000F6H   SFRSYM    DATA     BYTE      IAP_ADDRE
      000000B8H   SFRSYM    DATA     BYTE      IP
      0000008FH   SFRSYM    DATA     BYTE      INTCLKO
      000000EEH   SFRSYM    DATA     BYTE      IP3H
      000000B6H   SFRSYM    DATA     BYTE      IP2H
      000000C5H   SFRSYM    DATA     BYTE      IAP_CMD
      000000A8H   SFRSYM    DATA     BYTE      IE
      000000BBH   SFRSYM    DATA     BYTE      P_SW3
      000000BAH   SFRSYM    DATA     BYTE      P_SW2
      000000A2H   SFRSYM    DATA     BYTE      P_SW1
      000000CEH   SFRSYM    DATA     BYTE      SPCTL
      000000F8H   SFRSYM    DATA     BYTE      P7
      000000A8H.7 SFRSYM    DATA     BIT       EA
      000000E8H   SFRSYM    DATA     BYTE      P6
      000000C8H   SFRSYM    DATA     BYTE      P5
      000000C0H   SFRSYM    DATA     BYTE      P4
      000000B0H   SFRSYM    DATA     BYTE      P3
      000000A0H   SFRSYM    DATA     BYTE      P2
      00000090H   SFRSYM    DATA     BYTE      P1
      00000080H   SFRSYM    DATA     BYTE      P0
      0000088CH   SYMBOL    EDATA    BYTE      write_time
      00000538H   SYMBOL    EDATA    DWORD     addr
      0000053CH   SYMBOL    EDATA    ---       buf
      00000540H   SYMBOL    EDATA    WORD      len
      00000542H   SYMBOL    EDATA    DWORD     addr
      00000546H   SYMBOL    EDATA    ---       buf
      0000054AH   SYMBOL    EDATA    WORD      len
      000007ECH   SYMBOL    EDATA    DWORD     addr

      ---         MODULE    ---      ---       zf_exti
      000000D0H   SFRSYM    DATA     BYTE      PSW
      0000009DH   SFRSYM    DATA     BYTE      IRCBAND
      00000097H   SFRSYM    DATA     BYTE      AUXR2
      000000EFH   SFRSYM    DATA     BYTE      AUXINTIF
      000000FDH   SFRSYM    DATA     BYTE      S4CON
      000000ACH   SFRSYM    DATA     BYTE      S3CON
      0000009AH   SFRSYM    DATA     BYTE      S2CON
      000000B7H   SFRSYM    DATA     BYTE      IPH
      000000CDH   SFRSYM    DATA     BYTE      SPSTAT
      000000DDH   SFRSYM    DATA     BYTE      T4T3M
      000000C1H   SFRSYM    DATA     BYTE      WDT_CONTR
      00000088H.2 SFRSYM    DATA     BIT       IT1
      000000A8H.2 SFRSYM    DATA     BIT       EX1
      00000088H.0 SFRSYM    DATA     BIT       IT0
L251 LINKER/LOCATER V4.66.93.0                                                        04/10/2024  20:12:08  PAGE 33


      000000A8H.0 SFRSYM    DATA     BIT       EX0
      000000DFH   SFRSYM    DATA     BYTE      IP3
      000000F4H   SFRSYM    DATA     BYTE      USBCON
      000000B5H   SFRSYM    DATA     BYTE      IP2
      000000FFH   SFRSYM    DATA     BYTE      RSTCFG
      000000F9H   SFRSYM    DATA     BYTE      LINICR
      0000008EH   SFRSYM    DATA     BYTE      AUXR
      000000AFH   SFRSYM    DATA     BYTE      IE2
      00000088H   SFRSYM    DATA     BYTE      TCON
      00000098H   SFRSYM    DATA     BYTE      SCON
      000000F1H   SFRSYM    DATA     BYTE      CANICR
      00000087H   SFRSYM    DATA     BYTE      PCON
      000000BCH   SFRSYM    DATA     BYTE      ADC_CONTR
      000000E7H   SFRSYM    DATA     BYTE      CMPCR2
      000000E6H   SFRSYM    DATA     BYTE      CMPCR1
      000000B8H   SFRSYM    DATA     BYTE      IP
      0000008FH   SFRSYM    DATA     BYTE      INTCLKO
      000000EEH   SFRSYM    DATA     BYTE      IP3H
      000000B6H   SFRSYM    DATA     BYTE      IP2H
      000000A8H   SFRSYM    DATA     BYTE      IE
      000000BBH   SFRSYM    DATA     BYTE      P_SW3
      000000BAH   SFRSYM    DATA     BYTE      P_SW2
      000000A2H   SFRSYM    DATA     BYTE      P_SW1
      000000CEH   SFRSYM    DATA     BYTE      SPCTL
      000000F8H   SFRSYM    DATA     BYTE      P7
      000000E8H   SFRSYM    DATA     BYTE      P6
      000000C8H   SFRSYM    DATA     BYTE      P5
      000000C0H   SFRSYM    DATA     BYTE      P4
      000000B0H   SFRSYM    DATA     BYTE      P3
      000000A0H   SFRSYM    DATA     BYTE      P2
      00000090H   SFRSYM    DATA     BYTE      P1
      00000080H   SFRSYM    DATA     BYTE      P0
      000007F0H   SYMBOL    EDATA    INT       int_n
      000007F2H   SYMBOL    EDATA    INT       mode

      ---         MODULE    ---      ---       zf_gpio
      00FF38C0H   PUBLIC    CODE     ---       gpio_mode
      00000094H   SFRSYM    DATA     BYTE      P0M0
      000000D0H   SFRSYM    DATA     BYTE      PSW
      0000009DH   SFRSYM    DATA     BYTE      IRCBAND
      00000097H   SFRSYM    DATA     BYTE      AUXR2
      000000EFH   SFRSYM    DATA     BYTE      AUXINTIF
      000000FDH   SFRSYM    DATA     BYTE      S4CON
      000000ACH   SFRSYM    DATA     BYTE      S3CON
      0000009AH   SFRSYM    DATA     BYTE      S2CON
      000000B7H   SFRSYM    DATA     BYTE      IPH
      000000CDH   SFRSYM    DATA     BYTE      SPSTAT
      000000DDH   SFRSYM    DATA     BYTE      T4T3M
      000000C1H   SFRSYM    DATA     BYTE      WDT_CONTR
      000000DFH   SFRSYM    DATA     BYTE      IP3
      000000F4H   SFRSYM    DATA     BYTE      USBCON
      000000B5H   SFRSYM    DATA     BYTE      IP2
      000000FFH   SFRSYM    DATA     BYTE      RSTCFG
      000000F9H   SFRSYM    DATA     BYTE      LINICR
      0000008EH   SFRSYM    DATA     BYTE      AUXR
      000000AFH   SFRSYM    DATA     BYTE      IE2
      00000088H   SFRSYM    DATA     BYTE      TCON
      00000098H   SFRSYM    DATA     BYTE      SCON
      000000F1H   SFRSYM    DATA     BYTE      CANICR
      00000087H   SFRSYM    DATA     BYTE      PCON
      000000BCH   SFRSYM    DATA     BYTE      ADC_CONTR
      000000E7H   SFRSYM    DATA     BYTE      CMPCR2
      000000E6H   SFRSYM    DATA     BYTE      CMPCR1
      000000B8H   SFRSYM    DATA     BYTE      IP
      0000008FH   SFRSYM    DATA     BYTE      INTCLKO
L251 LINKER/LOCATER V4.66.93.0                                                        04/10/2024  20:12:08  PAGE 34


      000000EEH   SFRSYM    DATA     BYTE      IP3H
      000000B6H   SFRSYM    DATA     BYTE      IP2H
      000000A8H   SFRSYM    DATA     BYTE      IE
      000000BBH   SFRSYM    DATA     BYTE      P_SW3
      000000BAH   SFRSYM    DATA     BYTE      P_SW2
      000000A2H   SFRSYM    DATA     BYTE      P_SW1
      000000CEH   SFRSYM    DATA     BYTE      SPCTL
      000000F8H   SFRSYM    DATA     BYTE      P7
      000000E1H   SFRSYM    DATA     BYTE      P7M1
      000000E8H   SFRSYM    DATA     BYTE      P6
      000000C8H   SFRSYM    DATA     BYTE      P5
      000000CBH   SFRSYM    DATA     BYTE      P6M1
      000000E2H   SFRSYM    DATA     BYTE      P7M0
      000000C0H   SFRSYM    DATA     BYTE      P4
      000000C9H   SFRSYM    DATA     BYTE      P5M1
      000000CCH   SFRSYM    DATA     BYTE      P6M0
      000000B0H   SFRSYM    DATA     BYTE      P3
      000000B3H   SFRSYM    DATA     BYTE      P4M1
      000000CAH   SFRSYM    DATA     BYTE      P5M0
      000000A0H   SFRSYM    DATA     BYTE      P2
      000000B1H   SFRSYM    DATA     BYTE      P3M1
      000000B4H   SFRSYM    DATA     BYTE      P4M0
      00000090H   SFRSYM    DATA     BYTE      P1
      00000095H   SFRSYM    DATA     BYTE      P2M1
      000000B2H   SFRSYM    DATA     BYTE      P3M0
      00000080H   SFRSYM    DATA     BYTE      P0
      00000091H   SFRSYM    DATA     BYTE      P1M1
      00000096H   SFRSYM    DATA     BYTE      P2M0
      00000092H   SFRSYM    DATA     BYTE      P1M0
      00000093H   SFRSYM    DATA     BYTE      P0M1
      000007F4H   SYMBOL    EDATA    INT       pin
      000007F6H   SYMBOL    EDATA    INT       pull

      00FF38C0H   BLOCK     CODE     ---       LVL=0
      000007F8H   SYMBOL    EDATA    INT       pin
      000007FAH   SYMBOL    EDATA    INT       mode
      00FF38C0H   LINE      CODE     ---       #54
      00FF38C8H   LINE      CODE     ---       #56
      00FF38D5H   LINE      CODE     ---       #58
      00FF38E5H   LINE      CODE     ---       #60
      00FF3900H   LINE      CODE     ---       #61
      00FF391BH   LINE      CODE     ---       #62
      00FF391BH   LINE      CODE     ---       #63
      00FF392DH   LINE      CODE     ---       #65
      00FF3948H   LINE      CODE     ---       #66
      00FF3963H   LINE      CODE     ---       #67
      00FF3963H   LINE      CODE     ---       #68
      00FF3975H   LINE      CODE     ---       #70
      00FF3990H   LINE      CODE     ---       #71
      00FF39ABH   LINE      CODE     ---       #72
      00FF39ABH   LINE      CODE     ---       #74
      00FF39BDH   LINE      CODE     ---       #76
      00FF39D8H   LINE      CODE     ---       #77
      00FF39F3H   LINE      CODE     ---       #78
      00FF39F3H   LINE      CODE     ---       #79
      00FF3A05H   LINE      CODE     ---       #81
      00FF3A20H   LINE      CODE     ---       #82
      00FF3A3BH   LINE      CODE     ---       #83
      00FF3A3BH   LINE      CODE     ---       #84
      00FF3A4DH   LINE      CODE     ---       #86
      00FF3A68H   LINE      CODE     ---       #87
      00FF3A83H   LINE      CODE     ---       #88
      00FF3A83H   LINE      CODE     ---       #89
      00FF3A95H   LINE      CODE     ---       #91
      00FF3AB0H   LINE      CODE     ---       #92
L251 LINKER/LOCATER V4.66.93.0                                                        04/10/2024  20:12:08  PAGE 35


      00FF3ACBH   LINE      CODE     ---       #93
      00FF3ACBH   LINE      CODE     ---       #94
      00FF3AE0H   LINE      CODE     ---       #96
      00FF3AFBH   LINE      CODE     ---       #97
      00FF3B16H   LINE      CODE     ---       #98
      00FF3B19H   LINE      CODE     ---       #100
      00FF3B28H   LINE      CODE     ---       #102
      00FF3B38H   LINE      CODE     ---       #104
      00FF3B53H   LINE      CODE     ---       #105
      00FF3B6CH   LINE      CODE     ---       #106
      00FF3B6CH   LINE      CODE     ---       #107
      00FF3B7EH   LINE      CODE     ---       #109
      00FF3B99H   LINE      CODE     ---       #110
      00FF3BB2H   LINE      CODE     ---       #111
      00FF3BB2H   LINE      CODE     ---       #112
      00FF3BC4H   LINE      CODE     ---       #114
      00FF3BDFH   LINE      CODE     ---       #115
      00FF3BF8H   LINE      CODE     ---       #116
      00FF3BF8H   LINE      CODE     ---       #118
      00FF3C0AH   LINE      CODE     ---       #120
      00FF3C25H   LINE      CODE     ---       #121
      00FF3C3EH   LINE      CODE     ---       #122
      00FF3C3EH   LINE      CODE     ---       #123
      00FF3C50H   LINE      CODE     ---       #125
      00FF3C6BH   LINE      CODE     ---       #126
      00FF3C84H   LINE      CODE     ---       #127
      00FF3C84H   LINE      CODE     ---       #128
      00FF3C96H   LINE      CODE     ---       #130
      00FF3CB1H   LINE      CODE     ---       #131
      00FF3CCAH   LINE      CODE     ---       #132
      00FF3CCAH   LINE      CODE     ---       #133
      00FF3CDCH   LINE      CODE     ---       #135
      00FF3CF7H   LINE      CODE     ---       #136
      00FF3D10H   LINE      CODE     ---       #137
      00FF3D10H   LINE      CODE     ---       #138
      00FF3D25H   LINE      CODE     ---       #140
      00FF3D40H   LINE      CODE     ---       #141
      00FF3D59H   LINE      CODE     ---       #142
      00FF3D5CH   LINE      CODE     ---       #145
      00FF3D6BH   LINE      CODE     ---       #147
      00FF3D7BH   LINE      CODE     ---       #149
      00FF3D94H   LINE      CODE     ---       #150
      00FF3DAFH   LINE      CODE     ---       #151
      00FF3DAFH   LINE      CODE     ---       #152
      00FF3DC1H   LINE      CODE     ---       #154
      00FF3DDAH   LINE      CODE     ---       #155
      00FF3DF5H   LINE      CODE     ---       #156
      00FF3DF5H   LINE      CODE     ---       #157
      00FF3E07H   LINE      CODE     ---       #159
      00FF3E20H   LINE      CODE     ---       #160
      00FF3E3BH   LINE      CODE     ---       #161
      00FF3E3BH   LINE      CODE     ---       #163
      00FF3E4DH   LINE      CODE     ---       #165
      00FF3E66H   LINE      CODE     ---       #166
      00FF3E81H   LINE      CODE     ---       #167
      00FF3E81H   LINE      CODE     ---       #168
      00FF3E93H   LINE      CODE     ---       #170
      00FF3EACH   LINE      CODE     ---       #171
      00FF3EC7H   LINE      CODE     ---       #172
      00FF3EC7H   LINE      CODE     ---       #173
      00FF3ED9H   LINE      CODE     ---       #175
      00FF3EF2H   LINE      CODE     ---       #176
      00FF3F0DH   LINE      CODE     ---       #177
      00FF3F0DH   LINE      CODE     ---       #178
      00FF3F1FH   LINE      CODE     ---       #180
L251 LINKER/LOCATER V4.66.93.0                                                        04/10/2024  20:12:08  PAGE 36


      00FF3F38H   LINE      CODE     ---       #181
      00FF3F53H   LINE      CODE     ---       #182
      00FF3F53H   LINE      CODE     ---       #183
      00FF3F68H   LINE      CODE     ---       #185
      00FF3F81H   LINE      CODE     ---       #186
      00FF3F9CH   LINE      CODE     ---       #187
      00FF3F9FH   LINE      CODE     ---       #189
      00FF3FAEH   LINE      CODE     ---       #191
      00FF3FBEH   LINE      CODE     ---       #193
      00FF3FD7H   LINE      CODE     ---       #194
      00FF3FF0H   LINE      CODE     ---       #195
      00FF3FF0H   LINE      CODE     ---       #196
      00FF4002H   LINE      CODE     ---       #198
      00FF401BH   LINE      CODE     ---       #199
      00FF4034H   LINE      CODE     ---       #200
      00FF4034H   LINE      CODE     ---       #201
      00FF4046H   LINE      CODE     ---       #203
      00FF405FH   LINE      CODE     ---       #204
      00FF4078H   LINE      CODE     ---       #205
      00FF4078H   LINE      CODE     ---       #207
      00FF408AH   LINE      CODE     ---       #209
      00FF40A3H   LINE      CODE     ---       #210
      00FF40BCH   LINE      CODE     ---       #211
      00FF40BCH   LINE      CODE     ---       #212
      00FF40CEH   LINE      CODE     ---       #214
      00FF40E7H   LINE      CODE     ---       #215
      00FF4100H   LINE      CODE     ---       #216
      00FF4100H   LINE      CODE     ---       #217
      00FF4112H   LINE      CODE     ---       #219
      00FF412BH   LINE      CODE     ---       #220
      00FF4144H   LINE      CODE     ---       #221
      00FF4144H   LINE      CODE     ---       #222
      00FF4156H   LINE      CODE     ---       #224
      00FF416FH   LINE      CODE     ---       #225
      00FF4188H   LINE      CODE     ---       #226
      00FF4188H   LINE      CODE     ---       #227
      00FF419AH   LINE      CODE     ---       #229
      00FF41B3H   LINE      CODE     ---       #230
      00FF41CCH   LINE      CODE     ---       #231
      00FF41CCH   LINE      CODE     ---       #233
      ---         BLOCKEND  ---      ---       LVL=0

      ---         MODULE    ---      ---       zf_nvic
      000000D0H   SFRSYM    DATA     BYTE      PSW
      0000009DH   SFRSYM    DATA     BYTE      IRCBAND
      00000097H   SFRSYM    DATA     BYTE      AUXR2
      000000EFH   SFRSYM    DATA     BYTE      AUXINTIF
      000000FDH   SFRSYM    DATA     BYTE      S4CON
      000000ACH   SFRSYM    DATA     BYTE      S3CON
      0000009AH   SFRSYM    DATA     BYTE      S2CON
      000000B7H   SFRSYM    DATA     BYTE      IPH
      000000CDH   SFRSYM    DATA     BYTE      SPSTAT
      000000DDH   SFRSYM    DATA     BYTE      T4T3M
      000000C1H   SFRSYM    DATA     BYTE      WDT_CONTR
      000000DFH   SFRSYM    DATA     BYTE      IP3
      000000F4H   SFRSYM    DATA     BYTE      USBCON
      000000B5H   SFRSYM    DATA     BYTE      IP2
      000000FFH   SFRSYM    DATA     BYTE      RSTCFG
      000000F9H   SFRSYM    DATA     BYTE      LINICR
      0000008EH   SFRSYM    DATA     BYTE      AUXR
      000000AFH   SFRSYM    DATA     BYTE      IE2
      00000088H   SFRSYM    DATA     BYTE      TCON
      00000098H   SFRSYM    DATA     BYTE      SCON
      000000F1H   SFRSYM    DATA     BYTE      CANICR
      00000087H   SFRSYM    DATA     BYTE      PCON
L251 LINKER/LOCATER V4.66.93.0                                                        04/10/2024  20:12:08  PAGE 37


      000000BCH   SFRSYM    DATA     BYTE      ADC_CONTR
      000000E7H   SFRSYM    DATA     BYTE      CMPCR2
      000000E6H   SFRSYM    DATA     BYTE      CMPCR1
      000000B8H   SFRSYM    DATA     BYTE      IP
      0000008FH   SFRSYM    DATA     BYTE      INTCLKO
      000000EEH   SFRSYM    DATA     BYTE      IP3H
      000000B6H   SFRSYM    DATA     BYTE      IP2H
      000000A8H   SFRSYM    DATA     BYTE      IE
      000000BBH   SFRSYM    DATA     BYTE      P_SW3
      000000BAH   SFRSYM    DATA     BYTE      P_SW2
      000000A2H   SFRSYM    DATA     BYTE      P_SW1
      000000CEH   SFRSYM    DATA     BYTE      SPCTL
      000000F8H   SFRSYM    DATA     BYTE      P7
      000000E8H   SFRSYM    DATA     BYTE      P6
      000000C8H   SFRSYM    DATA     BYTE      P5
      000000C0H   SFRSYM    DATA     BYTE      P4
      000000B0H   SFRSYM    DATA     BYTE      P3
      000000A0H   SFRSYM    DATA     BYTE      P2
      00000090H   SFRSYM    DATA     BYTE      P1
      00000080H   SFRSYM    DATA     BYTE      P0
      00000820H   SYMBOL    EDATA    INT       irqn
      00000822H   SYMBOL    EDATA    BYTE      priority

      ---         MODULE    ---      ---       zf_pwm
      00FF4C08H   PUBLIC    CODE     ---       pwm_set_gpio
      00FF482EH   PUBLIC    CODE     ---       pwm_init
      00FF75F0H   PUBLIC    HCONST   ---       PWM_CCR_ADDR
      00FF7610H   PUBLIC    HCONST   ---       PWM_ARR_ADDR
      00FF7618H   PUBLIC    HCONST   ---       PWM_CCER_ADDR
      00FF7628H   PUBLIC    HCONST   ---       PWM_CCMR_ADDR
      00000391H   PUBLIC    EDATA    BYTE      ?pwm_init?BYTE
      000003A5H   PUBLIC    EDATA    BYTE      ?pwm_freq?BYTE
      000000D0H   SFRSYM    DATA     BYTE      PSW
      0000009DH   SFRSYM    DATA     BYTE      IRCBAND
      00000097H   SFRSYM    DATA     BYTE      AUXR2
      000000EFH   SFRSYM    DATA     BYTE      AUXINTIF
      000000FDH   SFRSYM    DATA     BYTE      S4CON
      000000ACH   SFRSYM    DATA     BYTE      S3CON
      0000009AH   SFRSYM    DATA     BYTE      S2CON
      000000B7H   SFRSYM    DATA     BYTE      IPH
      000000CDH   SFRSYM    DATA     BYTE      SPSTAT
      000000DDH   SFRSYM    DATA     BYTE      T4T3M
      000000C1H   SFRSYM    DATA     BYTE      WDT_CONTR
      000000DFH   SFRSYM    DATA     BYTE      IP3
      000000F4H   SFRSYM    DATA     BYTE      USBCON
      000000B5H   SFRSYM    DATA     BYTE      IP2
      000000FFH   SFRSYM    DATA     BYTE      RSTCFG
      000000F9H   SFRSYM    DATA     BYTE      LINICR
      0000008EH   SFRSYM    DATA     BYTE      AUXR
      000000AFH   SFRSYM    DATA     BYTE      IE2
      00000088H   SFRSYM    DATA     BYTE      TCON
      00000098H   SFRSYM    DATA     BYTE      SCON
      000000F1H   SFRSYM    DATA     BYTE      CANICR
      00000087H   SFRSYM    DATA     BYTE      PCON
      000000BCH   SFRSYM    DATA     BYTE      ADC_CONTR
      000000E7H   SFRSYM    DATA     BYTE      CMPCR2
      000000E6H   SFRSYM    DATA     BYTE      CMPCR1
      000000B8H   SFRSYM    DATA     BYTE      IP
      0000008FH   SFRSYM    DATA     BYTE      INTCLKO
      000000EEH   SFRSYM    DATA     BYTE      IP3H
      000000B6H   SFRSYM    DATA     BYTE      IP2H
      000000A8H   SFRSYM    DATA     BYTE      IE
      000000BBH   SFRSYM    DATA     BYTE      P_SW3
      000000BAH   SFRSYM    DATA     BYTE      P_SW2
      000000A2H   SFRSYM    DATA     BYTE      P_SW1
L251 LINKER/LOCATER V4.66.93.0                                                        04/10/2024  20:12:08  PAGE 38


      000000CEH   SFRSYM    DATA     BYTE      SPCTL
      000000F8H   SFRSYM    DATA     BYTE      P7
      000000E8H   SFRSYM    DATA     BYTE      P6
      000000C8H   SFRSYM    DATA     BYTE      P5
      000000C0H   SFRSYM    DATA     BYTE      P4
      000000B0H   SFRSYM    DATA     BYTE      P3
      000000A0H   SFRSYM    DATA     BYTE      P2
      00000090H   SFRSYM    DATA     BYTE      P1
      00000080H   SFRSYM    DATA     BYTE      P0

      00FF4C08H   BLOCK     CODE     ---       LVL=0
      0000084FH   SYMBOL    EDATA    INT       pwmch
      00FF4C08H   LINE      CODE     ---       #49
      00FF4C0CH   LINE      CODE     ---       #51
      00FF4D81H   LINE      CODE     ---       #53
      00FF4D81H   LINE      CODE     ---       #55
      00FF4D8CH   LINE      CODE     ---       #56
      00FF4D8FH   LINE      CODE     ---       #58
      00FF4D8FH   LINE      CODE     ---       #60
      00FF4D9AH   LINE      CODE     ---       #61
      00FF4D9DH   LINE      CODE     ---       #63
      00FF4D9DH   LINE      CODE     ---       #65
      00FF4DA8H   LINE      CODE     ---       #66
      00FF4DABH   LINE      CODE     ---       #68
      00FF4DABH   LINE      CODE     ---       #70
      00FF4DB6H   LINE      CODE     ---       #71
      00FF4DB9H   LINE      CODE     ---       #73
      00FF4DB9H   LINE      CODE     ---       #75
      00FF4DC4H   LINE      CODE     ---       #76
      00FF4DC7H   LINE      CODE     ---       #78
      00FF4DC7H   LINE      CODE     ---       #80
      00FF4DD2H   LINE      CODE     ---       #81
      00FF4DD5H   LINE      CODE     ---       #84
      00FF4DD5H   LINE      CODE     ---       #86
      00FF4DE0H   LINE      CODE     ---       #87
      00FF4DE3H   LINE      CODE     ---       #89
      00FF4DE3H   LINE      CODE     ---       #91
      00FF4DEEH   LINE      CODE     ---       #92
      00FF4DF1H   LINE      CODE     ---       #94
      00FF4DF1H   LINE      CODE     ---       #96
      00FF4DFCH   LINE      CODE     ---       #97
      00FF4DFFH   LINE      CODE     ---       #99
      00FF4DFFH   LINE      CODE     ---       #101
      00FF4E0AH   LINE      CODE     ---       #102
      00FF4E0DH   LINE      CODE     ---       #104
      00FF4E0DH   LINE      CODE     ---       #106
      00FF4E18H   LINE      CODE     ---       #107
      00FF4E1BH   LINE      CODE     ---       #109
      00FF4E1BH   LINE      CODE     ---       #111
      00FF4E26H   LINE      CODE     ---       #112
      00FF4E29H   LINE      CODE     ---       #115
      00FF4E29H   LINE      CODE     ---       #117
      00FF4E34H   LINE      CODE     ---       #118
      00FF4E37H   LINE      CODE     ---       #120
      00FF4E37H   LINE      CODE     ---       #122
      00FF4E42H   LINE      CODE     ---       #123
      00FF4E45H   LINE      CODE     ---       #125
      00FF4E45H   LINE      CODE     ---       #127
      00FF4E50H   LINE      CODE     ---       #128
      00FF4E53H   LINE      CODE     ---       #130
      00FF4E53H   LINE      CODE     ---       #132
      00FF4E5EH   LINE      CODE     ---       #133
      00FF4E61H   LINE      CODE     ---       #135
      00FF4E61H   LINE      CODE     ---       #137
      00FF4E6CH   LINE      CODE     ---       #138
L251 LINKER/LOCATER V4.66.93.0                                                        04/10/2024  20:12:08  PAGE 39


      00FF4E6FH   LINE      CODE     ---       #140
      00FF4E6FH   LINE      CODE     ---       #142
      00FF4E7AH   LINE      CODE     ---       #143
      00FF4E7DH   LINE      CODE     ---       #147
      00FF4E7DH   LINE      CODE     ---       #149
      00FF4E88H   LINE      CODE     ---       #150
      00FF4E8BH   LINE      CODE     ---       #152
      00FF4E8BH   LINE      CODE     ---       #154
      00FF4E96H   LINE      CODE     ---       #155
      00FF4E99H   LINE      CODE     ---       #157
      00FF4E99H   LINE      CODE     ---       #159
      00FF4EA4H   LINE      CODE     ---       #160
      00FF4EA7H   LINE      CODE     ---       #162
      00FF4EA7H   LINE      CODE     ---       #164
      00FF4EB2H   LINE      CODE     ---       #165
      00FF4EB5H   LINE      CODE     ---       #167
      00FF4EB5H   LINE      CODE     ---       #169
      00FF4EC0H   LINE      CODE     ---       #170
      00FF4EC3H   LINE      CODE     ---       #172
      00FF4EC3H   LINE      CODE     ---       #174
      00FF4ECEH   LINE      CODE     ---       #175
      00FF4ED1H   LINE      CODE     ---       #177
      00FF4ED1H   LINE      CODE     ---       #179
      00FF4EDCH   LINE      CODE     ---       #180
      00FF4EDFH   LINE      CODE     ---       #182
      00FF4EDFH   LINE      CODE     ---       #184
      00FF4EEAH   LINE      CODE     ---       #185
      00FF4EEDH   LINE      CODE     ---       #189
      00FF4EEDH   LINE      CODE     ---       #191
      00FF4EF8H   LINE      CODE     ---       #192
      00FF4EFBH   LINE      CODE     ---       #194
      00FF4EFBH   LINE      CODE     ---       #196
      00FF4F06H   LINE      CODE     ---       #197
      00FF4F09H   LINE      CODE     ---       #199
      00FF4F09H   LINE      CODE     ---       #201
      00FF4F12H   LINE      CODE     ---       #202
      00FF4F15H   LINE      CODE     ---       #204
      00FF4F15H   LINE      CODE     ---       #206
      00FF4F20H   LINE      CODE     ---       #207
      00FF4F23H   LINE      CODE     ---       #210
      00FF4F23H   LINE      CODE     ---       #212
      00FF4F2EH   LINE      CODE     ---       #213
      00FF4F31H   LINE      CODE     ---       #215
      00FF4F31H   LINE      CODE     ---       #217
      00FF4F3CH   LINE      CODE     ---       #218
      00FF4F3FH   LINE      CODE     ---       #220
      00FF4F3FH   LINE      CODE     ---       #222
      00FF4F4AH   LINE      CODE     ---       #223
      00FF4F4CH   LINE      CODE     ---       #225
      00FF4F4CH   LINE      CODE     ---       #227
      00FF4F57H   LINE      CODE     ---       #228
      00FF4F59H   LINE      CODE     ---       #232
      00FF4F59H   LINE      CODE     ---       #234
      00FF4F64H   LINE      CODE     ---       #235
      00FF4F66H   LINE      CODE     ---       #237
      00FF4F66H   LINE      CODE     ---       #239
      00FF4F71H   LINE      CODE     ---       #240
      00FF4F73H   LINE      CODE     ---       #242
      00FF4F73H   LINE      CODE     ---       #244
      00FF4F7EH   LINE      CODE     ---       #245
      00FF4F80H   LINE      CODE     ---       #247
      00FF4F80H   LINE      CODE     ---       #249
      00FF4F8BH   LINE      CODE     ---       #250
      00FF4F8DH   LINE      CODE     ---       #254
      00FF4F8DH   LINE      CODE     ---       #256
L251 LINKER/LOCATER V4.66.93.0                                                        04/10/2024  20:12:08  PAGE 40


      00FF4F98H   LINE      CODE     ---       #257
      00FF4F9AH   LINE      CODE     ---       #259
      00FF4F9AH   LINE      CODE     ---       #261
      00FF4FA5H   LINE      CODE     ---       #262
      00FF4FA7H   LINE      CODE     ---       #264
      00FF4FA7H   LINE      CODE     ---       #266
      00FF4FB2H   LINE      CODE     ---       #267
      00FF4FB4H   LINE      CODE     ---       #269
      00FF4FB4H   LINE      CODE     ---       #271
      00FF4FBFH   LINE      CODE     ---       #272
      00FF4FBFH   LINE      CODE     ---       #275
      00FF4FBFH   LINE      CODE     ---       #277
      ---         BLOCKEND  ---      ---       LVL=0

      00FF482EH   BLOCK     CODE     ---       LVL=0
      00000391H   SYMBOL    EDATA    INT       pwmch
      00000393H   SYMBOL    EDATA    DWORD     freq
      00000397H   SYMBOL    EDATA    DWORD     duty
      00FF4836H   BLOCK     CODE     NEAR LAB  LVL=1
      0000039BH   SYMBOL    EDATA    DWORD     match_temp
      0000039FH   SYMBOL    EDATA    DWORD     period_temp
      000003A3H   SYMBOL    EDATA    WORD      freq_div
      ---         BLOCKEND  ---      ---       LVL=1
      00FF482EH   LINE      CODE     ---       #290
      00FF4836H   LINE      CODE     ---       #291
      00FF4836H   LINE      CODE     ---       #295
      00FF483CH   LINE      CODE     ---       #298
      00FF483FH   LINE      CODE     ---       #301
      00FF4846H   LINE      CODE     ---       #305
      00FF4859H   LINE      CODE     ---       #306
      00FF4868H   LINE      CODE     ---       #307
      00FF4883H   LINE      CODE     ---       #309
      00FF488DH   LINE      CODE     ---       #311
      00FF48B4H   LINE      CODE     ---       #312
      00FF48B6H   LINE      CODE     ---       #315
      00FF48C4H   LINE      CODE     ---       #316
      00FF48C4H   LINE      CODE     ---       #319
      00FF48D3H   LINE      CODE     ---       #322
      00FF4904H   LINE      CODE     ---       #323
      00FF493BH   LINE      CODE     ---       #326
      00FF498DH   LINE      CODE     ---       #329
      00FF49A0H   LINE      CODE     ---       #330
      00FF49AFH   LINE      CODE     ---       #332
      00FF49BCH   LINE      CODE     ---       #333
      00FF49C9H   LINE      CODE     ---       #334
      00FF49CCH   LINE      CODE     ---       #337
      00FF4A0AH   LINE      CODE     ---       #338
      00FF4A3DH   LINE      CODE     ---       #341
      00FF4A9DH   LINE      CODE     ---       #345
      00FF4AB0H   LINE      CODE     ---       #346
      00FF4ABFH   LINE      CODE     ---       #348
      00FF4ACCH   LINE      CODE     ---       #349
      00FF4AD9H   LINE      CODE     ---       #350
      00FF4AD9H   LINE      CODE     ---       #353
      00FF4B0BH   LINE      CODE     ---       #354
      00FF4B43H   LINE      CODE     ---       #357
      00FF4B71H   LINE      CODE     ---       #358
      00FF4BA5H   LINE      CODE     ---       #361
      00FF4BD6H   LINE      CODE     ---       #362
      00FF4C07H   LINE      CODE     ---       #367
      ---         BLOCKEND  ---      ---       LVL=0
      00000440H   SYMBOL    EDATA    INT       pwmch
      00000442H   SYMBOL    EDATA    DWORD     duty
      00000446H   SYMBOL    EDATA    DWORD     match_temp
      0000044AH   SYMBOL    EDATA    DWORD     arr
L251 LINKER/LOCATER V4.66.93.0                                                        04/10/2024  20:12:08  PAGE 41


      000003A5H   SYMBOL    EDATA    INT       pwmch
      000003A7H   SYMBOL    EDATA    DWORD     freq
      000003ABH   SYMBOL    EDATA    DWORD     duty
      000003AFH   SYMBOL    EDATA    DWORD     match_temp
      000003B3H   SYMBOL    EDATA    DWORD     period_temp
      000003B7H   SYMBOL    EDATA    WORD      freq_div

      ---         MODULE    ---      ---       zf_spi
      00FF5CBFH   PUBLIC    CODE     ---       spi_init
      00FF73F1H   PUBLIC    CODE     ---       spi_mosi
      00000486H   PUBLIC    EDATA    BYTE      ?spi_init?BYTE
      000000CFH   SFRSYM    DATA     BYTE      SPDAT
      000000D0H   SFRSYM    DATA     BYTE      PSW
      0000009DH   SFRSYM    DATA     BYTE      IRCBAND
      00000097H   SFRSYM    DATA     BYTE      AUXR2
      000000EFH   SFRSYM    DATA     BYTE      AUXINTIF
      000000FDH   SFRSYM    DATA     BYTE      S4CON
      000000ACH   SFRSYM    DATA     BYTE      S3CON
      0000009AH   SFRSYM    DATA     BYTE      S2CON
      000000B7H   SFRSYM    DATA     BYTE      IPH
      000000CDH   SFRSYM    DATA     BYTE      SPSTAT
      000000DDH   SFRSYM    DATA     BYTE      T4T3M
      000000C1H   SFRSYM    DATA     BYTE      WDT_CONTR
      000000DFH   SFRSYM    DATA     BYTE      IP3
      000000F4H   SFRSYM    DATA     BYTE      USBCON
      000000B5H   SFRSYM    DATA     BYTE      IP2
      000000FFH   SFRSYM    DATA     BYTE      RSTCFG
      000000F9H   SFRSYM    DATA     BYTE      LINICR
      0000008EH   SFRSYM    DATA     BYTE      AUXR
      000000AFH   SFRSYM    DATA     BYTE      IE2
      00000088H   SFRSYM    DATA     BYTE      TCON
      00000098H   SFRSYM    DATA     BYTE      SCON
      000000F1H   SFRSYM    DATA     BYTE      CANICR
      00000087H   SFRSYM    DATA     BYTE      PCON
      000000BCH   SFRSYM    DATA     BYTE      ADC_CONTR
      000000E7H   SFRSYM    DATA     BYTE      CMPCR2
      000000E6H   SFRSYM    DATA     BYTE      CMPCR1
      000000B8H   SFRSYM    DATA     BYTE      IP
      0000008FH   SFRSYM    DATA     BYTE      INTCLKO
      000000EEH   SFRSYM    DATA     BYTE      IP3H
      000000B6H   SFRSYM    DATA     BYTE      IP2H
      000000A8H   SFRSYM    DATA     BYTE      IE
      000000BBH   SFRSYM    DATA     BYTE      P_SW3
      000000BAH   SFRSYM    DATA     BYTE      P_SW2
      000000A2H   SFRSYM    DATA     BYTE      P_SW1
      000000CEH   SFRSYM    DATA     BYTE      SPCTL
      000000F8H   SFRSYM    DATA     BYTE      P7
      000000E8H   SFRSYM    DATA     BYTE      P6
      000000C8H   SFRSYM    DATA     BYTE      P5
      000000C0H   SFRSYM    DATA     BYTE      P4
      000000B0H   SFRSYM    DATA     BYTE      P3
      000000A0H   SFRSYM    DATA     BYTE      P2
      00000090H   SFRSYM    DATA     BYTE      P1
      00000080H   SFRSYM    DATA     BYTE      P0

      00FF5CBFH   BLOCK     CODE     ---       LVL=0
      00000486H   SYMBOL    EDATA    INT       spi_n
      00000488H   SYMBOL    EDATA    INT       sck_pin
      0000048AH   SYMBOL    EDATA    INT       mosi_pin
      0000048CH   SYMBOL    EDATA    INT       miso_pin
      0000048EH   SYMBOL    EDATA    BYTE      mode
      0000048FH   SYMBOL    EDATA    INT       mstr
      00000491H   SYMBOL    EDATA    INT       baud
      00FF5CBFH   LINE      CODE     ---       #39
      00FF5CD3H   LINE      CODE     ---       #48
L251 LINKER/LOCATER V4.66.93.0                                                        04/10/2024  20:12:08  PAGE 42


      00FF5CDFH   LINE      CODE     ---       #50
      00FF5CEEH   LINE      CODE     ---       #51
      00FF5CEEH   LINE      CODE     ---       #53
      00FF5CFAH   LINE      CODE     ---       #55
      00FF5D09H   LINE      CODE     ---       #56
      00FF5D09H   LINE      CODE     ---       #58
      00FF5D15H   LINE      CODE     ---       #60
      00FF5D24H   LINE      CODE     ---       #61
      00FF5D24H   LINE      CODE     ---       #64
      00FF5D27H   LINE      CODE     ---       #65
      00FF5D3DH   LINE      CODE     ---       #67
      00FF5D3DH   LINE      CODE     ---       #68
      00FF5D41H   LINE      CODE     ---       #69
      00FF5D43H   LINE      CODE     ---       #70
      00FF5D43H   LINE      CODE     ---       #71
      00FF5D46H   LINE      CODE     ---       #72
      00FF5D48H   LINE      CODE     ---       #73
      00FF5D48H   LINE      CODE     ---       #74
      00FF5D4BH   LINE      CODE     ---       #75
      00FF5D4DH   LINE      CODE     ---       #76
      00FF5D4DH   LINE      CODE     ---       #77
      00FF5D50H   LINE      CODE     ---       #78
      00FF5D50H   LINE      CODE     ---       #79
      00FF5D50H   LINE      CODE     ---       #81
      00FF5D53H   LINE      CODE     ---       #82
      00FF5D62H   LINE      CODE     ---       #84
      00FF5D62H   LINE      CODE     ---       #86
      00FF5D64H   LINE      CODE     ---       #87
      00FF5D64H   LINE      CODE     ---       #88
      00FF5D67H   LINE      CODE     ---       #89
      00FF5D69H   LINE      CODE     ---       #90
      00FF5D69H   LINE      CODE     ---       #91
      00FF5D6CH   LINE      CODE     ---       #92
      00FF5D6EH   LINE      CODE     ---       #93
      00FF5D6EH   LINE      CODE     ---       #94
      00FF5D71H   LINE      CODE     ---       #95
      00FF5D71H   LINE      CODE     ---       #96
      00FF5D71H   LINE      CODE     ---       #99
      00FF5D79H   LINE      CODE     ---       #101
      00FF5D83H   LINE      CODE     ---       #103
      00FF5D86H   LINE      CODE     ---       #104
      00FF5D89H   LINE      CODE     ---       #105
      00FF5D89H   LINE      CODE     ---       #109
      00FF5D89H   LINE      CODE     ---       #110
      00FF5D8CH   LINE      CODE     ---       #111
      ---         BLOCKEND  ---      ---       LVL=0

      00FF73F1H   BLOCK     CODE     ---       LVL=0
      0000088DH   SYMBOL    EDATA    BYTE      dat
      00FF73F1H   LINE      CODE     ---       #121
      00FF73F5H   LINE      CODE     ---       #123
      00FF73F7H   LINE      CODE     ---       #124
      00FF73FCH   LINE      CODE     ---       #125
      00FF7400H   LINE      CODE     ---       #126
      00FF7402H   LINE      CODE     ---       #127
      ---         BLOCKEND  ---      ---       LVL=0
      00000851H   SYMBOL    EDATA    INT       spi_n
      0000088EH   SYMBOL    EDATA    BYTE      mode

      ---         MODULE    ---      ---       zf_tim
      000000D0H   SFRSYM    DATA     BYTE      PSW
      0000009DH   SFRSYM    DATA     BYTE      IRCBAND
      00000097H   SFRSYM    DATA     BYTE      AUXR2
      000000EFH   SFRSYM    DATA     BYTE      AUXINTIF
      000000FDH   SFRSYM    DATA     BYTE      S4CON
L251 LINKER/LOCATER V4.66.93.0                                                        04/10/2024  20:12:08  PAGE 43


      000000ACH   SFRSYM    DATA     BYTE      S3CON
      0000009AH   SFRSYM    DATA     BYTE      S2CON
      000000B7H   SFRSYM    DATA     BYTE      IPH
      000000CDH   SFRSYM    DATA     BYTE      SPSTAT
      000000DDH   SFRSYM    DATA     BYTE      T4T3M
      000000C1H   SFRSYM    DATA     BYTE      WDT_CONTR
      00000088H.6 SFRSYM    DATA     BIT       TR1
      00000088H.4 SFRSYM    DATA     BIT       TR0
      000000D3H   SFRSYM    DATA     BYTE      T4L
      000000D5H   SFRSYM    DATA     BYTE      T3L
      000000D7H   SFRSYM    DATA     BYTE      T2L
      0000008BH   SFRSYM    DATA     BYTE      TL1
      0000008AH   SFRSYM    DATA     BYTE      TL0
      000000D2H   SFRSYM    DATA     BYTE      T4H
      000000D4H   SFRSYM    DATA     BYTE      T3H
      000000D6H   SFRSYM    DATA     BYTE      T2H
      0000008DH   SFRSYM    DATA     BYTE      TH1
      0000008CH   SFRSYM    DATA     BYTE      TH0
      000000DFH   SFRSYM    DATA     BYTE      IP3
      000000F4H   SFRSYM    DATA     BYTE      USBCON
      000000B5H   SFRSYM    DATA     BYTE      IP2
      000000FFH   SFRSYM    DATA     BYTE      RSTCFG
      000000A8H.3 SFRSYM    DATA     BIT       ET1
      000000A8H.1 SFRSYM    DATA     BIT       ET0
      000000F9H   SFRSYM    DATA     BYTE      LINICR
      0000008EH   SFRSYM    DATA     BYTE      AUXR
      000000AFH   SFRSYM    DATA     BYTE      IE2
      00000088H   SFRSYM    DATA     BYTE      TCON
      00000089H   SFRSYM    DATA     BYTE      TMOD
      00000098H   SFRSYM    DATA     BYTE      SCON
      000000F1H   SFRSYM    DATA     BYTE      CANICR
      00000087H   SFRSYM    DATA     BYTE      PCON
      000000BCH   SFRSYM    DATA     BYTE      ADC_CONTR
      000000E7H   SFRSYM    DATA     BYTE      CMPCR2
      000000E6H   SFRSYM    DATA     BYTE      CMPCR1
      000000B8H   SFRSYM    DATA     BYTE      IP
      0000008FH   SFRSYM    DATA     BYTE      INTCLKO
      000000EEH   SFRSYM    DATA     BYTE      IP3H
      000000B6H   SFRSYM    DATA     BYTE      IP2H
      000000A8H   SFRSYM    DATA     BYTE      IE
      000000BBH   SFRSYM    DATA     BYTE      P_SW3
      000000BAH   SFRSYM    DATA     BYTE      P_SW2
      000000A2H   SFRSYM    DATA     BYTE      P_SW1
      000000CEH   SFRSYM    DATA     BYTE      SPCTL
      000000F8H   SFRSYM    DATA     BYTE      P7
      000000E8H   SFRSYM    DATA     BYTE      P6
      000000C8H   SFRSYM    DATA     BYTE      P5
      000000C0H   SFRSYM    DATA     BYTE      P4
      000000B0H   SFRSYM    DATA     BYTE      P3
      000000A0H   SFRSYM    DATA     BYTE      P2
      00000090H   SFRSYM    DATA     BYTE      P1
      00000080H   SFRSYM    DATA     BYTE      P0
      00000853H   SYMBOL    EDATA    INT       tim_n
      000007FCH   SYMBOL    EDATA    INT       tim_n
      000007FEH   SYMBOL    EDATA    WORD      dat
      00000855H   SYMBOL    EDATA    INT       tim_n
      000006E1H   SYMBOL    EDATA    INT       tim_n
      000006E3H   SYMBOL    EDATA    WORD      time_ms
      000006E5H   SYMBOL    EDATA    WORD      temp

      ---         MODULE    ---      ---       zf_uart
      00FF61C6H   PUBLIC    CODE     ---       uart_putchar
      00FF6F8FH   PUBLIC    CODE     ---       uart_putbuff
      00FF5352H   PUBLIC    CODE     ---       uart_init
      0000079BH   PUBLIC    EDATA    ---       busy
L251 LINKER/LOCATER V4.66.93.0                                                        04/10/2024  20:12:08  PAGE 44


      0000044EH   PUBLIC    EDATA    BYTE      ?uart_init?BYTE
      0000054CH   PUBLIC    EDATA    BYTE      ?uart_putbuff?BYTE
      000000D0H   SFRSYM    DATA     BYTE      PSW
      0000009DH   SFRSYM    DATA     BYTE      IRCBAND
      00000097H   SFRSYM    DATA     BYTE      AUXR2
      000000EFH   SFRSYM    DATA     BYTE      AUXINTIF
      000000FDH   SFRSYM    DATA     BYTE      S4CON
      000000ACH   SFRSYM    DATA     BYTE      S3CON
      0000009AH   SFRSYM    DATA     BYTE      S2CON
      000000FEH   SFRSYM    DATA     BYTE      S4BUF
      000000ADH   SFRSYM    DATA     BYTE      S3BUF
      0000009BH   SFRSYM    DATA     BYTE      S2BUF
      000000B7H   SFRSYM    DATA     BYTE      IPH
      000000CDH   SFRSYM    DATA     BYTE      SPSTAT
      000000DDH   SFRSYM    DATA     BYTE      T4T3M
      000000C1H   SFRSYM    DATA     BYTE      WDT_CONTR
      00000088H.6 SFRSYM    DATA     BIT       TR1
      000000D3H   SFRSYM    DATA     BYTE      T4L
      000000D5H   SFRSYM    DATA     BYTE      T3L
      000000D7H   SFRSYM    DATA     BYTE      T2L
      0000008BH   SFRSYM    DATA     BYTE      TL1
      000000D2H   SFRSYM    DATA     BYTE      T4H
      000000D4H   SFRSYM    DATA     BYTE      T3H
      000000D6H   SFRSYM    DATA     BYTE      T2H
      0000008DH   SFRSYM    DATA     BYTE      TH1
      000000DFH   SFRSYM    DATA     BYTE      IP3
      000000F4H   SFRSYM    DATA     BYTE      USBCON
      000000B5H   SFRSYM    DATA     BYTE      IP2
      000000FFH   SFRSYM    DATA     BYTE      RSTCFG
      000000F9H   SFRSYM    DATA     BYTE      LINICR
      0000008EH   SFRSYM    DATA     BYTE      AUXR
      000000AFH   SFRSYM    DATA     BYTE      IE2
      00000088H   SFRSYM    DATA     BYTE      TCON
      00000089H   SFRSYM    DATA     BYTE      TMOD
      00000098H   SFRSYM    DATA     BYTE      SCON
      000000F1H   SFRSYM    DATA     BYTE      CANICR
      00000087H   SFRSYM    DATA     BYTE      PCON
      00000099H   SFRSYM    DATA     BYTE      SBUF
      000000BCH   SFRSYM    DATA     BYTE      ADC_CONTR
      000000E7H   SFRSYM    DATA     BYTE      CMPCR2
      000000E6H   SFRSYM    DATA     BYTE      CMPCR1
      000000B8H   SFRSYM    DATA     BYTE      IP
      000000A8H.4 SFRSYM    DATA     BIT       ES
      0000008FH   SFRSYM    DATA     BYTE      INTCLKO
      000000EEH   SFRSYM    DATA     BYTE      IP3H
      000000B6H   SFRSYM    DATA     BYTE      IP2H
      000000A8H   SFRSYM    DATA     BYTE      IE
      000000BBH   SFRSYM    DATA     BYTE      P_SW3
      000000BAH   SFRSYM    DATA     BYTE      P_SW2
      000000A2H   SFRSYM    DATA     BYTE      P_SW1
      000000CEH   SFRSYM    DATA     BYTE      SPCTL
      000000F8H   SFRSYM    DATA     BYTE      P7
      000000E8H   SFRSYM    DATA     BYTE      P6
      000000C8H   SFRSYM    DATA     BYTE      P5
      000000C0H   SFRSYM    DATA     BYTE      P4
      000000C9H   SFRSYM    DATA     BYTE      P5M1
      000000B0H   SFRSYM    DATA     BYTE      P3
      000000CAH   SFRSYM    DATA     BYTE      P5M0
      000000A0H   SFRSYM    DATA     BYTE      P2
      00000090H   SFRSYM    DATA     BYTE      P1
      00000080H   SFRSYM    DATA     BYTE      P0

      00FF5352H   BLOCK     CODE     ---       LVL=0
      0000044EH   SYMBOL    EDATA    INT       uart_n
      00000450H   SYMBOL    EDATA    INT       uart_rx_pin
L251 LINKER/LOCATER V4.66.93.0                                                        04/10/2024  20:12:08  PAGE 45


      00000452H   SYMBOL    EDATA    INT       uart_tx_pin
      00000454H   SYMBOL    EDATA    DWORD     baud
      00000458H   SYMBOL    EDATA    INT       tim_n
      00FF5362H   BLOCK     CODE     NEAR LAB  LVL=1
      0000045AH   SYMBOL    EDATA    WORD      brt
      ---         BLOCKEND  ---      ---       LVL=1
      00FF5352H   LINE      CODE     ---       #42
      00FF5362H   LINE      CODE     ---       #43
      00FF5362H   LINE      CODE     ---       #46
      00FF5389H   LINE      CODE     ---       #49
      00FF53ABH   LINE      CODE     ---       #51
      00FF53ABH   LINE      CODE     ---       #53
      00FF53B7H   LINE      CODE     ---       #55
      00FF53BAH   LINE      CODE     ---       #56
      00FF53BEH   LINE      CODE     ---       #57
      00FF53C4H   LINE      CODE     ---       #58
      00FF53CEH   LINE      CODE     ---       #59
      00FF53D1H   LINE      CODE     ---       #60
      00FF53D4H   LINE      CODE     ---       #61
      00FF53D9H   LINE      CODE     ---       #62
      00FF53DBH   LINE      CODE     ---       #63
      00FF53E7H   LINE      CODE     ---       #65
      00FF53EAH   LINE      CODE     ---       #66
      00FF53F0H   LINE      CODE     ---       #67
      00FF53FAH   LINE      CODE     ---       #68
      00FF53FDH   LINE      CODE     ---       #69
      00FF53FDH   LINE      CODE     ---       #70
      00FF5400H   LINE      CODE     ---       #71
      00FF5416H   LINE      CODE     ---       #73
      00FF541AH   LINE      CODE     ---       #74
      00FF541CH   LINE      CODE     ---       #75
      00FF5434H   LINE      CODE     ---       #77
      00FF5437H   LINE      CODE     ---       #78
      00FF5439H   LINE      CODE     ---       #79
      00FF5451H   LINE      CODE     ---       #81
      00FF5454H   LINE      CODE     ---       #82
      00FF5456H   LINE      CODE     ---       #83
      00FF546EH   LINE      CODE     ---       #85
      00FF5471H   LINE      CODE     ---       #86
      00FF5471H   LINE      CODE     ---       #87
      00FF5476H   LINE      CODE     ---       #88
      00FF5479H   LINE      CODE     ---       #89
      00FF547CH   LINE      CODE     ---       #92
      00FF547CH   LINE      CODE     ---       #94
      00FF5488H   LINE      CODE     ---       #96
      00FF548BH   LINE      CODE     ---       #97
      00FF5491H   LINE      CODE     ---       #98
      00FF549BH   LINE      CODE     ---       #99
      00FF549EH   LINE      CODE     ---       #100
      00FF549EH   LINE      CODE     ---       #102
      00FF54A1H   LINE      CODE     ---       #103
      00FF54B9H   LINE      CODE     ---       #105
      00FF54BDH   LINE      CODE     ---       #106
      00FF54BFH   LINE      CODE     ---       #107
      00FF54D7H   LINE      CODE     ---       #109
      00FF54DAH   LINE      CODE     ---       #110
      00FF54DAH   LINE      CODE     ---       #112
      00FF54DDH   LINE      CODE     ---       #113
      00FF54E2H   LINE      CODE     ---       #114
      00FF54E5H   LINE      CODE     ---       #117
      00FF54E5H   LINE      CODE     ---       #119
      00FF54F1H   LINE      CODE     ---       #121
      00FF54F4H   LINE      CODE     ---       #122
      00FF54FAH   LINE      CODE     ---       #123
      00FF5504H   LINE      CODE     ---       #124
L251 LINKER/LOCATER V4.66.93.0                                                        04/10/2024  20:12:08  PAGE 46


      00FF5507H   LINE      CODE     ---       #125
      00FF5509H   LINE      CODE     ---       #126
      00FF5515H   LINE      CODE     ---       #128
      00FF5518H   LINE      CODE     ---       #129
      00FF551EH   LINE      CODE     ---       #130
      00FF5528H   LINE      CODE     ---       #131
      00FF552BH   LINE      CODE     ---       #132
      00FF552BH   LINE      CODE     ---       #134
      00FF552EH   LINE      CODE     ---       #135
      00FF5546H   LINE      CODE     ---       #137
      00FF554AH   LINE      CODE     ---       #138
      00FF554CH   LINE      CODE     ---       #139
      00FF5564H   LINE      CODE     ---       #141
      00FF5567H   LINE      CODE     ---       #142
      00FF5567H   LINE      CODE     ---       #144
      00FF556AH   LINE      CODE     ---       #145
      00FF556FH   LINE      CODE     ---       #146
      00FF5572H   LINE      CODE     ---       #149
      00FF5572H   LINE      CODE     ---       #151
      00FF557EH   LINE      CODE     ---       #153
      00FF5581H   LINE      CODE     ---       #154
      00FF5587H   LINE      CODE     ---       #155
      00FF5591H   LINE      CODE     ---       #156
      00FF5594H   LINE      CODE     ---       #157
      00FF5596H   LINE      CODE     ---       #158
      00FF55A2H   LINE      CODE     ---       #160
      00FF55A5H   LINE      CODE     ---       #161
      00FF55ABH   LINE      CODE     ---       #162
      00FF55B5H   LINE      CODE     ---       #163
      00FF55B8H   LINE      CODE     ---       #164
      00FF55B8H   LINE      CODE     ---       #166
      00FF55BBH   LINE      CODE     ---       #167
      00FF55D3H   LINE      CODE     ---       #169
      00FF55D7H   LINE      CODE     ---       #170
      00FF55D9H   LINE      CODE     ---       #171
      00FF55F1H   LINE      CODE     ---       #173
      00FF55F4H   LINE      CODE     ---       #174
      00FF55F8H   LINE      CODE     ---       #175
      00FF55FBH   LINE      CODE     ---       #176
      00FF55FBH   LINE      CODE     ---       #177
      00FF55FEH   LINE      CODE     ---       #178
      00FF5603H   LINE      CODE     ---       #179
      00FF5603H   LINE      CODE     ---       #182
      00FF5603H   LINE      CODE     ---       #184
      ---         BLOCKEND  ---      ---       LVL=0

      00FF61C6H   BLOCK     CODE     ---       LVL=0
      00000823H   SYMBOL    EDATA    INT       uart_n
      00000825H   SYMBOL    EDATA    BYTE      dat
      00FF61C6H   LINE      CODE     ---       #193
      00FF61CEH   LINE      CODE     ---       #195
      00FF61E0H   LINE      CODE     ---       #197
      00FF61E0H   LINE      CODE     ---       #198
      00FF61E9H   LINE      CODE     ---       #199
      00FF61EFH   LINE      CODE     ---       #200
      00FF61F5H   LINE      CODE     ---       #201
      00FF61F7H   LINE      CODE     ---       #202
      00FF61F7H   LINE      CODE     ---       #203
      00FF6200H   LINE      CODE     ---       #204
      00FF6206H   LINE      CODE     ---       #205
      00FF620CH   LINE      CODE     ---       #206
      00FF620EH   LINE      CODE     ---       #207
      00FF620EH   LINE      CODE     ---       #208
      00FF6217H   LINE      CODE     ---       #209
      00FF621DH   LINE      CODE     ---       #210
L251 LINKER/LOCATER V4.66.93.0                                                        04/10/2024  20:12:08  PAGE 47


      00FF6223H   LINE      CODE     ---       #211
      00FF6225H   LINE      CODE     ---       #212
      00FF6225H   LINE      CODE     ---       #213
      00FF622EH   LINE      CODE     ---       #214
      00FF6234H   LINE      CODE     ---       #215
      00FF623AH   LINE      CODE     ---       #216
      00FF623AH   LINE      CODE     ---       #217
      00FF623AH   LINE      CODE     ---       #218
      ---         BLOCKEND  ---      ---       LVL=0

      00FF6F8FH   BLOCK     CODE     ---       LVL=0
      0000054CH   SYMBOL    EDATA    INT       uart_n
      0000054EH   SYMBOL    EDATA    ---       p
      00000552H   SYMBOL    EDATA    DWORD     len
      00FF6F8FH   LINE      CODE     ---       #229
      00FF6F97H   LINE      CODE     ---       #231
      00FF6FC1H   LINE      CODE     ---       #233
      ---         BLOCKEND  ---      ---       LVL=0
      000006E7H   SYMBOL    EDATA    INT       uart_n
      000006E9H   SYMBOL    EDATA    ---       str

      ---         MODULE    ---      ---       zf_fifo
      00FF4FC0H   PUBLIC    CODE     ---       fifo_write_buffer
      000003CDH   PUBLIC    EDATA    BYTE      ?fifo_write_buffer?BYTE
      000004A0H   PUBLIC    EDATA    BYTE      ?fifo_read_element?BYTE
      00000008H   PUBLIC    EDATA    BYTE      ?fifo_read_buffer?BYTE
      00000379H   PUBLIC    EDATA    BYTE      ?fifo_read_tail_buffer?BYTE
      000003F1H   PUBLIC    EDATA    BYTE      ?fifo_init?BYTE
      000000D0H   SFRSYM    DATA     BYTE      PSW
      0000009DH   SFRSYM    DATA     BYTE      IRCBAND
      00000097H   SFRSYM    DATA     BYTE      AUXR2
      000000EFH   SFRSYM    DATA     BYTE      AUXINTIF
      000000FDH   SFRSYM    DATA     BYTE      S4CON
      000000ACH   SFRSYM    DATA     BYTE      S3CON
      0000009AH   SFRSYM    DATA     BYTE      S2CON
      000000B7H   SFRSYM    DATA     BYTE      IPH
      000000CDH   SFRSYM    DATA     BYTE      SPSTAT
      000000DDH   SFRSYM    DATA     BYTE      T4T3M
      000000C1H   SFRSYM    DATA     BYTE      WDT_CONTR
      000000DFH   SFRSYM    DATA     BYTE      IP3
      000000F4H   SFRSYM    DATA     BYTE      USBCON
      000000B5H   SFRSYM    DATA     BYTE      IP2
      000000FFH   SFRSYM    DATA     BYTE      RSTCFG
      000000F9H   SFRSYM    DATA     BYTE      LINICR
      0000008EH   SFRSYM    DATA     BYTE      AUXR
      000000AFH   SFRSYM    DATA     BYTE      IE2
      00000088H   SFRSYM    DATA     BYTE      TCON
      00000098H   SFRSYM    DATA     BYTE      SCON
      000000F1H   SFRSYM    DATA     BYTE      CANICR
      00000087H   SFRSYM    DATA     BYTE      PCON
      000000BCH   SFRSYM    DATA     BYTE      ADC_CONTR
      000000E7H   SFRSYM    DATA     BYTE      CMPCR2
      000000E6H   SFRSYM    DATA     BYTE      CMPCR1
      000000B8H   SFRSYM    DATA     BYTE      IP
      0000008FH   SFRSYM    DATA     BYTE      INTCLKO
      000000EEH   SFRSYM    DATA     BYTE      IP3H
      000000B6H   SFRSYM    DATA     BYTE      IP2H
      000000A8H   SFRSYM    DATA     BYTE      IE
      000000BBH   SFRSYM    DATA     BYTE      P_SW3
      000000BAH   SFRSYM    DATA     BYTE      P_SW2
      000000A2H   SFRSYM    DATA     BYTE      P_SW1
      000000CEH   SFRSYM    DATA     BYTE      SPCTL
      000000F8H   SFRSYM    DATA     BYTE      P7
      000000E8H   SFRSYM    DATA     BYTE      P6
      000000C8H   SFRSYM    DATA     BYTE      P5
L251 LINKER/LOCATER V4.66.93.0                                                        04/10/2024  20:12:08  PAGE 48


      000000C0H   SFRSYM    DATA     BYTE      P4
      000000B0H   SFRSYM    DATA     BYTE      P3
      000000A0H   SFRSYM    DATA     BYTE      P2
      00000090H   SFRSYM    DATA     BYTE      P1
      00000080H   SFRSYM    DATA     BYTE      P0
      00FF6320H   SYMBOL    CODE     ---       fifo_head_offset

      00FF6320H   BLOCK     CODE     ---       LVL=0
      00000619H   SYMBOL    EDATA    ---       fifo
      0000061DH   SYMBOL    EDATA    DWORD     offset
      00FF6320H   LINE      CODE     ---       #42
      00FF6328H   LINE      CODE     ---       #44
      00FF6344H   LINE      CODE     ---       #46
      00FF6346H   LINE      CODE     ---       #48
      00FF636DH   LINE      CODE     ---       #49
      00FF638FH   LINE      CODE     ---       #50
      ---         BLOCKEND  ---      ---       LVL=0
      00000621H   SYMBOL    EDATA    ---       fifo
      00000625H   SYMBOL    EDATA    DWORD     offset
      000006EDH   SYMBOL    EDATA    ---       fifo
      000006F1H   SYMBOL    EDATA    INT       return_state
      00000800H   SYMBOL    EDATA    ---       fifo
      00000556H   SYMBOL    EDATA    ---       fifo
      0000055AH   SYMBOL    EDATA    DWORD     dat
      0000055EH   SYMBOL    EDATA    INT       return_state

      00FF4FC0H   BLOCK     CODE     ---       LVL=0
      000003CDH   SYMBOL    EDATA    ---       fifo
      000003D1H   SYMBOL    EDATA    ---       dat
      000003D5H   SYMBOL    EDATA    DWORD     length
      00FF4FC8H   BLOCK     CODE     NEAR LAB  LVL=1
      000003D9H   SYMBOL    EDATA    INT       return_state
      000003DBH   SYMBOL    EDATA    DWORD     temp_length
      ---         BLOCKEND  ---      ---       LVL=1
      00FF4FC0H   LINE      CODE     ---       #168
      00FF4FC8H   LINE      CODE     ---       #169
      00FF4FC8H   LINE      CODE     ---       #171
      00FF4FCEH   LINE      CODE     ---       #172
      00FF4FD4H   LINE      CODE     ---       #174
      00FF4FD4H   LINE      CODE     ---       #176
      00FF4FDCH   LINE      CODE     ---       #178
      00FF4FE4H   LINE      CODE     ---       #179
      00FF4FE7H   LINE      CODE     ---       #180
      00FF4FE7H   LINE      CODE     ---       #181
      00FF4FFCH   LINE      CODE     ---       #183
      00FF5004H   LINE      CODE     ---       #184
      00FF5007H   LINE      CODE     ---       #185
      00FF5007H   LINE      CODE     ---       #186
      00FF5015H   LINE      CODE     ---       #188
      00FF502FH   LINE      CODE     ---       #190
      00FF5053H   LINE      CODE     ---       #192
      00FF5062H   LINE      CODE     ---       #194
      00FF5080H   LINE      CODE     ---       #196
      00FF5080H   LINE      CODE     ---       #198
      00FF50AFH   LINE      CODE     ---       #201
      00FF50BAH   LINE      CODE     ---       #202
      00FF50F7H   LINE      CODE     ---       #206
      00FF5108H   LINE      CODE     ---       #207
      00FF510BH   LINE      CODE     ---       #208
      00FF510BH   LINE      CODE     ---       #210
      00FF513EH   LINE      CODE     ---       #213
      00FF5149H   LINE      CODE     ---       #214
      00FF518CH   LINE      CODE     ---       #218
      00FF519DH   LINE      CODE     ---       #219
      00FF51A0H   LINE      CODE     ---       #220
L251 LINKER/LOCATER V4.66.93.0                                                        04/10/2024  20:12:08  PAGE 49


      00FF51A0H   LINE      CODE     ---       #222
      00FF51D7H   LINE      CODE     ---       #225
      00FF51E2H   LINE      CODE     ---       #226
      00FF522BH   LINE      CODE     ---       #230
      00FF523CH   LINE      CODE     ---       #231
      00FF523CH   LINE      CODE     ---       #232
      00FF523CH   LINE      CODE     ---       #233
      00FF523FH   LINE      CODE     ---       #236
      00FF525AH   LINE      CODE     ---       #238
      00FF525AH   LINE      CODE     ---       #240
      00FF5289H   LINE      CODE     ---       #243
      00FF5294H   LINE      CODE     ---       #244
      00FF5297H   LINE      CODE     ---       #245
      00FF5297H   LINE      CODE     ---       #247
      00FF52CAH   LINE      CODE     ---       #250
      00FF52D5H   LINE      CODE     ---       #251
      00FF52D7H   LINE      CODE     ---       #252
      00FF52D7H   LINE      CODE     ---       #254
      00FF530EH   LINE      CODE     ---       #257
      00FF5319H   LINE      CODE     ---       #258
      00FF5319H   LINE      CODE     ---       #259
      00FF5319H   LINE      CODE     ---       #260
      00FF5319H   LINE      CODE     ---       #262
      00FF5335H   LINE      CODE     ---       #263
      00FF5337H   LINE      CODE     ---       #266
      00FF533FH   LINE      CODE     ---       #267
      00FF533FH   LINE      CODE     ---       #268
      00FF534DH   LINE      CODE     ---       #269
      00FF534DH   LINE      CODE     ---       #271
      00FF5351H   LINE      CODE     ---       #272
      ---         BLOCKEND  ---      ---       LVL=0
      000004A0H   SYMBOL    EDATA    ---       fifo
      000004A4H   SYMBOL    EDATA    ---       dat
      000004A8H   SYMBOL    EDATA    INT       flag
      000004AAH   SYMBOL    EDATA    INT       return_state
      00000008H   SYMBOL    EDATA    ---       fifo
      0000000CH   SYMBOL    EDATA    ---       dat
      00000010H   SYMBOL    EDATA    ---       length
      00000014H   SYMBOL    EDATA    INT       flag
      00000016H   SYMBOL    EDATA    INT       return_state
      00000018H   SYMBOL    EDATA    DWORD     temp_length
      0000001CH   SYMBOL    EDATA    DWORD     fifo_data_length
      00000379H   SYMBOL    EDATA    ---       fifo
      0000037DH   SYMBOL    EDATA    ---       dat
      00000381H   SYMBOL    EDATA    ---       length
      00000385H   SYMBOL    EDATA    INT       flag
      00000387H   SYMBOL    EDATA    INT       return_state
      00000389H   SYMBOL    EDATA    DWORD     temp_length
      0000038DH   SYMBOL    EDATA    DWORD     fifo_data_length
      000003F1H   SYMBOL    EDATA    ---       fifo
      000003F5H   SYMBOL    EDATA    INT       type
      000003F7H   SYMBOL    EDATA    ---       buffer_addr
      000003FBH   SYMBOL    EDATA    DWORD     len
      000003FFH   SYMBOL    EDATA    INT       return_state

      ---         MODULE    ---      ---       zf_iic
      00FF688CH   PUBLIC    CODE     ---       wait
      00FF6EF0H   PUBLIC    CODE     ---       iic_delay_us
      000006EFH   PUBLIC    EDATA    BYTE      ?iic_init?BYTE
      000000D0H   SFRSYM    DATA     BYTE      PSW
      0000009DH   SFRSYM    DATA     BYTE      IRCBAND
      00000097H   SFRSYM    DATA     BYTE      AUXR2
      000000EFH   SFRSYM    DATA     BYTE      AUXINTIF
      000000FDH   SFRSYM    DATA     BYTE      S4CON
      000000ACH   SFRSYM    DATA     BYTE      S3CON
L251 LINKER/LOCATER V4.66.93.0                                                        04/10/2024  20:12:08  PAGE 50


      0000009AH   SFRSYM    DATA     BYTE      S2CON
      000000B7H   SFRSYM    DATA     BYTE      IPH
      000000CDH   SFRSYM    DATA     BYTE      SPSTAT
      000000DDH   SFRSYM    DATA     BYTE      T4T3M
      000000C1H   SFRSYM    DATA     BYTE      WDT_CONTR
      000000DFH   SFRSYM    DATA     BYTE      IP3
      000000F4H   SFRSYM    DATA     BYTE      USBCON
      000000B5H   SFRSYM    DATA     BYTE      IP2
      000000FFH   SFRSYM    DATA     BYTE      RSTCFG
      000000F9H   SFRSYM    DATA     BYTE      LINICR
      0000008EH   SFRSYM    DATA     BYTE      AUXR
      000000AFH   SFRSYM    DATA     BYTE      IE2
      00000088H   SFRSYM    DATA     BYTE      TCON
      00000098H   SFRSYM    DATA     BYTE      SCON
      000000F1H   SFRSYM    DATA     BYTE      CANICR
      00000087H   SFRSYM    DATA     BYTE      PCON
      000000BCH   SFRSYM    DATA     BYTE      ADC_CONTR
      000000E7H   SFRSYM    DATA     BYTE      CMPCR2
      000000E6H   SFRSYM    DATA     BYTE      CMPCR1
      000000B8H   SFRSYM    DATA     BYTE      IP
      0000008FH   SFRSYM    DATA     BYTE      INTCLKO
      000000EEH   SFRSYM    DATA     BYTE      IP3H
      000000B6H   SFRSYM    DATA     BYTE      IP2H
      000000A8H   SFRSYM    DATA     BYTE      IE
      000000BBH   SFRSYM    DATA     BYTE      P_SW3
      000000BAH   SFRSYM    DATA     BYTE      P_SW2
      000000A2H   SFRSYM    DATA     BYTE      P_SW1
      000000CEH   SFRSYM    DATA     BYTE      SPCTL
      000000F8H   SFRSYM    DATA     BYTE      P7
      000000E8H   SFRSYM    DATA     BYTE      P6
      000000C8H   SFRSYM    DATA     BYTE      P5
      000000C0H   SFRSYM    DATA     BYTE      P4
      000000B0H   SFRSYM    DATA     BYTE      P3
      000000A0H   SFRSYM    DATA     BYTE      P2
      00000090H   SFRSYM    DATA     BYTE      P1
      00000080H   SFRSYM    DATA     BYTE      P0

      00FF6EF0H   BLOCK     CODE     ---       LVL=0
      00000826H   SYMBOL    EDATA    WORD      x
      00FF6EF4H   BLOCK     CODE     NEAR LAB  LVL=1
      00000828H   SYMBOL    EDATA    BYTE      i
      ---         BLOCKEND  ---      ---       LVL=1
      00FF6EF0H   LINE      CODE     ---       #30
      00FF6EF4H   LINE      CODE     ---       #31
      00FF6EF4H   LINE      CODE     ---       #33
      00FF6EF6H   LINE      CODE     ---       #35
      00FF6EFCH   LINE      CODE     ---       #36
      00FF6F0EH   LINE      CODE     ---       #37
      00FF6F24H   LINE      CODE     ---       #38
      ---         BLOCKEND  ---      ---       LVL=0

      00FF688CH   BLOCK     CODE     ---       LVL=0
      00000829H   SYMBOL    EDATA    WORD      count
      0000082BH   SYMBOL    EDATA    BYTE      ret
      00FF688CH   LINE      CODE     ---       #47
      00FF688CH   LINE      CODE     ---       #48
      00FF688CH   LINE      CODE     ---       #49
      00FF6892H   LINE      CODE     ---       #50
      00FF6897H   LINE      CODE     ---       #51
      00FF6899H   LINE      CODE     ---       #53
      00FF68A0H   LINE      CODE     ---       #54
      00FF68B6H   LINE      CODE     ---       #56
      00FF68BCH   LINE      CODE     ---       #57
      00FF68BEH   LINE      CODE     ---       #58
      00FF68CCH   LINE      CODE     ---       #60
L251 LINKER/LOCATER V4.66.93.0                                                        04/10/2024  20:12:08  PAGE 51


      00FF68DEH   LINE      CODE     ---       #61
      00FF68E2H   LINE      CODE     ---       #62
      ---         BLOCKEND  ---      ---       LVL=0
      0000088FH   SYMBOL    EDATA    BYTE      ret
      00000857H   SYMBOL    EDATA    CHAR      dat
      00000858H   SYMBOL    EDATA    BYTE      ret
      00000890H   SYMBOL    EDATA    BYTE      ret
      00000891H   SYMBOL    EDATA    BYTE      ret
      00000892H   SYMBOL    EDATA    BYTE      ret
      000006F3H   SYMBOL    EDATA    INT       iic_n
      000006F5H   SYMBOL    EDATA    DWORD     wait_time
      0000082CH   SYMBOL    EDATA    BYTE      dev_add
      0000082DH   SYMBOL    EDATA    BYTE      reg
      0000082EH   SYMBOL    EDATA    BYTE      dat
      000006F9H   SYMBOL    EDATA    BYTE      dev_add
      000006FAH   SYMBOL    EDATA    BYTE      reg
      000006FBH   SYMBOL    EDATA    ---       dat
      000006B9H   SYMBOL    EDATA    BYTE      dev_add
      000006BAH   SYMBOL    EDATA    BYTE      reg
      000006BBH   SYMBOL    EDATA    ---       dat
      000006BFH   SYMBOL    EDATA    BYTE      num
      00000859H   SYMBOL    EDATA    INT       iic_n

      ---         MODULE    ---      ---       SEEKFREE_18TFT
      00FF6B79H   PUBLIC    CODE     ---       lcd_writeIndex_simspi
      00FF6BC4H   PUBLIC    CODE     ---       lcd_writeData_simspi
      00FF7350H   PUBLIC    CODE     ---       lcd_writeIndex
      00FF7365H   PUBLIC    CODE     ---       lcd_writeData
      00FF693AH   PUBLIC    CODE     ---       lcd_writeData_16bit_simspi
      00FF6596H   PUBLIC    CODE     ---       lcd_set_region_simspi
      00FF65FAH   PUBLIC    CODE     ---       lcd_set_region
      00FF6FEFH   PUBLIC    CODE     ---       lcd_writedata_16bit
      000004ACH   PUBLIC    EDATA    BYTE      ?lcd_showfloat_simspi?BYTE
      000004B8H   PUBLIC    EDATA    BYTE      ?lcd_showfloat?BYTE
      000000D0H   SFRSYM    DATA     BYTE      PSW
      0000009DH   SFRSYM    DATA     BYTE      IRCBAND
      00000097H   SFRSYM    DATA     BYTE      AUXR2
      000000EFH   SFRSYM    DATA     BYTE      AUXINTIF
      000000FDH   SFRSYM    DATA     BYTE      S4CON
      000000ACH   SFRSYM    DATA     BYTE      S3CON
      0000009AH   SFRSYM    DATA     BYTE      S2CON
      000000B7H   SFRSYM    DATA     BYTE      IPH
      000000CDH   SFRSYM    DATA     BYTE      SPSTAT
      000000DDH   SFRSYM    DATA     BYTE      T4T3M
      000000C1H   SFRSYM    DATA     BYTE      WDT_CONTR
      000000DFH   SFRSYM    DATA     BYTE      IP3
      000000F4H   SFRSYM    DATA     BYTE      USBCON
      000000B5H   SFRSYM    DATA     BYTE      IP2
      000000FFH   SFRSYM    DATA     BYTE      RSTCFG
      000000F9H   SFRSYM    DATA     BYTE      LINICR
      0000008EH   SFRSYM    DATA     BYTE      AUXR
      000000AFH   SFRSYM    DATA     BYTE      IE2
      000000A0H.5 SFRSYM    DATA     BIT       P25
      00000088H   SFRSYM    DATA     BYTE      TCON
      000000A0H.3 SFRSYM    DATA     BIT       P23
      00000098H   SFRSYM    DATA     BYTE      SCON
      000000A0H.2 SFRSYM    DATA     BIT       P22
      000000A0H.1 SFRSYM    DATA     BIT       P21
      000000A0H.0 SFRSYM    DATA     BIT       P20
      000000F1H   SFRSYM    DATA     BYTE      CANICR
      00000087H   SFRSYM    DATA     BYTE      PCON
      000000BCH   SFRSYM    DATA     BYTE      ADC_CONTR
      000000E7H   SFRSYM    DATA     BYTE      CMPCR2
      000000E6H   SFRSYM    DATA     BYTE      CMPCR1
      000000B8H   SFRSYM    DATA     BYTE      IP
L251 LINKER/LOCATER V4.66.93.0                                                        04/10/2024  20:12:08  PAGE 52


      0000008FH   SFRSYM    DATA     BYTE      INTCLKO
      000000EEH   SFRSYM    DATA     BYTE      IP3H
      000000B6H   SFRSYM    DATA     BYTE      IP2H
      000000A8H   SFRSYM    DATA     BYTE      IE
      000000BBH   SFRSYM    DATA     BYTE      P_SW3
      000000BAH   SFRSYM    DATA     BYTE      P_SW2
      000000A2H   SFRSYM    DATA     BYTE      P_SW1
      000000CEH   SFRSYM    DATA     BYTE      SPCTL
      000000F8H   SFRSYM    DATA     BYTE      P7
      000000E8H   SFRSYM    DATA     BYTE      P6
      000000C8H   SFRSYM    DATA     BYTE      P5
      000000C0H   SFRSYM    DATA     BYTE      P4
      000000B0H   SFRSYM    DATA     BYTE      P3
      000000A0H   SFRSYM    DATA     BYTE      P2
      00000090H   SFRSYM    DATA     BYTE      P1
      00000080H   SFRSYM    DATA     BYTE      P0

      00FF6B79H   BLOCK     CODE     ---       LVL=0
      00000893H   SYMBOL    EDATA    BYTE      dat
      00FF6B7DH   BLOCK     CODE     NEAR LAB  LVL=1
      000106BFH   SYMBOL    XDATA    BYTE      i
      ---         BLOCKEND  ---      ---       LVL=1
      00FF6B79H   LINE      CODE     ---       #60
      00FF6B7DH   LINE      CODE     ---       #61
      00FF6B7DH   LINE      CODE     ---       #62
      00FF6B83H   LINE      CODE     ---       #64
      00FF6B86H   LINE      CODE     ---       #65
      00FF6B89H   LINE      CODE     ---       #66
      00FF6B8CH   LINE      CODE     ---       #68
      00FF6B8EH   LINE      CODE     ---       #70
      00FF6B9AH   LINE      CODE     ---       #71
      00FF6B9DH   LINE      CODE     ---       #72
      00FF6BA0H   LINE      CODE     ---       #74
      00FF6BA3H   LINE      CODE     ---       #75
      00FF6BADH   LINE      CODE     ---       #76
      00FF6BC0H   LINE      CODE     ---       #77
      00FF6BC3H   LINE      CODE     ---       #78
      ---         BLOCKEND  ---      ---       LVL=0

      00FF6BC4H   BLOCK     CODE     ---       LVL=0
      00000894H   SYMBOL    EDATA    BYTE      dat
      00FF6BC8H   BLOCK     CODE     NEAR LAB  LVL=1
      000106C0H   SYMBOL    XDATA    BYTE      i
      ---         BLOCKEND  ---      ---       LVL=1
      00FF6BC4H   LINE      CODE     ---       #87
      00FF6BC8H   LINE      CODE     ---       #88
      00FF6BC8H   LINE      CODE     ---       #89
      00FF6BCEH   LINE      CODE     ---       #91
      00FF6BD1H   LINE      CODE     ---       #92
      00FF6BD4H   LINE      CODE     ---       #93
      00FF6BD7H   LINE      CODE     ---       #94
      00FF6BD9H   LINE      CODE     ---       #96
      00FF6BE5H   LINE      CODE     ---       #97
      00FF6BE8H   LINE      CODE     ---       #98
      00FF6BEBH   LINE      CODE     ---       #100
      00FF6BEEH   LINE      CODE     ---       #101
      00FF6BF8H   LINE      CODE     ---       #102
      00FF6C0BH   LINE      CODE     ---       #103
      00FF6C0EH   LINE      CODE     ---       #104
      ---         BLOCKEND  ---      ---       LVL=0

      00FF693AH   BLOCK     CODE     ---       LVL=0
      0000085BH   SYMBOL    EDATA    WORD      dat
      00FF693EH   BLOCK     CODE     NEAR LAB  LVL=1
      000106C1H   SYMBOL    XDATA    BYTE      i
L251 LINKER/LOCATER V4.66.93.0                                                        04/10/2024  20:12:08  PAGE 53


      ---         BLOCKEND  ---      ---       LVL=1
      00FF693AH   LINE      CODE     ---       #113
      00FF693EH   LINE      CODE     ---       #114
      00FF693EH   LINE      CODE     ---       #115
      00FF6944H   LINE      CODE     ---       #117
      00FF6947H   LINE      CODE     ---       #118
      00FF694AH   LINE      CODE     ---       #119
      00FF694DH   LINE      CODE     ---       #121
      00FF694FH   LINE      CODE     ---       #123
      00FF6964H   LINE      CODE     ---       #124
      00FF6967H   LINE      CODE     ---       #125
      00FF696AH   LINE      CODE     ---       #127
      00FF696DH   LINE      CODE     ---       #128
      00FF6977H   LINE      CODE     ---       #129
      00FF698AH   LINE      CODE     ---       #131
      00FF698DH   LINE      CODE     ---       #133
      ---         BLOCKEND  ---      ---       LVL=0

      00FF6596H   BLOCK     CODE     ---       LVL=0
      00000629H   SYMBOL    EDATA    WORD      x_start
      0000062BH   SYMBOL    EDATA    WORD      y_start
      0000062DH   SYMBOL    EDATA    WORD      x_end
      0000062FH   SYMBOL    EDATA    WORD      y_end
      00FF6596H   LINE      CODE     ---       #145
      00FF65A6H   LINE      CODE     ---       #163
      00FF65ABH   LINE      CODE     ---       #164
      00FF65AFH   LINE      CODE     ---       #165
      00FF65BCH   LINE      CODE     ---       #166
      00FF65C0H   LINE      CODE     ---       #167
      00FF65CDH   LINE      CODE     ---       #169
      00FF65D2H   LINE      CODE     ---       #170
      00FF65D6H   LINE      CODE     ---       #171
      00FF65E3H   LINE      CODE     ---       #172
      00FF65E7H   LINE      CODE     ---       #173
      00FF65F4H   LINE      CODE     ---       #177
      00FF65F9H   LINE      CODE     ---       #178
      ---         BLOCKEND  ---      ---       LVL=0
      0000082FH   SYMBOL    EDATA    INT       color
      000106C2H   SYMBOL    XDATA    BYTE      i
      00000831H   SYMBOL    EDATA    BYTE      j
      000006FFH   SYMBOL    EDATA    WORD      x
      00000701H   SYMBOL    EDATA    WORD      y
      00000703H   SYMBOL    EDATA    WORD      color
      00000705H   SYMBOL    EDATA    WORD      x
      00000707H   SYMBOL    EDATA    WORD      y
      00000709H   SYMBOL    EDATA    CHAR      dat
      00010689H   SYMBOL    XDATA    BYTE      i
      0000070AH   SYMBOL    EDATA    BYTE      j
      0001068AH   SYMBOL    XDATA    BYTE      temp
      00000631H   SYMBOL    EDATA    WORD      x
      00000633H   SYMBOL    EDATA    WORD      y
      00000635H   SYMBOL    EDATA    ---       dat
      0001068BH   SYMBOL    XDATA    WORD      j
      000007A0H   SYMBOL    EDATA    WORD      x
      000007A2H   SYMBOL    EDATA    WORD      y
      000007A4H   SYMBOL    EDATA    CHAR      dat
      0001062FH   SYMBOL    XDATA    ---       a
      00010632H   SYMBOL    XDATA    BYTE      i
      000007A5H   SYMBOL    EDATA    WORD      x
      000007A7H   SYMBOL    EDATA    WORD      y
      000007A9H   SYMBOL    EDATA    BYTE      dat
      00010633H   SYMBOL    XDATA    ---       a
      00010636H   SYMBOL    XDATA    BYTE      i
      0000070BH   SYMBOL    EDATA    WORD      x
      0000070DH   SYMBOL    EDATA    WORD      y
L251 LINKER/LOCATER V4.66.93.0                                                        04/10/2024  20:12:08  PAGE 54


      0000070FH   SYMBOL    EDATA    INT       dat
      000105D6H   SYMBOL    XDATA    ---       a
      000105DBH   SYMBOL    XDATA    BYTE      i
      00000711H   SYMBOL    EDATA    WORD      x
      00000713H   SYMBOL    EDATA    WORD      y
      00000715H   SYMBOL    EDATA    WORD      dat
      000105DCH   SYMBOL    XDATA    ---       a
      000105E1H   SYMBOL    XDATA    BYTE      i
      00000592H   SYMBOL    EDATA    WORD      x
      00000594H   SYMBOL    EDATA    WORD      y
      00000596H   SYMBOL    EDATA    LONG      dat
      0000059AH   SYMBOL    EDATA    BYTE      num
      00010508H   SYMBOL    XDATA    ---       buff
      0001052AH   SYMBOL    XDATA    BYTE      length
      000004ACH   SYMBOL    EDATA    WORD      x
      000004AEH   SYMBOL    EDATA    WORD      y
      000004B0H   SYMBOL    EDATA    FLOAT     dat
      000004B4H   SYMBOL    EDATA    BYTE      num
      000004B5H   SYMBOL    EDATA    BYTE      pointnum
      00010478H   SYMBOL    XDATA    BYTE      length
      00010479H   SYMBOL    XDATA    ---       buff
      0001049BH   SYMBOL    XDATA    CHAR      start
      000004B6H   SYMBOL    EDATA    CHAR      end
      000004B7H   SYMBOL    EDATA    CHAR      point

      00FF7350H   BLOCK     CODE     ---       LVL=0
      00000895H   SYMBOL    EDATA    BYTE      dat
      00FF7350H   LINE      CODE     ---       #607
      00FF7354H   LINE      CODE     ---       #610
      00FF7357H   LINE      CODE     ---       #611
      00FF735AH   LINE      CODE     ---       #612
      00FF7361H   LINE      CODE     ---       #613
      00FF7364H   LINE      CODE     ---       #614
      ---         BLOCKEND  ---      ---       LVL=0

      00FF7365H   BLOCK     CODE     ---       LVL=0
      00000896H   SYMBOL    EDATA    BYTE      dat
      00FF7365H   LINE      CODE     ---       #623
      00FF7369H   LINE      CODE     ---       #625
      00FF736CH   LINE      CODE     ---       #626
      00FF736FH   LINE      CODE     ---       #627
      00FF7376H   LINE      CODE     ---       #628
      00FF7379H   LINE      CODE     ---       #629
      ---         BLOCKEND  ---      ---       LVL=0

      00FF6FEFH   BLOCK     CODE     ---       LVL=0
      0000085DH   SYMBOL    EDATA    WORD      dat
      00FF6FF3H   BLOCK     CODE     NEAR LAB  LVL=1
      0001068DH   SYMBOL    XDATA    ---       dat1
      ---         BLOCKEND  ---      ---       LVL=1
      00FF6FEFH   LINE      CODE     ---       #638
      00FF6FF3H   LINE      CODE     ---       #639
      00FF6FF3H   LINE      CODE     ---       #642
      00FF6FFBH   LINE      CODE     ---       #643
      00FF7003H   LINE      CODE     ---       #645
      00FF7006H   LINE      CODE     ---       #646
      00FF7009H   LINE      CODE     ---       #647
      00FF7010H   LINE      CODE     ---       #648
      00FF7017H   LINE      CODE     ---       #649
      00FF701AH   LINE      CODE     ---       #651
      ---         BLOCKEND  ---      ---       LVL=0

      00FF65FAH   BLOCK     CODE     ---       LVL=0
      00000639H   SYMBOL    EDATA    WORD      x_start
      0000063BH   SYMBOL    EDATA    WORD      y_start
L251 LINKER/LOCATER V4.66.93.0                                                        04/10/2024  20:12:08  PAGE 55


      0000063DH   SYMBOL    EDATA    WORD      x_end
      0000063FH   SYMBOL    EDATA    WORD      y_end
      00FF65FAH   LINE      CODE     ---       #663
      00FF660AH   LINE      CODE     ---       #681
      00FF660FH   LINE      CODE     ---       #682
      00FF6613H   LINE      CODE     ---       #683
      00FF6620H   LINE      CODE     ---       #684
      00FF6624H   LINE      CODE     ---       #685
      00FF6631H   LINE      CODE     ---       #687
      00FF6636H   LINE      CODE     ---       #688
      00FF663AH   LINE      CODE     ---       #689
      00FF6647H   LINE      CODE     ---       #690
      00FF664BH   LINE      CODE     ---       #691
      00FF6658H   LINE      CODE     ---       #695
      00FF665DH   LINE      CODE     ---       #696
      ---         BLOCKEND  ---      ---       LVL=0
      00000832H   SYMBOL    EDATA    INT       color
      000106C3H   SYMBOL    XDATA    BYTE      i
      00000834H   SYMBOL    EDATA    BYTE      j
      00000717H   SYMBOL    EDATA    WORD      x
      00000719H   SYMBOL    EDATA    WORD      y
      0000071BH   SYMBOL    EDATA    WORD      color
      0000071DH   SYMBOL    EDATA    WORD      x
      0000071FH   SYMBOL    EDATA    WORD      y
      00000721H   SYMBOL    EDATA    CHAR      dat
      0001068FH   SYMBOL    XDATA    BYTE      i
      00000722H   SYMBOL    EDATA    BYTE      j
      00010690H   SYMBOL    XDATA    BYTE      temp
      00000641H   SYMBOL    EDATA    WORD      x
      00000643H   SYMBOL    EDATA    WORD      y
      00000645H   SYMBOL    EDATA    ---       dat
      00010691H   SYMBOL    XDATA    WORD      j
      000007AAH   SYMBOL    EDATA    WORD      x
      000007ACH   SYMBOL    EDATA    WORD      y
      000007AEH   SYMBOL    EDATA    CHAR      dat
      00010637H   SYMBOL    XDATA    ---       a
      0001063AH   SYMBOL    XDATA    BYTE      i
      000007AFH   SYMBOL    EDATA    WORD      x
      000007B1H   SYMBOL    EDATA    WORD      y
      000007B3H   SYMBOL    EDATA    BYTE      dat
      0001063BH   SYMBOL    XDATA    ---       a
      0001063EH   SYMBOL    XDATA    BYTE      i
      00000723H   SYMBOL    EDATA    WORD      x
      00000725H   SYMBOL    EDATA    WORD      y
      00000727H   SYMBOL    EDATA    INT       dat
      000105E2H   SYMBOL    XDATA    ---       a
      000105E7H   SYMBOL    XDATA    BYTE      i
      00000729H   SYMBOL    EDATA    WORD      x
      0000072BH   SYMBOL    EDATA    WORD      y
      0000072DH   SYMBOL    EDATA    WORD      dat
      000105E8H   SYMBOL    XDATA    ---       a
      000105EDH   SYMBOL    XDATA    BYTE      i
      0000059BH   SYMBOL    EDATA    WORD      x
      0000059DH   SYMBOL    EDATA    WORD      y
      0000059FH   SYMBOL    EDATA    LONG      dat
      000005A3H   SYMBOL    EDATA    BYTE      num
      0001052BH   SYMBOL    XDATA    ---       buff
      0001054DH   SYMBOL    XDATA    BYTE      length
      000004B8H   SYMBOL    EDATA    WORD      x
      000004BAH   SYMBOL    EDATA    WORD      y
      000004BCH   SYMBOL    EDATA    FLOAT     dat
      000004C0H   SYMBOL    EDATA    BYTE      num
      000004C1H   SYMBOL    EDATA    BYTE      pointnum
      0001049CH   SYMBOL    XDATA    BYTE      length
      0001049DH   SYMBOL    XDATA    ---       buff
L251 LINKER/LOCATER V4.66.93.0                                                        04/10/2024  20:12:08  PAGE 56


      000104BFH   SYMBOL    XDATA    CHAR      start
      000004C2H   SYMBOL    EDATA    CHAR      end
      000004C3H   SYMBOL    EDATA    CHAR      point
      000004C4H   SYMBOL    EDATA    ---       p
      000004C8H   SYMBOL    EDATA    INT       i
      000004CAH   SYMBOL    EDATA    INT       j
      000004CCH   SYMBOL    EDATA    INT       k
      000004CEH   SYMBOL    EDATA    BYTE      picH
      000004CFH   SYMBOL    EDATA    BYTE      picL

      ---         MODULE    ---      ---       SEEKFREE_BLUETOOTH_CH9141
      00FF71A6H   PUBLIC    CODE     ---       bluetooth_ch9141_uart_callback
      000000D0H   SFRSYM    DATA     BYTE      PSW
      0000009DH   SFRSYM    DATA     BYTE      IRCBAND
      00000097H   SFRSYM    DATA     BYTE      AUXR2
      000000EFH   SFRSYM    DATA     BYTE      AUXINTIF
      000000FDH   SFRSYM    DATA     BYTE      S4CON
      000000ACH   SFRSYM    DATA     BYTE      S3CON
      0000009AH   SFRSYM    DATA     BYTE      S2CON
      000000FEH   SFRSYM    DATA     BYTE      S4BUF
      000000B7H   SFRSYM    DATA     BYTE      IPH
      000000CDH   SFRSYM    DATA     BYTE      SPSTAT
      000000DDH   SFRSYM    DATA     BYTE      T4T3M
      000000C1H   SFRSYM    DATA     BYTE      WDT_CONTR
      000000DFH   SFRSYM    DATA     BYTE      IP3
      000000F4H   SFRSYM    DATA     BYTE      USBCON
      000000B5H   SFRSYM    DATA     BYTE      IP2
      000000FFH   SFRSYM    DATA     BYTE      RSTCFG
      000000F9H   SFRSYM    DATA     BYTE      LINICR
      0000008EH   SFRSYM    DATA     BYTE      AUXR
      000000AFH   SFRSYM    DATA     BYTE      IE2
      00000080H.7 SFRSYM    DATA     BIT       P07
      00000088H   SFRSYM    DATA     BYTE      TCON
      00000098H   SFRSYM    DATA     BYTE      SCON
      000000F1H   SFRSYM    DATA     BYTE      CANICR
      00000087H   SFRSYM    DATA     BYTE      PCON
      000000BCH   SFRSYM    DATA     BYTE      ADC_CONTR
      000000E7H   SFRSYM    DATA     BYTE      CMPCR2
      000000E6H   SFRSYM    DATA     BYTE      CMPCR1
      000000B8H   SFRSYM    DATA     BYTE      IP
      0000008FH   SFRSYM    DATA     BYTE      INTCLKO
      000000EEH   SFRSYM    DATA     BYTE      IP3H
      000000B6H   SFRSYM    DATA     BYTE      IP2H
      000000A8H   SFRSYM    DATA     BYTE      IE
      000000BBH   SFRSYM    DATA     BYTE      P_SW3
      000000BAH   SFRSYM    DATA     BYTE      P_SW2
      000000A2H   SFRSYM    DATA     BYTE      P_SW1
      000000CEH   SFRSYM    DATA     BYTE      SPCTL
      000000F8H   SFRSYM    DATA     BYTE      P7
      000000E8H   SFRSYM    DATA     BYTE      P6
      000000C8H   SFRSYM    DATA     BYTE      P5
      000000C0H   SFRSYM    DATA     BYTE      P4
      000000B0H   SFRSYM    DATA     BYTE      P3
      000000A0H   SFRSYM    DATA     BYTE      P2
      00000090H   SFRSYM    DATA     BYTE      P1
      00000080H   SFRSYM    DATA     BYTE      P0
      00010370H   SYMBOL    XDATA    ---       bluetooth_ch9141_buffer
      000103B0H   SYMBOL    XDATA    BYTE      bluetooth_ch9141_data
      000103B1H   SYMBOL    XDATA    ---       bluetooth_ch9141_fifo

      00FF71A6H   BLOCK     CODE     ---       LVL=0
      00FF71A6H   LINE      CODE     ---       #67
      00FF71A6H   LINE      CODE     ---       #70
      00FF71ACH   LINE      CODE     ---       #71
      00FF71C7H   LINE      CODE     ---       #72
L251 LINKER/LOCATER V4.66.93.0                                                        04/10/2024  20:12:08  PAGE 57


      ---         BLOCKEND  ---      ---       LVL=0
      00000649H   SYMBOL    EDATA    ---       buff
      0000064DH   SYMBOL    EDATA    DWORD     len
      00010693H   SYMBOL    XDATA    WORD      time_count
      00000651H   SYMBOL    EDATA    ---       buff
      00000655H   SYMBOL    EDATA    DWORD     len
      0001063FH   SYMBOL    XDATA    DWORD     data_len

      ---         MODULE    ---      ---       SEEKFREE_DL1A
      00000835H   PUBLIC    EDATA    WORD      dl1a_distance_mm
      00000837H   PUBLIC    EDATA    BYTE      dl1a_finsh_flag
      000000D0H   SFRSYM    DATA     BYTE      PSW
      0000009DH   SFRSYM    DATA     BYTE      IRCBAND
      00000097H   SFRSYM    DATA     BYTE      AUXR2
      000000EFH   SFRSYM    DATA     BYTE      AUXINTIF
      000000FDH   SFRSYM    DATA     BYTE      S4CON
      000000ACH   SFRSYM    DATA     BYTE      S3CON
      0000009AH   SFRSYM    DATA     BYTE      S2CON
      000000B7H   SFRSYM    DATA     BYTE      IPH
      000000CDH   SFRSYM    DATA     BYTE      SPSTAT
      000000DDH   SFRSYM    DATA     BYTE      T4T3M
      000000C1H   SFRSYM    DATA     BYTE      WDT_CONTR
      000000DFH   SFRSYM    DATA     BYTE      IP3
      000000F4H   SFRSYM    DATA     BYTE      USBCON
      000000B5H   SFRSYM    DATA     BYTE      IP2
      000000FFH   SFRSYM    DATA     BYTE      RSTCFG
      000000F9H   SFRSYM    DATA     BYTE      LINICR
      0000008EH   SFRSYM    DATA     BYTE      AUXR
      000000AFH   SFRSYM    DATA     BYTE      IE2
      000000C0H.7 SFRSYM    DATA     BIT       P47
      000000E8H.5 SFRSYM    DATA     BIT       P65
      000000E8H.3 SFRSYM    DATA     BIT       P63
      00000088H   SFRSYM    DATA     BYTE      TCON
      00000098H   SFRSYM    DATA     BYTE      SCON
      000000F1H   SFRSYM    DATA     BYTE      CANICR
      00000087H   SFRSYM    DATA     BYTE      PCON
      000000BCH   SFRSYM    DATA     BYTE      ADC_CONTR
      000000E7H   SFRSYM    DATA     BYTE      CMPCR2
      000000E6H   SFRSYM    DATA     BYTE      CMPCR1
      000000B8H   SFRSYM    DATA     BYTE      IP
      0000008FH   SFRSYM    DATA     BYTE      INTCLKO
      000000EEH   SFRSYM    DATA     BYTE      IP3H
      000000B6H   SFRSYM    DATA     BYTE      IP2H
      000000A8H   SFRSYM    DATA     BYTE      IE
      000000BBH   SFRSYM    DATA     BYTE      P_SW3
      000000BAH   SFRSYM    DATA     BYTE      P_SW2
      000000A2H   SFRSYM    DATA     BYTE      P_SW1
      000000CEH   SFRSYM    DATA     BYTE      SPCTL
      000000F8H   SFRSYM    DATA     BYTE      P7
      000000E8H   SFRSYM    DATA     BYTE      P6
      000000C8H   SFRSYM    DATA     BYTE      P5
      000000C0H   SFRSYM    DATA     BYTE      P4
      000000B0H   SFRSYM    DATA     BYTE      P3
      000000A0H   SFRSYM    DATA     BYTE      P2
      00000090H   SFRSYM    DATA     BYTE      P1
      00000080H   SFRSYM    DATA     BYTE      P0
      00FF7071H   SYMBOL    CODE     ---       dl1a_simiic_sendack
      00FF665EH   SYMBOL    CODE     ---       dl1a_timeout_microseconds_to_mclks
      00FF6467H   SYMBOL    CODE     ---       dl1a_timeout_mclks_to_microseconds
      00FF64CCH   SYMBOL    CODE     ---       dl1a_read_ch
      00FF7047H   SYMBOL    CODE     ---       dl1a_decode_timeout
      00FF6D3BH   SYMBOL    CODE     ---       dl1a_send_ch
      00FF5E52H   SYMBOL    CODE     ---       dl1a_encode_timeout
      00FF5EFDH   SYMBOL    CODE     ---       dl1a_get_sequence_step_enables
      00FF722EH   SYMBOL    CODE     ---       dl1a_sccb_waitack
L251 LINKER/LOCATER V4.66.93.0                                                        04/10/2024  20:12:08  PAGE 58


      00FF0003H   SYMBOL    CODE     ---       dl1a_simiic_delay
      00FF580AH   SYMBOL    CODE     ---       dl1a_get_sequence_step_timeouts
      00FF73B9H   SYMBOL    CODE     ---       dl1a_simiic_start
      00FF63FFH   SYMBOL    CODE     ---       dl1a_simiic_read_regs
      00FF0046H   SYMBOL    CODE     ---       dl1a_simiic_write_dats
      00FF7324H   SYMBOL    CODE     ---       dl1a_simiic_stop
      00FF60C5H   SYMBOL    CODE     ---       dl1a_get_vcsel_pulse_period

      00FF0003H   BLOCK     CODE     ---       LVL=0
      00010695H   SYMBOL    XDATA    WORD      j
      00FF0003H   LINE      CODE     ---       #59
      00FF0003H   LINE      CODE     ---       #60
      00FF0003H   LINE      CODE     ---       #61
      00FF000BH   LINE      CODE     ---       #62
      00FF0022H   LINE      CODE     ---       #63
      ---         BLOCKEND  ---      ---       LVL=0

      00FF73B9H   BLOCK     CODE     ---       LVL=0
      00FF73B9H   LINE      CODE     ---       #66
      00FF73B9H   LINE      CODE     ---       #68
      00FF73BCH   LINE      CODE     ---       #69
      00FF73BFH   LINE      CODE     ---       #70
      00FF73C2H   LINE      CODE     ---       #71
      00FF73C5H   LINE      CODE     ---       #72
      00FF73C8H   LINE      CODE     ---       #73
      00FF73CBH   LINE      CODE     ---       #74
      ---         BLOCKEND  ---      ---       LVL=0

      00FF7324H   BLOCK     CODE     ---       LVL=0
      00FF7324H   LINE      CODE     ---       #77
      00FF7324H   LINE      CODE     ---       #79
      00FF7327H   LINE      CODE     ---       #80
      00FF732AH   LINE      CODE     ---       #81
      00FF732DH   LINE      CODE     ---       #82
      00FF7330H   LINE      CODE     ---       #83
      00FF7333H   LINE      CODE     ---       #84
      00FF7336H   LINE      CODE     ---       #85
      00FF7339H   LINE      CODE     ---       #86
      ---         BLOCKEND  ---      ---       LVL=0

      00FF7071H   BLOCK     CODE     ---       LVL=0
      00000897H   SYMBOL    EDATA    BYTE      ack_dat
      00FF7071H   LINE      CODE     ---       #90
      00FF7075H   LINE      CODE     ---       #92
      00FF7078H   LINE      CODE     ---       #93
      00FF707BH   LINE      CODE     ---       #94
      00FF7089H   LINE      CODE     ---       #95
      00FF708CH   LINE      CODE     ---       #96
      00FF708FH   LINE      CODE     ---       #97
      00FF7092H   LINE      CODE     ---       #98
      00FF7095H   LINE      CODE     ---       #99
      00FF7098H   LINE      CODE     ---       #100
      ---         BLOCKEND  ---      ---       LVL=0

      00FF722EH   BLOCK     CODE     ---       LVL=0
      00FF722EH   LINE      CODE     ---       #103
      00FF722EH   LINE      CODE     ---       #105
      00FF7231H   LINE      CODE     ---       #106
      00FF7234H   LINE      CODE     ---       #107
      00FF7237H   LINE      CODE     ---       #108
      00FF723AH   LINE      CODE     ---       #109
      00FF723DH   LINE      CODE     ---       #111
      00FF7240H   LINE      CODE     ---       #112
      00FF7244H   LINE      CODE     ---       #113
      00FF7244H   LINE      CODE     ---       #114
L251 LINKER/LOCATER V4.66.93.0                                                        04/10/2024  20:12:08  PAGE 59


      00FF7247H   LINE      CODE     ---       #115
      00FF724AH   LINE      CODE     ---       #116
      00FF724EH   LINE      CODE     ---       #117
      ---         BLOCKEND  ---      ---       LVL=0

      00FF6D3BH   BLOCK     CODE     ---       LVL=0
      00000898H   SYMBOL    EDATA    BYTE      c
      00FF6D3FH   BLOCK     CODE     NEAR LAB  LVL=1
      000106C4H   SYMBOL    XDATA    BYTE      i
      ---         BLOCKEND  ---      ---       LVL=1
      00FF6D3BH   LINE      CODE     ---       #123
      00FF6D3FH   LINE      CODE     ---       #124
      00FF6D3FH   LINE      CODE     ---       #125
      00FF6D45H   LINE      CODE     ---       #126
      00FF6D47H   LINE      CODE     ---       #128
      00FF6D53H   LINE      CODE     ---       #129
      00FF6D56H   LINE      CODE     ---       #130
      00FF6D60H   LINE      CODE     ---       #131
      00FF6D63H   LINE      CODE     ---       #132
      00FF6D66H   LINE      CODE     ---       #133
      00FF6D69H   LINE      CODE     ---       #134
      00FF6D6CH   LINE      CODE     ---       #135
      00FF6D7FH   LINE      CODE     ---       #136
      00FF6D82H   LINE      CODE     ---       #137
      ---         BLOCKEND  ---      ---       LVL=0

      00FF64CCH   BLOCK     CODE     ---       LVL=0
      00000899H   SYMBOL    EDATA    BYTE      ack_x
      00FF64D0H   BLOCK     CODE     NEAR LAB  LVL=1
      00010697H   SYMBOL    XDATA    BYTE      i
      00010698H   SYMBOL    XDATA    BYTE      c
      ---         BLOCKEND  ---      ---       LVL=1
      00FF64CCH   LINE      CODE     ---       #143
      00FF64D0H   LINE      CODE     ---       #144
      00FF64D0H   LINE      CODE     ---       #147
      00FF64D5H   LINE      CODE     ---       #148
      00FF64D8H   LINE      CODE     ---       #149
      00FF64DBH   LINE      CODE     ---       #150
      00FF64DEH   LINE      CODE     ---       #151
      00FF64E5H   LINE      CODE     ---       #153
      00FF64E8H   LINE      CODE     ---       #154
      00FF64EBH   LINE      CODE     ---       #155
      00FF64EEH   LINE      CODE     ---       #156
      00FF64F1H   LINE      CODE     ---       #157
      00FF64F4H   LINE      CODE     ---       #158
      00FF64FBH   LINE      CODE     ---       #159
      00FF64FEH   LINE      CODE     ---       #161
      00FF6508H   LINE      CODE     ---       #162
      00FF651FH   LINE      CODE     ---       #164
      00FF6522H   LINE      CODE     ---       #165
      00FF6525H   LINE      CODE     ---       #166
      00FF652CH   LINE      CODE     ---       #167
      00FF6530H   LINE      CODE     ---       #168
      ---         BLOCKEND  ---      ---       LVL=0

      00FF0046H   BLOCK     CODE     ---       LVL=0
      000005A4H   SYMBOL    EDATA    BYTE      dev_add
      000005A5H   SYMBOL    EDATA    ---       dat
      000005A9H   SYMBOL    EDATA    DWORD     len
      00FF0046H   LINE      CODE     ---       #180
      00FF0052H   LINE      CODE     ---       #182
      00FF0055H   LINE      CODE     ---       #183
      00FF005EH   LINE      CODE     ---       #184
      00FF0060H   LINE      CODE     ---       #186
      00FF0070H   LINE      CODE     ---       #187
L251 LINKER/LOCATER V4.66.93.0                                                        04/10/2024  20:12:08  PAGE 60


      00FF0084H   LINE      CODE     ---       #188
      00FF0087H   LINE      CODE     ---       #189
      ---         BLOCKEND  ---      ---       LVL=0
      00000838H   SYMBOL    EDATA    BYTE      dev_add
      00000839H   SYMBOL    EDATA    BYTE      reg
      0000083AH   SYMBOL    EDATA    BYTE      dat
      0000085FH   SYMBOL    EDATA    BYTE      dev_add
      00000860H   SYMBOL    EDATA    BYTE      reg
      000106C5H   SYMBOL    XDATA    BYTE      dat

      00FF63FFH   BLOCK     CODE     ---       LVL=0
      00000560H   SYMBOL    EDATA    BYTE      dev_add
      00000561H   SYMBOL    EDATA    BYTE      reg
      00000562H   SYMBOL    EDATA    ---       dat_add
      00000566H   SYMBOL    EDATA    DWORD     num
      00FF63FFH   LINE      CODE     ---       #243
      00FF640BH   LINE      CODE     ---       #245
      00FF640EH   LINE      CODE     ---       #246
      00FF6417H   LINE      CODE     ---       #247
      00FF641EH   LINE      CODE     ---       #248
      00FF6421H   LINE      CODE     ---       #249
      00FF642EH   LINE      CODE     ---       #250
      00FF6430H   LINE      CODE     ---       #252
      00FF643CH   LINE      CODE     ---       #253
      00FF6446H   LINE      CODE     ---       #254
      00FF6458H   LINE      CODE     ---       #255
      00FF6463H   LINE      CODE     ---       #256
      00FF6466H   LINE      CODE     ---       #257
      ---         BLOCKEND  ---      ---       LVL=0
      0000056AH   SYMBOL    EDATA    BYTE      dev_add
      0000056BH   SYMBOL    EDATA    BYTE      reg
      0000056CH   SYMBOL    EDATA    ---       dat_add
      00000570H   SYMBOL    EDATA    DWORD     num
      00000574H   SYMBOL    EDATA    ---       index
      00000578H   SYMBOL    EDATA    ---       type_is_aperture
      00010699H   SYMBOL    XDATA    BYTE      tmp
      0001069AH   SYMBOL    XDATA    BYTE      return_state
      0000057CH   SYMBOL    EDATA    WORD      loop_count

      00FF6467H   BLOCK     CODE     ---       LVL=0
      0000083BH   SYMBOL    EDATA    WORD      timeout_period_mclks
      0000083DH   SYMBOL    EDATA    BYTE      vcsel_period_pclks
      00FF646FH   BLOCK     CODE     NEAR LAB  LVL=1
      00010643H   SYMBOL    XDATA    DWORD     macro_period_ns
      ---         BLOCKEND  ---      ---       LVL=1
      00FF6467H   LINE      CODE     ---       #374
      00FF646FH   LINE      CODE     ---       #375
      00FF646FH   LINE      CODE     ---       #376
      00FF649CH   LINE      CODE     ---       #377
      00FF64CBH   LINE      CODE     ---       #378
      ---         BLOCKEND  ---      ---       LVL=0

      00FF665EH   BLOCK     CODE     ---       LVL=0
      000007B4H   SYMBOL    EDATA    DWORD     timeout_period_us
      000007B8H   SYMBOL    EDATA    BYTE      vcsel_period_pclks
      00FF6666H   BLOCK     CODE     NEAR LAB  LVL=1
      00010647H   SYMBOL    XDATA    DWORD     macro_period_ns
      ---         BLOCKEND  ---      ---       LVL=1
      00FF665EH   LINE      CODE     ---       #388
      00FF6666H   LINE      CODE     ---       #389
      00FF6666H   LINE      CODE     ---       #390
      00FF6693H   LINE      CODE     ---       #391
      00FF66C0H   LINE      CODE     ---       #392
      ---         BLOCKEND  ---      ---       LVL=0

L251 LINKER/LOCATER V4.66.93.0                                                        04/10/2024  20:12:08  PAGE 61


      00FF7047H   BLOCK     CODE     ---       LVL=0
      00000861H   SYMBOL    EDATA    WORD      reg_val
      00FF7047H   LINE      CODE     ---       #401
      00FF704BH   LINE      CODE     ---       #404
      00FF7070H   LINE      CODE     ---       #406
      ---         BLOCKEND  ---      ---       LVL=0

      00FF5E52H   BLOCK     CODE     ---       LVL=0
      00000863H   SYMBOL    EDATA    WORD      timeout_mclks
      00FF5E56H   BLOCK     CODE     NEAR LAB  LVL=1
      000105B9H   SYMBOL    XDATA    DWORD     ls_byte
      000105BDH   SYMBOL    XDATA    WORD      ms_byte
      000105BFH   SYMBOL    XDATA    WORD      return_data
      ---         BLOCKEND  ---      ---       LVL=1
      00FF5E52H   LINE      CODE     ---       #415
      00FF5E56H   LINE      CODE     ---       #416
      00FF5E56H   LINE      CODE     ---       #417
      00FF5E62H   LINE      CODE     ---       #418
      00FF5E6AH   LINE      CODE     ---       #419
      00FF5E72H   LINE      CODE     ---       #420
      00FF5E7CH   LINE      CODE     ---       #423
      00FF5E92H   LINE      CODE     ---       #424
      00FF5E94H   LINE      CODE     ---       #426
      00FF5EAEH   LINE      CODE     ---       #427
      00FF5EBDH   LINE      CODE     ---       #428
      00FF5ED4H   LINE      CODE     ---       #429
      00FF5EF6H   LINE      CODE     ---       #430
      00FF5EF6H   LINE      CODE     ---       #431
      00FF5EFCH   LINE      CODE     ---       #432
      ---         BLOCKEND  ---      ---       LVL=0

      00FF5EFDH   BLOCK     CODE     ---       LVL=0
      00000804H   SYMBOL    EDATA    ---       enables
      00FF5F01H   BLOCK     CODE     NEAR LAB  LVL=1
      000106C6H   SYMBOL    XDATA    BYTE      sequence_config
      ---         BLOCKEND  ---      ---       LVL=1
      00FF5EFDH   LINE      CODE     ---       #441
      00FF5F01H   LINE      CODE     ---       #442
      00FF5F01H   LINE      CODE     ---       #443
      00FF5F06H   LINE      CODE     ---       #444
      00FF5F1EH   LINE      CODE     ---       #445
      00FF5F34H   LINE      CODE     ---       #446
      00FF5F4DH   LINE      CODE     ---       #447
      00FF5F65H   LINE      CODE     ---       #448
      00FF5F80H   LINE      CODE     ---       #449
      00FF5F98H   LINE      CODE     ---       #450
      ---         BLOCKEND  ---      ---       LVL=0

      00FF60C5H   BLOCK     CODE     ---       LVL=0
      00000865H   SYMBOL    EDATA    INT       type
      00FF60C9H   BLOCK     CODE     NEAR LAB  LVL=1
      000106C7H   SYMBOL    XDATA    BYTE      data_buffer
      ---         BLOCKEND  ---      ---       LVL=1
      00FF60C5H   LINE      CODE     ---       #459
      00FF60C9H   LINE      CODE     ---       #460
      00FF60C9H   LINE      CODE     ---       #461
      00FF60CEH   LINE      CODE     ---       #462
      00FF60D8H   LINE      CODE     ---       #464
      00FF60F0H   LINE      CODE     ---       #465
      00FF6102H   LINE      CODE     ---       #466
      00FF6104H   LINE      CODE     ---       #467
      00FF6110H   LINE      CODE     ---       #469
      00FF6128H   LINE      CODE     ---       #470
      00FF613AH   LINE      CODE     ---       #471
      00FF613CH   LINE      CODE     ---       #474
L251 LINKER/LOCATER V4.66.93.0                                                        04/10/2024  20:12:08  PAGE 62


      00FF6142H   LINE      CODE     ---       #475
      00FF6142H   LINE      CODE     ---       #476
      00FF6146H   LINE      CODE     ---       #477
      ---         BLOCKEND  ---      ---       LVL=0

      00FF580AH   BLOCK     CODE     ---       LVL=0
      00000659H   SYMBOL    EDATA    ---       enables
      0000065DH   SYMBOL    EDATA    ---       timeouts
      00FF5812H   BLOCK     CODE     NEAR LAB  LVL=1
      0001064BH   SYMBOL    XDATA    ---       reg_buffer
      0001064DH   SYMBOL    XDATA    WORD      reg16_buffer
      ---         BLOCKEND  ---      ---       LVL=1
      00FF580AH   LINE      CODE     ---       #487
      00FF5812H   LINE      CODE     ---       #488
      00FF5812H   LINE      CODE     ---       #490
      00FF581AH   LINE      CODE     ---       #491
      00FF5828H   LINE      CODE     ---       #492
      00FF5840H   LINE      CODE     ---       #493
      00FF5855H   LINE      CODE     ---       #494
      00FF5879H   LINE      CODE     ---       #495
      00FF5891H   LINE      CODE     ---       #496
      00FF58A9H   LINE      CODE     ---       #497
      00FF58BFH   LINE      CODE     ---       #498
      00FF58E5H   LINE      CODE     ---       #499
      00FF58F7H   LINE      CODE     ---       #500
      00FF590FH   LINE      CODE     ---       #501
      00FF5927H   LINE      CODE     ---       #502
      00FF593DH   LINE      CODE     ---       #503
      00FF594DH   LINE      CODE     ---       #505
      00FF5968H   LINE      CODE     ---       #506
      00FF5968H   LINE      CODE     ---       #507
      00FF5990H   LINE      CODE     ---       #508
      ---         BLOCKEND  ---      ---       LVL=0
      0000083EH   SYMBOL    EDATA    BYTE      vhv_init_byte
      0001069BH   SYMBOL    XDATA    BYTE      return_state
      0001069CH   SYMBOL    XDATA    BYTE      data_buffer
      0000083FH   SYMBOL    EDATA    WORD      loop_count
      00000320H   SYMBOL    EDATA    DWORD     budget_us
      000105A9H   SYMBOL    XDATA    BYTE      return_state
      000105AAH   SYMBOL    XDATA    ---       data_buffer
      000105ADH   SYMBOL    XDATA    WORD      dat
      000105AFH   SYMBOL    XDATA    DWORD     used_budget_us
      000105B3H   SYMBOL    XDATA    DWORD     final_range_timeout_us
      000105B7H   SYMBOL    XDATA    WORD      final_range_timeout_mclks
      00000324H   SYMBOL    EDATA    ---       enables
      00000329H   SYMBOL    EDATA    ---       timeouts
      0000035EH   SYMBOL    EDATA    ---       enables
      00000363H   SYMBOL    EDATA    ---       timeouts
      0001064FH   SYMBOL    XDATA    DWORD     budget_us
      00000808H   SYMBOL    EDATA    FLOAT     limit_mcps
      0001062AH   SYMBOL    XDATA    ---       data_buffer
      0001062DH   SYMBOL    XDATA    WORD      limit_mcps_16bit
      00010677H   SYMBOL    XDATA    ---       reg_databuffer
      00010594H   SYMBOL    XDATA    DWORD     measurement_timing_budget_us
      00010598H   SYMBOL    XDATA    BYTE      stop_variable
      00010599H   SYMBOL    XDATA    BYTE      return_state
      0001059AH   SYMBOL    XDATA    BYTE      reg_data_buffer
      0001059BH   SYMBOL    XDATA    ---       ref_spad_map
      000105A1H   SYMBOL    XDATA    ---       data_buffer
      000105A8H   SYMBOL    XDATA    BYTE      i

      ---         MODULE    ---      ---       SEEKFREE_DL1B
      0000080CH   PUBLIC    EDATA    WORD      dl1b_distance_mm
      0000080EH   PUBLIC    EDATA    BYTE      dl1b_finsh_flag
      0000080FH   PUBLIC    EDATA    BYTE      dl1b_init_flag
L251 LINKER/LOCATER V4.66.93.0                                                        04/10/2024  20:12:08  PAGE 63


      00000401H   PUBLIC    EDATA    BYTE      ?dl1b_iic_transfer_8bit_array?BYTE
      000000D0H   SFRSYM    DATA     BYTE      PSW
      0000009DH   SFRSYM    DATA     BYTE      IRCBAND
      00000097H   SFRSYM    DATA     BYTE      AUXR2
      000000EFH   SFRSYM    DATA     BYTE      AUXINTIF
      000000FDH   SFRSYM    DATA     BYTE      S4CON
      000000ACH   SFRSYM    DATA     BYTE      S3CON
      0000009AH   SFRSYM    DATA     BYTE      S2CON
      000000B7H   SFRSYM    DATA     BYTE      IPH
      000000CDH   SFRSYM    DATA     BYTE      SPSTAT
      000000DDH   SFRSYM    DATA     BYTE      T4T3M
      000000C1H   SFRSYM    DATA     BYTE      WDT_CONTR
      000000DFH   SFRSYM    DATA     BYTE      IP3
      000000F4H   SFRSYM    DATA     BYTE      USBCON
      000000B5H   SFRSYM    DATA     BYTE      IP2
      000000FFH   SFRSYM    DATA     BYTE      RSTCFG
      000000F9H   SFRSYM    DATA     BYTE      LINICR
      0000008EH   SFRSYM    DATA     BYTE      AUXR
      000000AFH   SFRSYM    DATA     BYTE      IE2
      000000C0H.7 SFRSYM    DATA     BIT       P47
      000000E8H.5 SFRSYM    DATA     BIT       P65
      000000E8H.3 SFRSYM    DATA     BIT       P63
      00000088H   SFRSYM    DATA     BYTE      TCON
      00000098H   SFRSYM    DATA     BYTE      SCON
      000000F1H   SFRSYM    DATA     BYTE      CANICR
      00000087H   SFRSYM    DATA     BYTE      PCON
      000000BCH   SFRSYM    DATA     BYTE      ADC_CONTR
      000000E7H   SFRSYM    DATA     BYTE      CMPCR2
      000000E6H   SFRSYM    DATA     BYTE      CMPCR1
      000000B8H   SFRSYM    DATA     BYTE      IP
      0000008FH   SFRSYM    DATA     BYTE      INTCLKO
      000000EEH   SFRSYM    DATA     BYTE      IP3H
      000000B6H   SFRSYM    DATA     BYTE      IP2H
      000000A8H   SFRSYM    DATA     BYTE      IE
      000000BBH   SFRSYM    DATA     BYTE      P_SW3
      000000BAH   SFRSYM    DATA     BYTE      P_SW2
      000000A2H   SFRSYM    DATA     BYTE      P_SW1
      000000CEH   SFRSYM    DATA     BYTE      SPCTL
      000000F8H   SFRSYM    DATA     BYTE      P7
      000000E8H   SFRSYM    DATA     BYTE      P6
      000000C8H   SFRSYM    DATA     BYTE      P5
      000000C0H   SFRSYM    DATA     BYTE      P4
      000000B0H   SFRSYM    DATA     BYTE      P3
      000000A0H   SFRSYM    DATA     BYTE      P2
      00000090H   SFRSYM    DATA     BYTE      P1
      00000080H   SFRSYM    DATA     BYTE      P0
      00FF7099H   SYMBOL    CODE     ---       dl1b_simiic_sendack
      00FF6531H   SYMBOL    CODE     ---       dl1b_read_ch
      00FF6D83H   SYMBOL    CODE     ---       dl1b_send_ch
      00FF724FH   SYMBOL    CODE     ---       dl1b_sccb_waitack
      00FF7291H   SYMBOL    CODE     ---       dl1b_simiic_delay

      00FF7291H   BLOCK     CODE     ---       LVL=0
      0001069DH   SYMBOL    XDATA    WORD      j
      00FF7291H   LINE      CODE     ---       #76
      00FF7291H   LINE      CODE     ---       #77
      00FF7291H   LINE      CODE     ---       #78
      00FF7299H   LINE      CODE     ---       #79
      00FF72B0H   LINE      CODE     ---       #80
      ---         BLOCKEND  ---      ---       LVL=0

      00FF7099H   BLOCK     CODE     ---       LVL=0
      0000089AH   SYMBOL    EDATA    BYTE      ack_dat
      00FF7099H   LINE      CODE     ---       #107
      00FF709DH   LINE      CODE     ---       #109
L251 LINKER/LOCATER V4.66.93.0                                                        04/10/2024  20:12:08  PAGE 64


      00FF70A0H   LINE      CODE     ---       #110
      00FF70A3H   LINE      CODE     ---       #111
      00FF70B1H   LINE      CODE     ---       #112
      00FF70B4H   LINE      CODE     ---       #113
      00FF70B7H   LINE      CODE     ---       #114
      00FF70BAH   LINE      CODE     ---       #115
      00FF70BDH   LINE      CODE     ---       #116
      00FF70C0H   LINE      CODE     ---       #117
      ---         BLOCKEND  ---      ---       LVL=0

      00FF724FH   BLOCK     CODE     ---       LVL=0
      00FF724FH   LINE      CODE     ---       #120
      00FF724FH   LINE      CODE     ---       #122
      00FF7252H   LINE      CODE     ---       #123
      00FF7255H   LINE      CODE     ---       #124
      00FF7258H   LINE      CODE     ---       #125
      00FF725BH   LINE      CODE     ---       #126
      00FF725EH   LINE      CODE     ---       #128
      00FF7261H   LINE      CODE     ---       #129
      00FF7265H   LINE      CODE     ---       #130
      00FF7265H   LINE      CODE     ---       #131
      00FF7268H   LINE      CODE     ---       #132
      00FF726BH   LINE      CODE     ---       #133
      00FF726FH   LINE      CODE     ---       #134
      ---         BLOCKEND  ---      ---       LVL=0

      00FF6D83H   BLOCK     CODE     ---       LVL=0
      0000089BH   SYMBOL    EDATA    BYTE      c
      00FF6D87H   BLOCK     CODE     NEAR LAB  LVL=1
      000106C8H   SYMBOL    XDATA    BYTE      i
      ---         BLOCKEND  ---      ---       LVL=1
      00FF6D83H   LINE      CODE     ---       #140
      00FF6D87H   LINE      CODE     ---       #141
      00FF6D87H   LINE      CODE     ---       #142
      00FF6D8DH   LINE      CODE     ---       #143
      00FF6D8FH   LINE      CODE     ---       #145
      00FF6D9BH   LINE      CODE     ---       #146
      00FF6D9EH   LINE      CODE     ---       #147
      00FF6DA8H   LINE      CODE     ---       #148
      00FF6DABH   LINE      CODE     ---       #149
      00FF6DAEH   LINE      CODE     ---       #150
      00FF6DB1H   LINE      CODE     ---       #151
      00FF6DB4H   LINE      CODE     ---       #152
      00FF6DC7H   LINE      CODE     ---       #153
      00FF6DCAH   LINE      CODE     ---       #154
      ---         BLOCKEND  ---      ---       LVL=0

      00FF6531H   BLOCK     CODE     ---       LVL=0
      0000089CH   SYMBOL    EDATA    BYTE      ack_x
      00FF6535H   BLOCK     CODE     NEAR LAB  LVL=1
      0001069FH   SYMBOL    XDATA    BYTE      i
      000106A0H   SYMBOL    XDATA    BYTE      c
      ---         BLOCKEND  ---      ---       LVL=1
      00FF6531H   LINE      CODE     ---       #160
      00FF6535H   LINE      CODE     ---       #161
      00FF6535H   LINE      CODE     ---       #164
      00FF653AH   LINE      CODE     ---       #165
      00FF653DH   LINE      CODE     ---       #166
      00FF6540H   LINE      CODE     ---       #167
      00FF6543H   LINE      CODE     ---       #168
      00FF654AH   LINE      CODE     ---       #170
      00FF654DH   LINE      CODE     ---       #171
      00FF6550H   LINE      CODE     ---       #172
      00FF6553H   LINE      CODE     ---       #173
      00FF6556H   LINE      CODE     ---       #174
L251 LINKER/LOCATER V4.66.93.0                                                        04/10/2024  20:12:08  PAGE 65


      00FF6559H   LINE      CODE     ---       #175
      00FF6560H   LINE      CODE     ---       #176
      00FF6563H   LINE      CODE     ---       #178
      00FF656DH   LINE      CODE     ---       #179
      00FF6584H   LINE      CODE     ---       #181
      00FF6587H   LINE      CODE     ---       #182
      00FF658AH   LINE      CODE     ---       #183
      00FF6591H   LINE      CODE     ---       #184
      00FF6595H   LINE      CODE     ---       #185
      ---         BLOCKEND  ---      ---       LVL=0
      00000401H   SYMBOL    EDATA    ---       write_data
      00000405H   SYMBOL    EDATA    DWORD     write_len
      00000409H   SYMBOL    EDATA    ---       read_data
      0000040DH   SYMBOL    EDATA    DWORD     read_len
      0001067AH   SYMBOL    XDATA    ---       data_buffer
      00000867H   SYMBOL    EDATA    INT       dl1b_distance_temp
      000102E4H   SYMBOL    XDATA    BYTE      return_state
      000102E5H   SYMBOL    XDATA    ---       data_buffer
      0001036EH   SYMBOL    XDATA    WORD      time_out_count

      ---         MODULE    ---      ---       SEEKFREE_FONT
      00FF211DH   PUBLIC    CODE     ---       oled_8x16
      00FF270DH   PUBLIC    CODE     ---       tft_ascii
      00FF2CFDH   PUBLIC    CODE     ---       oled_6x8
      000000D0H   SFRSYM    DATA     BYTE      PSW
      0000009DH   SFRSYM    DATA     BYTE      IRCBAND
      00000097H   SFRSYM    DATA     BYTE      AUXR2
      000000EFH   SFRSYM    DATA     BYTE      AUXINTIF
      000000FDH   SFRSYM    DATA     BYTE      S4CON
      000000ACH   SFRSYM    DATA     BYTE      S3CON
      0000009AH   SFRSYM    DATA     BYTE      S2CON
      000000B7H   SFRSYM    DATA     BYTE      IPH
      000000CDH   SFRSYM    DATA     BYTE      SPSTAT
      000000DDH   SFRSYM    DATA     BYTE      T4T3M
      000000C1H   SFRSYM    DATA     BYTE      WDT_CONTR
      000000DFH   SFRSYM    DATA     BYTE      IP3
      000000F4H   SFRSYM    DATA     BYTE      USBCON
      000000B5H   SFRSYM    DATA     BYTE      IP2
      000000FFH   SFRSYM    DATA     BYTE      RSTCFG
      000000F9H   SFRSYM    DATA     BYTE      LINICR
      0000008EH   SFRSYM    DATA     BYTE      AUXR
      000000AFH   SFRSYM    DATA     BYTE      IE2
      00000088H   SFRSYM    DATA     BYTE      TCON
      00000098H   SFRSYM    DATA     BYTE      SCON
      000000F1H   SFRSYM    DATA     BYTE      CANICR
      00000087H   SFRSYM    DATA     BYTE      PCON
      000000BCH   SFRSYM    DATA     BYTE      ADC_CONTR
      000000E7H   SFRSYM    DATA     BYTE      CMPCR2
      000000E6H   SFRSYM    DATA     BYTE      CMPCR1
      000000B8H   SFRSYM    DATA     BYTE      IP
      0000008FH   SFRSYM    DATA     BYTE      INTCLKO
      000000EEH   SFRSYM    DATA     BYTE      IP3H
      000000B6H   SFRSYM    DATA     BYTE      IP2H
      000000A8H   SFRSYM    DATA     BYTE      IE
      000000BBH   SFRSYM    DATA     BYTE      P_SW3
      000000BAH   SFRSYM    DATA     BYTE      P_SW2
      000000A2H   SFRSYM    DATA     BYTE      P_SW1
      000000CEH   SFRSYM    DATA     BYTE      SPCTL
      000000F8H   SFRSYM    DATA     BYTE      P7
      000000E8H   SFRSYM    DATA     BYTE      P6
      000000C8H   SFRSYM    DATA     BYTE      P5
      000000C0H   SFRSYM    DATA     BYTE      P4
      000000B0H   SFRSYM    DATA     BYTE      P3
      000000A0H   SFRSYM    DATA     BYTE      P2
      00000090H   SFRSYM    DATA     BYTE      P1
L251 LINKER/LOCATER V4.66.93.0                                                        04/10/2024  20:12:08  PAGE 66


      00000080H   SFRSYM    DATA     BYTE      P0

      ---         MODULE    ---      ---       SEEKFREE_ICM20602
      000004D0H   PUBLIC    EDATA    INT       icm20602_acc_x
      000004D2H   PUBLIC    EDATA    INT       icm20602_acc_y
      000004D4H   PUBLIC    EDATA    INT       icm20602_acc_z
      000004D6H   PUBLIC    EDATA    INT       icm20602_gyro_x
      000004D8H   PUBLIC    EDATA    INT       icm20602_gyro_y
      000004DAH   PUBLIC    EDATA    INT       icm20602_gyro_z
      000000D0H   SFRSYM    DATA     BYTE      PSW
      0000009DH   SFRSYM    DATA     BYTE      IRCBAND
      00000097H   SFRSYM    DATA     BYTE      AUXR2
      000000EFH   SFRSYM    DATA     BYTE      AUXINTIF
      000000FDH   SFRSYM    DATA     BYTE      S4CON
      000000ACH   SFRSYM    DATA     BYTE      S3CON
      0000009AH   SFRSYM    DATA     BYTE      S2CON
      000000B7H   SFRSYM    DATA     BYTE      IPH
      000000CDH   SFRSYM    DATA     BYTE      SPSTAT
      000000DDH   SFRSYM    DATA     BYTE      T4T3M
      000000C1H   SFRSYM    DATA     BYTE      WDT_CONTR
      000000DFH   SFRSYM    DATA     BYTE      IP3
      000000F4H   SFRSYM    DATA     BYTE      USBCON
      000000B5H   SFRSYM    DATA     BYTE      IP2
      000000FFH   SFRSYM    DATA     BYTE      RSTCFG
      000000F9H   SFRSYM    DATA     BYTE      LINICR
      0000008EH   SFRSYM    DATA     BYTE      AUXR
      000000AFH   SFRSYM    DATA     BYTE      IE2
      000000C0H.3 SFRSYM    DATA     BIT       P43
      000000C0H.2 SFRSYM    DATA     BIT       P42
      00000088H   SFRSYM    DATA     BYTE      TCON
      000000C0H.1 SFRSYM    DATA     BIT       P41
      00000098H   SFRSYM    DATA     BYTE      SCON
      000000C0H.0 SFRSYM    DATA     BIT       P40
      000000F1H   SFRSYM    DATA     BYTE      CANICR
      00000087H   SFRSYM    DATA     BYTE      PCON
      000000BCH   SFRSYM    DATA     BYTE      ADC_CONTR
      000000E7H   SFRSYM    DATA     BYTE      CMPCR2
      000000E6H   SFRSYM    DATA     BYTE      CMPCR1
      000000B8H   SFRSYM    DATA     BYTE      IP
      0000008FH   SFRSYM    DATA     BYTE      INTCLKO
      000000EEH   SFRSYM    DATA     BYTE      IP3H
      000000B6H   SFRSYM    DATA     BYTE      IP2H
      000000A8H   SFRSYM    DATA     BYTE      IE
      000000BBH   SFRSYM    DATA     BYTE      P_SW3
      000000BAH   SFRSYM    DATA     BYTE      P_SW2
      000000A2H   SFRSYM    DATA     BYTE      P_SW1
      000000CEH   SFRSYM    DATA     BYTE      SPCTL
      000000F8H   SFRSYM    DATA     BYTE      P7
      000000E8H   SFRSYM    DATA     BYTE      P6
      000000C8H   SFRSYM    DATA     BYTE      P5
      000000C0H   SFRSYM    DATA     BYTE      P4
      000000B0H   SFRSYM    DATA     BYTE      P3
      000000A0H   SFRSYM    DATA     BYTE      P2
      00000090H   SFRSYM    DATA     BYTE      P1
      00000080H   SFRSYM    DATA     BYTE      P0
      00FF71C8H   SYMBOL    CODE     ---       icm20602_read_register
      00FF6781H   SYMBOL    CODE     ---       icm20602_simspi_wr_byte
      00FF68E3H   SYMBOL    CODE     ---       icm20602_simspi_r_reg_bytes
      00FF70E9H   SYMBOL    CODE     ---       icm20602_simspi_r_reg_byte

      00FF6781H   BLOCK     CODE     ---       LVL=0
      0000089DH   SYMBOL    EDATA    BYTE      byte
      00FF6785H   BLOCK     CODE     NEAR LAB  LVL=1
      000106C9H   SYMBOL    XDATA    BYTE      i
      ---         BLOCKEND  ---      ---       LVL=1
L251 LINKER/LOCATER V4.66.93.0                                                        04/10/2024  20:12:08  PAGE 67


      00FF6781H   LINE      CODE     ---       #264
      00FF6785H   LINE      CODE     ---       #265
      00FF6785H   LINE      CODE     ---       #267
      00FF678CH   LINE      CODE     ---       #269
      00FF679AH   LINE      CODE     ---       #270
      00FF67A4H   LINE      CODE     ---       #271
      00FF67A7H   LINE      CODE     ---       #272
      00FF67AAH   LINE      CODE     ---       #273
      00FF67ADH   LINE      CODE     ---       #274
      00FF67B0H   LINE      CODE     ---       #275
      00FF67BEH   LINE      CODE     ---       #276
      00FF67D5H   LINE      CODE     ---       #277
      00FF67D9H   LINE      CODE     ---       #278
      ---         BLOCKEND  ---      ---       LVL=0
      00000869H   SYMBOL    EDATA    BYTE      cmd
      0000086AH   SYMBOL    EDATA    BYTE      val

      00FF70E9H   BLOCK     CODE     ---       LVL=0
      000007B9H   SYMBOL    EDATA    BYTE      cmd
      000007BAH   SYMBOL    EDATA    ---       val
      00FF70E9H   LINE      CODE     ---       #322
      00FF70F1H   LINE      CODE     ---       #324
      00FF70FDH   LINE      CODE     ---       #325
      00FF7104H   LINE      CODE     ---       #326
      00FF710FH   LINE      CODE     ---       #327
      ---         BLOCKEND  ---      ---       LVL=0

      00FF68E3H   BLOCK     CODE     ---       LVL=0
      000005ADH   SYMBOL    EDATA    BYTE      cmd
      000005AEH   SYMBOL    EDATA    ---       val
      000005B2H   SYMBOL    EDATA    DWORD     num
      00FF68EFH   BLOCK     CODE     NEAR LAB  LVL=1
      00010653H   SYMBOL    XDATA    DWORD     i
      ---         BLOCKEND  ---      ---       LVL=1
      00FF68E3H   LINE      CODE     ---       #337
      00FF68EFH   LINE      CODE     ---       #338
      00FF68EFH   LINE      CODE     ---       #339
      00FF68FBH   LINE      CODE     ---       #340
      00FF6907H   LINE      CODE     ---       #341
      00FF690EH   LINE      CODE     ---       #342
      00FF6910H   LINE      CODE     ---       #344
      00FF6925H   LINE      CODE     ---       #345
      00FF6939H   LINE      CODE     ---       #346
      ---         BLOCKEND  ---      ---       LVL=0
      0000086BH   SYMBOL    EDATA    BYTE      reg
      0000086CH   SYMBOL    EDATA    BYTE      dat

      00FF71C8H   BLOCK     CODE     ---       LVL=0
      0000089EH   SYMBOL    EDATA    BYTE      reg
      00FF71CCH   BLOCK     CODE     NEAR LAB  LVL=1
      000106CAH   SYMBOL    XDATA    BYTE      dat
      ---         BLOCKEND  ---      ---       LVL=1
      00FF71C8H   LINE      CODE     ---       #386
      00FF71CCH   LINE      CODE     ---       #387
      00FF71CCH   LINE      CODE     ---       #389
      00FF71CFH   LINE      CODE     ---       #390
      00FF71E2H   LINE      CODE     ---       #391
      00FF71E5H   LINE      CODE     ---       #392
      00FF71E9H   LINE      CODE     ---       #393
      ---         BLOCKEND  ---      ---       LVL=0
      000005B6H   SYMBOL    EDATA    BYTE      reg
      000005B7H   SYMBOL    EDATA    ---       dat
      000005BBH   SYMBOL    EDATA    DWORD     len
      0001067DH   SYMBOL    XDATA    BYTE      dat
      0000089FH   SYMBOL    EDATA    BYTE      return_state
L251 LINKER/LOCATER V4.66.93.0                                                        04/10/2024  20:12:08  PAGE 68


      0001067EH   SYMBOL    XDATA    WORD      timeout_count
      000105EEH   SYMBOL    XDATA    ---       dat
      000105F4H   SYMBOL    XDATA    ---       dat
      0000072FH   SYMBOL    EDATA    INT       acc_value
      00000731H   SYMBOL    EDATA    FLOAT     acc_data
      00000735H   SYMBOL    EDATA    INT       gyro_value
      00000737H   SYMBOL    EDATA    FLOAT     gyro_data
      00010680H   SYMBOL    XDATA    BYTE      val
      000008A0H   SYMBOL    EDATA    BYTE      return_state
      00010681H   SYMBOL    XDATA    WORD      timeout_count

      ---         MODULE    ---      ---       SEEKFREE_IMU660RA
      000004DCH   PUBLIC    EDATA    INT       imu660ra_acc_x
      000004DEH   PUBLIC    EDATA    INT       imu660ra_acc_y
      000004E0H   PUBLIC    EDATA    INT       imu660ra_acc_z
      000004E2H   PUBLIC    EDATA    INT       imu660ra_gyro_x
      000004E4H   PUBLIC    EDATA    INT       imu660ra_gyro_y
      000004E6H   PUBLIC    EDATA    INT       imu660ra_gyro_z
      000000D0H   SFRSYM    DATA     BYTE      PSW
      0000009DH   SFRSYM    DATA     BYTE      IRCBAND
      00000097H   SFRSYM    DATA     BYTE      AUXR2
      000000EFH   SFRSYM    DATA     BYTE      AUXINTIF
      000000FDH   SFRSYM    DATA     BYTE      S4CON
      000000ACH   SFRSYM    DATA     BYTE      S3CON
      0000009AH   SFRSYM    DATA     BYTE      S2CON
      000000B7H   SFRSYM    DATA     BYTE      IPH
      000000CDH   SFRSYM    DATA     BYTE      SPSTAT
      000000DDH   SFRSYM    DATA     BYTE      T4T3M
      000000C1H   SFRSYM    DATA     BYTE      WDT_CONTR
      000000DFH   SFRSYM    DATA     BYTE      IP3
      000000F4H   SFRSYM    DATA     BYTE      USBCON
      000000B5H   SFRSYM    DATA     BYTE      IP2
      000000FFH   SFRSYM    DATA     BYTE      RSTCFG
      000000F9H   SFRSYM    DATA     BYTE      LINICR
      0000008EH   SFRSYM    DATA     BYTE      AUXR
      000000AFH   SFRSYM    DATA     BYTE      IE2
      000000C0H.3 SFRSYM    DATA     BIT       P43
      000000C0H.2 SFRSYM    DATA     BIT       P42
      00000088H   SFRSYM    DATA     BYTE      TCON
      000000C0H.1 SFRSYM    DATA     BIT       P41
      00000098H   SFRSYM    DATA     BYTE      SCON
      000000C0H.0 SFRSYM    DATA     BIT       P40
      000000F1H   SFRSYM    DATA     BYTE      CANICR
      00000087H   SFRSYM    DATA     BYTE      PCON
      000000BCH   SFRSYM    DATA     BYTE      ADC_CONTR
      000000E7H   SFRSYM    DATA     BYTE      CMPCR2
      000000E6H   SFRSYM    DATA     BYTE      CMPCR1
      000000B8H   SFRSYM    DATA     BYTE      IP
      0000008FH   SFRSYM    DATA     BYTE      INTCLKO
      000000EEH   SFRSYM    DATA     BYTE      IP3H
      000000B6H   SFRSYM    DATA     BYTE      IP2H
      000000A8H   SFRSYM    DATA     BYTE      IE
      000000BBH   SFRSYM    DATA     BYTE      P_SW3
      000000BAH   SFRSYM    DATA     BYTE      P_SW2
      000000A2H   SFRSYM    DATA     BYTE      P_SW1
      000000CEH   SFRSYM    DATA     BYTE      SPCTL
      000000F8H   SFRSYM    DATA     BYTE      P7
      000000E8H   SFRSYM    DATA     BYTE      P6
      000000C8H   SFRSYM    DATA     BYTE      P5
      000000C0H   SFRSYM    DATA     BYTE      P4
      000000B0H   SFRSYM    DATA     BYTE      P3
      000000A0H   SFRSYM    DATA     BYTE      P2
      00000090H   SFRSYM    DATA     BYTE      P1
      00000080H   SFRSYM    DATA     BYTE      P0
      00FF7137H   SYMBOL    CODE     ---       imu660ra_read_register
L251 LINKER/LOCATER V4.66.93.0                                                        04/10/2024  20:12:08  PAGE 69


      00FF67DAH   SYMBOL    CODE     ---       imu660ra_simspi_wr_byte
      00FF6C0FH   SYMBOL    CODE     ---       imu660ra_simspi_r_reg_bytes

      00FF67DAH   BLOCK     CODE     ---       LVL=0
      000008A1H   SYMBOL    EDATA    BYTE      byte
      00FF67DEH   BLOCK     CODE     NEAR LAB  LVL=1
      000106CBH   SYMBOL    XDATA    BYTE      i
      ---         BLOCKEND  ---      ---       LVL=1
      00FF67DAH   LINE      CODE     ---       #294
      00FF67DEH   LINE      CODE     ---       #295
      00FF67DEH   LINE      CODE     ---       #297
      00FF67E5H   LINE      CODE     ---       #299
      00FF67F3H   LINE      CODE     ---       #300
      00FF67FDH   LINE      CODE     ---       #301
      00FF6800H   LINE      CODE     ---       #302
      00FF6803H   LINE      CODE     ---       #303
      00FF6806H   LINE      CODE     ---       #304
      00FF6809H   LINE      CODE     ---       #305
      00FF6817H   LINE      CODE     ---       #306
      00FF682EH   LINE      CODE     ---       #307
      00FF6832H   LINE      CODE     ---       #308
      ---         BLOCKEND  ---      ---       LVL=0
      0000086DH   SYMBOL    EDATA    BYTE      cmd
      0000086EH   SYMBOL    EDATA    BYTE      val
      000005BFH   SYMBOL    EDATA    BYTE      cmd
      000005C0H   SYMBOL    EDATA    ---       dat_addr
      000005C4H   SYMBOL    EDATA    DWORD     len

      00FF6C0FH   BLOCK     CODE     ---       LVL=0
      000005C8H   SYMBOL    EDATA    BYTE      cmd
      000005C9H   SYMBOL    EDATA    ---       val
      000005CDH   SYMBOL    EDATA    DWORD     num
      00FF6C0FH   LINE      CODE     ---       #365
      00FF6C1BH   LINE      CODE     ---       #367
      00FF6C27H   LINE      CODE     ---       #368
      00FF6C2EH   LINE      CODE     ---       #369
      00FF6C30H   LINE      CODE     ---       #371
      00FF6C45H   LINE      CODE     ---       #372
      00FF6C59H   LINE      CODE     ---       #373
      ---         BLOCKEND  ---      ---       LVL=0
      0000086FH   SYMBOL    EDATA    BYTE      reg
      00000870H   SYMBOL    EDATA    BYTE      dat
      000005D1H   SYMBOL    EDATA    BYTE      reg
      000005D2H   SYMBOL    EDATA    ---       dat
      000005D6H   SYMBOL    EDATA    DWORD     len

      00FF7137H   BLOCK     CODE     ---       LVL=0
      000008A2H   SYMBOL    EDATA    BYTE      reg
      00FF713BH   BLOCK     CODE     NEAR LAB  LVL=1
      000106A1H   SYMBOL    XDATA    ---       dat
      ---         BLOCKEND  ---      ---       LVL=1
      00FF7137H   LINE      CODE     ---       #413
      00FF713BH   LINE      CODE     ---       #414
      00FF713BH   LINE      CODE     ---       #416
      00FF713EH   LINE      CODE     ---       #417
      00FF7155H   LINE      CODE     ---       #418
      00FF7158H   LINE      CODE     ---       #419
      00FF715CH   LINE      CODE     ---       #420
      ---         BLOCKEND  ---      ---       LVL=0
      000005DAH   SYMBOL    EDATA    BYTE      reg
      000005DBH   SYMBOL    EDATA    ---       dat
      000005DFH   SYMBOL    EDATA    DWORD     len
      00010683H   SYMBOL    XDATA    BYTE      dat
      000008A3H   SYMBOL    EDATA    BYTE      return_state
      00010684H   SYMBOL    XDATA    WORD      timeout_count
L251 LINKER/LOCATER V4.66.93.0                                                        04/10/2024  20:12:08  PAGE 70


      000105C1H   SYMBOL    XDATA    ---       dat
      000105C8H   SYMBOL    XDATA    ---       dat
      0000073BH   SYMBOL    EDATA    INT       acc_value
      0000073DH   SYMBOL    EDATA    FLOAT     acc_dat
      00000741H   SYMBOL    EDATA    INT       gyro_value
      00000743H   SYMBOL    EDATA    FLOAT     gyro_dat
      000106CCH   SYMBOL    XDATA    BYTE      return_state

      ---         MODULE    ---      ---       SEEKFREE_IMU963RA
      000003DFH   PUBLIC    EDATA    INT       imu963ra_acc_x
      000003E1H   PUBLIC    EDATA    INT       imu963ra_acc_y
      000003E3H   PUBLIC    EDATA    INT       imu963ra_acc_z
      000003E5H   PUBLIC    EDATA    INT       imu963ra_mag_x
      000003E7H   PUBLIC    EDATA    INT       imu963ra_mag_y
      000003E9H   PUBLIC    EDATA    INT       imu963ra_mag_z
      000003EBH   PUBLIC    EDATA    INT       imu963ra_gyro_x
      000003EDH   PUBLIC    EDATA    INT       imu963ra_gyro_y
      000003EFH   PUBLIC    EDATA    INT       imu963ra_gyro_z
      000000D0H   SFRSYM    DATA     BYTE      PSW
      0000009DH   SFRSYM    DATA     BYTE      IRCBAND
      00000097H   SFRSYM    DATA     BYTE      AUXR2
      000000EFH   SFRSYM    DATA     BYTE      AUXINTIF
      000000FDH   SFRSYM    DATA     BYTE      S4CON
      000000ACH   SFRSYM    DATA     BYTE      S3CON
      0000009AH   SFRSYM    DATA     BYTE      S2CON
      000000B7H   SFRSYM    DATA     BYTE      IPH
      000000CDH   SFRSYM    DATA     BYTE      SPSTAT
      000000DDH   SFRSYM    DATA     BYTE      T4T3M
      000000C1H   SFRSYM    DATA     BYTE      WDT_CONTR
      000000DFH   SFRSYM    DATA     BYTE      IP3
      000000F4H   SFRSYM    DATA     BYTE      USBCON
      000000B5H   SFRSYM    DATA     BYTE      IP2
      000000FFH   SFRSYM    DATA     BYTE      RSTCFG
      000000F9H   SFRSYM    DATA     BYTE      LINICR
      0000008EH   SFRSYM    DATA     BYTE      AUXR
      000000AFH   SFRSYM    DATA     BYTE      IE2
      000000C0H.3 SFRSYM    DATA     BIT       P43
      000000C0H.2 SFRSYM    DATA     BIT       P42
      00000088H   SFRSYM    DATA     BYTE      TCON
      000000C0H.1 SFRSYM    DATA     BIT       P41
      00000098H   SFRSYM    DATA     BYTE      SCON
      000000C0H.0 SFRSYM    DATA     BIT       P40
      000000F1H   SFRSYM    DATA     BYTE      CANICR
      00000087H   SFRSYM    DATA     BYTE      PCON
      000000BCH   SFRSYM    DATA     BYTE      ADC_CONTR
      000000E7H   SFRSYM    DATA     BYTE      CMPCR2
      000000E6H   SFRSYM    DATA     BYTE      CMPCR1
      000000B8H   SFRSYM    DATA     BYTE      IP
      0000008FH   SFRSYM    DATA     BYTE      INTCLKO
      000000EEH   SFRSYM    DATA     BYTE      IP3H
      000000B6H   SFRSYM    DATA     BYTE      IP2H
      000000A8H   SFRSYM    DATA     BYTE      IE
      000000BBH   SFRSYM    DATA     BYTE      P_SW3
      000000BAH   SFRSYM    DATA     BYTE      P_SW2
      000000A2H   SFRSYM    DATA     BYTE      P_SW1
      000000CEH   SFRSYM    DATA     BYTE      SPCTL
      000000F8H   SFRSYM    DATA     BYTE      P7
      000000E8H   SFRSYM    DATA     BYTE      P6
      000000C8H   SFRSYM    DATA     BYTE      P5
      000000C0H   SFRSYM    DATA     BYTE      P4
      000000B0H   SFRSYM    DATA     BYTE      P3
      000000A0H   SFRSYM    DATA     BYTE      P2
      00000090H   SFRSYM    DATA     BYTE      P1
      00000080H   SFRSYM    DATA     BYTE      P0
      00FF6833H   SYMBOL    CODE     ---       imu963ra_simspi_wr_byte
L251 LINKER/LOCATER V4.66.93.0                                                        04/10/2024  20:12:08  PAGE 71


      00FF6390H   SYMBOL    CODE     ---       imu963ra_read_mag_register
      00FF7110H   SYMBOL    CODE     ---       imu963ra_read_acc_gyro_register
      00FF6FC2H   SYMBOL    CODE     ---       imu963ra_simspi_r_reg_byte
      00FF0026H   SYMBOL    CODE     ---       imu963ra_write_acc_gyro_register
      00FF7270H   SYMBOL    CODE     ---       imu963ra_simspi_w_reg_byte

      00FF6833H   BLOCK     CODE     ---       LVL=0
      000008A4H   SYMBOL    EDATA    BYTE      byte
      00FF6837H   BLOCK     CODE     NEAR LAB  LVL=1
      000106CDH   SYMBOL    XDATA    BYTE      i
      ---         BLOCKEND  ---      ---       LVL=1
      00FF6833H   LINE      CODE     ---       #331
      00FF6837H   LINE      CODE     ---       #332
      00FF6837H   LINE      CODE     ---       #334
      00FF683EH   LINE      CODE     ---       #336
      00FF684CH   LINE      CODE     ---       #337
      00FF6856H   LINE      CODE     ---       #338
      00FF6859H   LINE      CODE     ---       #339
      00FF685CH   LINE      CODE     ---       #340
      00FF685FH   LINE      CODE     ---       #341
      00FF6862H   LINE      CODE     ---       #342
      00FF6870H   LINE      CODE     ---       #343
      00FF6887H   LINE      CODE     ---       #344
      00FF688BH   LINE      CODE     ---       #345
      ---         BLOCKEND  ---      ---       LVL=0

      00FF7270H   BLOCK     CODE     ---       LVL=0
      00000871H   SYMBOL    EDATA    BYTE      cmd
      00000872H   SYMBOL    EDATA    BYTE      val
      00FF7270H   LINE      CODE     ---       #353
      00FF7278H   LINE      CODE     ---       #355
      00FF727BH   LINE      CODE     ---       #356
      00FF727FH   LINE      CODE     ---       #357
      00FF7286H   LINE      CODE     ---       #358
      00FF728DH   LINE      CODE     ---       #359
      00FF7290H   LINE      CODE     ---       #360
      ---         BLOCKEND  ---      ---       LVL=0

      00FF6FC2H   BLOCK     CODE     ---       LVL=0
      000007BEH   SYMBOL    EDATA    BYTE      cmd
      000007BFH   SYMBOL    EDATA    ---       val
      00FF6FC2H   LINE      CODE     ---       #391
      00FF6FCAH   LINE      CODE     ---       #393
      00FF6FCDH   LINE      CODE     ---       #394
      00FF6FD9H   LINE      CODE     ---       #395
      00FF6FE0H   LINE      CODE     ---       #396
      00FF6FEBH   LINE      CODE     ---       #397
      00FF6FEEH   LINE      CODE     ---       #398
      ---         BLOCKEND  ---      ---       LVL=0
      000005E3H   SYMBOL    EDATA    BYTE      cmd
      000005E4H   SYMBOL    EDATA    ---       val
      000005E8H   SYMBOL    EDATA    DWORD     num

      00FF0026H   BLOCK     CODE     ---       LVL=0
      00000873H   SYMBOL    EDATA    BYTE      reg
      00000874H   SYMBOL    EDATA    BYTE      dat
      00FF0026H   LINE      CODE     ---       #428
      00FF002EH   LINE      CODE     ---       #430
      00FF0031H   LINE      CODE     ---       #431
      00FF003CH   LINE      CODE     ---       #432
      00FF003FH   LINE      CODE     ---       #433
      ---         BLOCKEND  ---      ---       LVL=0

      00FF7110H   BLOCK     CODE     ---       LVL=0
      000008A5H   SYMBOL    EDATA    BYTE      reg
L251 LINKER/LOCATER V4.66.93.0                                                        04/10/2024  20:12:08  PAGE 72


      00FF7114H   BLOCK     CODE     NEAR LAB  LVL=1
      000106CEH   SYMBOL    XDATA    BYTE      dat
      ---         BLOCKEND  ---      ---       LVL=1
      00FF7110H   LINE      CODE     ---       #442
      00FF7114H   LINE      CODE     ---       #443
      00FF7114H   LINE      CODE     ---       #444
      00FF7119H   LINE      CODE     ---       #445
      00FF711CH   LINE      CODE     ---       #446
      00FF712FH   LINE      CODE     ---       #447
      00FF7132H   LINE      CODE     ---       #448
      00FF7136H   LINE      CODE     ---       #449
      ---         BLOCKEND  ---      ---       LVL=0
      000005ECH   SYMBOL    EDATA    BYTE      reg
      000005EDH   SYMBOL    EDATA    ---       dat
      000005F1H   SYMBOL    EDATA    DWORD     len
      00000841H   SYMBOL    EDATA    BYTE      addr
      00000842H   SYMBOL    EDATA    BYTE      reg
      00000843H   SYMBOL    EDATA    BYTE      dat
      00010686H   SYMBOL    XDATA    BYTE      return_state
      00010687H   SYMBOL    XDATA    WORD      timeout_count

      00FF6390H   BLOCK     CODE     ---       LVL=0
      00000875H   SYMBOL    EDATA    BYTE      addr
      00000876H   SYMBOL    EDATA    BYTE      reg
      00FF6398H   BLOCK     CODE     NEAR LAB  LVL=1
      000106A3H   SYMBOL    XDATA    WORD      timeout_count
      ---         BLOCKEND  ---      ---       LVL=1
      00FF6390H   LINE      CODE     ---       #508
      00FF6398H   LINE      CODE     ---       #509
      00FF6398H   LINE      CODE     ---       #510
      00FF63A0H   LINE      CODE     ---       #511
      00FF63AAH   LINE      CODE     ---       #512
      00FF63B8H   LINE      CODE     ---       #513
      00FF63C1H   LINE      CODE     ---       #514
      00FF63C9H   LINE      CODE     ---       #515
      00FF63D1H   LINE      CODE     ---       #517
      00FF63D3H   LINE      CODE     ---       #519
      00FF63EAH   LINE      CODE     ---       #521
      00FF63EAH   LINE      CODE     ---       #522
      00FF63EAH   LINE      CODE     ---       #523
      00FF63F1H   LINE      CODE     ---       #524
      00FF63F9H   LINE      CODE     ---       #525
      00FF63FEH   LINE      CODE     ---       #526
      ---         BLOCKEND  ---      ---       LVL=0
      00000877H   SYMBOL    EDATA    BYTE      addr
      00000878H   SYMBOL    EDATA    BYTE      reg
      00010657H   SYMBOL    XDATA    BYTE      return_state
      00010658H   SYMBOL    XDATA    BYTE      dat
      00010659H   SYMBOL    XDATA    WORD      timeout_count
      0001065BH   SYMBOL    XDATA    BYTE      return_state
      0001065CH   SYMBOL    XDATA    BYTE      dat
      0001065DH   SYMBOL    XDATA    WORD      timeout_count
      000105FAH   SYMBOL    XDATA    ---       dat
      00010600H   SYMBOL    XDATA    ---       dat
      000105CFH   SYMBOL    XDATA    BYTE      temp_status
      000105D0H   SYMBOL    XDATA    ---       dat
      00000747H   SYMBOL    EDATA    INT       acc_value
      00000749H   SYMBOL    EDATA    FLOAT     acc_dat
      0000074DH   SYMBOL    EDATA    INT       gyro_value
      0000074FH   SYMBOL    EDATA    FLOAT     gyro_dat
      00000753H   SYMBOL    EDATA    INT       mag_value
      00000755H   SYMBOL    EDATA    FLOAT     mag_dat
      000106CFH   SYMBOL    XDATA    BYTE      return_state

      ---         MODULE    ---      ---       SEEKFREE_IPS114_SPI
L251 LINKER/LOCATER V4.66.93.0                                                        04/10/2024  20:12:08  PAGE 73


      00FF701BH   PUBLIC    CODE     ---       ips114_writedata_16bit
      00FF698EH   PUBLIC    CODE     ---       ips114_writeDatai_16bit_simspi
      00FF6C5AH   PUBLIC    CODE     ---       ips114_writeIndex_simspi
      00FF737AH   PUBLIC    CODE     ---       ips114_writeIndex
      000004E8H   PUBLIC    EDATA    BYTE      ?ips114_showfloat_simspi?BYTE
      000004F4H   PUBLIC    EDATA    BYTE      ?ips114_showfloat?BYTE
      000000D0H   SFRSYM    DATA     BYTE      PSW
      0000009DH   SFRSYM    DATA     BYTE      IRCBAND
      00000097H   SFRSYM    DATA     BYTE      AUXR2
      000000EFH   SFRSYM    DATA     BYTE      AUXINTIF
      000000FDH   SFRSYM    DATA     BYTE      S4CON
      000000ACH   SFRSYM    DATA     BYTE      S3CON
      0000009AH   SFRSYM    DATA     BYTE      S2CON
      000000B7H   SFRSYM    DATA     BYTE      IPH
      000000CDH   SFRSYM    DATA     BYTE      SPSTAT
      000000DDH   SFRSYM    DATA     BYTE      T4T3M
      000000C1H   SFRSYM    DATA     BYTE      WDT_CONTR
      000000DFH   SFRSYM    DATA     BYTE      IP3
      000000F4H   SFRSYM    DATA     BYTE      USBCON
      000000B5H   SFRSYM    DATA     BYTE      IP2
      000000FFH   SFRSYM    DATA     BYTE      RSTCFG
      000000F9H   SFRSYM    DATA     BYTE      LINICR
      0000008EH   SFRSYM    DATA     BYTE      AUXR
      000000AFH   SFRSYM    DATA     BYTE      IE2
      000000A0H.7 SFRSYM    DATA     BIT       P27
      000000A0H.5 SFRSYM    DATA     BIT       P25
      00000088H   SFRSYM    DATA     BYTE      TCON
      000000A0H.3 SFRSYM    DATA     BIT       P23
      00000098H   SFRSYM    DATA     BYTE      SCON
      000000A0H.2 SFRSYM    DATA     BIT       P22
      000000A0H.1 SFRSYM    DATA     BIT       P21
      000000A0H.0 SFRSYM    DATA     BIT       P20
      000000F1H   SFRSYM    DATA     BYTE      CANICR
      00000087H   SFRSYM    DATA     BYTE      PCON
      000000BCH   SFRSYM    DATA     BYTE      ADC_CONTR
      000000E7H   SFRSYM    DATA     BYTE      CMPCR2
      000000E6H   SFRSYM    DATA     BYTE      CMPCR1
      000000B8H   SFRSYM    DATA     BYTE      IP
      0000008FH   SFRSYM    DATA     BYTE      INTCLKO
      000000EEH   SFRSYM    DATA     BYTE      IP3H
      000000B6H   SFRSYM    DATA     BYTE      IP2H
      000000A8H   SFRSYM    DATA     BYTE      IE
      000000BBH   SFRSYM    DATA     BYTE      P_SW3
      000000BAH   SFRSYM    DATA     BYTE      P_SW2
      000000A2H   SFRSYM    DATA     BYTE      P_SW1
      000000CEH   SFRSYM    DATA     BYTE      SPCTL
      000000F8H   SFRSYM    DATA     BYTE      P7
      000000E8H   SFRSYM    DATA     BYTE      P6
      000000C8H   SFRSYM    DATA     BYTE      P5
      000000C0H   SFRSYM    DATA     BYTE      P4
      000000B0H   SFRSYM    DATA     BYTE      P3
      000000A0H   SFRSYM    DATA     BYTE      P2
      00000090H   SFRSYM    DATA     BYTE      P1
      00000080H   SFRSYM    DATA     BYTE      P0

      00FF6C5AH   BLOCK     CODE     ---       LVL=0
      000008A6H   SYMBOL    EDATA    BYTE      dat
      00FF6C5EH   BLOCK     CODE     NEAR LAB  LVL=1
      000106D0H   SYMBOL    XDATA    BYTE      i
      ---         BLOCKEND  ---      ---       LVL=1
      00FF6C5AH   LINE      CODE     ---       #61
      00FF6C5EH   LINE      CODE     ---       #62
      00FF6C5EH   LINE      CODE     ---       #63
      00FF6C64H   LINE      CODE     ---       #64
      00FF6C67H   LINE      CODE     ---       #65
L251 LINKER/LOCATER V4.66.93.0                                                        04/10/2024  20:12:08  PAGE 74


      00FF6C6AH   LINE      CODE     ---       #67
      00FF6C6DH   LINE      CODE     ---       #69
      00FF6C6FH   LINE      CODE     ---       #71
      00FF6C7BH   LINE      CODE     ---       #72
      00FF6C7EH   LINE      CODE     ---       #73
      00FF6C81H   LINE      CODE     ---       #75
      00FF6C84H   LINE      CODE     ---       #76
      00FF6C8EH   LINE      CODE     ---       #77
      00FF6CA1H   LINE      CODE     ---       #78
      00FF6CA4H   LINE      CODE     ---       #79
      ---         BLOCKEND  ---      ---       LVL=0
      000008A7H   SYMBOL    EDATA    BYTE      dat
      000106D1H   SYMBOL    XDATA    BYTE      i

      00FF698EH   BLOCK     CODE     ---       LVL=0
      00000879H   SYMBOL    EDATA    WORD      dat
      00FF6992H   BLOCK     CODE     NEAR LAB  LVL=1
      000106D2H   SYMBOL    XDATA    BYTE      i
      ---         BLOCKEND  ---      ---       LVL=1
      00FF698EH   LINE      CODE     ---       #115
      00FF6992H   LINE      CODE     ---       #116
      00FF6992H   LINE      CODE     ---       #117
      00FF6998H   LINE      CODE     ---       #118
      00FF699BH   LINE      CODE     ---       #119
      00FF699EH   LINE      CODE     ---       #120
      00FF69A1H   LINE      CODE     ---       #121
      00FF69A3H   LINE      CODE     ---       #123
      00FF69B8H   LINE      CODE     ---       #124
      00FF69BBH   LINE      CODE     ---       #125
      00FF69BEH   LINE      CODE     ---       #127
      00FF69C1H   LINE      CODE     ---       #128
      00FF69CBH   LINE      CODE     ---       #129
      00FF69DEH   LINE      CODE     ---       #130
      00FF69E1H   LINE      CODE     ---       #131
      ---         BLOCKEND  ---      ---       LVL=0
      00000661H   SYMBOL    EDATA    WORD      x1
      00000663H   SYMBOL    EDATA    WORD      y1
      00000665H   SYMBOL    EDATA    WORD      x2
      00000667H   SYMBOL    EDATA    WORD      y2
      00000810H   SYMBOL    EDATA    WORD      color
      000106A5H   SYMBOL    XDATA    WORD      i
      00000812H   SYMBOL    EDATA    WORD      j
      00000759H   SYMBOL    EDATA    WORD      x
      0000075BH   SYMBOL    EDATA    WORD      y
      0000075DH   SYMBOL    EDATA    WORD      color
      0000075FH   SYMBOL    EDATA    WORD      x
      00000761H   SYMBOL    EDATA    WORD      y
      00000763H   SYMBOL    EDATA    CHAR      dat
      000106A7H   SYMBOL    XDATA    BYTE      i
      00000764H   SYMBOL    EDATA    BYTE      j
      000106A8H   SYMBOL    XDATA    BYTE      temp
      00000669H   SYMBOL    EDATA    WORD      x
      0000066BH   SYMBOL    EDATA    WORD      y
      0000066DH   SYMBOL    EDATA    ---       dat
      000106A9H   SYMBOL    XDATA    WORD      j
      000007C3H   SYMBOL    EDATA    WORD      x
      000007C5H   SYMBOL    EDATA    WORD      y
      000007C7H   SYMBOL    EDATA    CHAR      dat
      0001065FH   SYMBOL    XDATA    ---       a
      00010662H   SYMBOL    XDATA    BYTE      i
      000007C8H   SYMBOL    EDATA    WORD      x
      000007CAH   SYMBOL    EDATA    WORD      y
      000007CCH   SYMBOL    EDATA    BYTE      dat
      00010663H   SYMBOL    XDATA    ---       a
      00010666H   SYMBOL    XDATA    BYTE      i
L251 LINKER/LOCATER V4.66.93.0                                                        04/10/2024  20:12:08  PAGE 75


      00000765H   SYMBOL    EDATA    WORD      x
      00000767H   SYMBOL    EDATA    WORD      y
      00000769H   SYMBOL    EDATA    INT       dat
      00010606H   SYMBOL    XDATA    ---       a
      0001060BH   SYMBOL    XDATA    BYTE      i
      0000076BH   SYMBOL    EDATA    WORD      x
      0000076DH   SYMBOL    EDATA    WORD      y
      0000076FH   SYMBOL    EDATA    WORD      dat
      0001060CH   SYMBOL    XDATA    ---       a
      00010611H   SYMBOL    XDATA    BYTE      i
      000005F5H   SYMBOL    EDATA    WORD      x
      000005F7H   SYMBOL    EDATA    WORD      y
      000005F9H   SYMBOL    EDATA    LONG      dat
      000005FDH   SYMBOL    EDATA    BYTE      num
      0001054EH   SYMBOL    XDATA    ---       buff
      00010570H   SYMBOL    XDATA    BYTE      length
      000004E8H   SYMBOL    EDATA    WORD      x
      000004EAH   SYMBOL    EDATA    WORD      y
      000004ECH   SYMBOL    EDATA    FLOAT     dat
      000004F0H   SYMBOL    EDATA    BYTE      num
      000004F1H   SYMBOL    EDATA    BYTE      pointnum
      000104C0H   SYMBOL    XDATA    BYTE      length
      000104C1H   SYMBOL    XDATA    ---       buff
      000104E3H   SYMBOL    XDATA    CHAR      start
      000004F2H   SYMBOL    EDATA    CHAR      end
      000004F3H   SYMBOL    EDATA    CHAR      point

      00FF737AH   BLOCK     CODE     ---       LVL=0
      000008A8H   SYMBOL    EDATA    BYTE      dat
      00FF737AH   LINE      CODE     ---       #594
      00FF737EH   LINE      CODE     ---       #596
      00FF7381H   LINE      CODE     ---       #597
      00FF7384H   LINE      CODE     ---       #599
      00FF738BH   LINE      CODE     ---       #600
      00FF738EH   LINE      CODE     ---       #601
      ---         BLOCKEND  ---      ---       LVL=0
      000008A9H   SYMBOL    EDATA    BYTE      dat

      00FF701BH   BLOCK     CODE     ---       LVL=0
      0000087BH   SYMBOL    EDATA    WORD      dat
      00FF701FH   BLOCK     CODE     NEAR LAB  LVL=1
      000106ABH   SYMBOL    XDATA    ---       dat1
      ---         BLOCKEND  ---      ---       LVL=1
      00FF701BH   LINE      CODE     ---       #626
      00FF701FH   LINE      CODE     ---       #627
      00FF701FH   LINE      CODE     ---       #629
      00FF7027H   LINE      CODE     ---       #630
      00FF702FH   LINE      CODE     ---       #631
      00FF7032H   LINE      CODE     ---       #632
      00FF7035H   LINE      CODE     ---       #633
      00FF703CH   LINE      CODE     ---       #634
      00FF7043H   LINE      CODE     ---       #635
      00FF7046H   LINE      CODE     ---       #636
      ---         BLOCKEND  ---      ---       LVL=0
      00000671H   SYMBOL    EDATA    WORD      x1
      00000673H   SYMBOL    EDATA    WORD      y1
      00000675H   SYMBOL    EDATA    WORD      x2
      00000677H   SYMBOL    EDATA    WORD      y2
      00000814H   SYMBOL    EDATA    WORD      color
      000106ADH   SYMBOL    XDATA    WORD      i
      00000816H   SYMBOL    EDATA    WORD      j
      00000771H   SYMBOL    EDATA    WORD      x
      00000773H   SYMBOL    EDATA    WORD      y
      00000775H   SYMBOL    EDATA    WORD      color
      00000777H   SYMBOL    EDATA    WORD      x
L251 LINKER/LOCATER V4.66.93.0                                                        04/10/2024  20:12:08  PAGE 76


      00000779H   SYMBOL    EDATA    WORD      y
      0000077BH   SYMBOL    EDATA    CHAR      dat
      000106AFH   SYMBOL    XDATA    BYTE      i
      0000077CH   SYMBOL    EDATA    BYTE      j
      000106B0H   SYMBOL    XDATA    BYTE      temp
      00000679H   SYMBOL    EDATA    WORD      x
      0000067BH   SYMBOL    EDATA    WORD      y
      0000067DH   SYMBOL    EDATA    ---       dat
      000106B1H   SYMBOL    XDATA    WORD      j
      000007CDH   SYMBOL    EDATA    WORD      x
      000007CFH   SYMBOL    EDATA    WORD      y
      000007D1H   SYMBOL    EDATA    CHAR      dat
      00010667H   SYMBOL    XDATA    ---       a
      0001066AH   SYMBOL    XDATA    BYTE      i
      000007D2H   SYMBOL    EDATA    WORD      x
      000007D4H   SYMBOL    EDATA    WORD      y
      000007D6H   SYMBOL    EDATA    BYTE      dat
      0001066BH   SYMBOL    XDATA    ---       a
      0001066EH   SYMBOL    XDATA    BYTE      i
      0000077DH   SYMBOL    EDATA    WORD      x
      0000077FH   SYMBOL    EDATA    WORD      y
      00000781H   SYMBOL    EDATA    INT       dat
      00010612H   SYMBOL    XDATA    ---       a
      00010617H   SYMBOL    XDATA    BYTE      i
      00000783H   SYMBOL    EDATA    WORD      x
      00000785H   SYMBOL    EDATA    WORD      y
      00000787H   SYMBOL    EDATA    WORD      dat
      00010618H   SYMBOL    XDATA    ---       a
      0001061DH   SYMBOL    XDATA    BYTE      i
      000005FEH   SYMBOL    EDATA    WORD      x
      00000600H   SYMBOL    EDATA    WORD      y
      00000602H   SYMBOL    EDATA    LONG      dat
      00000606H   SYMBOL    EDATA    BYTE      num
      00010571H   SYMBOL    XDATA    ---       buff
      00010593H   SYMBOL    XDATA    BYTE      length
      000004F4H   SYMBOL    EDATA    WORD      x
      000004F6H   SYMBOL    EDATA    WORD      y
      000004F8H   SYMBOL    EDATA    FLOAT     dat
      000004FCH   SYMBOL    EDATA    BYTE      num
      000004FDH   SYMBOL    EDATA    BYTE      pointnum
      000104E4H   SYMBOL    XDATA    BYTE      length
      000104E5H   SYMBOL    XDATA    ---       buff
      00010507H   SYMBOL    XDATA    CHAR      start
      000004FEH   SYMBOL    EDATA    CHAR      end
      000004FFH   SYMBOL    EDATA    CHAR      point

      ---         MODULE    ---      ---       SEEKFREE_MPU6050
      00000500H   PUBLIC    EDATA    INT       mpu6050_acc_x
      00000502H   PUBLIC    EDATA    INT       mpu6050_acc_y
      00000504H   PUBLIC    EDATA    INT       mpu6050_acc_z
      00000506H   PUBLIC    EDATA    INT       mpu6050_gyro_x
      00000508H   PUBLIC    EDATA    INT       mpu6050_gyro_y
      0000050AH   PUBLIC    EDATA    INT       mpu6050_gyro_z
      000000D0H   SFRSYM    DATA     BYTE      PSW
      0000009DH   SFRSYM    DATA     BYTE      IRCBAND
      00000097H   SFRSYM    DATA     BYTE      AUXR2
      000000EFH   SFRSYM    DATA     BYTE      AUXINTIF
      000000FDH   SFRSYM    DATA     BYTE      S4CON
      000000ACH   SFRSYM    DATA     BYTE      S3CON
      0000009AH   SFRSYM    DATA     BYTE      S2CON
      000000B7H   SFRSYM    DATA     BYTE      IPH
      000000CDH   SFRSYM    DATA     BYTE      SPSTAT
      000000DDH   SFRSYM    DATA     BYTE      T4T3M
      000000C1H   SFRSYM    DATA     BYTE      WDT_CONTR
      000000DFH   SFRSYM    DATA     BYTE      IP3
L251 LINKER/LOCATER V4.66.93.0                                                        04/10/2024  20:12:08  PAGE 77


      000000F4H   SFRSYM    DATA     BYTE      USBCON
      000000B5H   SFRSYM    DATA     BYTE      IP2
      000000FFH   SFRSYM    DATA     BYTE      RSTCFG
      000000F9H   SFRSYM    DATA     BYTE      LINICR
      0000008EH   SFRSYM    DATA     BYTE      AUXR
      000000AFH   SFRSYM    DATA     BYTE      IE2
      00000088H   SFRSYM    DATA     BYTE      TCON
      000000C0H.1 SFRSYM    DATA     BIT       P41
      00000098H   SFRSYM    DATA     BYTE      SCON
      000000C0H.0 SFRSYM    DATA     BIT       P40
      000000F1H   SFRSYM    DATA     BYTE      CANICR
      00000087H   SFRSYM    DATA     BYTE      PCON
      000000BCH   SFRSYM    DATA     BYTE      ADC_CONTR
      000000E7H   SFRSYM    DATA     BYTE      CMPCR2
      000000E6H   SFRSYM    DATA     BYTE      CMPCR1
      000000B8H   SFRSYM    DATA     BYTE      IP
      0000008FH   SFRSYM    DATA     BYTE      INTCLKO
      000000EEH   SFRSYM    DATA     BYTE      IP3H
      000000B6H   SFRSYM    DATA     BYTE      IP2H
      000000A8H   SFRSYM    DATA     BYTE      IE
      000000BBH   SFRSYM    DATA     BYTE      P_SW3
      000000BAH   SFRSYM    DATA     BYTE      P_SW2
      000000A2H   SFRSYM    DATA     BYTE      P_SW1
      000000CEH   SFRSYM    DATA     BYTE      SPCTL
      000000F8H   SFRSYM    DATA     BYTE      P7
      000000E8H   SFRSYM    DATA     BYTE      P6
      000000C8H   SFRSYM    DATA     BYTE      P5
      000000C0H   SFRSYM    DATA     BYTE      P4
      000000B0H   SFRSYM    DATA     BYTE      P3
      000000A0H   SFRSYM    DATA     BYTE      P2
      00000090H   SFRSYM    DATA     BYTE      P1
      00000080H   SFRSYM    DATA     BYTE      P0
      00FF73CCH   SYMBOL    CODE     ---       mpu6050_simiic_start
      00FF733AH   SYMBOL    CODE     ---       mpu6050_simiic_stop
      00FF70C1H   SYMBOL    CODE     ---       mpu6050_simiic_sendack
      00FF72B1H   SYMBOL    CODE     ---       mpu6050_simiic_delay

      00FF72B1H   BLOCK     CODE     ---       LVL=0
      000106B3H   SYMBOL    XDATA    WORD      j
      00FF72B1H   LINE      CODE     ---       #52
      00FF72B1H   LINE      CODE     ---       #53
      00FF72B1H   LINE      CODE     ---       #54
      00FF72B9H   LINE      CODE     ---       #55
      00FF72D0H   LINE      CODE     ---       #56
      ---         BLOCKEND  ---      ---       LVL=0

      00FF73CCH   BLOCK     CODE     ---       LVL=0
      00FF73CCH   LINE      CODE     ---       #59
      00FF73CCH   LINE      CODE     ---       #61
      00FF73CFH   LINE      CODE     ---       #62
      00FF73D2H   LINE      CODE     ---       #63
      00FF73D5H   LINE      CODE     ---       #64
      00FF73D8H   LINE      CODE     ---       #65
      00FF73DBH   LINE      CODE     ---       #66
      00FF73DEH   LINE      CODE     ---       #67
      ---         BLOCKEND  ---      ---       LVL=0

      00FF733AH   BLOCK     CODE     ---       LVL=0
      00FF733AH   LINE      CODE     ---       #70
      00FF733AH   LINE      CODE     ---       #72
      00FF733DH   LINE      CODE     ---       #73
      00FF7340H   LINE      CODE     ---       #74
      00FF7343H   LINE      CODE     ---       #75
      00FF7346H   LINE      CODE     ---       #76
      00FF7349H   LINE      CODE     ---       #77
L251 LINKER/LOCATER V4.66.93.0                                                        04/10/2024  20:12:08  PAGE 78


      00FF734CH   LINE      CODE     ---       #78
      00FF734FH   LINE      CODE     ---       #79
      ---         BLOCKEND  ---      ---       LVL=0

      00FF70C1H   BLOCK     CODE     ---       LVL=0
      000008AAH   SYMBOL    EDATA    BYTE      ack_dat
      00FF70C1H   LINE      CODE     ---       #83
      00FF70C5H   LINE      CODE     ---       #85
      00FF70C8H   LINE      CODE     ---       #86
      00FF70CBH   LINE      CODE     ---       #87
      00FF70D9H   LINE      CODE     ---       #88
      00FF70DCH   LINE      CODE     ---       #89
      00FF70DFH   LINE      CODE     ---       #90
      00FF70E2H   LINE      CODE     ---       #91
      00FF70E5H   LINE      CODE     ---       #92
      00FF70E8H   LINE      CODE     ---       #93
      ---         BLOCKEND  ---      ---       LVL=0
      000008ABH   SYMBOL    EDATA    BYTE      c
      000106D3H   SYMBOL    XDATA    BYTE      i
      000008ACH   SYMBOL    EDATA    BYTE      ack_x
      000106B5H   SYMBOL    XDATA    BYTE      i
      000106B6H   SYMBOL    XDATA    BYTE      c
      00000844H   SYMBOL    EDATA    BYTE      dev_add
      00000845H   SYMBOL    EDATA    BYTE      reg
      00000846H   SYMBOL    EDATA    BYTE      dat
      0000087DH   SYMBOL    EDATA    BYTE      dev_add
      0000087EH   SYMBOL    EDATA    BYTE      reg
      000106D4H   SYMBOL    XDATA    BYTE      dat
      000006C0H   SYMBOL    EDATA    BYTE      dev_add
      000006C1H   SYMBOL    EDATA    BYTE      reg
      000006C2H   SYMBOL    EDATA    ---       dat_add
      000006C6H   SYMBOL    EDATA    BYTE      num
      0001061EH   SYMBOL    XDATA    ---       dat
      00010624H   SYMBOL    XDATA    ---       dat

      ---         MODULE    ---      ---       SEEKFREE_OLED
      00FF6F25H   PUBLIC    CODE     ---       oled_set_pos
      00FF6CA5H   PUBLIC    CODE     ---       oled_wrcmd
      00FF6CF0H   PUBLIC    CODE     ---       oled_wrdat
      00FF6E85H   PUBLIC    CODE     ---       oled_set_pos_spi
      00FF5991H   PUBLIC    CODE     ---       oled_printf_float_spi
      00FF738FH   PUBLIC    CODE     ---       oled_wrcmd_spi
      00FF73A4H   PUBLIC    CODE     ---       oled_wrdat_spi
      00FF6722H   PUBLIC    CODE     ---       oled_fill_spi
      00FF5BEDH   PUBLIC    CODE     ---       oled_p6x8str_spi
      00FF5D8DH   PUBLIC    CODE     ---       oled_init_spi
      0000023EH   PUBLIC    EDATA    BYTE      ?oled_printf_float?BYTE
      0000026EH   PUBLIC    EDATA    BYTE      ?oled_printf_float_spi?BYTE
      000000D0H   SFRSYM    DATA     BYTE      PSW
      0000009DH   SFRSYM    DATA     BYTE      IRCBAND
      00000097H   SFRSYM    DATA     BYTE      AUXR2
      000000EFH   SFRSYM    DATA     BYTE      AUXINTIF
      000000FDH   SFRSYM    DATA     BYTE      S4CON
      000000ACH   SFRSYM    DATA     BYTE      S3CON
      0000009AH   SFRSYM    DATA     BYTE      S2CON
      000000B7H   SFRSYM    DATA     BYTE      IPH
      000000CDH   SFRSYM    DATA     BYTE      SPSTAT
      000000DDH   SFRSYM    DATA     BYTE      T4T3M
      000000C1H   SFRSYM    DATA     BYTE      WDT_CONTR
      000000DFH   SFRSYM    DATA     BYTE      IP3
      000000F4H   SFRSYM    DATA     BYTE      USBCON
      000000B5H   SFRSYM    DATA     BYTE      IP2
      000000FFH   SFRSYM    DATA     BYTE      RSTCFG
      000000F9H   SFRSYM    DATA     BYTE      LINICR
      0000008EH   SFRSYM    DATA     BYTE      AUXR
L251 LINKER/LOCATER V4.66.93.0                                                        04/10/2024  20:12:08  PAGE 79


      000000AFH   SFRSYM    DATA     BYTE      IE2
      000000A0H.5 SFRSYM    DATA     BIT       P25
      00000088H   SFRSYM    DATA     BYTE      TCON
      000000A0H.3 SFRSYM    DATA     BIT       P23
      00000098H   SFRSYM    DATA     BYTE      SCON
      000000A0H.2 SFRSYM    DATA     BIT       P22
      000000A0H.1 SFRSYM    DATA     BIT       P21
      000000A0H.0 SFRSYM    DATA     BIT       P20
      000000F1H   SFRSYM    DATA     BYTE      CANICR
      00000087H   SFRSYM    DATA     BYTE      PCON
      000000BCH   SFRSYM    DATA     BYTE      ADC_CONTR
      000000E7H   SFRSYM    DATA     BYTE      CMPCR2
      000000E6H   SFRSYM    DATA     BYTE      CMPCR1
      000000B8H   SFRSYM    DATA     BYTE      IP
      0000008FH   SFRSYM    DATA     BYTE      INTCLKO
      000000EEH   SFRSYM    DATA     BYTE      IP3H
      000000B6H   SFRSYM    DATA     BYTE      IP2H
      000000A8H   SFRSYM    DATA     BYTE      IE
      000000BBH   SFRSYM    DATA     BYTE      P_SW3
      000000BAH   SFRSYM    DATA     BYTE      P_SW2
      000000A2H   SFRSYM    DATA     BYTE      P_SW1
      000000CEH   SFRSYM    DATA     BYTE      SPCTL
      000000F8H   SFRSYM    DATA     BYTE      P7
      000000E8H   SFRSYM    DATA     BYTE      P6
      000000C8H   SFRSYM    DATA     BYTE      P5
      000000C0H   SFRSYM    DATA     BYTE      P4
      000000B0H   SFRSYM    DATA     BYTE      P3
      000000A0H   SFRSYM    DATA     BYTE      P2
      00000090H   SFRSYM    DATA     BYTE      P1
      00000080H   SFRSYM    DATA     BYTE      P0

      00FF6CF0H   BLOCK     CODE     ---       LVL=0
      000008ADH   SYMBOL    EDATA    BYTE      dat
      00FF6CF4H   BLOCK     CODE     NEAR LAB  LVL=1
      000106D5H   SYMBOL    XDATA    BYTE      i
      ---         BLOCKEND  ---      ---       LVL=1
      00FF6CF0H   LINE      CODE     ---       #47
      00FF6CF4H   LINE      CODE     ---       #48
      00FF6CF4H   LINE      CODE     ---       #49
      00FF6CFAH   LINE      CODE     ---       #51
      00FF6CFDH   LINE      CODE     ---       #52
      00FF6D00H   LINE      CODE     ---       #53
      00FF6D03H   LINE      CODE     ---       #54
      00FF6D05H   LINE      CODE     ---       #56
      00FF6D11H   LINE      CODE     ---       #57
      00FF6D14H   LINE      CODE     ---       #58
      00FF6D17H   LINE      CODE     ---       #60
      00FF6D1AH   LINE      CODE     ---       #61
      00FF6D24H   LINE      CODE     ---       #62
      00FF6D37H   LINE      CODE     ---       #63
      00FF6D3AH   LINE      CODE     ---       #64
      ---         BLOCKEND  ---      ---       LVL=0

      00FF6CA5H   BLOCK     CODE     ---       LVL=0
      000008AEH   SYMBOL    EDATA    BYTE      cmd
      00FF6CA9H   BLOCK     CODE     NEAR LAB  LVL=1
      000106D6H   SYMBOL    XDATA    BYTE      i
      ---         BLOCKEND  ---      ---       LVL=1
      00FF6CA5H   LINE      CODE     ---       #98
      00FF6CA9H   LINE      CODE     ---       #99
      00FF6CA9H   LINE      CODE     ---       #100
      00FF6CAFH   LINE      CODE     ---       #102
      00FF6CB2H   LINE      CODE     ---       #103
      00FF6CB5H   LINE      CODE     ---       #104
      00FF6CB8H   LINE      CODE     ---       #106
L251 LINKER/LOCATER V4.66.93.0                                                        04/10/2024  20:12:08  PAGE 80


      00FF6CBAH   LINE      CODE     ---       #108
      00FF6CC6H   LINE      CODE     ---       #109
      00FF6CC9H   LINE      CODE     ---       #110
      00FF6CCCH   LINE      CODE     ---       #112
      00FF6CCFH   LINE      CODE     ---       #113
      00FF6CD9H   LINE      CODE     ---       #114
      00FF6CECH   LINE      CODE     ---       #115
      00FF6CEFH   LINE      CODE     ---       #116
      ---         BLOCKEND  ---      ---       LVL=0
      00000789H   SYMBOL    EDATA    WORD      hex
      0000078BH   SYMBOL    EDATA    ---       Print
      000106B7H   SYMBOL    XDATA    BYTE      hexcheck
      000106B8H   SYMBOL    XDATA    BYTE      TEMP

      00FF6F25H   BLOCK     CODE     ---       LVL=0
      0000087FH   SYMBOL    EDATA    BYTE      x
      00000880H   SYMBOL    EDATA    BYTE      y
      00FF6F25H   LINE      CODE     ---       #205
      00FF6F2DH   LINE      CODE     ---       #207
      00FF6F38H   LINE      CODE     ---       #208
      00FF6F4EH   LINE      CODE     ---       #209
      00FF6F59H   LINE      CODE     ---       #210
      ---         BLOCKEND  ---      ---       LVL=0
      00000881H   SYMBOL    EDATA    BYTE      bmp_data
      000106D7H   SYMBOL    XDATA    BYTE      y
      00000882H   SYMBOL    EDATA    BYTE      x
      00000847H   SYMBOL    EDATA    BYTE      x
      00000848H   SYMBOL    EDATA    BYTE      y
      00000849H   SYMBOL    EDATA    BYTE      data1
      00000883H   SYMBOL    EDATA    BYTE      x
      00000884H   SYMBOL    EDATA    BYTE      y
      00000681H   SYMBOL    EDATA    BYTE      x
      00000682H   SYMBOL    EDATA    BYTE      y
      00000683H   SYMBOL    EDATA    ---       ch
      000106D8H   SYMBOL    XDATA    BYTE      c
      00000687H   SYMBOL    EDATA    BYTE      i
      00000688H   SYMBOL    EDATA    BYTE      j
      00000689H   SYMBOL    EDATA    BYTE      x
      0000068AH   SYMBOL    EDATA    BYTE      y
      0000068BH   SYMBOL    EDATA    ---       ch
      000106D9H   SYMBOL    XDATA    BYTE      c
      0000068FH   SYMBOL    EDATA    BYTE      i
      00000690H   SYMBOL    EDATA    BYTE      j
      0000050CH   SYMBOL    EDATA    BYTE      x
      0000050DH   SYMBOL    EDATA    BYTE      y
      0000050EH   SYMBOL    EDATA    WORD      num
      00000510H   SYMBOL    EDATA    ---       ch
      00000517H   SYMBOL    EDATA    BYTE      x
      00000518H   SYMBOL    EDATA    BYTE      y
      00000519H   SYMBOL    EDATA    INT       num
      0000051BH   SYMBOL    EDATA    ---       ch
      0000029EH   SYMBOL    EDATA    WORD      x
      000002A0H   SYMBOL    EDATA    WORD      y
      000002A2H   SYMBOL    EDATA    LONG      dat
      000002A6H   SYMBOL    EDATA    BYTE      num
      000002A7H   SYMBOL    EDATA    ---       buff
      000002C9H   SYMBOL    EDATA    BYTE      length
      0000023EH   SYMBOL    EDATA    WORD      x
      00000240H   SYMBOL    EDATA    WORD      y
      00000242H   SYMBOL    EDATA    FLOAT     dat
      00000246H   SYMBOL    EDATA    BYTE      num
      00000247H   SYMBOL    EDATA    BYTE      pointnum
      00000248H   SYMBOL    EDATA    BYTE      length
      00000249H   SYMBOL    EDATA    ---       buff
      0000026BH   SYMBOL    EDATA    CHAR      start
L251 LINKER/LOCATER V4.66.93.0                                                        04/10/2024  20:12:08  PAGE 81


      0000026CH   SYMBOL    EDATA    CHAR      end
      0000026DH   SYMBOL    EDATA    CHAR      point
      00000411H   SYMBOL    EDATA    WORD      high
      00000413H   SYMBOL    EDATA    WORD      width
      00000415H   SYMBOL    EDATA    ---       p
      00000419H   SYMBOL    EDATA    BYTE      value
      0000041AH   SYMBOL    EDATA    WORD      i
      000106B9H   SYMBOL    XDATA    WORD      j
      0000041CH   SYMBOL    EDATA    WORD      temp
      0000041EH   SYMBOL    EDATA    WORD      temp1
      00000420H   SYMBOL    EDATA    BYTE      dat
      0000045CH   SYMBOL    EDATA    BYTE      x
      0000045DH   SYMBOL    EDATA    BYTE      y
      0000045EH   SYMBOL    EDATA    BYTE      size
      0000045FH   SYMBOL    EDATA    ---       p
      00000463H   SYMBOL    EDATA    BYTE      len
      00000464H   SYMBOL    EDATA    WORD      i
      00000466H   SYMBOL    EDATA    WORD      j
      00000468H   SYMBOL    EDATA    WORD      k

      00FF73A4H   BLOCK     CODE     ---       LVL=0
      000008AFH   SYMBOL    EDATA    BYTE      dat
      00FF73A4H   LINE      CODE     ---       #534
      00FF73A8H   LINE      CODE     ---       #536
      00FF73ABH   LINE      CODE     ---       #537
      00FF73AEH   LINE      CODE     ---       #538
      00FF73B5H   LINE      CODE     ---       #539
      00FF73B8H   LINE      CODE     ---       #542
      ---         BLOCKEND  ---      ---       LVL=0

      00FF738FH   BLOCK     CODE     ---       LVL=0
      000008B0H   SYMBOL    EDATA    BYTE      cmd
      00FF738FH   LINE      CODE     ---       #576
      00FF7393H   LINE      CODE     ---       #578
      00FF7396H   LINE      CODE     ---       #579
      00FF7399H   LINE      CODE     ---       #580
      00FF73A0H   LINE      CODE     ---       #581
      00FF73A3H   LINE      CODE     ---       #582
      ---         BLOCKEND  ---      ---       LVL=0
      0000078FH   SYMBOL    EDATA    WORD      hex
      00000791H   SYMBOL    EDATA    ---       Print
      000106BBH   SYMBOL    XDATA    BYTE      hexcheck
      000106BCH   SYMBOL    XDATA    BYTE      TEMP

      00FF5D8DH   BLOCK     CODE     ---       LVL=0
      00FF5D8DH   LINE      CODE     ---       #614
      00FF5D8DH   LINE      CODE     ---       #617
      00FF5D90H   LINE      CODE     ---       #619
      00FF5DB0H   LINE      CODE     ---       #621
      00FF5DB3H   LINE      CODE     ---       #622
      00FF5DBAH   LINE      CODE     ---       #623
      00FF5DBDH   LINE      CODE     ---       #625
      00FF5DC2H   LINE      CODE     ---       #626
      00FF5DC6H   LINE      CODE     ---       #627
      00FF5DCBH   LINE      CODE     ---       #628
      00FF5DD0H   LINE      CODE     ---       #629
      00FF5DD5H   LINE      CODE     ---       #630
      00FF5DDAH   LINE      CODE     ---       #633
      00FF5DDFH   LINE      CODE     ---       #634
      00FF5DE4H   LINE      CODE     ---       #640
      00FF5DE9H   LINE      CODE     ---       #641
      00FF5DEEH   LINE      CODE     ---       #642
      00FF5DF3H   LINE      CODE     ---       #643
      00FF5DF8H   LINE      CODE     ---       #644
      00FF5DFCH   LINE      CODE     ---       #645
L251 LINKER/LOCATER V4.66.93.0                                                        04/10/2024  20:12:08  PAGE 82


      00FF5E01H   LINE      CODE     ---       #646
      00FF5E06H   LINE      CODE     ---       #647
      00FF5E0BH   LINE      CODE     ---       #648
      00FF5E10H   LINE      CODE     ---       #649
      00FF5E15H   LINE      CODE     ---       #650
      00FF5E1AH   LINE      CODE     ---       #651
      00FF5E1FH   LINE      CODE     ---       #652
      00FF5E24H   LINE      CODE     ---       #653
      00FF5E29H   LINE      CODE     ---       #654
      00FF5E2EH   LINE      CODE     ---       #655
      00FF5E33H   LINE      CODE     ---       #656
      00FF5E38H   LINE      CODE     ---       #657
      00FF5E3DH   LINE      CODE     ---       #658
      00FF5E42H   LINE      CODE     ---       #659
      00FF5E47H   LINE      CODE     ---       #660
      00FF5E4BH   LINE      CODE     ---       #661
      00FF5E51H   LINE      CODE     ---       #662
      ---         BLOCKEND  ---      ---       LVL=0

      00FF6E85H   BLOCK     CODE     ---       LVL=0
      00000885H   SYMBOL    EDATA    BYTE      x
      00000886H   SYMBOL    EDATA    BYTE      y
      00FF6E85H   LINE      CODE     ---       #672
      00FF6E8DH   LINE      CODE     ---       #676
      00FF6E98H   LINE      CODE     ---       #677
      00FF6EAFH   LINE      CODE     ---       #678
      00FF6EBAH   LINE      CODE     ---       #679
      ---         BLOCKEND  ---      ---       LVL=0

      00FF6722H   BLOCK     CODE     ---       LVL=0
      00000887H   SYMBOL    EDATA    BYTE      bmp_data
      00FF6726H   BLOCK     CODE     NEAR LAB  LVL=1
      000106DAH   SYMBOL    XDATA    BYTE      y
      00000888H   SYMBOL    EDATA    BYTE      x
      ---         BLOCKEND  ---      ---       LVL=1
      00FF6722H   LINE      CODE     ---       #688
      00FF6726H   LINE      CODE     ---       #689
      00FF6726H   LINE      CODE     ---       #692
      00FF672DH   LINE      CODE     ---       #694
      00FF673AH   LINE      CODE     ---       #695
      00FF673FH   LINE      CODE     ---       #696
      00FF6744H   LINE      CODE     ---       #697
      00FF6769H   LINE      CODE     ---       #698
      00FF6780H   LINE      CODE     ---       #699
      ---         BLOCKEND  ---      ---       LVL=0
      0000084AH   SYMBOL    EDATA    BYTE      x
      0000084BH   SYMBOL    EDATA    BYTE      y
      0000084CH   SYMBOL    EDATA    BYTE      data1
      00000889H   SYMBOL    EDATA    BYTE      x
      0000088AH   SYMBOL    EDATA    BYTE      y

      00FF5BEDH   BLOCK     CODE     ---       LVL=0
      00000691H   SYMBOL    EDATA    BYTE      x
      00000692H   SYMBOL    EDATA    BYTE      y
      00000693H   SYMBOL    EDATA    ---       ch
      00FF5BF9H   BLOCK     CODE     NEAR LAB  LVL=1
      000106DBH   SYMBOL    XDATA    BYTE      c
      00000697H   SYMBOL    EDATA    BYTE      i
      00000698H   SYMBOL    EDATA    BYTE      j
      ---         BLOCKEND  ---      ---       LVL=1
      00FF5BEDH   LINE      CODE     ---       #748
      00FF5BF9H   LINE      CODE     ---       #749
      00FF5BF9H   LINE      CODE     ---       #750
      00FF5C08H   LINE      CODE     ---       #751
      00FF5C0BH   LINE      CODE     ---       #753
L251 LINKER/LOCATER V4.66.93.0                                                        04/10/2024  20:12:08  PAGE 83


      00FF5C26H   LINE      CODE     ---       #754
      00FF5C42H   LINE      CODE     ---       #755
      00FF5C4DH   LINE      CODE     ---       #756
      00FF5C8EH   LINE      CODE     ---       #757
      00FF5C9AH   LINE      CODE     ---       #758
      00FF5CA7H   LINE      CODE     ---       #759
      00FF5CBEH   LINE      CODE     ---       #760
      ---         BLOCKEND  ---      ---       LVL=0
      00000699H   SYMBOL    EDATA    BYTE      x
      0000069AH   SYMBOL    EDATA    BYTE      y
      0000069BH   SYMBOL    EDATA    ---       ch
      000106DCH   SYMBOL    XDATA    BYTE      c
      0000069FH   SYMBOL    EDATA    BYTE      i
      000006A0H   SYMBOL    EDATA    BYTE      j
      00000522H   SYMBOL    EDATA    BYTE      x
      00000523H   SYMBOL    EDATA    BYTE      y
      00000524H   SYMBOL    EDATA    WORD      num
      00000526H   SYMBOL    EDATA    ---       ch
      0000052DH   SYMBOL    EDATA    BYTE      x
      0000052EH   SYMBOL    EDATA    BYTE      y
      0000052FH   SYMBOL    EDATA    INT       num
      00000531H   SYMBOL    EDATA    ---       ch
      000002CAH   SYMBOL    EDATA    WORD      x
      000002CCH   SYMBOL    EDATA    WORD      y
      000002CEH   SYMBOL    EDATA    LONG      dat
      000002D2H   SYMBOL    EDATA    BYTE      num
      000002D3H   SYMBOL    EDATA    ---       buff
      000002F5H   SYMBOL    EDATA    BYTE      length

      00FF5991H   BLOCK     CODE     ---       LVL=0
      0000026EH   SYMBOL    EDATA    WORD      x
      00000270H   SYMBOL    EDATA    WORD      y
      00000272H   SYMBOL    EDATA    FLOAT     dat
      00000276H   SYMBOL    EDATA    BYTE      num
      00000277H   SYMBOL    EDATA    BYTE      pointnum
      00FF59A1H   BLOCK     CODE     NEAR LAB  LVL=1
      00000278H   SYMBOL    EDATA    BYTE      length
      00000279H   SYMBOL    EDATA    ---       buff
      0000029BH   SYMBOL    EDATA    CHAR      start
      0000029CH   SYMBOL    EDATA    CHAR      end
      0000029DH   SYMBOL    EDATA    CHAR      point
      ---         BLOCKEND  ---      ---       LVL=1
      00FF5991H   LINE      CODE     ---       #881
      00FF59A1H   LINE      CODE     ---       #882
      00FF59A1H   LINE      CODE     ---       #887
      00FF59B1H   LINE      CODE     ---       #888
      00FF59C1H   LINE      CODE     ---       #890
      00FF59E9H   LINE      CODE     ---       #893
      00FF5A04H   LINE      CODE     ---       #894
      00FF5A11H   LINE      CODE     ---       #895
      00FF5A11H   LINE      CODE     ---       #896
      00FF5A21H   LINE      CODE     ---       #897
      00FF5A39H   LINE      CODE     ---       #898
      00FF5A51H   LINE      CODE     ---       #899
      00FF5A53H   LINE      CODE     ---       #901
      00FF5A64H   LINE      CODE     ---       #902
      00FF5A71H   LINE      CODE     ---       #903
      00FF5A7EH   LINE      CODE     ---       #904
      00FF5A87H   LINE      CODE     ---       #906
      00FF5AA5H   LINE      CODE     ---       #907
      00FF5AB6H   LINE      CODE     ---       #909
      00FF5AC6H   LINE      CODE     ---       #911
      00FF5AD5H   LINE      CODE     ---       #912
      ---         BLOCKEND  ---      ---       LVL=0
      00000421H   SYMBOL    EDATA    WORD      high
L251 LINKER/LOCATER V4.66.93.0                                                        04/10/2024  20:12:08  PAGE 84


      00000423H   SYMBOL    EDATA    WORD      width
      00000425H   SYMBOL    EDATA    ---       p
      00000429H   SYMBOL    EDATA    BYTE      value
      000106BDH   SYMBOL    XDATA    WORD      i
      0000042AH   SYMBOL    EDATA    WORD      j
      0000042CH   SYMBOL    EDATA    WORD      temp
      0000042EH   SYMBOL    EDATA    WORD      temp1
      00000430H   SYMBOL    EDATA    BYTE      dat
      0000046AH   SYMBOL    EDATA    BYTE      x
      0000046BH   SYMBOL    EDATA    BYTE      y
      0000046CH   SYMBOL    EDATA    BYTE      size
      0000046DH   SYMBOL    EDATA    ---       p
      00000471H   SYMBOL    EDATA    BYTE      len
      00000472H   SYMBOL    EDATA    WORD      i
      00000474H   SYMBOL    EDATA    WORD      j
      00000476H   SYMBOL    EDATA    WORD      k

      ---         MODULE    ---      ---       SEEKFREE_PRINTF
      00FF5AD6H   PUBLIC    CODE     ---       number_conversion_ascii
      00FF41CDH   PUBLIC    CODE     ---       zf_sprintf
      00FF6030H   PUBLIC    CODE     ---       printf_reverse_order
      000003B9H   PUBLIC    EDATA    BYTE      ?number_conversion_ascii?BYTE
      000001ADH   PUBLIC    EDATA    BYTE      ?zf_sprintf?BYTE
      000000D0H   SFRSYM    DATA     BYTE      PSW
      0000009DH   SFRSYM    DATA     BYTE      IRCBAND
      00000097H   SFRSYM    DATA     BYTE      AUXR2
      000000EFH   SFRSYM    DATA     BYTE      AUXINTIF
      000000FDH   SFRSYM    DATA     BYTE      S4CON
      000000ACH   SFRSYM    DATA     BYTE      S3CON
      0000009AH   SFRSYM    DATA     BYTE      S2CON
      000000B7H   SFRSYM    DATA     BYTE      IPH
      000000CDH   SFRSYM    DATA     BYTE      SPSTAT
      000000DDH   SFRSYM    DATA     BYTE      T4T3M
      000000C1H   SFRSYM    DATA     BYTE      WDT_CONTR
      000000DFH   SFRSYM    DATA     BYTE      IP3
      000000F4H   SFRSYM    DATA     BYTE      USBCON
      000000B5H   SFRSYM    DATA     BYTE      IP2
      000000FFH   SFRSYM    DATA     BYTE      RSTCFG
      000000F9H   SFRSYM    DATA     BYTE      LINICR
      0000008EH   SFRSYM    DATA     BYTE      AUXR
      000000AFH   SFRSYM    DATA     BYTE      IE2
      00000088H   SFRSYM    DATA     BYTE      TCON
      00000098H   SFRSYM    DATA     BYTE      SCON
      000000F1H   SFRSYM    DATA     BYTE      CANICR
      00000087H   SFRSYM    DATA     BYTE      PCON
      000000BCH   SFRSYM    DATA     BYTE      ADC_CONTR
      000000E7H   SFRSYM    DATA     BYTE      CMPCR2
      000000E6H   SFRSYM    DATA     BYTE      CMPCR1
      000000B8H   SFRSYM    DATA     BYTE      IP
      0000008FH   SFRSYM    DATA     BYTE      INTCLKO
      000000EEH   SFRSYM    DATA     BYTE      IP3H
      000000B6H   SFRSYM    DATA     BYTE      IP2H
      000000A8H   SFRSYM    DATA     BYTE      IE
      000000BBH   SFRSYM    DATA     BYTE      P_SW3
      000000BAH   SFRSYM    DATA     BYTE      P_SW2
      000000A2H   SFRSYM    DATA     BYTE      P_SW1
      000000CEH   SFRSYM    DATA     BYTE      SPCTL
      000000F8H   SFRSYM    DATA     BYTE      P7
      000000E8H   SFRSYM    DATA     BYTE      P6
      000000C8H   SFRSYM    DATA     BYTE      P5
      000000C0H   SFRSYM    DATA     BYTE      P4
      000000B0H   SFRSYM    DATA     BYTE      P3
      000000A0H   SFRSYM    DATA     BYTE      P2
      00000090H   SFRSYM    DATA     BYTE      P1
      00000080H   SFRSYM    DATA     BYTE      P0
L251 LINKER/LOCATER V4.66.93.0                                                        04/10/2024  20:12:08  PAGE 85



      00FF5AD6H   BLOCK     CODE     ---       LVL=0
      000003B9H   SYMBOL    EDATA    DWORD     dat
      000003BDH   SYMBOL    EDATA    ---       p
      000003C1H   SYMBOL    EDATA    BYTE      neg_type
      000003C2H   SYMBOL    EDATA    BYTE      radix
      00FF5AE2H   BLOCK     CODE     NEAR LAB  LVL=1
      000003C3H   SYMBOL    EDATA    LONG      neg_dat
      000003C7H   SYMBOL    EDATA    DWORD     pos_dat
      000003CBH   SYMBOL    EDATA    BYTE      temp_data
      000003CCH   SYMBOL    EDATA    BYTE      valid_num
      ---         BLOCKEND  ---      ---       LVL=1
      00FF5AD6H   LINE      CODE     ---       #29
      00FF5AE2H   LINE      CODE     ---       #30
      00FF5AE2H   LINE      CODE     ---       #33
      00FF5AE7H   LINE      CODE     ---       #34
      00FF5AECH   LINE      CODE     ---       #36
      00FF5AF5H   LINE      CODE     ---       #38
      00FF5AFDH   LINE      CODE     ---       #39
      00FF5B15H   LINE      CODE     ---       #40
      00FF5B15H   LINE      CODE     ---       #42
      00FF5B31H   LINE      CODE     ---       #43
      00FF5B44H   LINE      CODE     ---       #44
      00FF5B51H   LINE      CODE     ---       #46
      00FF5B59H   LINE      CODE     ---       #47
      00FF5B63H   LINE      CODE     ---       #48
      00FF5B65H   LINE      CODE     ---       #49
      00FF5B68H   LINE      CODE     ---       #52
      00FF5B70H   LINE      CODE     ---       #53
      00FF5B70H   LINE      CODE     ---       #55
      00FF5B85H   LINE      CODE     ---       #56
      00FF5B9DH   LINE      CODE     ---       #57
      00FF5BA9H   LINE      CODE     ---       #59
      00FF5BB4H   LINE      CODE     ---       #61
      00FF5BC7H   LINE      CODE     ---       #62
      00FF5BD4H   LINE      CODE     ---       #64
      00FF5BDCH   LINE      CODE     ---       #65
      00FF5BE6H   LINE      CODE     ---       #66
      00FF5BE8H   LINE      CODE     ---       #67
      00FF5BE8H   LINE      CODE     ---       #68
      00FF5BECH   LINE      CODE     ---       #69
      ---         BLOCKEND  ---      ---       LVL=0

      00FF6030H   BLOCK     CODE     ---       LVL=0
      00000493H   SYMBOL    EDATA    ---       d_buff
      00000497H   SYMBOL    EDATA    DWORD     len
      00FF6038H   BLOCK     CODE     NEAR LAB  LVL=1
      0000049BH   SYMBOL    EDATA    DWORD     i
      0000049FH   SYMBOL    EDATA    CHAR      temp_data
      ---         BLOCKEND  ---      ---       LVL=1
      00FF6030H   LINE      CODE     ---       #71
      00FF6038H   LINE      CODE     ---       #72
      00FF6038H   LINE      CODE     ---       #75
      00FF6040H   LINE      CODE     ---       #77
      00FF605FH   LINE      CODE     ---       #78
      00FF6089H   LINE      CODE     ---       #79
      00FF609CH   LINE      CODE     ---       #80
      00FF60C4H   LINE      CODE     ---       #81
      ---         BLOCKEND  ---      ---       LVL=0

      00FF41CDH   BLOCK     CODE     ---       LVL=0
      000001ADH   SYMBOL    EDATA    ---       buff
      000001B1H   SYMBOL    EDATA    ---       format
      00FF41D5H   BLOCK     CODE     NEAR LAB  LVL=1
      000001B5H   SYMBOL    EDATA    DWORD     buff_len
L251 LINKER/LOCATER V4.66.93.0                                                        04/10/2024  20:12:08  PAGE 86


      000001B9H   SYMBOL    EDATA    ---       arg
      00FF41EAH   BLOCK     CODE     NEAR LAB  LVL=2
      000001BDH   SYMBOL    EDATA    CHAR      ret
      00FF431FH   BLOCK     CODE     NEAR LAB  LVL=3
      000001BEH   SYMBOL    EDATA    CHAR      ch
      ---         BLOCKEND  ---      ---       LVL=3
      00FF435EH   BLOCK     CODE     NEAR LAB  LVL=3
      000001BEH   SYMBOL    EDATA    ---       vstr
      000001DFH   SYMBOL    EDATA    LONG      ival
      000001E3H   SYMBOL    EDATA    BYTE      vlen
      ---         BLOCKEND  ---      ---       LVL=3
      00FF43FFH   BLOCK     CODE     NEAR LAB  LVL=3
      000001BEH   SYMBOL    EDATA    ---       vstr
      000001DFH   SYMBOL    EDATA    FLOAT     ival
      000001E3H   SYMBOL    EDATA    BYTE      vlen
      ---         BLOCKEND  ---      ---       LVL=3
      00FF45A0H   BLOCK     CODE     NEAR LAB  LVL=3
      000001BEH   SYMBOL    EDATA    ---       vstr
      000001DFH   SYMBOL    EDATA    DWORD     ival
      000001E3H   SYMBOL    EDATA    BYTE      vlen
      ---         BLOCKEND  ---      ---       LVL=3
      00FF4618H   BLOCK     CODE     NEAR LAB  LVL=3
      000001BEH   SYMBOL    EDATA    ---       vstr
      000001DFH   SYMBOL    EDATA    DWORD     ival
      000001E3H   SYMBOL    EDATA    BYTE      vlen
      ---         BLOCKEND  ---      ---       LVL=3
      00FF4690H   BLOCK     CODE     NEAR LAB  LVL=3
      000001BEH   SYMBOL    EDATA    ---       vstr
      000001DFH   SYMBOL    EDATA    DWORD     ival
      000001E3H   SYMBOL    EDATA    BYTE      vlen
      ---         BLOCKEND  ---      ---       LVL=3
      00FF4708H   BLOCK     CODE     NEAR LAB  LVL=3
      000001BEH   SYMBOL    EDATA    ---       pc
      ---         BLOCKEND  ---      ---       LVL=3
      00FF4762H   BLOCK     CODE     NEAR LAB  LVL=3
      000001BEH   SYMBOL    EDATA    ---       vstr
      000001DFH   SYMBOL    EDATA    DWORD     ival
      ---         BLOCKEND  ---      ---       LVL=3
      ---         BLOCKEND  ---      ---       LVL=2
      ---         BLOCKEND  ---      ---       LVL=1
      00FF41CDH   LINE      CODE     ---       #216
      00FF41D5H   LINE      CODE     ---       #217
      00FF41D5H   LINE      CODE     ---       #218
      00FF41DBH   LINE      CODE     ---       #220
      00FF41E7H   LINE      CODE     ---       #222
      00FF41EAH   LINE      CODE     ---       #223
      00FF41EAH   LINE      CODE     ---       #224
      00FF41F5H   LINE      CODE     ---       #225
      00FF4201H   LINE      CODE     ---       #227
      00FF431CH   LINE      CODE     ---       #229
      00FF431CH   LINE      CODE     ---       #233
      00FF431FH   LINE      CODE     ---       #236
      00FF431FH   LINE      CODE     ---       #237
      00FF431FH   LINE      CODE     ---       #238
      00FF4338H   LINE      CODE     ---       #239
      00FF4343H   LINE      CODE     ---       #240
      00FF434DH   LINE      CODE     ---       #241
      00FF435BH   LINE      CODE     ---       #243
      00FF435EH   LINE      CODE     ---       #246
      00FF435EH   LINE      CODE     ---       #247
      00FF435EH   LINE      CODE     ---       #248
      00FF435EH   LINE      CODE     ---       #250
      00FF4377H   LINE      CODE     ---       #251
      00FF438EH   LINE      CODE     ---       #253
      00FF4398H   LINE      CODE     ---       #255
L251 LINKER/LOCATER V4.66.93.0                                                        04/10/2024  20:12:08  PAGE 87


      00FF43A9H   LINE      CODE     ---       #256
      00FF43B6H   LINE      CODE     ---       #257
      00FF43B6H   LINE      CODE     ---       #258
      00FF43C5H   LINE      CODE     ---       #259
      00FF43DAH   LINE      CODE     ---       #260
      00FF43EAH   LINE      CODE     ---       #261
      00FF43FCH   LINE      CODE     ---       #264
      00FF43FFH   LINE      CODE     ---       #266
      00FF43FFH   LINE      CODE     ---       #267
      00FF43FFH   LINE      CODE     ---       #268
      00FF43FFH   LINE      CODE     ---       #270
      00FF4418H   LINE      CODE     ---       #271
      00FF4432H   LINE      CODE     ---       #273
      00FF443DH   LINE      CODE     ---       #275
      00FF444EH   LINE      CODE     ---       #276
      00FF445BH   LINE      CODE     ---       #277
      00FF445BH   LINE      CODE     ---       #278
      00FF446AH   LINE      CODE     ---       #279
      00FF447FH   LINE      CODE     ---       #280
      00FF448FH   LINE      CODE     ---       #281
      00FF44A1H   LINE      CODE     ---       #283
      00FF44C5H   LINE      CODE     ---       #284
      00FF44C9H   LINE      CODE     ---       #286
      00FF44E3H   LINE      CODE     ---       #287
      00FF44E5H   LINE      CODE     ---       #290
      00FF4509H   LINE      CODE     ---       #291
      00FF450FH   LINE      CODE     ---       #292
      00FF450FH   LINE      CODE     ---       #294
      00FF4511H   LINE      CODE     ---       #296
      00FF4522H   LINE      CODE     ---       #297
      00FF452FH   LINE      CODE     ---       #298
      00FF4539H   LINE      CODE     ---       #300
      00FF454AH   LINE      CODE     ---       #301
      00FF4557H   LINE      CODE     ---       #303
      00FF4566H   LINE      CODE     ---       #304
      00FF457BH   LINE      CODE     ---       #305
      00FF458BH   LINE      CODE     ---       #306
      00FF459DH   LINE      CODE     ---       #308
      00FF45A0H   LINE      CODE     ---       #311
      00FF45A0H   LINE      CODE     ---       #312
      00FF45A0H   LINE      CODE     ---       #314
      00FF45B9H   LINE      CODE     ---       #315
      00FF45CFH   LINE      CODE     ---       #317
      00FF45DEH   LINE      CODE     ---       #318
      00FF45F3H   LINE      CODE     ---       #319
      00FF4603H   LINE      CODE     ---       #320
      00FF4615H   LINE      CODE     ---       #321
      00FF4618H   LINE      CODE     ---       #323
      00FF4618H   LINE      CODE     ---       #324
      00FF4618H   LINE      CODE     ---       #326
      00FF4631H   LINE      CODE     ---       #327
      00FF4647H   LINE      CODE     ---       #329
      00FF4656H   LINE      CODE     ---       #330
      00FF466BH   LINE      CODE     ---       #331
      00FF467BH   LINE      CODE     ---       #332
      00FF468DH   LINE      CODE     ---       #334
      00FF4690H   LINE      CODE     ---       #336
      00FF4690H   LINE      CODE     ---       #337
      00FF4690H   LINE      CODE     ---       #338
      00FF4690H   LINE      CODE     ---       #340
      00FF46A9H   LINE      CODE     ---       #341
      00FF46BFH   LINE      CODE     ---       #343
      00FF46CEH   LINE      CODE     ---       #344
      00FF46E3H   LINE      CODE     ---       #345
      00FF46F3H   LINE      CODE     ---       #346
L251 LINKER/LOCATER V4.66.93.0                                                        04/10/2024  20:12:08  PAGE 88


      00FF4705H   LINE      CODE     ---       #347
      00FF4708H   LINE      CODE     ---       #350
      00FF4708H   LINE      CODE     ---       #351
      00FF4708H   LINE      CODE     ---       #352
      00FF4721H   LINE      CODE     ---       #353
      00FF4723H   LINE      CODE     ---       #355
      00FF4731H   LINE      CODE     ---       #356
      00FF473BH   LINE      CODE     ---       #357
      00FF4749H   LINE      CODE     ---       #358
      00FF4753H   LINE      CODE     ---       #359
      00FF475FH   LINE      CODE     ---       #360
      00FF4762H   LINE      CODE     ---       #362
      00FF4762H   LINE      CODE     ---       #363
      00FF4762H   LINE      CODE     ---       #365
      00FF477BH   LINE      CODE     ---       #367
      00FF478DH   LINE      CODE     ---       #369
      00FF4798H   LINE      CODE     ---       #370
      00FF47ABH   LINE      CODE     ---       #371
      00FF47B7H   LINE      CODE     ---       #372
      00FF47C5H   LINE      CODE     ---       #374
      00FF47C7H   LINE      CODE     ---       #377
      00FF47C7H   LINE      CODE     ---       #379
      00FF47D0H   LINE      CODE     ---       #380
      00FF47DAH   LINE      CODE     ---       #381
      00FF47E8H   LINE      CODE     ---       #382
      00FF47EAH   LINE      CODE     ---       #384
      00FF47EAH   LINE      CODE     ---       #385
      00FF47EAH   LINE      CODE     ---       #386
      00FF47EAH   LINE      CODE     ---       #389
      00FF47F8H   LINE      CODE     ---       #390
      00FF4802H   LINE      CODE     ---       #391
      00FF4810H   LINE      CODE     ---       #392
      00FF4810H   LINE      CODE     ---       #393
      00FF481AH   LINE      CODE     ---       #394
      00FF4829H   LINE      CODE     ---       #397
      00FF482DH   LINE      CODE     ---       #398
      ---         BLOCKEND  ---      ---       LVL=0

      ---         MODULE    ---      ---       SEEKFREE_TSL1401
      00010000H   PUBLIC    XDATA    BYTE      tsl1401_finish_flag
      00010001H   PUBLIC    XDATA    ---       ccd_data_ch1
      00010101H   PUBLIC    XDATA    ---       ccd_data_ch2
      000000D0H   SFRSYM    DATA     BYTE      PSW
      0000009DH   SFRSYM    DATA     BYTE      IRCBAND
      00000097H   SFRSYM    DATA     BYTE      AUXR2
      000000EFH   SFRSYM    DATA     BYTE      AUXINTIF
      000000FDH   SFRSYM    DATA     BYTE      S4CON
      000000ACH   SFRSYM    DATA     BYTE      S3CON
      0000009AH   SFRSYM    DATA     BYTE      S2CON
      000000B7H   SFRSYM    DATA     BYTE      IPH
      000000CDH   SFRSYM    DATA     BYTE      SPSTAT
      000000DDH   SFRSYM    DATA     BYTE      T4T3M
      000000C1H   SFRSYM    DATA     BYTE      WDT_CONTR
      000000DFH   SFRSYM    DATA     BYTE      IP3
      000000F4H   SFRSYM    DATA     BYTE      USBCON
      000000B5H   SFRSYM    DATA     BYTE      IP2
      000000FFH   SFRSYM    DATA     BYTE      RSTCFG
      000000F9H   SFRSYM    DATA     BYTE      LINICR
      0000008EH   SFRSYM    DATA     BYTE      AUXR
      000000AFH   SFRSYM    DATA     BYTE      IE2
      000000B0H.7 SFRSYM    DATA     BIT       P37
      000000B0H.6 SFRSYM    DATA     BIT       P36
      00000088H   SFRSYM    DATA     BYTE      TCON
      00000098H   SFRSYM    DATA     BYTE      SCON
      000000F1H   SFRSYM    DATA     BYTE      CANICR
L251 LINKER/LOCATER V4.66.93.0                                                        04/10/2024  20:12:08  PAGE 89


      00000087H   SFRSYM    DATA     BYTE      PCON
      000000BCH   SFRSYM    DATA     BYTE      ADC_CONTR
      000000E7H   SFRSYM    DATA     BYTE      CMPCR2
      000000E6H   SFRSYM    DATA     BYTE      CMPCR1
      000000B8H   SFRSYM    DATA     BYTE      IP
      0000008FH   SFRSYM    DATA     BYTE      INTCLKO
      000000EEH   SFRSYM    DATA     BYTE      IP3H
      000000B6H   SFRSYM    DATA     BYTE      IP2H
      000000A8H   SFRSYM    DATA     BYTE      IE
      000000BBH   SFRSYM    DATA     BYTE      P_SW3
      000000BAH   SFRSYM    DATA     BYTE      P_SW2
      000000A2H   SFRSYM    DATA     BYTE      P_SW1
      000000CEH   SFRSYM    DATA     BYTE      SPCTL
      000000F8H   SFRSYM    DATA     BYTE      P7
      000000E8H   SFRSYM    DATA     BYTE      P6
      000000C8H   SFRSYM    DATA     BYTE      P5
      000000C0H   SFRSYM    DATA     BYTE      P4
      000000B0H   SFRSYM    DATA     BYTE      P3
      000000A0H   SFRSYM    DATA     BYTE      P2
      00000090H   SFRSYM    DATA     BYTE      P1
      00000080H   SFRSYM    DATA     BYTE      P0
      000006C7H   SYMBOL    EDATA    INT       uart_n
      000006C9H   SYMBOL    EDATA    ---       dat
      000006CDH   SYMBOL    EDATA    BYTE      i
      000008B1H   SYMBOL    EDATA    BYTE      i

      ---         MODULE    ---      ---       SEEKFREE_VIRSCO
      0000057EH   PUBLIC    EDATA    ---       virtual_scope_data
      00000478H   PUBLIC    EDATA    BYTE      ?data_conversion?BYTE
      000000D0H   SFRSYM    DATA     BYTE      PSW
      0000009DH   SFRSYM    DATA     BYTE      IRCBAND
      00000097H   SFRSYM    DATA     BYTE      AUXR2
      000000EFH   SFRSYM    DATA     BYTE      AUXINTIF
      000000FDH   SFRSYM    DATA     BYTE      S4CON
      000000ACH   SFRSYM    DATA     BYTE      S3CON
      0000009AH   SFRSYM    DATA     BYTE      S2CON
      000000B7H   SFRSYM    DATA     BYTE      IPH
      000000CDH   SFRSYM    DATA     BYTE      SPSTAT
      000000DDH   SFRSYM    DATA     BYTE      T4T3M
      000000C1H   SFRSYM    DATA     BYTE      WDT_CONTR
      000000DFH   SFRSYM    DATA     BYTE      IP3
      000000F4H   SFRSYM    DATA     BYTE      USBCON
      000000B5H   SFRSYM    DATA     BYTE      IP2
      000000FFH   SFRSYM    DATA     BYTE      RSTCFG
      000000F9H   SFRSYM    DATA     BYTE      LINICR
      0000008EH   SFRSYM    DATA     BYTE      AUXR
      000000AFH   SFRSYM    DATA     BYTE      IE2
      00000088H   SFRSYM    DATA     BYTE      TCON
      00000098H   SFRSYM    DATA     BYTE      SCON
      000000F1H   SFRSYM    DATA     BYTE      CANICR
      00000087H   SFRSYM    DATA     BYTE      PCON
      000000BCH   SFRSYM    DATA     BYTE      ADC_CONTR
      000000E7H   SFRSYM    DATA     BYTE      CMPCR2
      000000E6H   SFRSYM    DATA     BYTE      CMPCR1
      000000B8H   SFRSYM    DATA     BYTE      IP
      0000008FH   SFRSYM    DATA     BYTE      INTCLKO
      000000EEH   SFRSYM    DATA     BYTE      IP3H
      000000B6H   SFRSYM    DATA     BYTE      IP2H
      000000A8H   SFRSYM    DATA     BYTE      IE
      000000BBH   SFRSYM    DATA     BYTE      P_SW3
      000000BAH   SFRSYM    DATA     BYTE      P_SW2
      000000A2H   SFRSYM    DATA     BYTE      P_SW1
      000000CEH   SFRSYM    DATA     BYTE      SPCTL
      000000F8H   SFRSYM    DATA     BYTE      P7
      000000E8H   SFRSYM    DATA     BYTE      P6
L251 LINKER/LOCATER V4.66.93.0                                                        04/10/2024  20:12:08  PAGE 90


      000000C8H   SFRSYM    DATA     BYTE      P5
      000000C0H   SFRSYM    DATA     BYTE      P4
      000000B0H   SFRSYM    DATA     BYTE      P3
      000000A0H   SFRSYM    DATA     BYTE      P2
      00000090H   SFRSYM    DATA     BYTE      P1
      00000080H   SFRSYM    DATA     BYTE      P0
      00000607H   SYMBOL    EDATA    ---       Buf
      0000060BH   SYMBOL    EDATA    BYTE      CRC_CNT
      0000060CH   SYMBOL    EDATA    WORD      CRC_Temp
      0000060EH   SYMBOL    EDATA    BYTE      i
      0000060FH   SYMBOL    EDATA    BYTE      j
      00000478H   SYMBOL    EDATA    INT       data1
      0000047AH   SYMBOL    EDATA    INT       data2
      0000047CH   SYMBOL    EDATA    INT       data3
      0000047EH   SYMBOL    EDATA    INT       data4
      00000480H   SYMBOL    EDATA    ---       dat
      00000484H   SYMBOL    EDATA    WORD      CRC16

      ---         MODULE    ---      ---       SEEKFREE_WIRELESS
      00FF71EAH   PUBLIC    CODE     ---       wireless_uart_callback
      000000D0H   SFRSYM    DATA     BYTE      PSW
      0000009DH   SFRSYM    DATA     BYTE      IRCBAND
      00000097H   SFRSYM    DATA     BYTE      AUXR2
      000000EFH   SFRSYM    DATA     BYTE      AUXINTIF
      000000FDH   SFRSYM    DATA     BYTE      S4CON
      000000ACH   SFRSYM    DATA     BYTE      S3CON
      0000009AH   SFRSYM    DATA     BYTE      S2CON
      000000FEH   SFRSYM    DATA     BYTE      S4BUF
      000000B7H   SFRSYM    DATA     BYTE      IPH
      000000CDH   SFRSYM    DATA     BYTE      SPSTAT
      000000DDH   SFRSYM    DATA     BYTE      T4T3M
      000000C1H   SFRSYM    DATA     BYTE      WDT_CONTR
      000000DFH   SFRSYM    DATA     BYTE      IP3
      000000F4H   SFRSYM    DATA     BYTE      USBCON
      000000B5H   SFRSYM    DATA     BYTE      IP2
      000000FFH   SFRSYM    DATA     BYTE      RSTCFG
      000000F9H   SFRSYM    DATA     BYTE      LINICR
      0000008EH   SFRSYM    DATA     BYTE      AUXR
      000000AFH   SFRSYM    DATA     BYTE      IE2
      00000080H.7 SFRSYM    DATA     BIT       P07
      00000088H   SFRSYM    DATA     BYTE      TCON
      00000098H   SFRSYM    DATA     BYTE      SCON
      000000F1H   SFRSYM    DATA     BYTE      CANICR
      00000087H   SFRSYM    DATA     BYTE      PCON
      000000BCH   SFRSYM    DATA     BYTE      ADC_CONTR
      000000E7H   SFRSYM    DATA     BYTE      CMPCR2
      000000E6H   SFRSYM    DATA     BYTE      CMPCR1
      000000B8H   SFRSYM    DATA     BYTE      IP
      0000008FH   SFRSYM    DATA     BYTE      INTCLKO
      000000EEH   SFRSYM    DATA     BYTE      IP3H
      000000B6H   SFRSYM    DATA     BYTE      IP2H
      000000A8H   SFRSYM    DATA     BYTE      IE
      000000BBH   SFRSYM    DATA     BYTE      P_SW3
      000000BAH   SFRSYM    DATA     BYTE      P_SW2
      000000A2H   SFRSYM    DATA     BYTE      P_SW1
      000000CEH   SFRSYM    DATA     BYTE      SPCTL
      000000F8H   SFRSYM    DATA     BYTE      P7
      000000E8H   SFRSYM    DATA     BYTE      P6
      000000C8H   SFRSYM    DATA     BYTE      P5
      000000C0H   SFRSYM    DATA     BYTE      P4
      000000B0H   SFRSYM    DATA     BYTE      P3
      000000A0H   SFRSYM    DATA     BYTE      P2
      00000090H   SFRSYM    DATA     BYTE      P1
      00000080H   SFRSYM    DATA     BYTE      P0
      000103C8H   SYMBOL    XDATA    BYTE      wireless_uart_data
L251 LINKER/LOCATER V4.66.93.0                                                        04/10/2024  20:12:08  PAGE 91


      000103C9H   SYMBOL    XDATA    ---       wireless_uart_fifo
      000103E0H   SYMBOL    XDATA    ---       wireless_uart_buffer

      00FF71EAH   BLOCK     CODE     ---       LVL=0
      00FF71EAH   LINE      CODE     ---       #48
      00FF71EAH   LINE      CODE     ---       #51
      00FF71F0H   LINE      CODE     ---       #52
      00FF720BH   LINE      CODE     ---       #53
      ---         BLOCKEND  ---      ---       LVL=0
      000006A1H   SYMBOL    EDATA    ---       buff
      000006A5H   SYMBOL    EDATA    DWORD     len
      000006A9H   SYMBOL    EDATA    ---       buff
      000006ADH   SYMBOL    EDATA    DWORD     len
      0001066FH   SYMBOL    XDATA    DWORD     data_len

      ---         MODULE    ---      ---       SEEKFREE_WIRELESS_CH573
      00FF720CH   PUBLIC    CODE     ---       wireless_ch573_callback
      000000D0H   SFRSYM    DATA     BYTE      PSW
      0000009DH   SFRSYM    DATA     BYTE      IRCBAND
      00000097H   SFRSYM    DATA     BYTE      AUXR2
      000000EFH   SFRSYM    DATA     BYTE      AUXINTIF
      000000FDH   SFRSYM    DATA     BYTE      S4CON
      000000ACH   SFRSYM    DATA     BYTE      S3CON
      0000009AH   SFRSYM    DATA     BYTE      S2CON
      000000FEH   SFRSYM    DATA     BYTE      S4BUF
      000000B7H   SFRSYM    DATA     BYTE      IPH
      000000CDH   SFRSYM    DATA     BYTE      SPSTAT
      000000DDH   SFRSYM    DATA     BYTE      T4T3M
      000000C1H   SFRSYM    DATA     BYTE      WDT_CONTR
      000000DFH   SFRSYM    DATA     BYTE      IP3
      000000F4H   SFRSYM    DATA     BYTE      USBCON
      000000B5H   SFRSYM    DATA     BYTE      IP2
      000000FFH   SFRSYM    DATA     BYTE      RSTCFG
      000000F9H   SFRSYM    DATA     BYTE      LINICR
      0000008EH   SFRSYM    DATA     BYTE      AUXR
      000000AFH   SFRSYM    DATA     BYTE      IE2
      00000080H.7 SFRSYM    DATA     BIT       P07
      00000088H   SFRSYM    DATA     BYTE      TCON
      00000098H   SFRSYM    DATA     BYTE      SCON
      000000F1H   SFRSYM    DATA     BYTE      CANICR
      00000087H   SFRSYM    DATA     BYTE      PCON
      000000BCH   SFRSYM    DATA     BYTE      ADC_CONTR
      000000E7H   SFRSYM    DATA     BYTE      CMPCR2
      000000E6H   SFRSYM    DATA     BYTE      CMPCR1
      000000B8H   SFRSYM    DATA     BYTE      IP
      0000008FH   SFRSYM    DATA     BYTE      INTCLKO
      000000EEH   SFRSYM    DATA     BYTE      IP3H
      000000B6H   SFRSYM    DATA     BYTE      IP2H
      000000A8H   SFRSYM    DATA     BYTE      IE
      000000BBH   SFRSYM    DATA     BYTE      P_SW3
      000000BAH   SFRSYM    DATA     BYTE      P_SW2
      000000A2H   SFRSYM    DATA     BYTE      P_SW1
      000000CEH   SFRSYM    DATA     BYTE      SPCTL
      000000F8H   SFRSYM    DATA     BYTE      P7
      000000E8H   SFRSYM    DATA     BYTE      P6
      000000C8H   SFRSYM    DATA     BYTE      P5
      000000C0H   SFRSYM    DATA     BYTE      P4
      000000B0H   SFRSYM    DATA     BYTE      P3
      000000A0H   SFRSYM    DATA     BYTE      P2
      00000090H   SFRSYM    DATA     BYTE      P1
      00000080H   SFRSYM    DATA     BYTE      P0
      00010420H   SYMBOL    XDATA    ---       wireless_ch573_buffer
      00010460H   SYMBOL    XDATA    BYTE      wireless_ch573_data
      00010461H   SYMBOL    XDATA    ---       wireless_ch573_fifo

L251 LINKER/LOCATER V4.66.93.0                                                        04/10/2024  20:12:08  PAGE 92


      00FF720CH   BLOCK     CODE     ---       LVL=0
      00FF720CH   LINE      CODE     ---       #47
      00FF720CH   LINE      CODE     ---       #50
      00FF7212H   LINE      CODE     ---       #51
      00FF722DH   LINE      CODE     ---       #52
      ---         BLOCKEND  ---      ---       LVL=0
      00000795H   SYMBOL    EDATA    ---       buff
      00000799H   SYMBOL    EDATA    WORD      len
      000006B1H   SYMBOL    EDATA    ---       buff
      000006B5H   SYMBOL    EDATA    DWORD     len
      00010673H   SYMBOL    XDATA    DWORD     data_len

      ---         MODULE    ---      ---       isr
      00FF7182H   PUBLIC    CODE     ---       UART1_Isr
      00FF72D1H   PUBLIC    CODE     ---       UART2_Isr
      00FF72EFH   PUBLIC    CODE     ---       UART3_Isr
      00FF623BH   PUBLIC    CODE     ---       UART4_Isr
      000000D0H   SFRSYM    DATA     BYTE      PSW
      0000009DH   SFRSYM    DATA     BYTE      IRCBAND
      00000097H   SFRSYM    DATA     BYTE      AUXR2
      000000EFH   SFRSYM    DATA     BYTE      AUXINTIF
      000000FDH   SFRSYM    DATA     BYTE      S4CON
      000000ACH   SFRSYM    DATA     BYTE      S3CON
      0000009AH   SFRSYM    DATA     BYTE      S2CON
      000000B7H   SFRSYM    DATA     BYTE      IPH
      000000CDH   SFRSYM    DATA     BYTE      SPSTAT
      000000DDH   SFRSYM    DATA     BYTE      T4T3M
      000000C1H   SFRSYM    DATA     BYTE      WDT_CONTR
      000000DFH   SFRSYM    DATA     BYTE      IP3
      000000F4H   SFRSYM    DATA     BYTE      USBCON
      000000B5H   SFRSYM    DATA     BYTE      IP2
      000000FFH   SFRSYM    DATA     BYTE      RSTCFG
      000000F9H   SFRSYM    DATA     BYTE      LINICR
      0000008EH   SFRSYM    DATA     BYTE      AUXR
      000000AFH   SFRSYM    DATA     BYTE      IE2
      00000088H   SFRSYM    DATA     BYTE      TCON
      00000098H   SFRSYM    DATA     BYTE      SCON
      000000F1H   SFRSYM    DATA     BYTE      CANICR
      00000087H   SFRSYM    DATA     BYTE      PCON
      00000099H   SFRSYM    DATA     BYTE      SBUF
      000000BCH   SFRSYM    DATA     BYTE      ADC_CONTR
      000000E7H   SFRSYM    DATA     BYTE      CMPCR2
      000000E6H   SFRSYM    DATA     BYTE      CMPCR1
      000000B8H   SFRSYM    DATA     BYTE      IP
      0000008FH   SFRSYM    DATA     BYTE      INTCLKO
      000000EEH   SFRSYM    DATA     BYTE      IP3H
      000000B6H   SFRSYM    DATA     BYTE      IP2H
      000000A8H   SFRSYM    DATA     BYTE      IE
      000000BBH   SFRSYM    DATA     BYTE      P_SW3
      000000BAH   SFRSYM    DATA     BYTE      P_SW2
      000000A2H   SFRSYM    DATA     BYTE      P_SW1
      000000CEH   SFRSYM    DATA     BYTE      SPCTL
      000000F8H   SFRSYM    DATA     BYTE      P7
      000000E8H   SFRSYM    DATA     BYTE      P6
      000000C8H   SFRSYM    DATA     BYTE      P5
      000000C0H   SFRSYM    DATA     BYTE      P4
      000000B0H   SFRSYM    DATA     BYTE      P3
      000000A0H   SFRSYM    DATA     BYTE      P2
      00000090H   SFRSYM    DATA     BYTE      P1
      00000080H   SFRSYM    DATA     BYTE      P0

      00FF7182H   BLOCK     CODE     ---       LVL=0
      00FF7186H   BLOCK     CODE     NEAR LAB  LVL=1
      000008B2H   SYMBOL    EDATA    BYTE      res
      ---         BLOCKEND  ---      ---       LVL=1
L251 LINKER/LOCATER V4.66.93.0                                                        04/10/2024  20:12:08  PAGE 93


      00FF7182H   LINE      CODE     ---       #35
      00FF7186H   LINE      CODE     ---       #36
      00FF7186H   LINE      CODE     ---       #39
      00FF718BH   LINE      CODE     ---       #41
      00FF718EH   LINE      CODE     ---       #42
      00FF7193H   LINE      CODE     ---       #43
      00FF7193H   LINE      CODE     ---       #44
      00FF7198H   LINE      CODE     ---       #46
      00FF719BH   LINE      CODE     ---       #47
      00FF71A1H   LINE      CODE     ---       #48
      ---         BLOCKEND  ---      ---       LVL=0

      00FF72D1H   BLOCK     CODE     ---       LVL=0
      00FF72D1H   LINE      CODE     ---       #52
      00FF72D5H   LINE      CODE     ---       #54
      00FF72DAH   LINE      CODE     ---       #56
      00FF72DDH   LINE      CODE     ---       #57
      00FF72E2H   LINE      CODE     ---       #58
      00FF72E2H   LINE      CODE     ---       #59
      00FF72E7H   LINE      CODE     ---       #61
      00FF72EAH   LINE      CODE     ---       #64
      ---         BLOCKEND  ---      ---       LVL=0

      00FF72EFH   BLOCK     CODE     ---       LVL=0
      00FF72EFH   LINE      CODE     ---       #69
      00FF72F3H   LINE      CODE     ---       #71
      00FF72F8H   LINE      CODE     ---       #73
      00FF72FBH   LINE      CODE     ---       #74
      00FF7300H   LINE      CODE     ---       #75
      00FF7300H   LINE      CODE     ---       #76
      00FF7305H   LINE      CODE     ---       #78
      00FF7308H   LINE      CODE     ---       #81
      ---         BLOCKEND  ---      ---       LVL=0

      00FF623BH   BLOCK     CODE     ---       LVL=0
      00FF623BH   LINE      CODE     ---       #86
      00FF6251H   LINE      CODE     ---       #88
      00FF6256H   LINE      CODE     ---       #90
      00FF6259H   LINE      CODE     ---       #91
      00FF625EH   LINE      CODE     ---       #92
      00FF625EH   LINE      CODE     ---       #93
      00FF6263H   LINE      CODE     ---       #95
      00FF6266H   LINE      CODE     ---       #98
      00FF6272H   LINE      CODE     ---       #100
      00FF6275H   LINE      CODE     ---       #101
      00FF6277H   LINE      CODE     ---       #102
      00FF6283H   LINE      CODE     ---       #104
      00FF6286H   LINE      CODE     ---       #105
      00FF6288H   LINE      CODE     ---       #106
      00FF6294H   LINE      CODE     ---       #108
      00FF6297H   LINE      CODE     ---       #109
      00FF6297H   LINE      CODE     ---       #111
      ---         BLOCKEND  ---      ---       LVL=0

      ---         MODULE    ---      ---       main
      00FF6F5AH   PUBLIC    CODE     ---       laser_ranging_uart_init
      00FF66C1H   PUBLIC    CODE     ---       main
      00FF730DH   PUBLIC    CODE     ---       gpio_init
      00FF6B2CH   PUBLIC    CODE     ---       motor_drivers_pwm_init
      000000D0H   SFRSYM    DATA     BYTE      PSW
      0000009DH   SFRSYM    DATA     BYTE      IRCBAND
      00000097H   SFRSYM    DATA     BYTE      AUXR2
      000000EFH   SFRSYM    DATA     BYTE      AUXINTIF
      000000FDH   SFRSYM    DATA     BYTE      S4CON
      000000ACH   SFRSYM    DATA     BYTE      S3CON
L251 LINKER/LOCATER V4.66.93.0                                                        04/10/2024  20:12:08  PAGE 94


      0000009AH   SFRSYM    DATA     BYTE      S2CON
      000000B7H   SFRSYM    DATA     BYTE      IPH
      000000CDH   SFRSYM    DATA     BYTE      SPSTAT
      000000DDH   SFRSYM    DATA     BYTE      T4T3M
      000000C1H   SFRSYM    DATA     BYTE      WDT_CONTR
      000000DFH   SFRSYM    DATA     BYTE      IP3
      000000F4H   SFRSYM    DATA     BYTE      USBCON
      000000B5H   SFRSYM    DATA     BYTE      IP2
      000000FFH   SFRSYM    DATA     BYTE      RSTCFG
      000000F9H   SFRSYM    DATA     BYTE      LINICR
      0000008EH   SFRSYM    DATA     BYTE      AUXR
      000000AFH   SFRSYM    DATA     BYTE      IE2
      00000088H   SFRSYM    DATA     BYTE      TCON
      00000098H   SFRSYM    DATA     BYTE      SCON
      000000F1H   SFRSYM    DATA     BYTE      CANICR
      00000087H   SFRSYM    DATA     BYTE      PCON
      000000BCH   SFRSYM    DATA     BYTE      ADC_CONTR
      000000E7H   SFRSYM    DATA     BYTE      CMPCR2
      000000E6H   SFRSYM    DATA     BYTE      CMPCR1
      000000B8H   SFRSYM    DATA     BYTE      IP
      0000008FH   SFRSYM    DATA     BYTE      INTCLKO
      000000EEH   SFRSYM    DATA     BYTE      IP3H
      000000B6H   SFRSYM    DATA     BYTE      IP2H
      000000A8H   SFRSYM    DATA     BYTE      IE
      000000BBH   SFRSYM    DATA     BYTE      P_SW3
      000000BAH   SFRSYM    DATA     BYTE      P_SW2
      000000A2H   SFRSYM    DATA     BYTE      P_SW1
      000000CEH   SFRSYM    DATA     BYTE      SPCTL
      000000F8H   SFRSYM    DATA     BYTE      P7
      000000E8H   SFRSYM    DATA     BYTE      P6
      000000C8H   SFRSYM    DATA     BYTE      P5
      000000C0H   SFRSYM    DATA     BYTE      P4
      000000B0H   SFRSYM    DATA     BYTE      P3
      000000A0H   SFRSYM    DATA     BYTE      P2
      00000090H   SFRSYM    DATA     BYTE      P1
      00000080H   SFRSYM    DATA     BYTE      P0

      00FF730DH   BLOCK     CODE     ---       LVL=0
      00FF730DH   LINE      CODE     ---       #9
      00FF730DH   LINE      CODE     ---       #11
      00FF7318H   LINE      CODE     ---       #12
      00FF7323H   LINE      CODE     ---       #13
      ---         BLOCKEND  ---      ---       LVL=0

      00FF6B2CH   BLOCK     CODE     ---       LVL=0
      00FF6B2CH   LINE      CODE     ---       #15
      00FF6B2CH   LINE      CODE     ---       #18
      00FF6B3FH   LINE      CODE     ---       #19
      00FF6B52H   LINE      CODE     ---       #20
      00FF6B65H   LINE      CODE     ---       #21
      00FF6B78H   LINE      CODE     ---       #22
      ---         BLOCKEND  ---      ---       LVL=0

      00FF6F5AH   BLOCK     CODE     ---       LVL=0
      00FF6F5AH   LINE      CODE     ---       #33
      00FF6F5AH   LINE      CODE     ---       #35
      00FF6F73H   LINE      CODE     ---       #36
      00FF6F8EH   LINE      CODE     ---       #37
      ---         BLOCKEND  ---      ---       LVL=0

      00FF66C1H   BLOCK     CODE     ---       LVL=0
      00FF66C1H   LINE      CODE     ---       #39
      00FF66C1H   LINE      CODE     ---       #41
      00FF66C4H   LINE      CODE     ---       #42
      00FF66C7H   LINE      CODE     ---       #43
L251 LINKER/LOCATER V4.66.93.0                                                        04/10/2024  20:12:08  PAGE 95


      00FF66CAH   LINE      CODE     ---       #44
      00FF66D8H   LINE      CODE     ---       #45
      00FF66E7H   LINE      CODE     ---       #46
      00FF66EAH   LINE      CODE     ---       #52
      00FF66EDH   LINE      CODE     ---       #54
      00FF66F0H   LINE      CODE     ---       #55
      00FF66F3H   LINE      CODE     ---       #57
      00FF66FCH   LINE      CODE     ---       #58
      00FF66FCH   LINE      CODE     ---       #60
      00FF66FFH   LINE      CODE     ---       #61
      00FF6702H   LINE      CODE     ---       #62
      00FF6705H   LINE      CODE     ---       #63
      00FF6708H   LINE      CODE     ---       #64
      00FF671FH   LINE      CODE     ---       #104
      00FF6721H   LINE      CODE     ---       #105
      ---         BLOCKEND  ---      ---       LVL=0

      ---         MODULE    ---      ---       motor_driver_boards
      000000D0H   SFRSYM    DATA     BYTE      PSW
      0000009DH   SFRSYM    DATA     BYTE      IRCBAND
      00000097H   SFRSYM    DATA     BYTE      AUXR2
      000000EFH   SFRSYM    DATA     BYTE      AUXINTIF
      000000FDH   SFRSYM    DATA     BYTE      S4CON
      000000ACH   SFRSYM    DATA     BYTE      S3CON
      0000009AH   SFRSYM    DATA     BYTE      S2CON
      000000B7H   SFRSYM    DATA     BYTE      IPH
      000000CDH   SFRSYM    DATA     BYTE      SPSTAT
      000000DDH   SFRSYM    DATA     BYTE      T4T3M
      000000C1H   SFRSYM    DATA     BYTE      WDT_CONTR
      000000DFH   SFRSYM    DATA     BYTE      IP3
      000000F4H   SFRSYM    DATA     BYTE      USBCON
      000000B5H   SFRSYM    DATA     BYTE      IP2
      000000FFH   SFRSYM    DATA     BYTE      RSTCFG
      000000F9H   SFRSYM    DATA     BYTE      LINICR
      000000C0H.5 SFRSYM    DATA     BIT       gpio_wheel_y_front_counterclockwise
      000000C0H.6 SFRSYM    DATA     BIT       gpio_wheel_y_rear_counterclockwise
      0000008EH   SFRSYM    DATA     BYTE      AUXR
      000000C0H.1 SFRSYM    DATA     BIT       gpio_wheel_x_front_counterclockwise
      000000C0H.2 SFRSYM    DATA     BIT       gpio_wheel_x_rear_counterclockwise
      000000AFH   SFRSYM    DATA     BYTE      IE2
      000000C0H.4 SFRSYM    DATA     BIT       gpio_wheel_y_front_clockwise
      000000C0H.7 SFRSYM    DATA     BIT       gpio_wheel_y_rear_clockwise
      000000C0H.0 SFRSYM    DATA     BIT       gpio_wheel_x_front_clockwise
      000000C0H.3 SFRSYM    DATA     BIT       gpio_wheel_x_rear_clockwise
      00000088H   SFRSYM    DATA     BYTE      TCON
      00000098H   SFRSYM    DATA     BYTE      SCON
      000000F1H   SFRSYM    DATA     BYTE      CANICR
      00000087H   SFRSYM    DATA     BYTE      PCON
      000000BCH   SFRSYM    DATA     BYTE      ADC_CONTR
      000000E7H   SFRSYM    DATA     BYTE      CMPCR2
      000000E6H   SFRSYM    DATA     BYTE      CMPCR1
      000000B8H   SFRSYM    DATA     BYTE      IP
      0000008FH   SFRSYM    DATA     BYTE      INTCLKO
      000000EEH   SFRSYM    DATA     BYTE      IP3H
      000000B6H   SFRSYM    DATA     BYTE      IP2H
      000000A8H   SFRSYM    DATA     BYTE      IE
      000000BBH   SFRSYM    DATA     BYTE      P_SW3
      000000BAH   SFRSYM    DATA     BYTE      P_SW2
      000000A2H   SFRSYM    DATA     BYTE      P_SW1
      000000CEH   SFRSYM    DATA     BYTE      SPCTL
      000000F8H   SFRSYM    DATA     BYTE      P7
      000000E8H   SFRSYM    DATA     BYTE      P6
      000000C8H   SFRSYM    DATA     BYTE      P5
      000000C0H   SFRSYM    DATA     BYTE      P4
      000000B0H   SFRSYM    DATA     BYTE      P3
L251 LINKER/LOCATER V4.66.93.0                                                        04/10/2024  20:12:08  PAGE 96


      000000A0H   SFRSYM    DATA     BYTE      P2
      00000090H   SFRSYM    DATA     BYTE      P1
      00000080H   SFRSYM    DATA     BYTE      P0

      ---         MODULE    ---      ---       laser_ranging
      00FF6147H   PUBLIC    CODE     ---       laser_ranging
      00FF6E4EH   PUBLIC    CODE     ---       laser_ranging_init
      00000021H   PUBLIC    EDATA    ---       lrcmd_setrange_10m
      00000026H   PUBLIC    EDATA    ---       laser_ranging_cmd_arr_shutdown
      0000002AH   PUBLIC    EDATA    ---       lrcmd_setrange_30m
      0000002FH   PUBLIC    EDATA    ---       lrcmd_setrange_50m
      00000034H   PUBLIC    EDATA    ---       laser_ranging_cmd_arr_single
      00000038H   PUBLIC    EDATA    ---       lrcmd_setrange_80m
      0000003DH   PUBLIC    EDATA    ---       lrcmd_readcache
      00000042H   PUBLIC    EDATA    ---       lrcmd_setresolution_1mm
      00000047H   PUBLIC    EDATA    ---       laser_ranging_cmd_arr_setrange_10m
      0000004CH   PUBLIC    EDATA    ---       laser_ranging_cmd_arr_setrange_30m
      00000051H   PUBLIC    EDATA    ---       laser_ranging_cmd_arr_setrange_50m
      00000056H   PUBLIC    EDATA    ---       lrcmd_single_broadcast
      0000005BH   PUBLIC    EDATA    ---       laser_ranging_cmd_arr_setrange_80m
      00000060H   PUBLIC    EDATA    ---       laser_ranging_cmd_arr_readcache
      00000064H   PUBLIC    EDATA    ---       lrcmd_setfreq_10hz
      00000069H   PUBLIC    EDATA    ---       laser_ranging_cmd_arr_setresolution_1mm
      0000006EH   PUBLIC    EDATA    ---       lrcmd_setfreq_20hz
      00000073H   PUBLIC    EDATA    ---       lrcmd_setresolution_0_1mm
      00000078H   PUBLIC    EDATA    ---       laser_ranging_cmd_arr_single_broadcast
      0000007CH   PUBLIC    EDATA    ---       laser_ranging_cmd_arr_setfreq_10hz
      00000081H   PUBLIC    EDATA    ---       laser_ranging_cmd_arr_setfreq_20hz
      00000086H   PUBLIC    EDATA    ---       laser_ranging_cmd_arr_setresolution_0_1mm
      0000008BH   PUBLIC    EDATA    ---       lrcmd_laseroff
      00000090H   PUBLIC    EDATA    ---       lrcmd_setrange_5m
      00000095H   PUBLIC    EDATA    ---       laser_ranging_cmd_arr_laseroff
      0000009AH   PUBLIC    EDATA    ---       lrcmd_continous
      0000009FH   PUBLIC    EDATA    ---       laser_ranging_cmd_arr_setrange_5m
      000000A4H   PUBLIC    EDATA    ---       lrcmd_setfreq_1hz
      000000A9H   PUBLIC    EDATA    ---       laser_ranging_cmd_arr_continous
      000000ADH   PUBLIC    EDATA    ---       lrcmd_setfreq_5hz
      000000B2H   PUBLIC    EDATA    ---       lrcmd_laseron
      000000B7H   PUBLIC    EDATA    ---       laser_ranging_cmd_arr_setfreq_1hz
      000000BCH   PUBLIC    EDATA    ---       lrcmd_shutdown
      000000C1H   PUBLIC    EDATA    ---       laser_ranging_cmd_arr_setfreq_5hz
      000000C6H   PUBLIC    EDATA    ---       lrdata
      000000EEH   PUBLIC    EDATA    ---       lrcmd_single
      000000F3H   PUBLIC    EDATA    ---       laser_ranging_cmd_arr_laseron
      000000D0H   SFRSYM    DATA     BYTE      PSW
      0000009DH   SFRSYM    DATA     BYTE      IRCBAND
      00000097H   SFRSYM    DATA     BYTE      AUXR2
      000000EFH   SFRSYM    DATA     BYTE      AUXINTIF
      000000FDH   SFRSYM    DATA     BYTE      S4CON
      000000ACH   SFRSYM    DATA     BYTE      S3CON
      0000009AH   SFRSYM    DATA     BYTE      S2CON
      000000B7H   SFRSYM    DATA     BYTE      IPH
      000000CDH   SFRSYM    DATA     BYTE      SPSTAT
      000000DDH   SFRSYM    DATA     BYTE      T4T3M
      000000C1H   SFRSYM    DATA     BYTE      WDT_CONTR
      000000DFH   SFRSYM    DATA     BYTE      IP3
      000000F4H   SFRSYM    DATA     BYTE      USBCON
      000000B5H   SFRSYM    DATA     BYTE      IP2
      000000FFH   SFRSYM    DATA     BYTE      RSTCFG
      000000F9H   SFRSYM    DATA     BYTE      LINICR
      0000008EH   SFRSYM    DATA     BYTE      AUXR
      000000AFH   SFRSYM    DATA     BYTE      IE2
      00000088H   SFRSYM    DATA     BYTE      TCON
      00000098H   SFRSYM    DATA     BYTE      SCON
      000000F1H   SFRSYM    DATA     BYTE      CANICR
L251 LINKER/LOCATER V4.66.93.0                                                        04/10/2024  20:12:08  PAGE 97


      00000087H   SFRSYM    DATA     BYTE      PCON
      000000BCH   SFRSYM    DATA     BYTE      ADC_CONTR
      000000E7H   SFRSYM    DATA     BYTE      CMPCR2
      000000E6H   SFRSYM    DATA     BYTE      CMPCR1
      000000B8H   SFRSYM    DATA     BYTE      IP
      0000008FH   SFRSYM    DATA     BYTE      INTCLKO
      000000EEH   SFRSYM    DATA     BYTE      IP3H
      000000B6H   SFRSYM    DATA     BYTE      IP2H
      000000A8H   SFRSYM    DATA     BYTE      IE
      000000BBH   SFRSYM    DATA     BYTE      P_SW3
      000000BAH   SFRSYM    DATA     BYTE      P_SW2
      000000A2H   SFRSYM    DATA     BYTE      P_SW1
      000000CEH   SFRSYM    DATA     BYTE      SPCTL
      000000F8H   SFRSYM    DATA     BYTE      P7
      000000E8H   SFRSYM    DATA     BYTE      P6
      000000C8H   SFRSYM    DATA     BYTE      P5
      000000C0H   SFRSYM    DATA     BYTE      P4
      000000B0H   SFRSYM    DATA     BYTE      P3
      000000A0H   SFRSYM    DATA     BYTE      P2
      00000090H   SFRSYM    DATA     BYTE      P1
      00000080H   SFRSYM    DATA     BYTE      P0
      000008B4H   SYMBOL    EDATA    BYTE      lr_axis

      00FF6147H   BLOCK     CODE     ---       LVL=0
      000007D7H   SYMBOL    EDATA    BYTE      lr_axis
      000007D8H   SYMBOL    EDATA    ---       specific_cmd
      00FF6147H   LINE      CODE     ---       #150
      00FF614FH   LINE      CODE     ---       #153
      00FF615AH   LINE      CODE     ---       #155
      00FF615AH   LINE      CODE     ---       #156
      00FF617BH   LINE      CODE     ---       #157
      00FF617DH   LINE      CODE     ---       #159
      00FF617DH   LINE      CODE     ---       #160
      00FF61A0H   LINE      CODE     ---       #161
      00FF61A2H   LINE      CODE     ---       #163
      00FF61A2H   LINE      CODE     ---       #164
      00FF61C5H   LINE      CODE     ---       #165
      00FF61C5H   LINE      CODE     ---       #167
      00FF61C5H   LINE      CODE     ---       #168
      00FF61C5H   LINE      CODE     ---       #169
      00FF61C5H   LINE      CODE     ---       #170
      ---         BLOCKEND  ---      ---       LVL=0

      00FF6E4EH   BLOCK     CODE     ---       LVL=0
      00FF6E4EH   LINE      CODE     ---       #172
      00FF6E4EH   LINE      CODE     ---       #174
      00FF6E57H   LINE      CODE     ---       #175
      00FF6E60H   LINE      CODE     ---       #176
      00FF6E69H   LINE      CODE     ---       #177
      00FF6E72H   LINE      CODE     ---       #178
      00FF6E7BH   LINE      CODE     ---       #179
      00FF6E84H   LINE      CODE     ---       #180
      ---         BLOCKEND  ---      ---       LVL=0

      ---         MODULE    ---      ---       key
      00FF7403H   PUBLIC    CODE     ---       keys_ui_init
      00FF0040H   PUBLIC    CODE     ---       key1_short_press
      00FF0041H   PUBLIC    CODE     ---       key2_short_press
      00FF0042H   PUBLIC    CODE     ---       key3_short_press
      00FF6DCBH   PUBLIC    CODE     ---       key4_short_press
      00FF6ADBH   PUBLIC    CODE     ---       key1_check
      00FF69E2H   PUBLIC    CODE     ---       key2_check
      00FF6A35H   PUBLIC    CODE     ---       key3_check
      00FF6A88H   PUBLIC    CODE     ---       key4_check
      00000020H.0 PUBLIC    BIT      BIT       LaserRanging_State
L251 LINKER/LOCATER V4.66.93.0                                                        04/10/2024  20:12:08  PAGE 98


      00000818H   PUBLIC    EDATA    BYTE      key1_up_store
      00000819H   PUBLIC    EDATA    BYTE      key2_up_store
      0000081AH   PUBLIC    EDATA    BYTE      key3_up_store
      0000081BH   PUBLIC    EDATA    BYTE      key4_up_store
      000000B0H.6 SFRSYM    DATA     BIT       key3
      000000B0H.5 SFRSYM    DATA     BIT       key2
      000000B0H.4 SFRSYM    DATA     BIT       key1
      000000D0H   SFRSYM    DATA     BYTE      PSW
      0000009DH   SFRSYM    DATA     BYTE      IRCBAND
      00000097H   SFRSYM    DATA     BYTE      AUXR2
      000000EFH   SFRSYM    DATA     BYTE      AUXINTIF
      000000FDH   SFRSYM    DATA     BYTE      S4CON
      000000ACH   SFRSYM    DATA     BYTE      S3CON
      0000009AH   SFRSYM    DATA     BYTE      S2CON
      000000B7H   SFRSYM    DATA     BYTE      IPH
      000000CDH   SFRSYM    DATA     BYTE      SPSTAT
      000000DDH   SFRSYM    DATA     BYTE      T4T3M
      000000C1H   SFRSYM    DATA     BYTE      WDT_CONTR
      000000DFH   SFRSYM    DATA     BYTE      IP3
      000000F4H   SFRSYM    DATA     BYTE      USBCON
      000000B5H   SFRSYM    DATA     BYTE      IP2
      000000FFH   SFRSYM    DATA     BYTE      RSTCFG
      000000F9H   SFRSYM    DATA     BYTE      LINICR
      0000008EH   SFRSYM    DATA     BYTE      AUXR
      000000AFH   SFRSYM    DATA     BYTE      IE2
      00000088H   SFRSYM    DATA     BYTE      TCON
      00000098H   SFRSYM    DATA     BYTE      SCON
      000000F1H   SFRSYM    DATA     BYTE      CANICR
      00000087H   SFRSYM    DATA     BYTE      PCON
      000000BCH   SFRSYM    DATA     BYTE      ADC_CONTR
      000000E7H   SFRSYM    DATA     BYTE      CMPCR2
      000000E6H   SFRSYM    DATA     BYTE      CMPCR1
      000000B8H   SFRSYM    DATA     BYTE      IP
      0000008FH   SFRSYM    DATA     BYTE      INTCLKO
      000000EEH   SFRSYM    DATA     BYTE      IP3H
      000000B6H   SFRSYM    DATA     BYTE      IP2H
      000000A8H   SFRSYM    DATA     BYTE      IE
      000000BBH   SFRSYM    DATA     BYTE      P_SW3
      000000BAH   SFRSYM    DATA     BYTE      P_SW2
      000000A2H   SFRSYM    DATA     BYTE      P_SW1
      000000CEH   SFRSYM    DATA     BYTE      SPCTL
      000000F8H   SFRSYM    DATA     BYTE      P7
      000000E8H   SFRSYM    DATA     BYTE      P6
      000000C8H   SFRSYM    DATA     BYTE      P5
      000000C0H   SFRSYM    DATA     BYTE      P4
      000000B0H   SFRSYM    DATA     BYTE      P3
      000000A0H   SFRSYM    DATA     BYTE      P2
      00000090H   SFRSYM    DATA     BYTE      P1
      00000080H   SFRSYM    DATA     BYTE      P0
      000000B0H.7 SFRSYM    DATA     BIT       key4

      00FF7403H   BLOCK     CODE     ---       LVL=0
      00FF7403H   LINE      CODE     ---       #11
      00FF7403H   LINE      CODE     ---       #14
      00FF7412H   LINE      CODE     ---       #15
      ---         BLOCKEND  ---      ---       LVL=0

      00FF0040H   BLOCK     CODE     ---       LVL=0
      00FF0040H   LINE      CODE     ---       #17
      00FF0040H   LINE      CODE     ---       #20
      ---         BLOCKEND  ---      ---       LVL=0

      00FF0041H   BLOCK     CODE     ---       LVL=0
      00FF0041H   LINE      CODE     ---       #22
      00FF0041H   LINE      CODE     ---       #25
L251 LINKER/LOCATER V4.66.93.0                                                        04/10/2024  20:12:08  PAGE 99


      ---         BLOCKEND  ---      ---       LVL=0

      00FF0042H   BLOCK     CODE     ---       LVL=0
      00FF0042H   LINE      CODE     ---       #27
      00FF0042H   LINE      CODE     ---       #30
      ---         BLOCKEND  ---      ---       LVL=0

      00FF6DCBH   BLOCK     CODE     ---       LVL=0
      00FF6DCBH   LINE      CODE     ---       #32
      00FF6DCBH   LINE      CODE     ---       #35
      00FF6DD4H   LINE      CODE     ---       #36
      00FF6DD7H   LINE      CODE     ---       #38
      00FF6DE6H   LINE      CODE     ---       #39
      00FF6DFBH   LINE      CODE     ---       #42
      00FF6DFDH   LINE      CODE     ---       #45
      00FF6E0CH   LINE      CODE     ---       #48
      00FF6E0CH   LINE      CODE     ---       #49
      ---         BLOCKEND  ---      ---       LVL=0

      00FF6ADBH   BLOCK     CODE     ---       LVL=0
      00FF6ADBH   LINE      CODE     ---       #51
      00FF6ADBH   LINE      CODE     ---       #53
      00FF6AEDH   LINE      CODE     ---       #55
      00FF6AF2H   LINE      CODE     ---       #56
      00FF6B01H   LINE      CODE     ---       #57
      00FF6B01H   LINE      CODE     ---       #58
      00FF6B13H   LINE      CODE     ---       #60
      00FF6B19H   LINE      CODE     ---       #61
      00FF6B1CH   LINE      CODE     ---       #62
      00FF6B2BH   LINE      CODE     ---       #63
      ---         BLOCKEND  ---      ---       LVL=0

      00FF69E2H   BLOCK     CODE     ---       LVL=0
      00FF69E2H   LINE      CODE     ---       #66
      00FF69E2H   LINE      CODE     ---       #68
      00FF69F4H   LINE      CODE     ---       #70
      00FF69F9H   LINE      CODE     ---       #71
      00FF6A09H   LINE      CODE     ---       #72
      00FF6A09H   LINE      CODE     ---       #73
      00FF6A1BH   LINE      CODE     ---       #75
      00FF6A21H   LINE      CODE     ---       #76
      00FF6A24H   LINE      CODE     ---       #77
      00FF6A34H   LINE      CODE     ---       #78
      ---         BLOCKEND  ---      ---       LVL=0

      00FF6A35H   BLOCK     CODE     ---       LVL=0
      00FF6A35H   LINE      CODE     ---       #81
      00FF6A35H   LINE      CODE     ---       #83
      00FF6A47H   LINE      CODE     ---       #85
      00FF6A4CH   LINE      CODE     ---       #86
      00FF6A5CH   LINE      CODE     ---       #87
      00FF6A5CH   LINE      CODE     ---       #88
      00FF6A6EH   LINE      CODE     ---       #90
      00FF6A74H   LINE      CODE     ---       #91
      00FF6A77H   LINE      CODE     ---       #92
      00FF6A87H   LINE      CODE     ---       #93
      ---         BLOCKEND  ---      ---       LVL=0

      00FF6A88H   BLOCK     CODE     ---       LVL=0
      00FF6A88H   LINE      CODE     ---       #96
      00FF6A88H   LINE      CODE     ---       #98
      00FF6A9AH   LINE      CODE     ---       #100
      00FF6A9FH   LINE      CODE     ---       #101
      00FF6AAFH   LINE      CODE     ---       #102
      00FF6AAFH   LINE      CODE     ---       #103
L251 LINKER/LOCATER V4.66.93.0                                                        04/10/2024  20:12:08  PAGE 100


      00FF6AC1H   LINE      CODE     ---       #105
      00FF6AC7H   LINE      CODE     ---       #106
      00FF6ACAH   LINE      CODE     ---       #107
      00FF6ADAH   LINE      CODE     ---       #108
      ---         BLOCKEND  ---      ---       LVL=0

      ---         MODULE    ---      ---       seekfree_assistant
      00010201H   PUBLIC    XDATA    ---       seekfree_assistant_oscilloscope_data
      0001023CH   PUBLIC    XDATA    ---       seekfree_assistant_parameter_update_flag
      00010244H   PUBLIC    XDATA    ---       seekfree_assistant_parameter
      00000431H   PUBLIC    EDATA    BYTE      ?seekfree_assistant_camera_data_send?BYTE
      00000588H   PUBLIC    EDATA    BYTE      ?seekfree_assistant_camera_information_config?BYTE
      0000033FH   PUBLIC    EDATA    BYTE      ?seekfree_assistant_camera_boundary_config?BYTE
      000000D0H   SFRSYM    DATA     BYTE      PSW
      0000009DH   SFRSYM    DATA     BYTE      IRCBAND
      00000097H   SFRSYM    DATA     BYTE      AUXR2
      000000EFH   SFRSYM    DATA     BYTE      AUXINTIF
      000000FDH   SFRSYM    DATA     BYTE      S4CON
      000000ACH   SFRSYM    DATA     BYTE      S3CON
      0000009AH   SFRSYM    DATA     BYTE      S2CON
      000000B7H   SFRSYM    DATA     BYTE      IPH
      000000CDH   SFRSYM    DATA     BYTE      SPSTAT
      000000DDH   SFRSYM    DATA     BYTE      T4T3M
      000000C1H   SFRSYM    DATA     BYTE      WDT_CONTR
      000000DFH   SFRSYM    DATA     BYTE      IP3
      000000F4H   SFRSYM    DATA     BYTE      USBCON
      000000B5H   SFRSYM    DATA     BYTE      IP2
      000000FFH   SFRSYM    DATA     BYTE      RSTCFG
      000000F9H   SFRSYM    DATA     BYTE      LINICR
      0000008EH   SFRSYM    DATA     BYTE      AUXR
      000000AFH   SFRSYM    DATA     BYTE      IE2
      00000088H   SFRSYM    DATA     BYTE      TCON
      00000098H   SFRSYM    DATA     BYTE      SCON
      000000F1H   SFRSYM    DATA     BYTE      CANICR
      00000087H   SFRSYM    DATA     BYTE      PCON
      000000BCH   SFRSYM    DATA     BYTE      ADC_CONTR
      000000E7H   SFRSYM    DATA     BYTE      CMPCR2
      000000E6H   SFRSYM    DATA     BYTE      CMPCR1
      000000B8H   SFRSYM    DATA     BYTE      IP
      0000008FH   SFRSYM    DATA     BYTE      INTCLKO
      000000EEH   SFRSYM    DATA     BYTE      IP3H
      000000B6H   SFRSYM    DATA     BYTE      IP2H
      000000A8H   SFRSYM    DATA     BYTE      IE
      000000BBH   SFRSYM    DATA     BYTE      P_SW3
      000000BAH   SFRSYM    DATA     BYTE      P_SW2
      000000A2H   SFRSYM    DATA     BYTE      P_SW1
      000000CEH   SFRSYM    DATA     BYTE      SPCTL
      000000F8H   SFRSYM    DATA     BYTE      P7
      000000E8H   SFRSYM    DATA     BYTE      P6
      000000C8H   SFRSYM    DATA     BYTE      P5
      000000C0H   SFRSYM    DATA     BYTE      P4
      000000B0H   SFRSYM    DATA     BYTE      P3
      000000A0H   SFRSYM    DATA     BYTE      P2
      00000090H   SFRSYM    DATA     BYTE      P1
      00000080H   SFRSYM    DATA     BYTE      P0
      000001E4H   SYMBOL    EDATA    ---       seekfree_assistant_camera_dot_data
      000001ECH   SYMBOL    EDATA    ---       seekfree_assistant_camera_buffer
      00000236H   SYMBOL    EDATA    ---       seekfree_assistant_camera_data
      00010225H   SYMBOL    XDATA    ---       seekfree_assistant_fifo
      00010264H   SYMBOL    XDATA    ---       seekfree_assistant_buffer
      00000610H   SYMBOL    EDATA    ---       buffer
      00000614H   SYMBOL    EDATA    DWORD     length
      00000618H   SYMBOL    EDATA    BYTE      temp_sum
      00000431H   SYMBOL    EDATA    INT       camera_type
      00000433H   SYMBOL    EDATA    ---       image_addr
L251 LINKER/LOCATER V4.66.93.0                                                        04/10/2024  20:12:08  PAGE 101


      00000437H   SYMBOL    EDATA    BYTE      boundary_num
      00000438H   SYMBOL    EDATA    WORD      width
      0000043AH   SYMBOL    EDATA    WORD      height
      0000043CH   SYMBOL    EDATA    DWORD     image_size
      00000588H   SYMBOL    EDATA    INT       camera_type
      0000058AH   SYMBOL    EDATA    ---       image_addr
      0000058EH   SYMBOL    EDATA    WORD      width
      00000590H   SYMBOL    EDATA    WORD      height
      000002F6H   SYMBOL    EDATA    ---       seekfree_assistant_oscilloscope
      000002FAH   SYMBOL    EDATA    BYTE      packet_size
      000002FBH   SYMBOL    EDATA    BYTE      i
      000002FCH   SYMBOL    EDATA    ---       temp_oscilloscope
      000006CEH   SYMBOL    EDATA    ---       buffer
      000006D2H   SYMBOL    EDATA    BYTE      i
      000006D3H   SYMBOL    EDATA    WORD      dot_bytes
      0000033FH   SYMBOL    EDATA    INT       boundary_type
      00000341H   SYMBOL    EDATA    WORD      dot_num
      00000343H   SYMBOL    EDATA    ---       dot_x1
      00000347H   SYMBOL    EDATA    ---       dot_x2
      0000034BH   SYMBOL    EDATA    ---       dot_x3
      0000034FH   SYMBOL    EDATA    ---       dot_y1
      00000353H   SYMBOL    EDATA    ---       dot_y2
      00000357H   SYMBOL    EDATA    ---       dot_y3
      0000035BH   SYMBOL    EDATA    BYTE      i
      0000035CH   SYMBOL    EDATA    BYTE      boundary_num
      0000035DH   SYMBOL    EDATA    BYTE      boundary_data_type
      000000F8H   SYMBOL    EDATA    BYTE      temp_sum
      000000F9H   SYMBOL    EDATA    DWORD     read_length
      000000FDH   SYMBOL    EDATA    ---       receive_packet
      00000101H   SYMBOL    EDATA    ---       temp_buffer
      00000181H   SYMBOL    EDATA    DWORD     i

      ---         MODULE    ---      ---       seekfree_assistant_inface
      0000081CH   PUBLIC    EDATA    ---       seekfree_assistant_receive
      0000081EH   PUBLIC    EDATA    ---       seekfree_assistant_transfer
      000000D0H   SFRSYM    DATA     BYTE      PSW
      0000009DH   SFRSYM    DATA     BYTE      IRCBAND
      00000097H   SFRSYM    DATA     BYTE      AUXR2
      000000EFH   SFRSYM    DATA     BYTE      AUXINTIF
      000000FDH   SFRSYM    DATA     BYTE      S4CON
      000000ACH   SFRSYM    DATA     BYTE      S3CON
      0000009AH   SFRSYM    DATA     BYTE      S2CON
      000000B7H   SFRSYM    DATA     BYTE      IPH
      000000CDH   SFRSYM    DATA     BYTE      SPSTAT
      000000DDH   SFRSYM    DATA     BYTE      T4T3M
      000000C1H   SFRSYM    DATA     BYTE      WDT_CONTR
      000000DFH   SFRSYM    DATA     BYTE      IP3
      000000F4H   SFRSYM    DATA     BYTE      USBCON
      000000B5H   SFRSYM    DATA     BYTE      IP2
      000000FFH   SFRSYM    DATA     BYTE      RSTCFG
      000000F9H   SFRSYM    DATA     BYTE      LINICR
      0000008EH   SFRSYM    DATA     BYTE      AUXR
      000000AFH   SFRSYM    DATA     BYTE      IE2
      00000088H   SFRSYM    DATA     BYTE      TCON
      00000098H   SFRSYM    DATA     BYTE      SCON
      000000F1H   SFRSYM    DATA     BYTE      CANICR
      00000087H   SFRSYM    DATA     BYTE      PCON
      000000BCH   SFRSYM    DATA     BYTE      ADC_CONTR
      000000E7H   SFRSYM    DATA     BYTE      CMPCR2
      000000E6H   SFRSYM    DATA     BYTE      CMPCR1
      000000B8H   SFRSYM    DATA     BYTE      IP
      0000008FH   SFRSYM    DATA     BYTE      INTCLKO
      000000EEH   SFRSYM    DATA     BYTE      IP3H
      000000B6H   SFRSYM    DATA     BYTE      IP2H
      000000A8H   SFRSYM    DATA     BYTE      IE
L251 LINKER/LOCATER V4.66.93.0                                                        04/10/2024  20:12:08  PAGE 102


      000000BBH   SFRSYM    DATA     BYTE      P_SW3
      000000BAH   SFRSYM    DATA     BYTE      P_SW2
      000000A2H   SFRSYM    DATA     BYTE      P_SW1
      000000CEH   SFRSYM    DATA     BYTE      SPCTL
      000000F8H   SFRSYM    DATA     BYTE      P7
      000000E8H   SFRSYM    DATA     BYTE      P6
      000000C8H   SFRSYM    DATA     BYTE      P5
      000000C0H   SFRSYM    DATA     BYTE      P4
      000000B0H   SFRSYM    DATA     BYTE      P3
      000000A0H   SFRSYM    DATA     BYTE      P2
      00000090H   SFRSYM    DATA     BYTE      P1
      00000080H   SFRSYM    DATA     BYTE      P0

      ---         MODULE    ---      ---       SEEKFREE_CONFIG
      00FF0096H   PUBLIC    CODE     ---       dl1b_default_configuration
      00FF011DH   PUBLIC    CODE     ---       imu660ra_config_file

      ---         MODULE    ---      ---       ?C?FPADD
      00FF2F2BH   PUBLIC    CODE     ---       ?C?FPADD
      00FF2F28H   PUBLIC    CODE     ---       ?C?FPSUB

      ---         MODULE    ---      ---       ?C?FPMUL
      00FF2FE3H   PUBLIC    CODE     ---       ?C?FPMUL

      ---         MODULE    ---      ---       ?C?FPDIV
      00FF3083H   PUBLIC    CODE     ---       ?C?FPDIV

      ---         MODULE    ---      ---       ?C?FPCMP
      00FF3106H   PUBLIC    CODE     ---       ?C?FPCMP
      00FF3104H   PUBLIC    CODE     ---       ?C?FPCMP3

      ---         MODULE    ---      ---       ?C?FCAST
      00FF3154H   PUBLIC    CODE     NEAR LAB  ?C?FCASTC
      00FF314FH   PUBLIC    CODE     NEAR LAB  ?C?FCASTI
      00FF314AH   PUBLIC    CODE     NEAR LAB  ?C?FCASTL

      ---         MODULE    ---      ---       ?C?CASTF
      00FF3187H   PUBLIC    CODE     NEAR LAB  ?C?CASTF

      ---         MODULE    ---      ---       PRINTF
      00FF31C4H   PUBLIC    CODE     NEAR LAB  PRINTF

      ---         MODULE    ---      ---       ?C?FPGETOPN
      00FF31F0H   PUBLIC    CODE     ---       ?C?FPGETOPN2
      00FF322DH   PUBLIC    CODE     ---       ?C?FPNANRESULT
      00FF3235H   PUBLIC    CODE     ---       ?C?FPOVERFLOW
      00FF3209H   PUBLIC    CODE     ---       ?C?FPRESULT
      00FF321FH   PUBLIC    CODE     ---       ?C?FPRESULT2
      00FF3232H   PUBLIC    CODE     ---       ?C?FPUNDERFLOW

      ---         MODULE    ---      ---       ?C?PRNFMT
      00FF326EH   PUBLIC    CODE     ---       ?C?PRNFMT

      ---         MODULE    ---      ---       ?C?FPCONVERT
      00FF368BH   PUBLIC    CODE     ---       ?C?FPCONVERT
      00FF3743H   PUBLIC    CODE     ---       ?C?FPROUND

      ---         MODULE    ---      ---       ?C?FTNPWR
      00FF37B6H   PUBLIC    CODE     ---       ?C?FTNPWR

      ---         MODULE    ---      ---       ?C_START
      00FF0000H   PUBLIC    CODE     ---       ?C?STARTUP
      00FF0000H   PUBLIC    CODE     ---       ?C_STARTUP

      ---         MODULE    ---      ---       ?C?INITEDATA
L251 LINKER/LOCATER V4.66.93.0                                                        04/10/2024  20:12:08  PAGE 103


      00FF62C3H   PUBLIC    CODE     ---       ?C?INITEDATA

      ---         MODULE    ---      ---       ?C?INITHDATA
      00FF62ECH   PUBLIC    CODE     ---       ?C?INITHDATA

      ---         MODULE    ---      ---       ?C?SIDIV
      00FF37EDH   PUBLIC    CODE     ---       ?C?SIDIV

      ---         MODULE    ---      ---       ?C?LMUL
      00FF381FH   PUBLIC    CODE     ---       ?C?LMUL

      ---         MODULE    ---      ---       ?C?LIMUL
      00FF3830H   PUBLIC    CODE     ---       ?C?LIMUL

      ---         MODULE    ---      ---       ?C?ULDIV
      00FF383BH   PUBLIC    CODE     NEAR LAB  ?C?ULDIV
      00FF3839H   PUBLIC    CODE     NEAR LAB  ?C?ULIDIV

      ---         MODULE    ---      ---       ?C?SLDIV
      00FF388CH   PUBLIC    CODE     NEAR LAB  ?C?SLDIV

      ---         MODULE    ---      ---       memcpy
      00FF715DH   PUBLIC    CODE     ---       memcpy?_

      ---         MODULE    ---      ---       memset

      ---         MODULE    ---      ---       ?C?INITEDATA_END
      00FF75EEH   PUBLIC    HCONST   WORD      ?C?INITEDATA_END

      ---         MODULE    ---      ---       ?C?INITHDATA_END
      00FF772EH   PUBLIC    HCONST   WORD      ?C?INITHDATA_END

Program Size: data=8.1 edata+hdata=2476 xdata=1757 const=931 code=29711
L251 RUN COMPLETE.  0 WARNING(S),  0 ERROR(S)
